 d2hackmap

 Timestamp is 68149909 (Fri May 02 18:06:01 2025)

 Preferred load address is 66600000

 Start         Length     Name                   Class
 0001:00000000 0005b1a8H .text                   CODE
 0001:0005b1a8 00000014H .text$yd                CODE
 0002:00000000 0000022cH .idata$5                DATA
 0002:0000022c 00000004H .CRT$XCA                DATA
 0002:00000230 00000004H .CRT$XCZ                DATA
 0002:00000234 00000004H .CRT$XIA                DATA
 0002:00000238 00000014H .CRT$XIC                DATA
 0002:0000024c 00000004H .CRT$XIZ                DATA
 0002:00000250 00000004H .CRT$XPA                DATA
 0002:00000254 00000004H .CRT$XPX                DATA
 0002:00000258 00000004H .CRT$XPXA               DATA
 0002:0000025c 00000004H .CRT$XPZ                DATA
 0002:00000260 00000004H .CRT$XTA                DATA
 0002:00000264 00000004H .CRT$XTZ                DATA
 0002:00000270 000110c0H .rdata                  DATA
 0002:00011330 000000dcH .rdata$r                DATA
 0002:00011410 0000000cH .rdata$sxdata           DATA
 0002:0001141c 00000004H .rtc$IAA                DATA
 0002:00011420 00000004H .rtc$IZZ                DATA
 0002:00011424 00000004H .rtc$TAA                DATA
 0002:00011428 00000004H .rtc$TZZ                DATA
 0002:00011430 00000734H .xdata$x                DATA
 0002:00011b64 00000050H .idata$2                DATA
 0002:00011bb4 00000014H .idata$3                DATA
 0002:00011bc8 0000022cH .idata$4                DATA
 0002:00011df4 00000996H .idata$6                DATA
 0002:00012790 000000b3H .edata                  DATA
 0003:00000000 00009708H .data                   DATA
 0003:00009720 002071a4H .bss                    DATA

  Address         Publics by Value              Rva+Base       Lib:Object

 0000:00000000       __except_list              00000000     <absolute>
 0000:00000003       ___safe_se_handler_count   00000003     <absolute>
 0000:00000000       ___ImageBase               66600000     <linker-defined>
 0001:00000000       ?bitstream_init@@YAXPAUbitstream@@PAX1@Z 66601000 f   bitstream.obj
 0001:00000040       ?bitstream_seek@@YAXPAUbitstream@@H@Z 66601040 f   bitstream.obj
 0001:00000080       ?bitstream_rbit@@YAHPAUbitstream@@H@Z 66601080 f   bitstream.obj
 0001:00000170       ?bitstream_wbit@@YAHPAUbitstream@@IH@Z 66601170 f   bitstream.obj
 0001:00000250       ?bitstream_wbit_done@@YAXPAUbitstream@@@Z 66601250 f   bitstream.obj
 0001:000002d0       ?compareConfigVar@@YAHPBX0@Z 666012d0 f   config.obj
 0001:000002f0       ?compareSymbol@@YAHPBX0@Z  666012f0 f   config.obj
 0001:00000310       ?findConfigVar@@YAPAUConfigVar@@PAD@Z 66601310 f   config.obj
 0001:00000400       ?addConfigVar@@YAXPAUConfigVar@@@Z 66601400 f   config.obj
 0001:00000470       ?FixValues@@YAXXZ          66601470 f   config.obj
 0001:000004b0       ?formatKey@@YAXPADH@Z      666014b0 f   config.obj
 0001:00000550       ?formatKeyW@@YAXPA_WH@Z    66601550 f   config.obj
 0001:00000680       ?setupKey@@YAXPAUToggleVar@@@Z 66601680 f   config.obj
 0001:000006d0       ?addExtraKey@@YAPAUToggleVar@@H@Z 666016d0 f   config.obj
 0001:00000730       ?InitKeyEvent@@YAXXZ       66601730 f   config.obj
 0001:00000ae0       ?AddWarningMessage@@YAXPADH@Z 66601ae0 f   config.obj
 0001:00000c20       ?ShowWarningMessage@@YAXXZ 66601c20 f   config.obj
 0001:00000c80       ?isquote@@YADD@Z           66601c80 f   config.obj
 0001:00000cb0       ?filterSpace@@YAXPAD@Z     66601cb0 f   config.obj
 0001:00000d70       ?splitLine@@YAXPADPAPAD1@Z 66601d70 f   config.obj
 0001:00000e40       ?strchr@@YAPADPADH@Z       66601e40 f i config.obj
 0001:00000e60       ?strrchr@@YAPADPADH@Z      66601e60 f i config.obj
 0001:00000e80       ?findSymbol@@YAPAUSymbol@@PAD@Z 66601e80 f   config.obj
 0001:00000f40       ?doneNameValues@@YAXXZ     66601f40 f   config.obj
 0001:00000ff0       ?addNameValue@@YAXPAD0@Z   66601ff0 f   config.obj
 0001:00001080       ?replaceSymbols@@YAPADPAD@Z 66602080 f   config.obj
 0001:00001420       ?ConvertToWString@@YAHPA_WPADH@Z 66602420 f   config.obj
 0001:00001450       ?ConvertToD2String@@YAXPA_WPADH@Z 66602450 f   config.obj
 0001:000015a0       ?StoreArrayConfig@@YAHPAUConfigVar@@HHPAD1HH@Z 666025a0 f   config.obj
 0001:00001ac0       ?StoreConfig@@YAXPAUConfigVar@@PAD1@Z 66602ac0 f   config.obj
 0001:00002ee0       ?LoadConfigFile@@YAHPADH@Z 66603ee0 f   config.obj
 0001:00003750       ?strstr@@YAPADPADPBD@Z     66604750 f i config.obj
 0001:000045b0       ?ReleaseMem@@YAXXZ         666055b0 f   DllMain.obj
 0001:000045d0       _DllMain@12                666055d0 f   DllMain.obj
 0001:000047a0       _QueryInterface@0          666057a0 f   DllMain.obj
 0001:000047c0       _PatchClient               666057c0 f   DllMain.obj
 0001:00004810       _MainMenuFlushFramebuf@0   66605810 f   DllMain.obj
 0001:00004830       _PatchServer@4             66605830 f   DllMain.obj
 0001:00004870       ?guessEnchantLevel@@YAHXZ  66605870 f   guess.obj
 0001:00004920       ?guessBOLevel@@YAHH@Z      66605920 f   guess.obj
 0001:00005150       ?Install_AddConfigVars@@YAXXZ 66606150 f   install.obj
 0001:00005190       ?Install_FixValues@@YAXXZ  66606190 f   install.obj
 0001:000051b0       ?get_dll_addr@@YAPAUHINSTANCE__@@PAD@Z 666061b0 f   install.obj
 0001:00005240       ?VirtualProtect@@YAKKKK@Z  66606240 f   install.obj
 0001:00005270       ?WriteLocalBYTES@@YAXKPAXH@Z 66606270 f   install.obj
 0001:000052c0       ?FillLocalBYTES@@YAXKEH@Z  666062c0 f   install.obj
 0001:00005320       ?InterceptLocalCode2@@YAXEKKH@Z 66606320 f   install.obj
 0001:000053a0       ?InterceptLocalCode@@YAXEKKH@Z 666063a0 f   install.obj
 0001:000053d0       ?patchCall@@YAHPAD0HHHH0@Z 666063d0 f   install.obj
 0001:00005420       ?patchJmp@@YAHPAD0HHHH0@Z  66606420 f   install.obj
 0001:00005470       ?patchFill@@YAHPAD0HHHH0@Z 66606470 f   install.obj
 0001:000054c0       ?patchValue@@YAHPAD0HHHH0@Z 666064c0 f   install.obj
 0001:00005510       ?installPatch@@YAHP6AXHHH@ZPAD1HHHH1@Z 66606510 f   install.obj
 0001:00005890       ?removePatches@@YAHPAPAUInstalledPatch@@@Z 66606890 f   install.obj
 0001:00005920       ?init_d2_ptrs@@YAHH@Z      66606920 f   install.obj
 0001:00008f60       ?init_d2_ptrs2@@YAHXZ      66609f60 f   install.obj
 0001:00008fd0       ?InstallPatchAfterLoad_ASM@@YAXXZ 66609fd0 f   install.obj
 0001:000092c0       ?setResolutionPatch@@YAXH@Z 6660a2c0 f   install.obj
 0001:00009310       ?MonitorPacket@@YAXXZ      6660a310 f   install.obj
 0001:0000b3e0       ?Install@@YAHXZ            6660c3e0 f   install.obj
 0001:0000b5a0       ?patchServer@@YAXXZ        6660c5a0 f   install.obj
 0001:0000b600       @SetReloadFlag@8           6660c600 f   install.obj
 0001:0000b630       ?unpatchServer@@YAXXZ      6660c630 f   install.obj
 0001:0000b680       ?Uninstall@@YAXXZ          6660c680 f   install.obj
 0001:0000b8c0       ?init_crypt_table@@YAXXZ   6660c8c0 f   mpq.obj
 0001:0000b960       ?mpq_hashstring@@YAIPBDI@Z 6660c960 f   mpq.obj
 0001:0000b9e0       ?saveMpqTable@@YAXXZ       6660c9e0 f   mpq.obj
 0001:0000ba90       ?add_mpq_path@@YIHPAD@Z    6660ca90 f   mpq.obj
 0001:0000bbc0       ?dump_mpq_path@@YIXH@Z     6660cbc0 f   mpq.obj
 0001:0000bd60       ?storm268_patch_ASM@@YAXXZ 6660cd60 f   mpq.obj
 0001:0000bd90       ?UnicodeFix2@@YAXPA_W@Z    6660cd90 f   common.obj
 0001:0000be20       ?MyMultiByteToWideChar@@YAHIKPBDHPA_WH@Z 6660ce20 f   common.obj
 0001:0000be60       ?GB2GBK@@YAXPAD@Z          6660ce60 f   common.obj
 0001:0000bfe0       ?readFully@@YAHPAU_iobuf@@PADH@Z 6660cfe0 f   common.obj
 0001:0000c040       ?getFileSize@@YAHPBD@Z     6660d040 f   common.obj
 0001:0000c070       ?fileExist@@YAHPBD@Z       6660d070 f   common.obj
 0001:0000c090       ?openFile@@YAPAU_iobuf@@PAD0@Z 6660d090 f   common.obj
 0001:0000c1a0       ?heap_strdup@@YAPADPAXPAD@Z 6660d1a0 f   common.obj
 0001:0000c220       ?loadFile@@YAPADPAXPAU_iobuf@@PAH@Z 6660d220 f   common.obj
 0001:0000c370       ?gameMessage@@YAXPADZZ     6660d370 f   common.obj
 0001:0000c530       ?partyMessage@@YAXPADZZ    6660d530 f   common.obj
 0001:0000c5f0       ?gameMessageW@@YAXPA_WZZ   6660d5f0 f   common.obj
 0001:0000c640       ?partyMessageW@@YAXPA_WZZ  6660d640 f   common.obj
 0001:0000c690       ?get_cpu_usage@@YAHPAH0@Z  6660d690 f   common.obj
 0001:0000c770       ?getSkillClass@@YAHH@Z     6660d770 f   common.obj
 0001:0000c7c0       ?getSkillType@@YAHHH@Z     6660d7c0 f   common.obj
 0001:0000c810       ?getSkillLevel@@YAHPAUUnitAny@@H@Z 6660d810 f   common.obj
 0001:0000c970       ?getUnitRawDistance2@@YAHPAUUnitAny@@0@Z 6660d970 f   common.obj
 0001:0000ca80       ?getUnitYardDistance2@@YAMPAUUnitAny@@0@Z 6660da80 f   common.obj
 0001:0000cac0       ?saveDistanceMap@@YAXXZ    6660dac0 f   common.obj
 0001:0000cb20       ?getDistanceM256@@YAHHH@Z  6660db20 f   common.obj
 0001:0000cc50       ?getPlayerDistanceRaw@@YAMPAUUnitAny@@@Z 6660dc50 f   common.obj
 0001:0000ccf0       ?getPlayerDistanceYard@@YAMPAUUnitAny@@@Z 6660dcf0 f   common.obj
 0001:0000cd20       ?getRosterUnit@@YAPAURosterUnit@@H@Z 6660dd20 f   common.obj
 0001:0000cd60       ?getAreatileByTxt@@YAPAUUnitAny@@H@Z 6660dd60 f   common.obj
 0001:0000cdc0       ?getPortalToArea@@YAPAUUnitAny@@HPAD@Z 6660ddc0 f   common.obj
 0001:0000cf00       ?getAreatileTxtToLevel@@YAHH@Z 6660df00 f   common.obj
 0001:0000cf60       ?getSinglePlayerWorld@@YAPAUWorld@@XZ 6660df60 f   common.obj
 0001:0000cf90       ?encodeItem@@YAHPAUUnitAny@@PADH@Z 6660df90 f   common.obj
 0001:0000cfd0       ?hasSkill@@YAHH@Z          6660dfd0 f   common.obj
 0001:0000d050       ?selectSkill@@YAXHH@Z      6660e050 f   common.obj
 0001:0000d0a0       ?switchLeftSkill@@YAXH@Z   6660e0a0 f   common.obj
 0001:0000d0c0       ?switchRightSkill@@YAXH@Z  6660e0c0 f   common.obj
 0001:0000d0e0       ?getSinglePlayerUnit@@YAPAUUnitAny@@HH@Z 6660e0e0 f   common.obj
 0001:0000d1b0       ?SendPacket@@YAXPAEH@Z     6660e1b0 f   common.obj
 0001:0000d240       ?LeftClickType@@YAHHPAUUnitAny@@HH@Z 6660e240 f   common.obj
 0001:0000d320       ?LeftClickPos@@YAHHH@Z     6660e320 f   common.obj
 0001:0000d340       ?LeftClickUnit@@YAHPAUUnitAny@@@Z 6660e340 f   common.obj
 0001:0000d360       ?ShiftLeftClickUnit@@YAHPAUUnitAny@@@Z 6660e360 f   common.obj
 0001:0000d3b0       ?ShiftLeftClickPos@@YAHHH@Z 6660e3b0 f   common.obj
 0001:0000d400       ?RightSkill@@YAHPAUUnitAny@@HH@Z 6660e400 f   common.obj
 0001:0000d450       ?RightSkillPos@@YAHHH@Z    6660e450 f   common.obj
 0001:0000d470       ?RightSkillUnit@@YAHPAUUnitAny@@@Z 6660e470 f   common.obj
 0001:0000d4a0       ?canUseSkillNow@@YAHPAUUnitAny@@H@Z 6660e4a0 f   common.obj
 0001:0000d4c0       ?skillUnusableAsm@@YAHPAUUnitAny@@PAUSkill@@@Z 6660e4c0 f   common.obj
 0001:0000d4e0       ?skillUnusable@@YAHPAUUnitAny@@PAUSkill@@@Z 6660e4e0 f   common.obj
 0001:0000d520       ?useBelt@@YAXHH@Z          6660e520 f   common.obj
 0001:0000d5a0       ?GameControlStart@@YAHH@Z  6660e5a0 f   common.obj
 0001:0000d630       ?GameControlEnd@@YAHH@Z    6660e630 f   common.obj
 0001:0000d6b0       ?GameControl@@YAXH@Z       6660e6b0 f   common.obj
 0001:0000d6d0       ?getGameControlKey@@YAHH@Z 6660e6d0 f   common.obj
 0001:0000d720       ?StandStillPatch_ASM@@YAXXZ 6660e720 f   common.obj
 0001:0000d740       ?SetBottomAlertMsg1@@YAXPA_WHHH@Z 6660e740 f   common.obj
 0001:0000d7e0       ?SetBottomAlertMsg2@@YAXPA_WHHH@Z 6660e7e0 f   common.obj
 0001:0000d880       ?SetBottomAlertMsg3@@YAXPA_WHHH@Z 6660e880 f   common.obj
 0001:0000d920       ?DrawCenterAlertMsg@@YAXXZ 6660e920 f   common.obj
 0001:0000db30       ?sqrt@@YAMM@Z              6660eb30 f i common.obj
 0001:0000db50       _sqrtf                     6660eb50 f i common.obj
 0001:0000db70       ?GetAreaLevel@@YAHXZ       6660eb70 f   common.obj
 0001:0000dbd0       ?GetPetByType@@YAPAUPetUnit@@PAUUnitAny@@H@Z 6660ebd0 f   common.obj
 0001:0000dc20       ?GetUnitFromIdSafe@@YAPAUUnitAny@@KK@Z 6660ec20 f   common.obj
 0001:0000dc90       ?GetUnitPet@@YAPAUUnitAny@@PAU1@@Z 6660ec90 f   common.obj
 0001:0000dcd0       ?getPlayerClass@@YAHH@Z    6660ecd0 f   common.obj
 0001:0000dd10       ?GetUnitMagicStat@@YAKPAUUnitAny@@K@Z 6660ed10 f   common.obj
 0001:0000dd60       ?GetUnitResist@@YAHPAUUnitAny@@K@Z 6660ed60 f   common.obj
 0001:0000ddb0       ?CheckUnitSelect@@YAHPAUUnitAny@@@Z 6660edb0 f   common.obj
 0001:0000dee0       ?GetItemILvlAfterCube@@YAHHHH@Z 6660eee0 f   common.obj
 0001:0000df90       ?GetItemAlvl@@YAHHHH@Z     6660ef90 f   common.obj
 0001:0000e010       ?GetTextWidth@@YAKPA_W@Z   6660f010 f   common.obj
 0001:0000e030       ?DrawD2Text@@YAXKPA_WHHKK@Z 6660f030 f   common.obj
 0001:0000e070       ?DrawCenterText@@YAXKPA_WHHKHK@Z 6660f070 f   common.obj
 0001:0000e0c0       ?drawBgText@@YAHPA_WHHHH@Z 6660f0c0 f   common.obj
 0001:0000e140       ?drawBgTextMiddle@@YAHPA_WHHHH@Z 6660f140 f   common.obj
 0001:0000e1b0       ?drawBgTextLeft@@YAHPA_WHHHH@Z 6660f1b0 f   common.obj
 0001:0000e210       ?ExitGame@@YAXXZ           6660f210 f   common.obj
 0001:0000e240       ?GetGameLanguage@@YAHXZ    6660f240 f   common.obj
 0001:0000e300       ?getFcrFrame@@YAHHPAUUnitAny@@@Z 6660f300 f   common.obj
 0001:0000e5c0       ?IsFullWindow@@YAHXZ       6660f5c0 f   common.obj
 0001:0000e680       ?getUnitOwnerId@@YAHPAUUnitAny@@@Z 6660f680 f   common.obj
 0001:0000e860       ?testPvpFlag@@YAHH@Z       6660f860 f   common.obj
 0001:0000ea60       ?sameParty@@YAHH@Z         6660fa60 f   common.obj
 0001:0000ea80       ?isInRect@@YA_NPAUAreaRectData@@HH@Z 6660fa80 f   common.obj
 0001:0000eaf0       ?testPosition@@YAPAUAreaRectData@@PAU1@HH@Z 6660faf0 f   common.obj
 0001:0000eb10       ?portalToLevel@@YAHPAUWorld@@PAUUnitAny@@H@Z 6660fb10 f   common.obj
 0001:0000ecc0       ?hasPortalInRect@@YAHPAUAreaRectData@@H@Z 6660fcc0 f   common.obj
 0001:0000ed30       ?hasPortalNearby@@YAHPAUAreaRectData@@H@Z 6660fd30 f   common.obj
 0001:0000eda0       ?hasPortalInLevel@@YAHPAUDrlgLevel@@H@Z 6660fda0 f   common.obj
 0001:0000ee00       ?unitHasItem@@YAHPAUUnitAny@@H@Z 6660fe00 f   common.obj
 0001:0000ee70       ?sendPacketToClient@@YAXPAUNetClient@@PADH@Z 6660fe70 f   common.obj
 0001:0000ee90       ?sendChatMessageToServer@@YAXPADZZ 6660fe90 f   common.obj
 0001:0000ef50       ?sendMessageToClient@@YAXPAUNetClient@@HHPAD1@Z 6660ff50 f   common.obj
 0001:0000f0f0       ?getCharStatsTxt@@YAPAUCharStatsTxt@@H@Z 666100f0 f   common.obj
 0001:0000f100       ?getStatMaxValue@@YAHH@Z   66610100 f   common.obj
 0001:0000f160       ?d2client_SetAutomapParty@@YIXK@Z 66610160 f   d2callstub.obj
 0001:0000f170       ?d2client_SetAutomapNames@@YIXK@Z 66610170 f   d2callstub.obj
 0001:0000f180       ?d2client_ChatInput@@YIKPAUD2MSG@@@Z 66610180 f   d2callstub.obj
 0001:0000f190       ?d2client_CheckUiStatus@@YIHH@Z 66610190 f   d2callstub.obj
 0001:0000f1a0       ?d2client_InitAutomapLayer@@YIPAUAutomapLayer@@H@Z 666101a0 f   d2callstub.obj
 0001:0000f1b0       ?d2common_GetUniqueItemTxt@@YIPAUUniqueItemTxt@@H@Z 666101b0 f   d2callstub.obj
 0001:0000f1e0       ?d2common_GetItemStatCostTxt@@YIPAUItemStatCostTxt@@H@Z 666101e0 f   d2callstub.obj
 0001:0000f210       ?d2common_GetPropertiesTxt@@YIPAUPropertiesTxt@@H@Z 66610210 f   d2callstub.obj
 0001:0000f240       ?d2common_GetSetItemTxt@@YIPAUSetItemTxt@@H@Z 66610240 f   d2callstub.obj
 0001:0000f270       ?d2common_GetItemTypeTxt@@YIPAUItemTypeTxt@@H@Z 66610270 f   d2callstub.obj
 0001:0000f2a0       ?d2common_GetRuneWordTxt@@YIPAURuneWordTxt@@H@Z 666102a0 f   d2callstub.obj
 0001:0000f2d0       ?d2common_GetRuneWordTxtIndex@@YIHH@Z 666102d0 f   d2callstub.obj
 0001:0000f310       ?d2client_LoadUiImage@@YIPAUCellFile@@PAD@Z 66610310 f   d2callstub.obj
 0001:0000f320       ?SaveGame@@YAHXZ           66610320 f   dbg.obj
 0001:0000f370       ?DoTest@@YAHXZ             66610370 f   dbg.obj
 0001:0000f390       ?ServerRecvPacket40Patch_ASM@@YAXXZ 66610390 f   dbg.obj
 0001:0000f3d0       ?setQuestFlagPatch@@YIXPAPAGHHH@Z 666103d0 f   dbg.obj
 0001:0000f410       ?clearQuestFlagPatch@@YIXPAPAGHHH@Z 66610410 f   dbg.obj
 0001:0000f450       ?SetQuestFlagPatch_ASM@@YAXXZ 66610450 f   dbg.obj
 0001:0000f470       ?ClearQuestFlagPatch_ASM@@YAXXZ 66610470 f   dbg.obj
 0001:0000f490       ?installAlwaysDebugPatches@@YAHXZ 66610490 f   dbg.obj
 0001:0000f4a0       ?installDebugPatches@@YAHXZ 666104a0 f   dbg.obj
 0001:0000f930       ?loop_addConfigVars@@YAXXZ 66610930 f   loop.obj
 0001:0000f970       ?ToggleIMEInput@@YAXH@Z    66610970 f   loop.obj
 0001:0000f9d0       ?GameLoopPatch@@YAXXZ      666109d0 f   loop.obj
 0001:00010510       ?GameEndPatch@@YAXXZ       66611510 f   loop.obj
 0001:00010710       ?GameLoopPatch_ASM@@YAXXZ  66611710 f   loop.obj
 0001:00010720       ?GameEndPatch_ASM@@YAXXZ   66611720 f   loop.obj
 0001:00010730       ?automap_addConfigVars@@YAXXZ 66611730 f   map.obj
 0001:00010770       ?automap_initConfigVars@@YAXXZ 66611770 f   map.obj
 0001:00010a80       ?automap_initKeyEvent@@YAXXZ 66611a80 f   map.obj
 0001:00010b00       ?draw2map@@YAXPAUtagPOINT@@HH@Z 66611b00 f   map.obj
 0001:00010b70       ?tile2map@@YAXPAUtagPOINT@@HH@Z 66611b70 f   map.obj
 0001:00010bc0       ?addMapTarget@@YAXHHHPA_W0@Z 66611bc0 f   map.obj
 0001:00010ca0       ?automap_fixValues@@YAXXZ  66611ca0 f   map.obj
 0001:00010cf0       ?AutoMapNewGame@@YAXXZ     66611cf0 f   map.obj
 0001:00010de0       ?AutoMapNewLevel@@YAXXZ    66611de0 f   map.obj
 0001:00011030       ?PrevMapTarget@@YAHXZ      66612030 f   map.obj
 0001:000110e0       ?NextMapTarget@@YAHXZ      666120e0 f   map.obj
 0001:00011180       ?addMinimapTarget@@YAXPAUAreaRectInfo@@HHHHHH@Z 66612180 f   map.obj
 0001:00011280       ?bitmap2dc6@@YAPAUCellFile@@PAEHH@Z 66612280 f   map.obj
 0001:000114b0       ?InitCellFiles@@YAXXZ      666124b0 f   map.obj
 0001:000117b0       ?DeleteCellFiles@@YAXXZ    666127b0 f   map.obj
 0001:000118c0       ?InitAutomapLayer@@YAXH@Z  666128c0 f   map.obj
 0001:000118e0       ?mapReveal@@YAXPAUAreaRectInfo@@@Z 666128e0 f   map.obj
 0001:00011930       ?mapHide@@YAXPAUAreaRectInfo@@@Z 66612930 f   map.obj
 0001:00011980       ?RevealAutomapLevel@@YAXPAUDrlgLevel@@H@Z 66612980 f   map.obj
 0001:00012310       ?RevealLevelPlayerIn@@YAHXZ 66613310 f   map.obj
 0001:00012350       ?RevealCurAct@@YAHXZ       66613350 f   map.obj
 0001:00012500       ?RemoveMyAutomapNodes@@YAXXZ 66613500 f   map.obj
 0001:000125d0       ?DrawAutomapNodePatch@@YGXPAUCellContext@@HHPAUtagRECT@@H@Z 666135d0 f   map.obj
 0001:00012a20       ?AddShrinePatch_ASM@@YAXXZ 66613a20 f   map.obj
 0001:00012a50       ?OverrideShrinePatch@@YIXPAUAutomapNode@@0@Z 66613a50 f   map.obj
 0001:00012ab0       ?OverrideShrinePatch_ASM@@YAXXZ 66613ab0 f   map.obj
 0001:00012ad0       ?DrawAutomapNode@@YAXPAUCellFile@@HHD@Z 66613ad0 f   map.obj
 0001:00012c50       ?DrawAutomapBlob@@YIXHHHPAUUnitAny@@@Z 66613c50 f   map.obj
 0001:00012dd0       ?ForceDrawBlob_ASM@@YAXXZ  66613dd0 f   map.obj
 0001:00012de0       ?DrawBlobPath_ASM@@YAXXZ   66613de0 f   map.obj
 0001:00012df0       ?DrawPartyPlayerBlobPatch_ASM@@YAXXZ 66613df0 f   map.obj
 0001:00012e00       ?HostilePlayerPatch@@YIEPAUUnitAny@@@Z 66613e00 f   map.obj
 0001:00012e40       ?HostilePlayerColor_ASM@@YAXXZ 66613e40 f   map.obj
 0001:00012e50       ?DrawPlayerTextPatch@@YIEPAUUnitAny@@@Z 66613e50 f   map.obj
 0001:00012eb0       ?DrawPlayerTextPatch_ASM@@YAXXZ 66613eb0 f   map.obj
 0001:00012ed0       ?MonsterBlobDesc@@YIXPAUUnitAny@@@Z 66613ed0 f   map.obj
 0001:000133c0       ?MonsterBlobDescPatch_ASM@@YAXXZ 666143c0 f   map.obj
 0001:000133e0       ?MonsterBlobCol@@YIEPAUUnitAny@@@Z 666143e0 f   map.obj
 0001:00013510       ?CorpseBlobCol@@YIEPAUUnitAny@@@Z 66614510 f   map.obj
 0001:000135c0       ?ObjectBlobCol@@YIEPAUUnitAny@@@Z 666145c0 f   map.obj
 0001:00013780       ?MissileBlobCol@@YIEPAUUnitAny@@@Z 66614780 f   map.obj
 0001:00013880       ?MixedBlobColPatch@@YIEPAUUnitAny@@@Z 66614880 f   map.obj
 0001:00013930       ?MixedBlobColPatch_ASM@@YAXXZ 66614930 f   map.obj
 0001:00013950       ?AddRectToMinimap@@YAHPAUAreaRectInfo@@H@Z 66614950 f   map.obj
 0001:00014530       ?drawActiveRectAreaOnMinimap@@YAXXZ 66615530 f   map.obj
 0001:00014690       ?drawScreenAreaOnMinimap@@YAXXZ 66615690 f   map.obj
 0001:000147b0       ?MinimapPatch@@YAXXZ       666157b0 f   map.obj
 0001:00014a70       ?MinimapPatch_ASM@@YAXXZ   66615a70 f   map.obj
 0001:00014a80       ?InitScrollLock@@YAXH@Z    66615a80 f   map.obj
 0001:00014ab0       ?SetScrollMapPos@@YAXHH@Z  66615ab0 f   map.obj
 0001:00014b10       ?MiniMapScroll@@YAHH@Z     66615b10 f   map.obj
 0001:00014b40       ?CenterMap@@YAHXZ          66615b40 f   map.obj
 0001:00014b60       ?ShakeScreenPatch@@YGXPAH0@Z 66615b60 f   map.obj
 0001:00014c00       ?ScrollScreenEnd@@YAHH@Z   66615c00 f   map.obj
 0001:00014c40       ?ScrollScreenStart@@YAHH@Z 66615c40 f   map.obj
 0001:00014d10       ?DrawScrollOffset@@YAXPA_WH@Z 66615d10 f   map.obj
 0001:00014d60       ?packet_addConfigVars@@YAXXZ 66615d60 f   packet.obj
 0001:00014da0       ?packet_initConfigVars@@YAXXZ 66615da0 f   packet.obj
 0001:00014dd0       ?packet_FixValues@@YAXXZ   66615dd0 f   packet.obj
 0001:00014e10       ?ResetPacketHandlerTimer@@YAXXZ 66615e10 f   packet.obj
 0001:00014e20       ?PacketNewGame@@YAXXZ      66615e20 f   packet.obj
 0001:00014e30       ?FixSocketTimeOut_ASM@@YAXXZ 66615e30 f   packet.obj
 0001:00014e40       ?FixSocketErrRet_ASM@@YAXXZ 66615e40 f   packet.obj
 0001:00014e60       ?dump9c@@YAXPAEH@Z         66615e60 f   packet.obj
 0001:00014fc0       ?GamePacketReceivedInterceptPatch_ASM@@YAXXZ 66615fc0 f   packet.obj
 0001:00015000       ?dumpRecvPacket@@YIXPAEH@Z 66616000 f   packet.obj
 0001:00015bb0       ?GamePacketSendInterceptPatch_ASM@@YAXXZ 66616bb0 f   packet.obj
 0001:00015c10       ?dumpSendPacket@@YIXPAH@Z  66616c10 f   packet.obj
 0001:000162c0       ?showResetProtectMsg@@YAXXZ 666172c0 f   packet.obj
 0001:00016330       ?ResetProtection@@YAHH@Z   66617330 f   packet.obj
 0001:000163a0       ?ResetSkillPatch_ASM@@YAXXZ 666173a0 f   packet.obj
 0001:000163c0       ?packetDebug@@YAXXZ        666173c0 f   packet.obj
 0001:000163d0       ?blockSendPacket@@YIHPAH@Z 666173d0 f   packet.obj
 0001:00016a40       ?initSendPacketCheckTable@@YAXXZ 66617a40 f   packet.obj
 0001:00016ad0       ?autoroute_addConfigVars@@YAXXZ 66617ad0 f   route.obj
 0001:00016b10       ?autoroute_fixValues@@YAXXZ 66617b10 f   route.obj
 0001:00016b30       ?AutoRouteNewGame@@YAXXZ   66617b30 f   route.obj
 0001:00016b60       ?AutoRouteLocateSource@@YAHH@Z 66617b60 f   route.obj
 0001:00016d00       ?AutoRouteDrawScreenPath@@YAXXZ 66617d00 f   route.obj
 0001:00016fb0       ?AutoRouteDrawMinimapPath@@YAXXZ 66617fb0 f   route.obj
 0001:00017650       ?markNextPathInvalid@@YAXH@Z 66618650 f   route.obj
 0001:000176c0       ?AutoTeleportGetTarget@@YAHPAUtagPOINT@@PAH11@Z 666186c0 f   route.obj
 0001:00017820       ?RerouteRectPath@@YAHXZ    66618820 f   route.obj
 0001:00018380       ?AutoMapRoute@@YAXXZ       66619380 f   route.obj
 0001:00018470       ?waypoint_initConfigVars@@YAXXZ 66619470 f   waypoint.obj
 0001:000184f0       ?WaypointNewGame@@YAXXZ    666194f0 f   waypoint.obj
 0001:00018510       ?isWaypointTxt@@YAHH@Z     66619510 f   waypoint.obj
 0001:000186d0       ?findWaypoint@@YAPAUUnitAny@@H@Z 666196d0 f   waypoint.obj
 0001:00018910       ?takeWaypointToLevel@@YAXPAUUnitAny@@H@Z 66619910 f   waypoint.obj
 0001:00018960       ?takeWaypointToTown@@YAHH@Z 66619960 f   waypoint.obj
 0001:000189a0       ?RecvCommand_63_Patch_ASM@@YAXXZ 666199a0 f   waypoint.obj
 0001:00018aa0       ?winmsg_addConfigVars@@YAXXZ 66619aa0 f   winmsg.obj
 0001:00018ae0       ?winmsg_initConfigVars@@YAXXZ 66619ae0 f   winmsg.obj
 0001:00018bb0       ?WinMessageFixValues@@YAXXZ 66619bb0 f   winmsg.obj
 0001:00018c40       ?WinMessage_initKeyEvent@@YAXXZ 66619c40 f   winmsg.obj
 0001:00019080       ?IsKeyDown@@YAHH@Z         6661a080 f   winmsg.obj
 0001:000190a0       ?LockMouse@@YAHXZ          6661a0a0 f   winmsg.obj
 0001:00019260       ?switchSkillStart@@YAHH@Z  6661a260 f   winmsg.obj
 0001:000193e0       ?switchSkillEnd@@YAHH@Z    6661a3e0 f   winmsg.obj
 0001:00019560       ?GameSound@@YAHH@Z         6661a560 f   winmsg.obj
 0001:000195a0       ?FullScreen@@YAHXZ         6661a5a0 f   winmsg.obj
 0001:00019690       ?AttractNPC@@YAHXZ         6661a690 f   winmsg.obj
 0001:00019730       ?SwitchWindow@@YAHH@Z      6661a730 f   winmsg.obj
 0001:00019790       ?WinMessageNewGame@@YAXXZ  6661a790 f   winmsg.obj
 0001:000199d0       ?WinMessageEndGame@@YAXXZ  6661a9d0 f   winmsg.obj
 0001:00019a00       ?refreshScreenSaver@@YAXXZ 6661aa00 f   winmsg.obj
 0001:00019a40       ?refreshMenuScreenSaver@@YAXXZ 6661aa40 f   winmsg.obj
 0001:00019a80       ?winActiveMsg@@YAXH@Z      6661aa80 f   winmsg.obj
 0001:00019b20       ?hasCTA@@YAHXZ             6661ab20 f   winmsg.obj
 0001:00019bc0       ?WinMessageRunLoop@@YAXXZ  6661abc0 f   winmsg.obj
 0001:00019ea0       ?WinMessage@@YAHHHPAUHWND__@@HHH@Z 6661aea0 f   winmsg.obj
 0001:0001ac00       ?WinMessagePatch_ASM@@YAXXZ 6661bc00 f   winmsg.obj
 0001:0001ac10       ?KeydownPatch_ASM@@YAXXZ   6661bc10 f   winmsg.obj
 0001:0001ac30       ?KeyupPatch_ASM@@YAXXZ     6661bc30 f   winmsg.obj
 0001:0001ac50       ?ReceiveSwapWeapon_ASM@@YAXXZ 6661bc50 f   winmsg.obj
 0001:0001ac90       ?ShowVersion_Patch_ASM@@YAXXZ 6661bc90 f   winmsg.obj
 0001:0001ad30       ?SetCursorPosPatch_ASM@@YAXXZ 6661bd30 f   winmsg.obj
 0001:0001ad50       ?DrawLeftBackImagePatch_ASM@@YAXXZ 6661bd50 f   winmsg.obj
 0001:0001ad70       ?DrawRightBackImagePatch_ASM@@YAXXZ 6661bd70 f   winmsg.obj
 0001:0001ad90       ?DrawGroundAndUnitPatch_ASM@@YAXXZ 6661bd90 f   winmsg.obj
 0001:0001adf0       ?DrawControlsPatch_ASM@@YAXXZ 6661bdf0 f   winmsg.obj
 0001:0001aed0       ?SkipAllDrawingPatch_ASM@@YAXXZ 6661bed0 f   winmsg.obj
 0001:0001b0a0       ?SkipDrawMenuPatch_ASM@@YAXXZ 6661c0a0 f   winmsg.obj
 0001:0001b160       ?NoHidePatch_ASM@@YAXXZ    6661c160 f   winmsg.obj
 0001:0001b190       ?env_addConfigVars@@YAXXZ  6661c190 f   env.obj
 0001:0001b1d0       ?env_initConfigVars@@YAXXZ 6661c1d0 f   env.obj
 0001:0001b200       ?ChangeVisualEffect@@YAHXZ 6661c200 f   env.obj
 0001:0001b280       ?WeatherPatch_ASM@@YAXXZ   6661c280 f   env.obj
 0001:0001b290       ?LightingPatch_ASM@@YAXXZ  6661c290 f   env.obj
 0001:0001b2c0       ?InfravisionPatch@@YIKPAUUnitAny@@@Z 6661c2c0 f   env.obj
 0001:0001b5e0       ?InfravisionPatch_ASM@@YAXXZ 6661c5e0 f   env.obj
 0001:0001b600       ?gamemonitor_addConfigVars@@YAXXZ 6661c600 f   GameMonitor.obj
 0001:0001b640       ?gamemonitor_initConfigVars@@YAXXZ 6661c640 f   GameMonitor.obj
 0001:0001b680       ?usePotion@@YAXH@Z         6661c680 f   GameMonitor.obj
 0001:0001b760       ?recheckSelfItems@@YAXXZ   6661c760 f   GameMonitor.obj
 0001:0001be80       ?setKDCountDown@@YAXH@Z    6661ce80 f   GameMonitor.obj
 0001:0001bea0       ?setKBCountDown@@YAXHH@Z   6661cea0 f   GameMonitor.obj
 0001:0001bed0       ?setCountDownEndTime@@YAXPAUCountDown@@@Z 6661ced0 f   GameMonitor.obj
 0001:0001bfb0       ?setupCountdown@@YAXPAUCountDown@@@Z 6661cfb0 f   GameMonitor.obj
 0001:0001c000       ?onRightSkillMap@@YAXHH@Z  6661d000 f   GameMonitor.obj
 0001:0001c1b0       ?onRightSkillUnit@@YAXHH@Z 6661d1b0 f   GameMonitor.obj
 0001:0001c310       ?ResetMonitor@@YAXXZ       6661d310 f   GameMonitor.obj
 0001:0001c3a0       ?GameMonitorNewGame@@YAXXZ 6661d3a0 f   GameMonitor.obj
 0001:0001c3d0       ?GameMonitorEndGame@@YAXXZ 6661d3d0 f   GameMonitor.obj
 0001:0001c3e0       ?ShowGameCount@@YAXXZ      6661d3e0 f   GameMonitor.obj
 0001:0001c670       ?SetKills@@YIXK@Z          6661d670 f   GameMonitor.obj
 0001:0001c6c0       ?KillCountPatch_ASM@@YAXXZ 6661d6c0 f   GameMonitor.obj
 0001:0001c6e0       ?UnitModeChangePatch_ASM@@YAXXZ 6661d6e0 f   GameMonitor.obj
 0001:0001c720       ?DrawMonitorInfo@@YAXXZ    6661d720 f   GameMonitor.obj
 0001:0001da10       ?SetState@@YGXKH@Z         6661ea10 f   GameMonitor.obj
 0001:0001dd20       ?RecvCommand_A7_Patch_ASM@@YAXXZ 6661ed20 f   GameMonitor.obj
 0001:0001dea0       ?RecvCommand_A8_Patch_ASM@@YAXXZ 6661eea0 f   GameMonitor.obj
 0001:0001def0       ?RecvCommand_A9_Patch_ASM@@YAXXZ 6661eef0 f   GameMonitor.obj
 0001:0001df40       ?itemAction@@YAXPAUbitstream@@PAD@Z 6661ef40 f   GameMonitor.obj
 0001:0001e0b0       ?itemAction9C@@YIXPAD@Z    6661f0b0 f   GameMonitor.obj
 0001:0001e0f0       ?itemAction9D@@YIXPAD@Z    6661f0f0 f   GameMonitor.obj
 0001:0001e130       ?updateItemSkill@@YIXPAD@Z 6661f130 f   GameMonitor.obj
 0001:0001e1c0       ?RecvCommand_9C_Patch_ASM@@YAXXZ 6661f1c0 f   GameMonitor.obj
 0001:0001e1d0       ?RecvCommand_9D_Patch_ASM@@YAXXZ 6661f1d0 f   GameMonitor.obj
 0001:0001e1e0       ?RecvCommand_22_Patch_ASM@@YAXXZ 6661f1e0 f   GameMonitor.obj
 0001:0001e1f0       ?info_AddConfigVars@@YAXXZ 6661f1f0 f   info.obj
 0001:0001e230       ?infoNewGame@@YAXXZ        6661f230 f   info.obj
 0001:0001e250       ?wsprintfW2@@YAPA_WPA_WPADZZ 6661f250 f   info.obj
 0001:0001e2b0       ?DrawGameInfoPatch@@YIXH@Z 6661f2b0 f   info.obj
 0001:0001e570       ?DrawPetHeadPatch@@YIXHPAUUnitAny@@@Z 6661f570 f   info.obj
 0001:0001e5f0       ?DrawPetHeadPatch_ASM@@YAXXZ 6661f5f0 f   info.obj
 0001:0001e600       ?getGameWinId@@YAHH@Z      6661f600 f   info.obj
 0001:0001e660       ?DrawPartyHeadPatch@@YIXHPAURosterUnit@@@Z 6661f660 f   info.obj
 0001:0001eb60       ?StartDrawPartyHeadPatch_ASM@@YAXXZ 6661fb60 f   info.obj
 0001:0001eb80       ?DrawPartyHeadPatch_ASM@@YAXXZ 6661fb80 f   info.obj
 0001:0001eba0       ?DrawSkeletonHeadPatch@@YIXHH@Z 6661fba0 f   info.obj
 0001:0001ecc0       ?DrawSkeletonHeadPatch_ASM@@YAXXZ 6661fcc0 f   info.obj
 0001:0001ecd0       ?UpdateExp@@YAXXZ          6661fcd0 f   info.obj
 0001:0001eef0       ?InitExp@@YAXXZ            6661fef0 f   info.obj
 0001:0001ef20       ?UpdateExp_ASM@@YAXXZ      6661ff20 f   info.obj
 0001:0001ef60       ?info_FixValues@@YAXXZ     6661ff60 f   info.obj
 0001:0001f040       ?DrawClientPatch@@YAXXZ    66620040 f   info.obj
 0001:0001f1c0       ?DrawClientPatch_ASM@@YAXXZ 666201c0 f   info.obj
 0001:0001f1e0       ?ShowLifeWithMyPattern@@YGKKHH@Z 666201e0 f   info.obj
 0001:0001f260       ?ShowManaWithMyPattern@@YGKKHH@Z 66620260 f   info.obj
 0001:0001f2e0       ?ShowLifePatch_ASM@@YAXXZ  666202e0 f   info.obj
 0001:0001f300       ?ShowManaPatch_ASM@@YAXXZ  66620300 f   info.obj
 0001:0001f320       ?SetLifeManaShow@@YAHXZ    66620320 f   info.obj
 0001:0001f360       ?GetViewEquUnit@@YAPAUUnitAny@@XZ 66620360 f   info.obj
 0001:0001f390       ?GetViewStatUnit@@YAPAUUnitAny@@XZ 66620390 f   info.obj
 0001:0001f3c0       ?SetViewUnit@@YAXXZ        666203c0 f   info.obj
 0001:0001f4b0       ?ViewUnit@@YAHH@Z          666204b0 f   info.obj
 0001:0001f550       ?GetViewingStatsPlayerPatch1_ASM@@YAXXZ 66620550 f   info.obj
 0001:0001f560       ?GetViewingStatsPlayerPatch2_ASM@@YAXXZ 66620560 f   info.obj
 0001:0001f570       ?GetUnitDrawEquipItemPatch_ASM@@YAXXZ 66620570 f   info.obj
 0001:0001f580       ?GetUnitDrawItemDescPath_ASM@@YAXXZ 66620580 f   info.obj
 0001:0001f590       ?GetUnitTestHasItem_ASM@@YAXXZ 66620590 f   info.obj
 0001:0001f5b0       ?GetUnitText@@YIPA_WPA_WPAUUnitAny@@@Z 666205b0 f   info.obj
 0001:0001f650       ?ViewDrawInvItemPatch@@YAPAUUnitAny@@XZ 66620650 f   info.obj
 0001:0001f6d0       ?GetUnitDrawInvItemPatch_ASM@@YAXXZ 666206d0 f   info.obj
 0001:0001f6e0       ?GetUnitProtectClickEquipPatch_ASM@@YAXXZ 666206e0 f   info.obj
 0001:0001f720       ?GetUnitProtectClickInvPatch_ASM@@YAXXZ 66620720 f   info.obj
 0001:0001f750       ?DrawDefaultFontText@@YAXPA_WHHKHK@Z 66620750 f   info.obj
 0001:0001f780       ?SwitchStatPage@@YAHH@Z    66620780 f   info.obj
 0001:0001f7d0       ?DrawUnitStat@@YAXHHHHPAD00KHH@Z 666207d0 f   info.obj
 0001:0001f8b0       ?ViewUnitStatPatch@@YIXPAUUnitAny@@@Z 666208b0 f   info.obj
 0001:0001fcb0       ?ViewUnitStatPatch_ASM@@YAXXZ 66620cb0 f   info.obj
 0001:0001fcd0       ?ViewPetStatPatch@@YIXPAUUnitAny@@@Z 66620cd0 f   info.obj
 0001:0001ff40       ?ViewPetStatPatch_ASM@@YAXXZ 66620f40 f   info.obj
 0001:0001ff60       ?messagelog_AddConfigVars@@YAXXZ 66620f60 f   MessageLog.obj
 0001:0001ffa0       ?OpenFileNew@@YAPAXPAD@Z   66620fa0 f   MessageLog.obj
 0001:0001ffd0       ?OpenFileWrite@@YAPAXPAD@Z 66620fd0 f   MessageLog.obj
 0001:00020000       ?WriteFile@@YAKPAX0K@Z     66621000 f   MessageLog.obj
 0001:00020030       ?LogMessage@@YIXPA_W@Z     66621030 f   MessageLog.obj
 0001:000204d0       ?MessageLogPatch1_ASM@@YAXXZ 666214d0 f   MessageLog.obj
 0001:000204f0       ?MessageLogPatch2_ASM@@YAXXZ 666214f0 f   MessageLog.obj
 0001:00020510       ?MessageLogExitGame@@YAXXZ 66621510 f   MessageLog.obj
 0001:00020800       ?item_addConfigVars@@YAXXZ 66621800 f   item.obj
 0001:00020840       ?item_initConfigVars@@YAXXZ 66621840 f   item.obj
 0001:000208d0       ?item_NewGame@@YAXXZ       666218d0 f   item.obj
 0001:000208f0       ?wcs_insert@@YAPA_WPA_W0@Z 666218f0 f   item.obj
 0001:000209c0       ?GetItemIndex@@YAHH@Z      666219c0 f   item.obj
 0001:00020a10       ?CheckItemVisible@@YAHPAUUnitAny@@@Z 66621a10 f   item.obj
 0001:00020b10       ?GetItemColour@@YAEPAUUnitAny@@H@Z 66621b10 f   item.obj
 0001:00020da0       ?SwitchItemMode@@YAHXZ     66621da0 f   item.obj
 0001:00020e50       ?trimspaces@@YAXPA_W@Z     66621e50 f   item.obj
 0001:00020f10       ?ColourD2String@@YIPA_WPA_WK@Z 66621f10 f   item.obj
 0001:00020fa0       ?ItemHaveLevel@@YAHE@Z     66621fa0 f   item.obj
 0001:00021000       ?ItemNamePatch@@YIXPA_WPAUUnitAny@@PAUItemTxt@@@Z 66622000 f   item.obj
 0001:00021b00       ?ItemNamePatch_ASM@@YAXXZ  66622b00 f   item.obj
 0001:00021b20       ?OpenCubeStringPatch@@YIPA_WPA_WK@Z 66622b20 f   item.obj
 0001:00021b80       ?OpenCubeStringPatch_ASM@@YAXXZ 66622b80 f   item.obj
 0001:00021b90       ?PermShowItemsPatch1@@YAHXZ 66622b90 f   item.obj
 0001:00021bc0       ?PermShowItemsPatch2@@YAHXZ 66622bc0 f   item.obj
 0001:00021c10       ?PermShowItemsPatch3@@YAHXZ 66622c10 f   item.obj
 0001:00021c80       ?PermShowItemsPatch1_ASM@@YAXXZ 66622c80 f   item.obj
 0001:00021c90       ?PermShowItemsPatch2_ASM@@YAXXZ 66622c90 f   item.obj
 0001:00021cb0       ?PermShowItemsPatch3_ASM@@YAXXZ 66622cb0 f   item.obj
 0001:00021cd0       ?PermShowItemsPatch4_ASM@@YAXXZ 66622cd0 f   item.obj
 0001:00021ce0       ?ItemDescPath@@YIXPA_WHHHH@Z 66622ce0 f   item.obj
 0001:00021de0       ?SocketViewCallRoutine@@YIXPAUUnitAny@@KP6GX0K@Z@Z 66622de0 f   item.obj
 0001:00021df0       ?ItemSocketViewPatch@@YGXP6GXPAUUnitAny@@K@Z0K@Z 66622df0 f   item.obj
 0001:00021eb0       ?ItemSocketViewPatch_ASM@@YAXXZ 66622eb0 f   item.obj
 0001:00021ec0       ?SocketItemStatViewPatch_ASM@@YAXXZ 66622ec0 f   item.obj
 0001:00021ee0       ?GetItemExtStatListPatch@@YGPAUStatList@@PAUUnitAny@@KK@Z 66622ee0 f   item.obj
 0001:00021f10       ?ItemBasicStatPatch_ASM@@YAXXZ 66622f10 f   item.obj
 0001:00021f40       ?SetPropInfo@@YAXHHHPAUItemProp@@@Z 66622f40 f   item.obj
 0001:000223c0       ?GetStatRange@@YAPA_WPA_WKK@Z 666233c0 f   item.obj
 0001:000227b0       ?GetItemPropStringPatch@@YIKPA_WPAUStatEx@@K@Z 666237b0 f   item.obj
 0001:00022880       ?GetItemPropStringPatch_ASM@@YAXXZ 66623880 f   item.obj
 0001:000228a0       ?StrcatItemPropStringPatch@@YIXPA_W0K@Z 666238a0 f   item.obj
 0001:000229c0       ?StrcatItemPropStringPatch_ASM@@YAXXZ 666239c0 f   item.obj
 0001:000229d0       ?StrcatSocketStringPatch@@YIPA_WPA_W@Z 666239d0 f   item.obj
 0001:00022a00       ?StrcatSocketStringPatch_ASM@@YAXXZ 66623a00 f   item.obj
 0001:00022a10       ?StrcatDefenseStringPatch@@YIPA_WPA_W@Z 66623a10 f   item.obj
 0001:00022cb0       ?StrcatDefenseStringPatch_ASM@@YAXXZ 66623cb0 f   item.obj
 0001:00022cc0       ?StrcatDamageStringPatch@@YIPA_WPA_W@Z 66623cc0 f   item.obj
 0001:00022ee0       ?StrcatDamageStringPatch_ASM1@@YAXXZ 66623ee0 f   item.obj
 0001:00022ef0       ?StrcatDamageStringPatch_ASM2@@YAXXZ 66623ef0 f   item.obj
 0001:00022f10       ?ShowSocketProtectInfo@@YAXXZ 66623f10 f   item.obj
 0001:00022f80       ?SocketProtectPatch_ASM@@YAXXZ 66623f80 f   item.obj
 0001:00022fa0       ?SocketProtectPatch1_ASM@@YAXXZ 66623fa0 f   item.obj
 0001:00022fc0       ?SocketProtectPatch2_ASM@@YAXXZ 66623fc0 f   item.obj
 0001:00022fe0       ?ItemExtInfoNewGame@@YAXXZ 66623fe0 f   ItemExtInfo.obj
 0001:00022ff0       ?ConvertToColorString@@YAXPAEPADH@Z 66623ff0 f   ItemExtInfo.obj
 0001:00023190       ?LoadExtInfo@@YAHXZ        66624190 f   ItemExtInfo.obj
 0001:00024190       ?UnLoadExtInfo@@YAXXZ      66625190 f   ItemExtInfo.obj
 0001:00024370       ?SetExtInfoPos@@YAXHHHH@Z  66625370 f   ItemExtInfo.obj
 0001:00024460       ?ShowItemExtInfo@@YAXXZ    66625460 f   ItemExtInfo.obj
 0001:00024780       ?DrawHoverPatch_ASM@@YAXXZ 66625780 f   ItemExtInfo.obj
 0001:00024790       ?dangerous_addConfigVars@@YAXXZ 66625790 f   dangerous.obj
 0001:000247d0       ?dangerous_initConfigVars@@YAXXZ 666257d0 f   dangerous.obj
 0001:000247f0       ?ProtectAction@@YAXPA_WHE@Z 666257f0 f   dangerous.obj
 0001:00024990       ?ChickenLifeNewGame@@YAXXZ 66625990 f   dangerous.obj
 0001:00024c80       ?ChickenLifeLoop@@YAXXZ    66625c80 f   dangerous.obj
 0001:00025390       ?isCowKing@@YAHPAUMonsterData@@@Z 66626390 f   dangerous.obj
 0001:00025440       ?checkBossMonster@@YAXPAUUnitAny@@@Z 66626440 f   dangerous.obj
 0001:00025500       ?CheckDangerousPlayer@@YAXPAUUnitAny@@@Z 66626500 f   dangerous.obj
 0001:000255b0       ?TestMonsterOnScreen@@YAHPAUUnitAny@@0@Z 666265b0 f   dangerous.obj
 0001:00025630       ?CheckDangerousMonster@@YAXPAUUnitAny@@@Z 66626630 f   dangerous.obj
 0001:00025720       ?quest_addConfigVars@@YAXXZ 66626720 f   quest.obj
 0001:00025760       ?ReSetTimer@@YAHXZ         66626760 f   quest.obj
 0001:00025780       ?QuestNewAct@@YAXXZ        66626780 f   quest.obj
 0001:00025790       ?QuestNewLevel@@YAXXZ      66626790 f   quest.obj
 0001:00025f40       ?quest_FixValues@@YAXXZ    66626f40 f   quest.obj
 0001:00026010       ?QuestNewGame@@YAXXZ       66627010 f   quest.obj
 0001:00026160       ?QuestRunLoop@@YAXXZ       66627160 f   quest.obj
 0001:000264b0       ?BugKDProtect@@YIXK@Z      666274b0 f   quest.obj
 0001:000266e0       ?BugKBProtect@@YIXPAE@Z    666276e0 f   quest.obj
 0001:00026b50       ?RecvCommand_89_Patch_ASM@@YAXXZ 66627b50 f   quest.obj
 0001:00026b70       ?RecvCommand_5D_Patch_ASM@@YAXXZ 66627b70 f   quest.obj
 0001:00026b80       ?CheckUnitKM@@YAXXZ        66627b80 f   quest.obj
 0001:00026c50       ?getMouseQuestId@@YAHHH@Z  66627c50 f   quest.obj
 0001:00026d40       ?DrawQuestPagePatch@@YIXHH@Z 66627d40 f   quest.obj
 0001:00027220       ?DrawQuestPagePatch_ASM@@YAXXZ 66628220 f   quest.obj
 0001:00027230       ?PacketA4@@YIXPAD@Z        66628230 f   quest.obj
 0001:000273b0       ?Packet4D@@YIXPAD@Z        666283b0 f   quest.obj
 0001:000273f0       ?RecvCommand_A4_Patch_ASM@@YAXXZ 666283f0 f   quest.obj
 0001:00027400       ?RecvCommand_4D_Patch_ASM@@YAXXZ 66628400 f   quest.obj
 0001:00027410       ?UnicodeFix@@YAXPA_WPAK@Z  66628410 f   unicode.obj
 0001:00027600       ?D2Lang_Unicode2WinPatch@@YIPBDPADPA_WH@Z 66628600 f   unicode.obj
 0001:00027640       ?D2Lang_Win2UnicodePatch@@YIPA_WPA_WPBDH@Z 66628640 f   unicode.obj
 0001:00027670       ?EditDeleteSelect@@YAXPAUD2EditBox@@@Z 66628670 f   unicode.obj
 0001:000277a0       ?ChannelEnterCharPatch@@YIKPAUD2EditBox@@E@Z 666287a0 f   unicode.obj
 0001:00027ad0       ?UnicodeToUTF_8@@YAXPADPA_W@Z 66628ad0 f   unicode.obj
 0001:00027b40       ?MultiByteFix@@YGXPAD@Z    66628b40 f   unicode.obj
 0001:00027d30       ?MultiByteFixPatch_ASM@@YAXXZ 66628d30 f   unicode.obj
 0001:00027d40       ?IsPritableCharacterPatch_ASM@@YAXXZ 66628d40 f   unicode.obj
 0001:00027d60       ?lifebar_addConfigVars@@YAXXZ 66628d60 f   lifebar.obj
 0001:00027da0       ?lifebar_initConfigVars@@YAXXZ 66628da0 f   lifebar.obj
 0001:00027dc0       ?lifebarNewGame@@YAXXZ     66628dc0 f   lifebar.obj
 0001:00027dd0       ?MonsterNamePatch@@YIJPA_WJPAUUnitAny@@JJ@Z 66628dd0 f   lifebar.obj
 0001:000288e0       ?MonsterNamePatch_ASM@@YAXXZ 666298e0 f   lifebar.obj
 0001:00028900       ?MonsterDescCommaPatch1_ASM@@YAXXZ 66629900 f   lifebar.obj
 0001:00028910       ?MonsterDescCommaPatch2_ASM@@YAXXZ 66629910 f   lifebar.obj
 0001:00028920       ?MonsterDescCommaPatch3@@YIXPA_WPAUMonsterTxt@@@Z 66629920 f   lifebar.obj
 0001:000289b0       ?MonsterDescCommaPatch3_ASM@@YAXXZ 666299b0 f   lifebar.obj
 0001:000289c0       ?LifeBarPatch_ASM@@YAXXZ   666299c0 f   lifebar.obj
 0001:000289e0       ?MonsterDeathPatch_ASM@@YAXXZ 666299e0 f   lifebar.obj
 0001:00028a00       ?CalculateHighestTC@@YAXHG@Z 66629a00 f   lifebar.obj
 0001:00028c40       ?InitTCList@@YAXXZ         66629c40 f   lifebar.obj
 0001:00028cc0       ?GetTcLevel@@YAPAUMonTC@@GH@Z 66629cc0 f   lifebar.obj
 0001:00028d50       ?GetPlayerHpPercent@@YAHPAUUnitAny@@@Z 66629d50 f   lifebar.obj
 0001:00028d90       ?PlayerNamePatch@@YIXPA_WPAUUnitAny@@@Z 66629d90 f   lifebar.obj
 0001:00028f00       ?PlayerNamePatch_ASM@@YAXXZ 66629f00 f   lifebar.obj
 0001:00028f20       ?AutoWarCryNewGame@@YAXXZ  66629f20 f   bo.obj
 0001:00028f90       ?AutoWarCryRunLoop@@YAXXZ  66629f90 f   bo.obj
 0001:000296f0       ?d2s_init@@YAXPAUd2s_file@@@Z 6662a6f0 f   d2s.obj
 0001:00029950       ?d2s_write@@YAHPAUd2s_file@@PADH@Z 6662a950 f   d2s.obj
 0001:00029a70       ?d2s_checksum@@YAXPADH@Z   6662aa70 f   d2s.obj
 0001:00029af0       ?d2s_generate@@YAHPAU_iobuf@@PAUUnitAny@@1PAGPAD1@Z 6662aaf0 f   d2s.obj
 0001:0002a710       ?DropProtection_addConfigVars@@YAXXZ 6662b710 f   DropProtection.obj
 0001:0002a750       ?DropProtection_initConfigVars@@YAXXZ 6662b750 f   DropProtection.obj
 0001:0002a7d0       ?DropProtection@@YAHPAUUnitAny@@@Z 6662b7d0 f   DropProtection.obj
 0001:0002aac0       ?canHireMerc@@YAHXZ        6662bac0 f   DropProtection.obj
 0001:0002ac20       ?DropProtectionPacketBlock@@YAHPAEH@Z 6662bc20 f   DropProtection.obj
 0001:0002ad80       ?ClickHireMercMenuItemPatch_ASM@@YAXXZ 6662bd80 f   DropProtection.obj
 0001:0002ada0       ?unicode2win@@YAXPADPA_WH@Z 6662bda0 f   DropProtection.obj
 0001:0002ae00       ?DeleteCharacter_Patch_ASM@@YAXXZ 6662be00 f   DropProtection.obj
 0001:0002ae90       ?DeleteSelectedCharacter_Patch_ASM@@YAXXZ 6662be90 f   DropProtection.obj
 0001:0002b460       ?ClickMenuItem_Patch_ASM@@YAXXZ 6662c460 f   DropProtection.obj
 0001:0002b580       ?AutoEnchantNewGame@@YAXXZ 6662c580 f   enchant.obj
 0001:0002b5e0       ?checkUnit@@YAHPAUUnitAny@@@Z 6662c5e0 f   enchant.obj
 0001:0002b8e0       ?AutoEnchantRunLoop@@YAXXZ 6662c8e0 f   enchant.obj
 0001:0002bc50       ?AutoEnchantPlayerNeedHelp@@YAXH@Z 6662cc50 f   enchant.obj
 0001:0002bc90       ?check3bb@@YAXXZ           6662cc90 f   enchant.obj
 0001:0002bf50       ?GamePacketPlaySound@@YIXPAE@Z 6662cf50 f   enchant.obj
 0001:0002bfb0       ?RecvCommand_2C_Patch_ASM@@YAXXZ 6662cfb0 f   enchant.obj
 0001:0002bfc0       ?GameChat_addConfigVars@@YAXXZ 6662cfc0 f   GameChat.obj
 0001:0002c000       ?SendChatMessageW@@YAXPA_W@Z 6662d000 f   GameChat.obj
 0001:0002c0c0       ?SendChatMessage@@YAXPAD@Z 6662d0c0 f   GameChat.obj
 0001:0002c170       ?WisperPatch@@YAXXZ        6662d170 f   GameChat.obj
 0001:0002c190       ?WisperPatch_ASM@@YAXXZ    6662d190 f   GameChat.obj
 0001:0002c1a0       ?CheckD2WinEditBox@@YAXXZ  6662d1a0 f   GameChat.obj
 0001:0002c200       ?InputLinePatch@@YAHE@Z    6662d200 f   GameChat.obj
 0001:0002c290       ?InputLinePatch1_ASM@@YAXXZ 6662d290 f   GameChat.obj
 0001:0002c2b0       ?Filterbox_InputHandler@@YGHPAUD2EditBox@@HPAD@Z 6662d2b0 f   mcp.obj
 0001:0002c2b0       ?EditBoxCallBack@@YGHPAUD2EditBox@@HPAD@Z 6662d2b0 f   GameChat.obj
 0001:0002c2c0       ?InitD2EditBox@@YAHXZ      6662d2c0 f   GameChat.obj
 0001:0002c390       ?InputLinePatch2_ASM@@YAXXZ 6662d390 f   GameChat.obj
 0001:0002c3b0       ?SelectTextPatch1@@YGHPAD@Z 6662d3b0 f   GameChat.obj
 0001:0002c490       ?SelectTextPatch1_ASM@@YAXXZ 6662d490 f   GameChat.obj
 0001:0002c4b0       ?SelectTextPatch2@@YGHPAD@Z 6662d4b0 f   GameChat.obj
 0001:0002c560       ?SelectTextPatch2_ASM@@YAXXZ 6662d560 f   GameChat.obj
 0001:0002c580       ?ResetGameList@@YAXXZ      6662d580 f   mcp.obj
 0001:0002c5a0       ?gameFilter_addConfigVars@@YAXXZ 6662d5a0 f   mcp.obj
 0001:0002c5e0       ?D2MCPPacketHandler_05_Patch@@YIHPAEH@Z 6662d5e0 f   mcp.obj
 0001:0002c870       ?D2MCPPacketHandler_05_Patch_ASM@@YAXXZ 6662d870 f   mcp.obj
 0001:0002c890       ?Filterbox_ReturnHandler@@YGHPA_W@Z 6662d890 f   mcp.obj
 0001:0002c900       ?CreateFilterBox@@YAXXZ    6662d900 f   mcp.obj
 0001:0002c980       ?CreateGameBoxPatch_ASM@@YAXXZ 6662d980 f   mcp.obj
 0001:0002c990       ?DestroyGamelistPatch@@YGXPAUD2EditBox@@@Z 6662d990 f   mcp.obj
 0001:0002c9d0       ?GameListRefreshTimePatch_ASM@@YAXXZ 6662d9d0 f   mcp.obj
 0001:0002ca10       ?DrawGameListPatch@@YAXXZ  6662da10 f   mcp.obj
 0001:0002cba0       ?DrawGameListPatch_ASM@@YAXXZ 6662dba0 f   mcp.obj
 0001:0002cbb0       ?SortGameList_Patch_ASM@@YAXXZ 6662dbb0 f   mcp.obj
 0001:0002cc40       ?ShowGameListDifficulty_Patch_ASM@@YAXXZ 6662dc40 f   mcp.obj
 0001:0002ccf0       ?clearCharacterTag@@YAXXZ  6662dcf0 f   login.obj
 0001:0002cd20       ?addCharacterTag@@YAXPAD0@Z 6662dd20 f   login.obj
 0001:0002ce70       ?getCharTag@@YAPADPAD@Z    6662de70 f   login.obj
 0001:0002cf30       ?doneCharacterTag@@YAXXZ   6662df30 f   login.obj
 0001:0002cf60       ?drawCharTags@@YAXXZ       6662df60 f   login.obj
 0001:0002d090       ?login_initConfigVars@@YAXXZ 6662e090 f   login.obj
 0001:0002d0a0       ?addAccount@@YAXHPAD0@Z    6662e0a0 f   login.obj
 0001:0002d1f0       ?isLoginScreen@@YAHXZ      6662e1f0 f   login.obj
 0001:0002d2a0       ?inputUserPassword@@YAHPAULoginInfo@@@Z 6662e2a0 f   login.obj
 0001:0002d430       ?autoLogin@@YAXXZ          6662e430 f   login.obj
 0001:0002d450       ?LastBNet_Patch@@YGHPAD0H0H@Z 6662e450 f   login.obj
 0001:0002d4a0       ?SelectCharPatch_ASM@@YAXXZ 6662e4a0 f   login.obj
 0001:0002d5c0       ?autoSelectChar@@YAXXZ     6662e5c0 f   login.obj
 0001:0002d6e0       ?saveCharMenu@@YAXXZ       6662e6e0 f   login.obj
 0001:0002dab0       ?OpenCharMenuPatch_ASM@@YAXXZ 6662eab0 f   login.obj
 0001:0002dac0       ?misc_addConfigVars@@YAXXZ 6662eac0 f   misc.obj
 0001:0002db00       ?ULCPatch_ASM@@YAXXZ       6662eb00 f   misc.obj
 0001:0002db20       ?OutTownSelectPatch@@YIHPAUUnitAny@@@Z 6662eb20 f   misc.obj
 0001:0002db60       ?OutTownSelectPatch_ASM1@@YAXXZ 6662eb60 f   misc.obj
 0001:0002db90       ?CheckOutTownSelected@@YGHPAUUnitAny@@@Z 6662eb90 f   misc.obj
 0001:0002dbf0       ?OutTownSelectPatch_ASM2@@YAXXZ 6662ebf0 f   misc.obj
 0001:0002dc10       ?NPCMessageLoopPatch_ASM@@YAXXZ 6662ec10 f   misc.obj
 0001:0002dc50       ?NPCQuestMessageStartPatch_ASM@@YAXXZ 6662ec50 f   misc.obj
 0001:0002dc70       ?NPCQuestMessageEndPatch1_ASM@@YAXXZ 6662ec70 f   misc.obj
 0001:0002dc90       ?NPCQuestMessageEndPatch2_ASM@@YAXXZ 6662ec90 f   misc.obj
 0001:0002dca0       ?NsPassingActBugFixPatch_ASM@@YAXXZ 6662eca0 f   misc.obj
 0001:0002dcb0       ?SetGoldPatch@@YIHH@Z      6662ecb0 f   misc.obj
 0001:0002dd30       ?SetGoldPatch_ASM@@YAXXZ   6662ed30 f   misc.obj
 0001:0002dd40       ?SetDefaultGoldPatch_ASM@@YAXXZ 6662ed40 f   misc.obj
 0001:0002dd50       ?multiclient_addConfigVars@@YAXXZ 6662ed50 f   multi.obj
 0001:0002dd90       ?multiclient_initConfigVars@@YAXXZ 6662ed90 f   multi.obj
 0001:0002ddc0       ?multiclient_FixValues@@YAXXZ 6662edc0 f   multi.obj
 0001:0002ddf0       ?MultiClientNewGame@@YAXXZ 6662edf0 f   multi.obj
 0001:0002deb0       ?MultiClientEndGame@@YAXXZ 6662eeb0 f   multi.obj
 0001:0002ded0       ?makeRuntimeInfoPath@@YAHPADH@Z 6662eed0 f   multi.obj
 0001:0002dfa0       ?saveRuntimeInfo@@YAHPAUHWND__@@@Z 6662efa0 f   multi.obj
 0001:0002e140       ?loadRuntimeInfo@@YAHPAUD2Window@@H@Z 6662f140 f   multi.obj
 0001:0002e880       ?refresh_clients@@YAXXZ    6662f880 f   multi.obj
 0001:0002ea40       ?multiclient_winactive@@YAXXZ 6662fa40 f   multi.obj
 0001:0002eb80       ?getGameWindowHwnd@@YAPAUHWND__@@H@Z 6662fb80 f   multi.obj
 0001:0002ebc0       ?canRemoteControl@@YAHXZ   6662fbc0 f   multi.obj
 0001:0002ec80       ?leader_click_object@@YAXHH@Z 6662fc80 f   multi.obj
 0001:0002ed40       ?multiclient_recv_info@@YAXH@Z 6662fd40 f   multi.obj
 0001:0002f070       ?multiclient_send_info@@YAXH@Z 66630070 f   multi.obj
 0001:0002f0c0       ?follower_click_object@@YAXHH@Z 666300c0 f   multi.obj
 0001:0002f220       ?MultiClientLoop@@YAXXZ    66630220 f   multi.obj
 0001:0002fc50       ?follower_left_click_xy@@YAXHH@Z 66630c50 f   multi.obj
 0001:0002fc90       ?follower_right_click_xy@@YAXHH@Z 66630c90 f   multi.obj
 0001:0002fcd0       ?follower_left_click_unit@@YAXHH@Z 66630cd0 f   multi.obj
 0001:0002fd10       ?follower_right_client_unit@@YAXHH@Z 66630d10 f   multi.obj
 0001:0002fd50       ?refresh_followers@@YAXH@Z 66630d50 f   multi.obj
 0001:0002fe70       ?toggle_follower@@YAXH@Z   66630e70 f   multi.obj
 0001:0002ff80       ?follower_stop_follow@@YAXXZ 66630f80 f   multi.obj
 0001:00030020       ?findClosetPortal@@YAPAUUnitAny@@XZ 66631020 f   multi.obj
 0001:000301a0       ?follower_cmd@@YAXH@Z      666311a0 f   multi.obj
 0001:000304d0       ?MultiClientStartFollow@@YAHH@Z 666314d0 f   multi.obj
 0001:000305b0       ?MultiClientStopFollow@@YAHXZ 666315b0 f   multi.obj
 0001:00030650       ?MultiClientStartFollow1@@YAHXZ 66631650 f   multi.obj
 0001:00030670       ?MultiClientStartFollow2@@YAHXZ 66631670 f   multi.obj
 0001:00030690       ?MultiClientToggleFollow@@YAHXZ 66631690 f   multi.obj
 0001:000306c0       ?leader_back_to_town@@YAHXZ 666316c0 f   multi.obj
 0001:00030770       ?MultiClientEnterDoor@@YAHXZ 66631770 f   multi.obj
 0001:00030910       ?MultiClientStartClick@@YAHH@Z 66631910 f   multi.obj
 0001:00030930       ?MultiClientStopClick@@YAHH@Z 66631930 f   multi.obj
 0001:00030950       ?MultiClientInitClick@@YAHXZ 66631950 f   multi.obj
 0001:000309b0       ?transferClick@@YAHHPAUUnitAny@@HH@Z 666319b0 f   multi.obj
 0001:00030bc0       ?canTranferClick@@YAHXZ    66631bc0 f   multi.obj
 0001:00030c20       ?shouldLeftClick@@YIHPAH@Z 66631c20 f   multi.obj
 0001:00030f00       ?shouldRightClick@@YIHPAH@Z 66631f00 f   multi.obj
 0001:00031040       ?LeftClick_Patch_ASM@@YAXXZ 66632040 f   multi.obj
 0001:00031060       ?RightClick_Patch_ASM@@YAXXZ 66632060 f   multi.obj
 0001:00031080       ?NpcTrade_AddConfigVars@@YAXXZ 66632080 f   NpcTrade.obj
 0001:000310c0       ?NpcTradeNewGame@@YAXXZ    666320c0 f   NpcTrade.obj
 0001:000310d0       ?drawNpcTradeInfo@@YAXH@Z  666320d0 f   NpcTrade.obj
 0001:00031be0       ?NpcTradeLoop@@YAXXZ       66632be0 f   NpcTrade.obj
 0001:00031e40       ?NpcTradePatch_ASM@@YAXXZ  66632e40 f   NpcTrade.obj
 0001:00031e70       ?PartyHelp_addConfigVars@@YAXXZ 66632e70 f   party.obj
 0001:00031eb0       ?PartyHelpNewGame@@YAXXZ   66632eb0 f   party.obj
 0001:00031fb0       ?PartyHelpEndGame@@YAXXZ   66632fb0 f   party.obj
 0001:00031fc0       ?ResponseInvite@@YAXXZ     66632fc0 f   party.obj
 0001:00032060       ?CheckInvite@@YAHXZ        66633060 f   party.obj
 0001:000320b0       ?AutoParty@@YGXPAE@Z       666330b0 f   party.obj
 0001:00032190       ?RecvCommand_5A_Patch_ASM@@YAXXZ 66633190 f   party.obj
 0001:000321a0       ?AutoInvite@@YIXPAE@Z      666331a0 f   party.obj
 0001:00032260       ?RecvCommand_5B_Patch_ASM@@YAXXZ 66633260 f   party.obj
 0001:00032270       ?quick_addConfigVars@@YAXXZ 66633270 f   quick.obj
 0001:000322b0       ?quick_NewGame@@YAXXZ      666332b0 f   quick.obj
 0001:000322d0       ?quick_EndGame@@YAXXZ      666332d0 f   quick.obj
 0001:000322e0       ?skillCount@@YAHH@Z        666332e0 f   quick.obj
 0001:00032340       ?BackToTown@@YAHXZ         66633340 f   quick.obj
 0001:000323e0       ?quickLoop@@YAXXZ          666333e0 f   quick.obj
 0001:000324c0       ?AutoBackToTown@@YIXPAE@Z  666334c0 f   quick.obj
 0001:000325f0       ?RecvCommand_60_Patch_ASM@@YAXXZ 666335f0 f   quick.obj
 0001:00032600       ?SaveGameName@@YAXXZ       66633600 f   quick.obj
 0001:000326a0       ?QuickExitGame@@YAHXZ      666336a0 f   quick.obj
 0001:000326d0       ?QuickNextGame@@YAHH@Z     666336d0 f   quick.obj
 0001:00032920       ?NextGameNamePatch@@YIXPAUD2EditBox@@P6GH0HPAD@Z@Z 66633920 f   quick.obj
 0001:00032960       ?NextGamePasswordPatch@@YIXPAUD2EditBox@@P6GH0HPAD@Z@Z 66633960 f   quick.obj
 0001:000329a0       ?NextGameDecriptionPatch@@YIXPAUD2EditBox@@P6GH0HPAD@Z@Z 666339a0 f   quick.obj
 0001:000329e0       ?SelectGamePatch@@YIPAXPAUD2EditBox@@PA_W@Z 666339e0 f   quick.obj
 0001:00032a80       ?quickswap_addConfigVars@@YAXXZ 66633a80 f   QuickSwapItem.obj
 0001:00032ac0       ?PutItemIntoCube@@YAHPAUD2MSG@@HH@Z 66633ac0 f   QuickSwapItem.obj
 0001:00032e20       ?MoveItem@@YAXPAUD2MSG@@@Z 66633e20 f   QuickSwapItem.obj
 0001:00033400       ?RButtonUpHandlerPatch@@YGXPAUD2MSG@@@Z 66634400 f   QuickSwapItem.obj
 0001:00033440       ?RButtonUpHandlerPatch_ASM@@YAXXZ 66634440 f   QuickSwapItem.obj
 0001:00033460       ?RButtonInTradePatch_ASM@@YAXXZ 66634460 f   QuickSwapItem.obj
 0001:00033470       ?CtrlClickHandlerPatch_ASM@@YAXXZ 66634470 f   QuickSwapItem.obj
 0001:000334a0       ?Resolution_AddConfigVars@@YAXXZ 666344a0 f   resolution.obj
 0001:000334e0       ?changeResolution@@YAXH@Z  666344e0 f   resolution.obj
 0001:000334f0       ?resolution_init@@YAXXZ    666344f0 f   resolution.obj
 0001:00033540       ?resolution_uninit@@YAXXZ  66634540 f   resolution.obj
 0001:00033590       ?fitWindowToResolution@@YAXXZ 66634590 f   resolution.obj
 0001:000336d0       ?fitResolution@@YAXXZ      666346d0 f   resolution.obj
 0001:000339b0       ?SetBitBlockWidthAndHeightPatch_ASM@@YAXXZ 666349b0 f   resolution.obj
 0001:000339c0       ?SetCelDisplayLeftAndRightPatch_ASM@@YAXXZ 666349c0 f   resolution.obj
 0001:000339e0       ?IsNeedRestoreDownWindowPatchW_ASM@@YAXXZ 666349e0 f   resolution.obj
 0001:000339e0       ?IsNeedResizeWindowPatchW_ASM@@YAXXZ 666349e0 f   resolution.obj
 0001:000339f0       ?IsNeedRestoreDownWindowPatchH_ASM@@YAXXZ 666349f0 f   resolution.obj
 0001:000339f0       ?IsNeedResizeWindowPatchH_ASM@@YAXXZ 666349f0 f   resolution.obj
 0001:00033a00       ?SetDisplayWidthAndHeightPatch_ASM@@YAXXZ 66634a00 f   resolution.obj
 0001:00033a20       ?SetGeneralDisplayWidthAndHeightPatch_ASM@@YAXXZ 66634a20 f   resolution.obj
 0001:00033a40       ?GetGlobalBeltSlotPositionPatch_ASM@@YAXXZ 66634a40 f   resolution.obj
 0001:00033af0       ?GetGlobalBeltRecordPatch_ASM@@YAXXZ 66634af0 f   resolution.obj
 0001:00033bc0       ?AdjustWindowRectExPatch_ASM@@YAXXZ 66634bc0 f   resolution.obj
 0001:00033d10       ?ClearFramebufPatch_ASM@@YAXXZ 66634d10 f   resolution.obj
 0001:00033d30       ?DrawLeftOrbImagePatch_ASM@@YAXXZ 66634d30 f   resolution.obj
 0001:00033d60       ?DrawLeftOrbPatch_ASM@@YAXXZ 66634d60 f   resolution.obj
 0001:00033d80       ?DrawRightOrbImagePatch_ASM@@YAXXZ 66634d80 f   resolution.obj
 0001:00033db0       ?DrawRightOrbPatch_ASM@@YAXXZ 66634db0 f   resolution.obj
 0001:00033dd0       ?FillLeftOrbPatch_ASM@@YAXXZ 66634dd0 f   resolution.obj
 0001:00033df0       ?FillRightOrbPatch_ASM@@YAXXZ 66634df0 f   resolution.obj
 0001:00033e10       ?DrawLeftSkillButtonPatch_ASM@@YAXXZ 66634e10 f   resolution.obj
 0001:00033e30       ?DrawRightSkillButtonPatch_ASM@@YAXXZ 66634e30 f   resolution.obj
 0001:00033e50       ?DisplayHPTextPatch_ASM@@YAXXZ 66634e50 f   resolution.obj
 0001:00033e70       ?DisplayManaTextPatch_ASM@@YAXXZ 66634e70 f   resolution.obj
 0001:00033e90       ?DrawGroundHeightPatch_ASM@@YAXXZ 66634e90 f   resolution.obj
 0001:00033ec0       ?BottomBoundPatch_ASM@@YAXXZ 66634ec0 f   resolution.obj
 0001:00033ee0       ?installResolutionPatches@@YAHXZ 66634ee0 f   resolution.obj
 0001:00034390       ?autoskill_addConfigVars@@YAXXZ 66635390 f   skill.obj
 0001:000343d0       ?autoskill_initConfigVars@@YAXXZ 666353d0 f   skill.obj
 0001:00034530       ?AutoSkillNewGame@@YAXXZ   66635530 f   skill.obj
 0001:000345a0       ?checkAutoSkill@@YAXXZ     666355a0 f   skill.obj
 0001:000348e0       ?checkAutoSkillStatus@@YAXXZ 666358e0 f   skill.obj
 0001:00034990       ?stackThrowing@@YAXXZ      66635990 f   skill.obj
 0001:00034a50       ?AutoSkillNow@@YAHXZ       66635a50 f   skill.obj
 0001:00034a80       ?AutoSkillRunLoop@@YAXXZ   66635a80 f   skill.obj
 0001:00035ea0       ?autoSkillDimVision@@YIXPAD@Z 66636ea0 f   skill.obj
 0001:00035ef0       ?Snapshot_AddConfigVars@@YAXXZ 66636ef0 f   Snapshot.obj
 0001:00035f40       ?hex@@YAXPAU_iobuf@@HPAXH@Z 66636f40 f   Snapshot.obj
 0001:000360d0       ?LoadLogNames@@YAXPAU_iobuf@@@Z 666370d0 f   Snapshot.obj
 0001:000367e0       ?getSnapshotPath@@YAXPAD00000D@Z 666377e0 f   Snapshot.obj
 0001:00036cc0       ?openDbgFile@@YAPAU_iobuf@@PAD@Z 66637cc0 f   Snapshot.obj
 0001:00036ef0       ?SnapshotNewGame@@YAXXZ    66637ef0 f   Snapshot.obj
 0001:000370c0       ?SnapshotEndGame@@YAXXZ    666380c0 f   Snapshot.obj
 0001:000373c0       ?dumpStat@@YAXPAU_iobuf@@HHPAH@Z 666383c0 f   Snapshot.obj
 0001:00037810       ?dumpStatList@@YAHPAU_iobuf@@PAUStatList@@H@Z 66638810 f   Snapshot.obj
 0001:00037e50       ?loadWaypoints@@YAXPADH@Z  66638e50 f   Snapshot.obj
 0001:00037f00       ?saveWaypoints@@YAXPADH@Z  66638f00 f   Snapshot.obj
 0001:0003b490       ?dumpUnit2@@YAXPAU_iobuf@@PAUUnitAny@@@Z 6663c490 f   Snapshot.obj
 0001:0003b670       ?saveMercInfo@@YIXPAD@Z    6663c670 f   Snapshot.obj
 0001:0003b7b0       ?RecvCommand_81_Patch_ASM@@YAXXZ 6663c7b0 f   Snapshot.obj
 0001:0003b7c0       ?removeSnapshot@@YAXPAD00@Z 6663c7c0 f   Snapshot.obj
 0001:0003ba00       ?dumpServerQuest@@YAXPAU_iobuf@@@Z 6663ca00 f   Snapshot.obj
 0001:0003bc80       ?DoSnapshot@@YAHXZ         6663cc80 f   Snapshot.obj
 0001:0003c200       ?AutoSummonNewGame@@YAXXZ  6663d200 f   summon.obj
 0001:0003c2f0       ?checkSkeletonCount@@YAXXZ 6663d2f0 f   summon.obj
 0001:0003c4c0       ?AutoSummonRunLoop@@YAXXZ  6663d4c0 f   summon.obj
 0001:0003cce0       ?addUnit@@YIXPAUUnitAny@@@Z 6663dce0 f   summon.obj
 0001:0003cd60       ?AddUnitPatch_ASM@@YAXXZ   6663dd60 f   summon.obj
 0001:0003cd80       ?RemoveUnitPatch1_ASM@@YAXXZ 6663dd80 f   summon.obj
 0001:0003cda0       ?RemoveUnitPatch2_ASM@@YAXXZ 6663dda0 f   summon.obj
 0001:0003cdc0       ?RecvCommand_69_Patch_ASM@@YAXXZ 6663ddc0 f   summon.obj
 0001:0003cdf0       ?RecvCommand_7A_Patch_ASM@@YAXXZ 6663ddf0 f   summon.obj
 0001:0003ce20       ?RecvCommand_21_Patch_ASM@@YAXXZ 6663de20 f   summon.obj
 0001:0003ce40       ?autoteleport_addConfigVars@@YAXXZ 6663de40 f   teleport.obj
 0001:0003ce80       ?autoteleport_initConfigVars@@YAXXZ 6663de80 f   teleport.obj
 0001:0003cea0       ?autoteleport_fixValues@@YAXXZ 6663dea0 f   teleport.obj
 0001:0003cec0       ?AutoTeleportStart@@YAHXZ  6663dec0 f   teleport.obj
 0001:0003cf60       ?AutoTeleportEnd@@YAHXZ    6663df60 f   teleport.obj
 0001:0003cfe0       ?AutoTeleport@@YAHXZ       6663dfe0 f   teleport.obj
 0001:0003ed60       ?abs@@YAJJ@Z               6663fd60 f i teleport.obj
 0001:0003f350       ?dumpRunewordTxt@@YAXXZ    66640350 f   txt.obj
 0001:0003f620       ?dumpTxt@@YAXXZ            66640620 f   txt.obj
 0001:0003fb00       ?panel_addConfigVars@@YAXXZ 66640b00 f   panel.obj
 0001:0003fb40       ?printPanelConf@@YAPADHPAD0@Z 66640b40 f   panel.obj
 0001:0003fc70       ?panelNewGame@@YAXXZ       66640c70 f   panel.obj
 0001:0003fe00       ?panelEndGame@@YAXXZ       66640e00 f   panel.obj
 0001:0003fe30       ?modifyStashGrid@@YAXXZ    66640e30 f   panel.obj
 0001:00040330       ?MpqLoadPatch@@YIXPAD0@Z   66641330 f   panel.obj
 0001:00040410       ?MqpLoadPathPatch_ASM@@YAXXZ 66641410 f   panel.obj
 0001:00040430       ?ModifyStashImagePatch_ASM@@YAXXZ 66641430 f   panel.obj
 0001:00040440       ?ModifyCubeImagePatch_ASM@@YAXXZ 66641440 f   panel.obj
 0001:00040470       ?ModifyInvCharImagePatch_ASM@@YAXXZ 66641470 f   panel.obj
 0001:000404b0       ?ChooseInvCharImagePatch_ASM@@YAXXZ 666414b0 f   panel.obj
 0001:000404e0       ?CalDrawOffsetPatch_ASM@@YAXXZ 666414e0 f   panel.obj
 0001:00040570       ?GetEquipmentSlotLayoutPatch_ASM@@YAXXZ 66641570 f   panel.obj
 0001:00040710       ?GetInventoryGridLayoutPatch_ASM@@YAXXZ 66641710 f   panel.obj
 0001:000407c0       ?GetInventoryPositionPatch_ASM@@YAXXZ 666417c0 f   panel.obj
 0001:00040870       ?AddSkillPatch_ASM@@YAXXZ  66641870 f   panel.obj
 0001:000408f0       ?RecvCommand_26_Patch_ASM@@YAXXZ 666418f0 f   panel.obj
 0001:00040cf0       ?installPanelPatches@@YAHXZ 66641cf0 f   panel.obj
 0001:00040e80       ?uninstallBigstashPatches@@YAHXZ 66641e80 f   panel.obj
 0001:00040ea0       ?installBigstashPatches@@YAHXZ 66641ea0 f   panel.obj
 0001:00041360       ?server_addConfigVars@@YAXXZ 66642360 f   server.obj
 0001:000413a0       ?client_unassign_stat@@YAHHH@Z 666423a0 f   server.obj
 0001:00041480       ?client_mouse_stat@@YAHHH@Z 66642480 f   server.obj
 0001:00041550       ?getSkillDescTxt@@YAPAXH@Z 66642550 f   server.obj
 0001:00041560       ?getSkillTreeButtonY@@YAHH@Z 66642560 f   server.obj
 0001:00041570       ?getSkillTreeButtonX@@YAHH@Z 66642570 f   server.obj
 0001:00041580       ?client_mouse_skillBtn@@YAHHH@Z 66642580 f   server.obj
 0001:00041680       ?client_unassign_skill@@YAHHH@Z 66642680 f   server.obj
 0001:00041760       ?client_reset_quest@@YAHH@Z 66642760 f   server.obj
 0001:00041790       ?UndoStr@@YAXPAUUnitAny@@H@Z 66642790 f   server.obj
 0001:00041830       ?UndoDex@@YAXPAUUnitAny@@H@Z 66642830 f   server.obj
 0001:000418d0       ?UndoVit@@YAXPAUUnitAny@@H@Z 666428d0 f   server.obj
 0001:000419d0       ?UndoEne@@YAXPAUUnitAny@@H@Z 666429d0 f   server.obj
 0001:00041aa0       ?getClient@@YAPAXPAUUnitAny@@@Z 66642aa0 f   server.obj
 0001:00041ad0       ?UndoSkill@@YAXPAUUnitAny@@HH@Z 66642ad0 f   server.obj
 0001:00041cb0       ?getQuest@@YAPAGPAUWorld@@PAUUnitAny@@@Z 66642cb0 f   server.obj
 0001:00041cf0       ?serverUndo@@YAHPAUWorld@@PAUUnitAny@@PAD2@Z 66642cf0 f   server.obj
 0001:000423e0       ?ModifyStashGridPatch_ASM@@YAXXZ 666433e0 f   server.obj
 0001:000423f0       ?compileRunesTxt@@YGPAXHPADPAUTxtField@@PAHH@Z 666433f0 f   server.obj
 0001:00042450       ?NoMonsterDropPatch_ASM@@YAXXZ 66643450 f   server.obj
 0001:00042520       ?GameStartPatch_ASM@@YAXXZ 66643520 f   server.obj
 0001:000426c0       ?server_test@@YAXH@Z       666436c0 f   server.obj
 0001:000426e0       ?DoServerTest@@YAHXZ       666436e0 f   server.obj
 0001:000427d0       ?installServerPatches@@YAHXZ 666437d0 f   server.obj
 0001:00042c80       ?RepeatAdminCmd@@YAHXZ     66643c80 f   admin.obj
 0001:00042cf0       ?ClientChatPatch_ASM@@YAXXZ 66643cf0 f   admin.obj
 0001:00042d80       ?setCharLv@@YAXPAUWorld@@PAUUnitAny@@H@Z 66643d80 f   admin.obj
 0001:00042e20       ?maxCharStat@@YAXPAUWorld@@PAUUnitAny@@@Z 66643e20 f   admin.obj
 0001:00042ed0       ?enableAllWaypoints@@YAXPAUUnitAny@@@Z 66643ed0 f   admin.obj
 0001:00042f50       ?passGame@@YAHPAUWorld@@PAUUnitAny@@H@Z 66643f50 f   admin.obj
 0001:00043170       ?itemIndex2txt@@YAHH@Z     66644170 f   admin.obj
 0001:00043200       ?SelectUniquePatch_ASM@@YAXXZ 66644200 f   admin.obj
 0001:00043340       ?SelectSetPatch_ASM@@YAXXZ 66644340 f   admin.obj
 0001:000433d0       ?getItemTxtByCode@@YAHH@Z  666443d0 f   admin.obj
 0001:00043480       ?maximizeProps@@YAXPAUUnitAny@@PAUItemProp@@H@Z 66644480 f   admin.obj
 0001:000435f0       ?getRunewordTxt@@YAPAURuneWordTxt@@H@Z 666445f0 f   admin.obj
 0001:00043630       ?pickupItem@@YAXPAUWorld@@PAUUnitAny@@1H@Z 66644630 f   admin.obj
 0001:00043690       ?invToHand@@YAXPAUWorld@@PAUUnitAny@@1@Z 66644690 f   admin.obj
 0001:000436d0       ?handToBody@@YAXPAUWorld@@PAUUnitAny@@1H@Z 666446d0 f   admin.obj
 0001:00043760       ?putItemIntoSocket@@YAXPAUWorld@@PAUUnitAny@@11@Z 66644760 f   admin.obj
 0001:000437a0       ?autoPortal@@YAHPAUWorld@@PAUUnitAny@@@Z 666447a0 f   admin.obj
 0001:00043bd0       ?MonsterSleepPatch_ASM@@YAXXZ 66644bd0 f   admin.obj
 0001:00043bf0       ?skipServerPacket15@@YIHPAUWorld@@PAUUnitAny@@PADH@Z 66644bf0 f   admin.obj
 0001:000468c0       ?ServerRecvPacket15Patch_ASM@@YAXXZ 666478c0 f   admin.obj
 0001:000468f0       ?uber_addConfigVars@@YAXXZ 666478f0 f   uber.obj
 0001:00046930       ?resetUberQuest@@YAXXZ     66647930 f   uber.obj
 0001:000469a0       ?openPandPortal@@YIHPAUWorld@@PAUUnitAny@@@Z 666479a0 f   uber.obj
 0001:00046a60       ?openPandFinalPortal@@YIHPAUWorld@@PAUUnitAny@@@Z 66647a60 f   uber.obj
 0001:00046aa0       ?spawnSuperUnique@@YAHPAUWorld@@PAUAreaRectData@@HHHHHH@Z 66647aa0 f   uber.obj
 0001:00046ad0       ?monsterUseSkill@@YAXPAUWorld@@PAUUnitAny@@HH1HH@Z 66647ad0 f   uber.obj
 0001:00046b10       ?spawnUber@@YGXPAUWorld@@PAUAreaRectData@@@Z 66647b10 f   uber.obj
 0001:00046d60       ?GetNbMonsters@@YAHPAUDrlgLevel@@@Z 66647d60 f   uber.obj
 0001:00046df0       ?GetNbMonstersRadius@@YAHPAUDrlgLevel@@UtagPOINT@@H@Z 66647df0 f   uber.obj
 0001:00046eb0       ?CastSummonMonster@@YAHPAUWorld@@PAUUnitAny@@HHPAHHH@Z 66647eb0 f   uber.obj
 0001:00046fe0       ?randf@@YANXZ              66647fe0 f   uber.obj
 0001:00047000       ?RandInCircle@@YAXPAUtagPOINT@@H@Z 66648000 f   uber.obj
 0001:00047060       ?uberMephAI@@YIXPAUWorld@@PAUUnitAny@@PAUAIParam@@@Z 66648060 f   uber.obj
 0001:000470f0       ?uberDiabloAI@@YIXPAUWorld@@PAUUnitAny@@PAUAIParam@@@Z 666480f0 f   uber.obj
 0001:00047240       ?uberBaalAI@@YIXPAUWorld@@PAUUnitAny@@PAUAIParam@@@Z 66648240 f   uber.obj
 0001:00047410       ?installUberQuestPatches@@YAHXZ 66648410 f   uber.obj
 0001:00047536       ??0_LocaleUpdate@@QAE@PAUlocaleinfo_struct@@@Z 66648536 f i LIBCMT:stricmp.obj
 0001:000475bd       ___ascii_stricmp           666485bd f   LIBCMT:stricmp.obj
 0001:000475f6       __stricmp_l                666485f6 f   LIBCMT:stricmp.obj
 0001:000476cb       __stricmp                  666486cb f   LIBCMT:stricmp.obj
 0001:0004771d       __flush                    6664871d f   LIBCMT:fflush.obj
 0001:00047785       __fflush_nolock            66648785 f   LIBCMT:fflush.obj
 0001:000478a7       _fflush                    666488a7 f   LIBCMT:fflush.obj
 0001:000478fa       __flushall                 666488fa f   LIBCMT:fflush.obj
 0001:00047903       _fprintf                   66648903 f   LIBCMT:fprintf.obj
 0001:00047a1f       _bsearch                   66648a1f f   LIBCMT:bsearch.obj
 0001:00047ae1       @__security_check_cookie@4 66648ae1 f   LIBCMT:secchk.obj
 0001:00047af0       _sprintf                   66648af0 f   LIBCMT:sprintf.obj
 0001:00047b70       _memset                    66648b70 f   LIBCMT:memset.obj
 0001:00047bea       __fclose_nolock            66648bea f   LIBCMT:fclose.obj
 0001:00047c61       _fclose                    66648c61 f   LIBCMT:fclose.obj
 0001:00047cdd       _fputs                     66648cdd f   LIBCMT:fputs.obj
 0001:00047df0       _strncpy                   66648df0 f   LIBCMT:strncpy.obj
 0001:00047f30       _strchr                    66648f30 f   LIBCMT:strchr.obj
 0001:00047f36       ___from_strstr_to_strchr   66648f36     LIBCMT:strchr.obj
 0001:00047ff0       _strrchr                   66648ff0 f   LIBCMT:strrchr.obj
 0001:000480e0       _qsort                     666490e0 f   LIBCMT:qsort.obj
 0001:0004832d       _realloc                   6664932d f   LIBCMT:realloc.obj
 0001:00048550       _memcpy                    66649550 f   LIBCMT:memcpy.obj
 0001:000488b5       __isalpha_l                666498b5 f i LIBCMT:_ctype.obj
 0001:0004890b       _isalpha                   6664990b f i LIBCMT:_ctype.obj
 0001:0004893b       __isdigit_l                6664993b f i LIBCMT:_ctype.obj
 0001:0004898c       _isdigit                   6664998c f i LIBCMT:_ctype.obj
 0001:000489ba       __isspace_l                666499ba f i LIBCMT:_ctype.obj
 0001:00048a0b       _isspace                   66649a0b f i LIBCMT:_ctype.obj
 0001:00048a39       __isalnum_l                66649a39 f i LIBCMT:_ctype.obj
 0001:00048a8f       _isalnum                   66649a8f f i LIBCMT:_ctype.obj
 0001:00048cee       _strtol                    66649cee f   LIBCMT:strtol.obj
 0001:00048d19       _strtoul                   66649d19 f   LIBCMT:strtol.obj
 0001:00048d45       __toupper_l                66649d45 f   LIBCMT:toupper.obj
 0001:00048e5b       _toupper                   66649e5b f   LIBCMT:toupper.obj
 0001:00048e87       __memicmp_l                66649e87 f   LIBCMT:memicmp.obj
 0001:00048f5c       __memicmp                  66649f5c f   LIBCMT:memicmp.obj
 0001:00048fbb       ___iob_func                66649fbb f   LIBCMT:_file.obj
 0001:00048fc1       ___initstdio               66649fc1 f   LIBCMT:_file.obj
 0001:00049072       ___endstdio                6664a072 f   LIBCMT:_file.obj
 0001:00049092       __lock_file                6664a092 f   LIBCMT:_file.obj
 0001:000490d3       __lock_file2               6664a0d3 f   LIBCMT:_file.obj
 0001:00049105       __unlock_file              6664a105 f   LIBCMT:_file.obj
 0001:00049141       __unlock_file2             6664a141 f   LIBCMT:_file.obj
 0001:00049170       __cfltcvt_init             6664a170 f   LIBCMT:_fpinit_.obj
 0001:000491d0       __fpmath                   6664a1d0 f   LIBCMT:_fpinit_.obj
 0001:00049200       __except_handler4          6664a200 f   LIBCMT:chandler4.obj
 0001:0004938c       _V6_HeapAlloc              6664a38c f   LIBCMT:malloc.obj
 0001:000493db       _malloc                    6664a3db f   LIBCMT:malloc.obj
 0001:000494b0       _strstr                    6664a4b0 f   LIBCMT:strstr.obj
 0001:00049536       _fgets                     6664a536 f   LIBCMT:fgets.obj
 0001:0004967e       __fseek_nolock             6664a67e f   LIBCMT:fseek.obj
 0001:00049708       _fseek                     6664a708 f   LIBCMT:fseek.obj
 0001:0004978d       __fread_nolock_s           6664a78d f   LIBCMT:fread.obj
 0001:00049997       _fread_s                   6664a997 f   LIBCMT:fread.obj
 0001:00049a2d       _fread                     6664aa2d f   LIBCMT:fread.obj
 0001:00049a4a       _strtok                    6664aa4a f   LIBCMT:strtok.obj
 0001:00049b10       __ftol2_sse                6664ab10 f   LIBCMT:ftol2.obj
 0001:00049b19       __ftol2_pentium4           6664ab19 f   LIBCMT:ftol2.obj
 0001:00049b2c       __ftol2_sse_excpt          6664ab2c f   LIBCMT:ftol2.obj
 0001:00049b46       __ftol2                    6664ab46 f   LIBCMT:ftol2.obj
 0001:00049bbb       ??3@YAXPAX@Z               6664abbb f   LIBCMT:delete.obj
 0001:00049bc6       ??0bad_alloc@std@@QAE@XZ   6664abc6 f i LIBCMT:new.obj
 0001:00049be1       ??1bad_alloc@std@@UAE@XZ   6664abe1 f i LIBCMT:new.obj
 0001:00049bec       ??_Gbad_alloc@std@@UAEPAXI@Z 6664abec f i LIBCMT:new.obj
 0001:00049bec       ??_Ebad_alloc@std@@UAEPAXI@Z 6664abec f i LIBCMT:new.obj
 0001:00049c13       ??0bad_alloc@std@@QAE@ABV01@@Z 6664ac13 f i LIBCMT:new.obj
 0001:00049c30       ??2@YAPAXI@Z               6664ac30 f   LIBCMT:new.obj
 0001:00049c95       _free                      6664ac95 f   LIBCMT:free.obj
 0001:00049dfd       __stat64i32                6664adfd f   LIBCMT:stati32.obj
 0001:0004a1d1       __fwrite_nolock            6664b1d1 f   LIBCMT:fwrite.obj
 0001:0004a333       _fwrite                    6664b333 f   LIBCMT:fwrite.obj
 0001:0004a3b5       __fsopen                   6664b3b5 f   LIBCMT:fopen.obj
 0001:0004a479       _fopen                     6664b479 f   LIBCMT:fopen.obj
 0001:0004a490       __snprintf                 6664b490 f   LIBCMT:snprintf.obj
 0001:0004a53f       __ftell_nolock             6664b53f f   LIBCMT:ftell.obj
 0001:0004a6dc       _ftell                     6664b6dc f   LIBCMT:ftell.obj
 0001:0004a750       __chkstk                   6664b750 f   LIBCMT:chkstk.obj
 0001:0004a750       __alloca_probe             6664b750     LIBCMT:chkstk.obj
 0001:0004a780       __CIsqrt                   6664b780 f   LIBCMT:_sqrt_.obj
 0001:0004a794       _sqrt                      6664b794     LIBCMT:_sqrt_.obj
 0001:0004a83a       __vsnprintf_l              6664b83a f   LIBCMT:vsnprint.obj
 0001:0004a8ed       __vsnprintf                6664b8ed f   LIBCMT:vsnprint.obj
 0001:0004a90a       _rename                    6664b90a f   LIBCMT:rename.obj
 0001:0004a940       _memmove                   6664b940 f   LIBCMT:memmove.obj
 0001:0004aca5       __isleadbyte_l             6664bca5 f i LIBCMT:_wctype.obj
 0001:0004acdd       _isleadbyte                6664bcdd f i LIBCMT:_wctype.obj
 0001:0004acf0       _iswspace                  6664bcf0 f i LIBCMT:_wctype.obj
 0001:0004ad03       _fputc                     6664bd03 f   LIBCMT:fputc.obj
 0001:0004ae0f       __get_printf_count_output  6664be0f f   LIBCMT:printf.obj
 0001:0004ae25       __time64                   6664be25 f   LIBCMT:time64.obj
 0001:0004ae76       __freea                    6664be76 f i LIBCMT:strupr.obj
 0001:0004b014       __strupr_s_l               6664c014 f   LIBCMT:strupr.obj
 0001:0004b049       __strupr                   6664c049 f   LIBCMT:strupr.obj
 0001:0004b2a8       _wcstol                    6664c2a8 f   LIBCMT:wcstol.obj
 0001:0004b2e0       __allshr                   6664c2e0 f   LIBCMT:llshr.obj
 0001:0004b301       _rand                      6664c301 f   LIBCMT:rand.obj
 0001:0004b330       _sin                       6664c330 f   LIBCMT:_sin_.obj
 0001:0004b370       __CIsin                    6664c370 f   LIBCMT:_sin_.obj
 0001:0004b3ab       __CIsin_default            6664c3ab f   LIBCMT:_sin_.obj
 0001:0004b3bf       __sin_default              6664c3bf     LIBCMT:_sin_.obj
 0001:0004b460       _cos                       6664c460 f   LIBCMT:_cos_.obj
 0001:0004b4a0       __CIcos                    6664c4a0 f   LIBCMT:_cos_.obj
 0001:0004b4db       __CIcos_default            6664c4db f   LIBCMT:_cos_.obj
 0001:0004b4ef       __cos_default              6664c4ef     LIBCMT:_cos_.obj
 0001:0004b589       __CRT_INIT@12              6664c589 f   LIBCMT:dllcrt0.obj
 0001:0004b7b4       __DllMainCRTStartup@12     6664c7b4 f   LIBCMT:dllcrt0.obj
 0001:0004b9fd       ___updatetmbcinfo          6664c9fd f   LIBCMT:mbctype.obj
 0001:0004bb1d       __setmbcp_nolock           6664cb1d f   LIBCMT:mbctype.obj
 0001:0004bd02       __setmbcp                  6664cd02 f   LIBCMT:mbctype.obj
 0001:0004be9c       ___initmbctable            6664ce9c f   LIBCMT:mbctype.obj
 0001:0004beba       ___freetlocinfo            6664ceba f   LIBCMT:setlocal.obj
 0001:0004c003       ___addlocaleref            6664d003 f   LIBCMT:setlocal.obj
 0001:0004c092       ___removelocaleref         6664d092 f   LIBCMT:setlocal.obj
 0001:0004c169       ___updatetlocinfo          6664d169 f   LIBCMT:setlocal.obj
 0001:0004c1df       __encode_pointer           6664d1df f   LIBCMT:tidtable.obj
 0001:0004c251       __encoded_null             6664d251 f   LIBCMT:tidtable.obj
 0001:0004c25a       __decode_pointer           6664d25a f   LIBCMT:tidtable.obj
 0001:0004c2cc       ___crtTlsAlloc@4           6664d2cc f   LIBCMT:tidtable.obj
 0001:0004c2d5       ___set_flsgetvalue         6664d2d5 f   LIBCMT:tidtable.obj
 0001:0004c309       __mtterm                   6664d309 f   LIBCMT:tidtable.obj
 0001:0004c346       __initptd                  6664d346 f   LIBCMT:tidtable.obj
 0001:0004c42d       __getptd_noexit            6664d42d f   LIBCMT:tidtable.obj
 0001:0004c4a6       __getptd                   6664d4a6 f   LIBCMT:tidtable.obj
 0001:0004c4c0       __freefls@4                6664d4c0 f   LIBCMT:tidtable.obj
 0001:0004c5ef       __freeptd                  6664d5ef f   LIBCMT:tidtable.obj
 0001:0004c65d       __mtinit                   6664d65d f   LIBCMT:tidtable.obj
 0001:0004c7ea       __tolower_l                6664d7ea f   LIBCMT:tolower.obj
 0001:0004c8ff       _tolower                   6664d8ff f   LIBCMT:tolower.obj
 0001:0004c92b       __initp_misc_invarg        6664d92b f   LIBCMT:invarg.obj
 0001:0004c93a       __invoke_watson            6664d93a f   LIBCMT:invarg.obj
 0001:0004ca62       __invalid_parameter        6664da62 f   LIBCMT:invarg.obj
 0001:0004ca88       __get_errno_from_oserr     6664da88 f   LIBCMT:dosmap.obj
 0001:0004caca       __errno                    6664daca f   LIBCMT:dosmap.obj
 0001:0004cadd       ___doserrno                6664dadd f   LIBCMT:dosmap.obj
 0001:0004caf0       __dosmaperr                6664daf0 f   LIBCMT:dosmap.obj
 0001:0004cb13       __write_nolock             6664db13 f   LIBCMT:write.obj
 0001:0004d246       __write                    6664e246 f   LIBCMT:write.obj
 0001:0004d322       __fileno                   6664e322 f   LIBCMT:fileno.obj
 0001:0004d354       __commit                   6664e354 f   LIBCMT:commit.obj
 0001:0004d435       __mtinitlocks              6664e435 f   LIBCMT:mlock.obj
 0001:0004d480       __mtdeletelocks            6664e480 f   LIBCMT:mlock.obj
 0001:0004d4d7       __unlock                   6664e4d7 f   LIBCMT:mlock.obj
 0001:0004d4ee       __mtinitlocknum            6664e4ee f   LIBCMT:mlock.obj
 0001:0004d5b1       __lock                     6664e5b1 f   LIBCMT:mlock.obj
 0001:0004d5e4       __SEH_prolog4              6664e5e4 f   LIBCMT:sehprolg4.obj
 0001:0004d629       __SEH_epilog4              6664e629 f   LIBCMT:sehprolg4.obj
 0001:0004d63d       __stbuf                    6664e63d f   LIBCMT:_sftbuf.obj
 0001:0004d6d9       __ftbuf                    6664e6d9 f   LIBCMT:_sftbuf.obj
 0001:0004d7b3       __output_l                 6664e7b3 f   LIBCMT:output.obj
 0001:0004e34b       __ioinit                   6664f34b f   LIBCMT:ioinit.obj
 0001:0004e59f       __ioterm                   6664f59f f   LIBCMT:ioinit.obj
 0001:0004e5ed       ___report_gsfailure        6664f5ed f   LIBCMT:gs_report.obj
 0001:0004e6f3       __flsbuf                   6664f6f3 f   LIBCMT:_flsbuf.obj
 0001:0004e8ae       __VEC_memzero              6664f8ae f   LIBCMT:p4_memset.obj
 0001:0004e98d       __get_sse2_info            6664f98d f   LIBCMT:cpu_disp.obj
 0001:0004e9ef       ___sse2_available_init     6664f9ef f   LIBCMT:cpu_disp.obj
 0001:0004e9fc       __close_nolock             6664f9fc f   LIBCMT:close.obj
 0001:0004ea98       __close                    6664fa98 f   LIBCMT:close.obj
 0001:0004eb65       __freebuf                  6664fb65 f   LIBCMT:_freebuf.obj
 0001:0004eba0       _strlen                    6664fba0 f   LIBCMT:strlen.obj
 0001:0004ec2b       __initp_heap_handler       6664fc2b f   LIBCMT:handler.obj
 0001:0004ec3a       __callnewh                 6664fc3a f   LIBCMT:handler.obj
 0001:0004ec62       __heap_init                6664fc62 f   LIBCMT:heapinit.obj
 0001:0004ec92       __heap_term                6664fc92 f   LIBCMT:heapinit.obj
 0001:0004ed06       ___sbh_find_block          6664fd06 f   LIBCMT:sbheap.obj
 0001:0004ed36       ___sbh_free_block          6664fd36 f   LIBCMT:sbheap.obj
 0001:0004f04c       ___sbh_alloc_new_region    6665004c f   LIBCMT:sbheap.obj
 0001:0004f0fc       ___sbh_alloc_new_group     666500fc f   LIBCMT:sbheap.obj
 0001:0004f204       ___sbh_resize_block        66650204 f   LIBCMT:sbheap.obj
 0001:0004f4e5       ___sbh_alloc_block         666504e5 f   LIBCMT:sbheap.obj
 0001:0004f851       __VEC_memcpy               66650851 f   LIBCMT:p4_memcpy.obj
 0001:0004f934       __isctype_l                66650934 f   LIBCMT:isctype.obj
 0001:0004fd91       ___crtLCMapStringA         66650d91 f   LIBCMT:a_map.obj
 0001:0004fde0       ___ascii_memicmp           66650de0 f   LIBCMT:_memicmp.obj
 0001:0004fe39       __malloc_crt               66650e39 f   LIBCMT:crtheap.obj
 0001:0004fe7e       __calloc_crt               66650e7e f   LIBCMT:crtheap.obj
 0001:0004feca       __realloc_crt              66650eca f   LIBCMT:crtheap.obj
 0001:0004ff18       __recalloc_crt             66650f18 f   LIBCMT:crtheap.obj
 0001:0004ff6a       __fcloseall                66650f6a f   LIBCMT:closeall.obj
 0001:00050009       __crt_waiting_on_module_handle 66651009 f   LIBCMT:crt0dat.obj
 0001:00050039       __amsg_exit                66651039 f   LIBCMT:crt0dat.obj
 0001:00050062       ___crtCorExitProcess       66651062 f   LIBCMT:crt0dat.obj
 0001:0005008d       ___crtExitProcess          6665108d f   LIBCMT:crt0dat.obj
 0001:000500a5       __lockexit                 666510a5 f   LIBCMT:crt0dat.obj
 0001:000500ae       __unlockexit               666510ae f   LIBCMT:crt0dat.obj
 0001:000500d4       __initterm_e               666510d4 f   LIBCMT:crt0dat.obj
 0001:000500f8       __cinit                    666510f8 f   LIBCMT:crt0dat.obj
 0001:000502a9       __exit                     666512a9 f   LIBCMT:crt0dat.obj
 0001:000502bf       __cexit                    666512bf f   LIBCMT:crt0dat.obj
 0001:000502ce       __init_pointers            666512ce f   LIBCMT:crt0dat.obj
 0001:0005031c       __forcdecpt_l              6665131c f   LIBCMT:cvt.obj
 0001:0005038f       __cropzeros_l              6665138f f   LIBCMT:cvt.obj
 0001:00050411       __positive                 66651411 f   LIBCMT:cvt.obj
 0001:0005042d       __fassign_l                6665142d f   LIBCMT:cvt.obj
 0001:0005046f       __fassign                  6665146f f   LIBCMT:cvt.obj
 0001:000504a8       __forcdecpt                666514a8 f   LIBCMT:cvt.obj
 0001:000504bb       __cropzeros                666514bb f   LIBCMT:cvt.obj
 0001:0005063d       __cftoe_l                  6665163d f   LIBCMT:cvt.obj
 0001:0005070d       __cftoe                    6665170d f   LIBCMT:cvt.obj
 0001:0005072d       __cftoa_l                  6665172d f   LIBCMT:cvt.obj
 0001:00050b97       __cftof_l                  66651b97 f   LIBCMT:cvt.obj
 0001:00050c52       __cftog_l                  66651c52 f   LIBCMT:cvt.obj
 0001:00050d4c       __cfltcvt_l                66651d4c f   LIBCMT:cvt.obj
 0001:00050dd4       __cfltcvt                  66651dd4 f   LIBCMT:cvt.obj
 0001:00050df7       __initp_misc_cfltcvt_tab   66651df7 f   LIBCMT:cmiscdat.obj
 0001:00050e18       __setdefaultprecision      66651e18 f   LIBCMT:fp8.obj
 0001:00050e43       __ms_p5_test_fdiv          66651e43 f   LIBCMT:_testfdiv_.obj
 0001:00050e81       __ms_p5_mp_test_fdiv       66651e81 f   LIBCMT:_testfdiv_.obj
 0001:00050eac       __local_unwind4            66651eac f   LIBCMT:exsup4.obj
 0001:00050f82       __seh_longjmp_unwind4@4    66651f82 f   LIBCMT:exsup4.obj
 0001:00050f9e       @_EH4_CallFilterFunc@8     66651f9e f   LIBCMT:exsup4.obj
 0001:00050fb5       @_EH4_TransferToHandler@8  66651fb5 f   LIBCMT:exsup4.obj
 0001:00050fce       @_EH4_GlobalUnwind@4       66651fce f   LIBCMT:exsup4.obj
 0001:00050fe8       @_EH4_LocalUnwind@16       66651fe8 f   LIBCMT:exsup4.obj
 0001:00051000       __ValidateImageBase        66652000 f   LIBCMT:pesect.obj
 0001:00051040       __FindPESection            66652040 f   LIBCMT:pesect.obj
 0001:00051090       __IsNonwritableInCurrentImage 66652090 f   LIBCMT:pesect.obj
 0001:0005114d       __NMSG_WRITE               6665214d f   LIBCMT:crt0msg.obj
 0001:000512f8       __FF_MSGBANNER             666522f8 f   LIBCMT:crt0msg.obj
 0001:00051331       __filbuf                   66652331 f   LIBCMT:_filbuf.obj
 0001:0005145c       __lseek_nolock             6665245c f   LIBCMT:lseek.obj
 0001:000514d1       __lseek                    666524d1 f   LIBCMT:lseek.obj
 0001:000515ad       __read_nolock              666525ad f   LIBCMT:read.obj
 0001:00051b6f       __read                     66652b6f f   LIBCMT:read.obj
 0001:00051c6c       _memcpy_s                  66652c6c f   LIBCMT:memcpy_s.obj
 0001:00051ce9       ??0exception@std@@QAE@ABQBDH@Z 66652ce9 f   LIBCMT:stdexcpt.obj
 0001:00051d06       ??0exception@std@@QAE@ABV01@@Z 66652d06 f   LIBCMT:stdexcpt.obj
 0001:00051d63       ??1exception@std@@UAE@XZ   66652d63 f   LIBCMT:stdexcpt.obj
 0001:00051d79       ?what@exception@std@@UBEPBDXZ 66652d79 f   LIBCMT:stdexcpt.obj
 0001:00051d86       ??_Eexception@std@@UAEPAXI@Z 66652d86 f i LIBCMT:stdexcpt.obj
 0001:00051d86       ??_Gexception@std@@UAEPAXI@Z 66652d86 f i LIBCMT:stdexcpt.obj
 0001:00051da7       ??1type_info@@UAE@XZ       66652da7 f   LIBCMT:typinfo.obj
 0001:00051db7       ??_Etype_info@@UAEPAXI@Z   66652db7 f i LIBCMT:typinfo.obj
 0001:00051db7       ??_Gtype_info@@UAEPAXI@Z   66652db7 f i LIBCMT:typinfo.obj
 0001:00051e92       ___onexitinit              66652e92 f   LIBCMT:onexit.obj
 0001:00051ec3       __onexit                   66652ec3 f   LIBCMT:onexit.obj
 0001:00051eff       _atexit                    66652eff f   LIBCMT:onexit.obj
 0001:00051f16       __CxxThrowException@8      66652f16 f   LIBCMT:throw.obj
 0001:00051f62       __fullpath                 66652f62 f   LIBCMT:fullpath.obj
 0001:0005206c       ___dtoxmode                6665306c f   LIBCMT:stat.obj
 0001:00052129       ___loctotime64_t           66653129 f   LIBCMT:dtoxtm64.obj
 0001:00052394       __getdrive                 66653394 f   LIBCMT:drive.obj
 0001:0005245d       __mbctolower_l             6665345d f   LIBCMT:mbtolwr.obj
 0001:00052503       __mbctolower               66653503 f   LIBCMT:mbtolwr.obj
 0001:00052516       __mbspbrk_l                66653516 f   LIBCMT:mbspbrk.obj
 0001:000525e3       __mbspbrk                  666535e3 f   LIBCMT:mbspbrk.obj
 0001:000525fa       __openfile                 666535fa f   LIBCMT:_open.obj
 0001:000528c3       __getstream                666538c3 f   LIBCMT:stream.obj
 0001:00052a00       __trandisp1                66653a00 f   LIBCMT:_87disp_.obj
 0001:00052a67       __trandisp2                66653a67 f   LIBCMT:_87disp_.obj
 0001:00052af3       __rttospopde               66653af3     LIBCMT:_87disp_.obj
 0001:00052af8       __rttospop                 66653af8     LIBCMT:_87disp_.obj
 0001:00052afa       __rtnospop                 66653afa     LIBCMT:_87disp_.obj
 0001:00052afc       __rttosnpop                66653afc     LIBCMT:_87disp_.obj
 0001:00052afd       __rtnospopde               66653afd     LIBCMT:_87disp_.obj
 0001:00052b04       __rtzeropop                66653b04     LIBCMT:_87disp_.obj
 0001:00052b06       __rtzeronpop               66653b06     LIBCMT:_87disp_.obj
 0001:00052b0b       __rtonepop                 66653b0b     LIBCMT:_87disp_.obj
 0001:00052b0d       __rtonenpop                66653b0d     LIBCMT:_87disp_.obj
 0001:00052b12       __tosnan1                  66653b12     LIBCMT:_87disp_.obj
 0001:00052b3d       __nosnan2                  66653b3d     LIBCMT:_87disp_.obj
 0001:00052b3f       __tosnan2                  66653b3f     LIBCMT:_87disp_.obj
 0001:00052b67       __nan2                     66653b67     LIBCMT:_87disp_.obj
 0001:00052ba6       __rtindfpop                66653ba6     LIBCMT:_87disp_.obj
 0001:00052ba8       __rtindfnpop               66653ba8     LIBCMT:_87disp_.obj
 0001:00052bb9       __rttosnpopde              66653bb9     LIBCMT:_87disp_.obj
 0001:00052bc3       __rtchsifneg               66653bc3     LIBCMT:_87disp_.obj
 0001:00052bd0       __startTwoArgErrorHandling 66653bd0 f   LIBCMT:_genexcep_.obj
 0001:00052be7       __startOneArgErrorHandling 66653be7 f   LIBCMT:_genexcep_.obj
 0001:00052c30       __twoToTOS                 66653c30 f   LIBCMT:_common_.obj
 0001:00052c45       __load_CW                  66653c45 f   LIBCMT:_common_.obj
 0001:00052c5c       __convertTOStoQNaN         66653c5c f   LIBCMT:_common_.obj
 0001:00052c75       __fload_withFB             66653c75 f   LIBCMT:_common_.obj
 0001:00052cb8       __checkTOS_withFB          66653cb8 f   LIBCMT:_common_.obj
 0001:00052cce       __fast_exit                66653cce f   LIBCMT:_common_.obj
 0001:00052cdb       __math_exit                66653cdb f   LIBCMT:_common_.obj
 0001:00052d05       __check_overflow_exit      66653d05 f   LIBCMT:_common_.obj
 0001:00052d19       __check_range_exit         66653d19 f   LIBCMT:_common_.obj
 0001:00052dbc       __iswctype_l               66653dbc f   LIBCMT:iswctype.obj
 0001:00052e46       _iswctype                  66653e46 f   LIBCMT:iswctype.obj
 0001:00052ec0       __aulldiv                  66653ec0 f   LIBCMT:ulldiv.obj
 0001:00052f28       _strcpy_s                  66653f28 f   LIBCMT:strcpy_s.obj
 0001:00052f90       _strnlen                   66653f90 f   LIBCMT:strlen_s.obj
 0001:00052fb0       __alloca_probe_16          66653fb0 f   LIBCMT:alloca16.obj
 0001:00052fc6       __alloca_probe_8           66653fc6     LIBCMT:alloca16.obj
 0001:00052fdc       __wchartodigit             66653fdc f   LIBCMT:wchtodig.obj
 0001:000531b7       __sse2_mathfcns_init       666541b7 f   LIBCMT:_mathfcns_.obj
 0001:000531d0       __CIsin_pentium4           666541d0 f   LIBCMT:_sin_pentium4_.obj
 0001:000531e8       __sin_pentium4             666541e8     LIBCMT:_sin_pentium4_.obj
 0001:000533a0       __CIcos_pentium4           666543a0 f   LIBCMT:_cos_pentium4_.obj
 0001:000533b8       __cos_pentium4             666543b8     LIBCMT:_cos_pentium4_.obj
 0001:0005354c       __setenvp                  6665454c f   LIBCMT:stdenvp.obj
 0001:000537c4       __setargv                  666547c4 f   LIBCMT:stdargv.obj
 0001:0005387f       ___crtGetEnvironmentStringsA 6665487f f   LIBCMT:a_env.obj
 0001:000539b6       __RTC_Initialize           666549b6 f   LIBCMT:_initsect_.obj
 0001:000539dc       __RTC_Terminate            666549dc f   LIBCMT:_initsect_.obj
 0001:00053a02       __fpclear                  66654a02 f   LIBCMT:_fpinit_.obj
 0001:00053a02       __initp_misc_winxfltr      66654a02 f   LIBCMT:winxfltr.obj
 0001:00053a03       __XcptFilter               66654a03 f   LIBCMT:winxfltr.obj
 0001:00053b63       ___CppXcptFilter           66654b63 f   LIBCMT:winxfltr.obj
 0001:00053b83       ___security_init_cookie    66654b83 f   LIBCMT:gs_support.obj
 0001:00053dd3       ___crtGetStringTypeA       66654dd3 f   LIBCMT:a_str.obj
 0001:00053e15       ___free_lc_time            66654e15 f   LIBCMT:inittime.obj
 0001:00053faa       ___free_lconv_num          66654faa f   LIBCMT:initnum.obj
 0001:00053fef       ___free_lconv_mon          66654fef f   LIBCMT:initmon.obj
 0001:0005407d       ____lc_codepage_func       6665507d f   LIBCMT:initctyp.obj
 0001:000540a3       _strcat_s                  666550a3 f   LIBCMT:strcat_s.obj
 0001:00054120       _strcspn                   66655120 f   LIBCMT:strcspn.obj
 0001:00054166       _strncpy_s                 66655166 f   LIBCMT:strncpy_s.obj
 0001:00054220       _strcmp                    66655220 f   LIBCMT:strcmp.obj
 0001:000542a8       _strncmp                   666552a8 f   LIBCMT:strncmp.obj
 0001:00054370       _strpbrk                   66655370 f   LIBCMT:strpbrk.obj
 0001:000543b0       __crt_debugger_hook        666553b0 f   LIBCMT:dbghook.obj
 0001:000543b8       __putwch_nolock            666553b8 f   LIBCMT:putwch.obj
 0001:0005447d       __mbtowc_l                 6665547d f   LIBCMT:mbtowc.obj
 0001:00054594       _mbtowc                    66655594 f   LIBCMT:mbtowc.obj
 0001:000545ae       __isatty                   666555ae f   LIBCMT:isatty.obj
 0001:00054612       __lseeki64_nolock          66655612 f   LIBCMT:lseeki64.obj
 0001:00054697       __lseeki64                 66655697 f   LIBCMT:lseeki64.obj
 0001:000547b0       __set_osfhnd               666557b0 f   LIBCMT:osfinfo.obj
 0001:00054831       __free_osfhnd              66655831 f   LIBCMT:osfinfo.obj
 0001:000548b7       __get_osfhandle            666558b7 f   LIBCMT:osfinfo.obj
 0001:0005492e       ___lock_fhandle            6665592e f   LIBCMT:osfinfo.obj
 0001:000549ce       __unlock_fhandle           666559ce f   LIBCMT:osfinfo.obj
 0001:000549f5       __alloc_osfhnd             666559f5 f   LIBCMT:osfinfo.obj
 0001:00054b8f       __initp_misc_initcrit      66655b8f f   LIBCMT:initcrit.obj
 0001:00054b9e       ___crtInitCritSecAndSpinCount 66655b9e f   LIBCMT:initcrit.obj
 0001:00054bfe       __wctomb_s_l               66655bfe f   LIBCMT:wctomb.obj
 0001:00054d6a       _wctomb_s                  66655d6a f   LIBCMT:wctomb.obj
 0001:00054d90       __aulldvrm                 66655d90 f   LIBCMT:ulldvrm.obj
 0001:00054e25       __getbuf                   66655e25 f   LIBCMT:_getbuf.obj
 0001:00054e6e       ___ansicp                  66655e6e f   LIBCMT:convrtcp.obj
 0001:00054eb7       ___convertcp               66655eb7 f   LIBCMT:convrtcp.obj
 0001:0005506b       __calloc_impl              6665606b f   LIBCMT:calloc_impl.obj
 0001:00055189       __recalloc                 66656189 f   LIBCMT:recalloc.obj
 0001:00055204       ?terminate@@YAXXZ          66656204 f   LIBCMT:hooks.obj
 0001:0005523d       __initp_eh_hooks           6665623d f   LIBCMT:hooks.obj
 0001:0005524e       __initp_misc_winsig        6665624e f   LIBCMT:winsig.obj
 0001:000552a3       ___get_sigabrt             666562a3 f   LIBCMT:winsig.obj
 0001:000552b0       _raise                     666562b0 f   LIBCMT:winsig.obj
 0001:00055460       __initp_misc_rand_s        66656460 f   LIBCMT:rand_s.obj
 0001:0005546f       __initp_misc_purevirt      6665646f f   LIBCMT:inithelp.obj
 0001:0005547e       __atodbl_l                 6665647e f   LIBCMT:atodbl.obj
 0001:00055526       __atoflt_l                 66656526 f   LIBCMT:atodbl.obj
 0001:000555ce       __fptostr                  666565ce f   LIBCMT:_fptostr.obj
 0001:0005568d       ___dtold                   6665668d f   LIBCMT:_cfout_.obj
 0001:0005574a       __fltout2                  6665674a f   LIBCMT:_cfout_.obj
 0001:000557e0       __alldvrm                  666567e0 f   LIBCMT:lldvrm.obj
 0001:000558c0       __aullshr                  666568c0 f   LIBCMT:ullshr.obj
 0001:000558df       __fptrap                   666568df f   LIBCMT:crt0fp.obj
 0001:000558e8       __controlfp_s              666568e8 f   LIBCMT:_contrlfp_.obj
 0001:00055954       __global_unwind2           66656954 f   LIBCMT:exsup.obj
 0001:000559b9       __local_unwind2            666569b9 f   LIBCMT:exsup.obj
 0001:00055a3d       __abnormal_termination     66656a3d f   LIBCMT:exsup.obj
 0001:00055a60       __NLG_Notify1              66656a60 f   LIBCMT:exsup.obj
 0001:00055a69       __NLG_Notify               66656a69 f   LIBCMT:exsup.obj
 0001:00055a80       __NLG_Dispatch             66656a80     LIBCMT:exsup.obj
 0001:00055a80       __NLG_Dispatch2            66656a80     LIBCMT:exsup.obj
 0001:00055a88       __NLG_Call                 66656a88 f   LIBCMT:exsup.obj
 0001:00055a8a       __NLG_Return2              66656a8a     LIBCMT:exsup.obj
 0001:00055a8b       ___crtMessageBoxA          66656a8b f   LIBCMT:crtmbox.obj
 0001:00055bf4       __set_error_mode           66656bf4 f   LIBCMT:errmode.obj
 0001:00055c3f       ?_Type_info_dtor@type_info@@CAXPAV1@@Z 66656c3f f   LIBCMT:typname.obj
 0001:00055caf       __msize                    66656caf f   LIBCMT:msize.obj
 0001:00055d52       __validdrive               66656d52 f   LIBCMT:getcwd.obj
 0001:00055d8b       __getdcwd_nolock           66656d8b f   LIBCMT:getcwd.obj
 0001:00055ec2       __getcwd                   66656ec2 f   LIBCMT:getcwd.obj
 0001:00055f0b       _calloc                    66656f0b f   LIBCMT:calloc.obj
 0001:00055f4b       __mbsicmp_l                66656f4b f   LIBCMT:mbsicmp.obj
 0001:00056171       __mbsicmp                  66657171 f   LIBCMT:mbsicmp.obj
 0001:00056188       __mbsrchr_l                66657188 f   LIBCMT:mbsrchr.obj
 0001:00056244       __mbsrchr                  66657244 f   LIBCMT:mbsrchr.obj
 0001:0005625b       __set_daylight             6665725b f i LIBCMT:tzset.obj
 0001:0005626c       __set_dstbias              6665726c f i LIBCMT:tzset.obj
 0001:0005627d       __set_timezone             6665727d f i LIBCMT:tzset.obj
 0001:000569a3       ___tzset                   666579a3 f   LIBCMT:tzset.obj
 0001:000569f2       __isindst                  666579f2 f   LIBCMT:tzset.obj
 0001:00056a33       __get_daylight             66657a33 f   LIBCMT:timeset.obj
 0001:00056a6c       __get_dstbias              66657a6c f   LIBCMT:timeset.obj
 0001:00056aa5       __get_timezone             66657aa5 f   LIBCMT:timeset.obj
 0001:00056ade       ___daylight                66657ade f   LIBCMT:timeset.obj
 0001:00056ae4       ___dstbias                 66657ae4 f   LIBCMT:timeset.obj
 0001:00056aea       ___timezone                66657aea f   LIBCMT:timeset.obj
 0001:00056af0       ___tzname                  66657af0 f   LIBCMT:timeset.obj
 0001:00056b00       __allmul                   66657b00 f   LIBCMT:llmul.obj
 0001:00057253       __sopen_helper             66658253 f   LIBCMT:open.obj
 0001:0005731f       __sopen_s                  6665831f f   LIBCMT:open.obj
 0001:0005733f       __mbsnbicmp_l              6665833f f   LIBCMT:mbsnbicm.obj
 0001:0005756a       __mbsnbicmp                6665856a f   LIBCMT:mbsnbicm.obj
 0001:00057584       __mbsnbcmp_l               66658584 f   LIBCMT:mbsnbcmp.obj
 0001:000576ee       __mbsnbcmp                 666586ee f   LIBCMT:mbsnbcmp.obj
 0001:00057708       __87except                 66658708 f   LIBCMT:_87except_.obj
 0001:00057847       ___crtGetStringTypeW       66658847 f   LIBCMT:w_str.obj
 0001:000578d8       __ismbblead                666588d8 f   LIBCMT:ismbbyte.obj
 0001:000578f0       _atol                      666588f0 f   LIBCMT:atox.obj
 0001:00057906       __strnicmp_l               66658906 f   LIBCMT:strnicmp.obj
 0001:000579f8       __strnicmp                 666589f8 f   LIBCMT:strnicmp.obj
 0001:00057a56       ___initconout              66658a56 f   LIBCMT:initcon.obj
 0001:00057a75       ___termcon                 66658a75 f   LIBCMT:initcon.obj
 0001:00057aa2       _abort                     66658aa2 f   LIBCMT:abort.obj
 0001:00057bb9       __ld12tod                  66658bb9 f   LIBCMT:_intrncvt_.obj
 0001:000580fd       __ld12tof                  666590fd f   LIBCMT:_intrncvt_.obj
 0001:00058641       ___strgtold12_l            66659641 f   LIBCMT:_strgtold_.obj
 0001:00058d39       _$I10_OUTPUT               66659d39 f   LIBCMT:_x10fout_.obj
 0001:0005978b       __control87                6665a78b f i LIBCMT:_ieee87_.obj
 0001:00059a9a       __getenv_helper_nolock     6665aa9a f   LIBCMT:getenv.obj
 0001:00059b21       __chsize_nolock            6665ab21 f   LIBCMT:chsize.obj
 0001:00059cd7       __setmode_nolock           6665acd7 f   LIBCMT:setmode.obj
 0001:00059d93       __get_fmode                6665ad93 f   LIBCMT:setmode.obj
 0001:00059dcc       __raise_exc_ex             6665adcc f   LIBCMT:_fpexcept_.obj
 0001:0005a0a8       __raise_exc                6665b0a8 f   LIBCMT:_fpexcept_.obj
 0001:0005a0cb       __handle_exc               6665b0cb f   LIBCMT:_fpexcept_.obj
 0001:0005a2ad       __set_errno_from_matherr   6665b2ad f   LIBCMT:_fpexcept_.obj
 0001:0005a2da       __matherr                  6665b2da f   LIBCMT:_matherr_.obj
 0001:0005a2dd       __statfp                   6665b2dd f   LIBCMT:_fpctrl_.obj
 0001:0005a2ed       __clrfp                    6665b2ed f   LIBCMT:_fpctrl_.obj
 0001:0005a2fe       __ctrlfp                   6665b2fe f   LIBCMT:_fpctrl_.obj
 0001:0005a327       __set_statfp               6665b327 f   LIBCMT:_fpctrl_.obj
 0001:0005a37f       ___set_fpsr_sse2           6665b37f f   LIBCMT:_fpctrl_.obj
 0001:0005a400       ___ascii_strnicmp          6665b400 f   LIBCMT:_strnicm.obj
 0001:0005a461       ___mtold12                 6665b461 f   LIBCMT:_mantold_.obj
 0001:0005a62f       __mbsnbicoll_l             6665b62f f   LIBCMT:mbsnbico.obj
 0001:0005a71d       __mbsnbicoll               6665b71d f   LIBCMT:mbsnbico.obj
 0001:0005a737       ___wtomb_environ           6665b737 f   LIBCMT:wtombenv.obj
 0001:0005a7ce       __set_exp                  6665b7ce f   LIBCMT:_util_.obj
 0001:0005a7fa       __decomp                   6665b7fa f   LIBCMT:_util_.obj
 0001:0005ac41       ___crtCompareStringA       6665bc41 f   LIBCMT:a_cmp.obj
 0001:0005ac83       __strnicoll_l              6665bc83 f   LIBCMT:strnicol.obj
 0001:0005ae29       ___crtsetenv               6665be29 f   LIBCMT:setenv.obj
 0001:0005b074       __strdup                   6665c074 f   LIBCMT:strdup.obj
 0001:0005b0c9       __mbschr_l                 6665c0c9 f   LIBCMT:mbschr.obj
 0001:0005b185       __mbschr                   6665c185 f   LIBCMT:mbschr.obj
 0001:0005b19c       _ImmAssociateContext@8     6665c19c f   imm32:IMM32.dll
 0001:0005b1a2       _RtlUnwind@16              6665c1a2 f   kernel32:KERNEL32.dll
 0002:00000000       __imp__StretchBlt@44       6665d000     gdi32:GDI32.dll
 0002:00000004       __imp__TextOutA@20         6665d004     gdi32:GDI32.dll
 0002:00000008       \177GDI32_NULL_THUNK_DATA  6665d008     gdi32:GDI32.dll
 0002:0000000c       __imp__ImmAssociateContext@8 6665d00c     imm32:IMM32.dll
 0002:00000010       \177IMM32_NULL_THUNK_DATA  6665d010     imm32:IMM32.dll
 0002:00000014       __imp__HeapCreate@12       6665d014     kernel32:KERNEL32.dll
 0002:00000018       __imp__HeapDestroy@4       6665d018     kernel32:KERNEL32.dll
 0002:0000001c       __imp__QueryPerformanceCounter@4 6665d01c     kernel32:KERNEL32.dll
 0002:00000020       __imp__GetCommandLineA@0   6665d020     kernel32:KERNEL32.dll
 0002:00000024       __imp__GetModuleFileNameA@12 6665d024     kernel32:KERNEL32.dll
 0002:00000028       __imp__DeleteFileA@4       6665d028     kernel32:KERNEL32.dll
 0002:0000002c       __imp__DisableThreadLibraryCalls@4 6665d02c     kernel32:KERNEL32.dll
 0002:00000030       __imp__LoadLibraryA@4      6665d030     kernel32:KERNEL32.dll
 0002:00000034       __imp__GetModuleHandleA@4  6665d034     kernel32:KERNEL32.dll
 0002:00000038       __imp__VirtualProtect@16   6665d038     kernel32:KERNEL32.dll
 0002:0000003c       __imp__WriteProcessMemory@20 6665d03c     kernel32:KERNEL32.dll
 0002:00000040       __imp__GetCurrentProcess@0 6665d040     kernel32:KERNEL32.dll
 0002:00000044       __imp__GetProcAddress@8    6665d044     kernel32:KERNEL32.dll
 0002:00000048       __imp__IsBadWritePtr@8     6665d048     kernel32:KERNEL32.dll
 0002:0000004c       __imp__LCMapStringA@24     6665d04c     kernel32:KERNEL32.dll
 0002:00000050       __imp__GetProcessTimes@20  6665d050     kernel32:KERNEL32.dll
 0002:00000054       __imp__GetSystemTimeAsFileTime@4 6665d054     kernel32:KERNEL32.dll
 0002:00000058       __imp__IsBadCodePtr@4      6665d058     kernel32:KERNEL32.dll
 0002:0000005c       __imp__Sleep@4             6665d05c     kernel32:KERNEL32.dll
 0002:00000060       __imp__GetTickCount@0      6665d060     kernel32:KERNEL32.dll
 0002:00000064       __imp__GetLocalTime@4      6665d064     kernel32:KERNEL32.dll
 0002:00000068       __imp__CreateFileA@28      6665d068     kernel32:KERNEL32.dll
 0002:0000006c       __imp__WriteFile@20        6665d06c     kernel32:KERNEL32.dll
 0002:00000070       __imp__SetFilePointer@16   6665d070     kernel32:KERNEL32.dll
 0002:00000074       __imp__CloseHandle@4       6665d074     kernel32:KERNEL32.dll
 0002:00000078       __imp__GetFileSize@8       6665d078     kernel32:KERNEL32.dll
 0002:0000007c       __imp__GetCurrentProcessId@0 6665d07c     kernel32:KERNEL32.dll
 0002:00000080       __imp__WideCharToMultiByte@32 6665d080     kernel32:KERNEL32.dll
 0002:00000084       __imp__GlobalFree@4        6665d084     kernel32:KERNEL32.dll
 0002:00000088       __imp__GlobalUnlock@4      6665d088     kernel32:KERNEL32.dll
 0002:0000008c       __imp__GlobalLock@4        6665d08c     kernel32:KERNEL32.dll
 0002:00000090       __imp__GlobalAlloc@8       6665d090     kernel32:KERNEL32.dll
 0002:00000094       __imp__CreateDirectoryA@8  6665d094     kernel32:KERNEL32.dll
 0002:00000098       __imp__QueryPerformanceFrequency@4 6665d098     kernel32:KERNEL32.dll
 0002:0000009c       __imp__GetFileAttributesA@4 6665d09c     kernel32:KERNEL32.dll
 0002:000000a0       __imp__CompareStringW@24   6665d0a0     kernel32:KERNEL32.dll
 0002:000000a4       __imp__CompareStringA@24   6665d0a4     kernel32:KERNEL32.dll
 0002:000000a8       __imp__GetProcessHeap@0    6665d0a8     kernel32:KERNEL32.dll
 0002:000000ac       __imp__SetEndOfFile@4      6665d0ac     kernel32:KERNEL32.dll
 0002:000000b0       __imp__GetTimeZoneInformation@4 6665d0b0     kernel32:KERNEL32.dll
 0002:000000b4       __imp__HeapSize@12         6665d0b4     kernel32:KERNEL32.dll
 0002:000000b8       __imp__InitializeCriticalSectionAndSpinCount@8 6665d0b8     kernel32:KERNEL32.dll
 0002:000000bc       __imp__SetStdHandle@8      6665d0bc     kernel32:KERNEL32.dll
 0002:000000c0       __imp__WriteConsoleW@20    6665d0c0     kernel32:KERNEL32.dll
 0002:000000c4       __imp__GetConsoleOutputCP@0 6665d0c4     kernel32:KERNEL32.dll
 0002:000000c8       __imp__WriteConsoleA@20    6665d0c8     kernel32:KERNEL32.dll
 0002:000000cc       __imp__GetLocaleInfoA@16   6665d0cc     kernel32:KERNEL32.dll
 0002:000000d0       __imp__GetStringTypeW@16   6665d0d0     kernel32:KERNEL32.dll
 0002:000000d4       __imp__GetStringTypeA@20   6665d0d4     kernel32:KERNEL32.dll
 0002:000000d8       __imp__GetEnvironmentStringsW@0 6665d0d8     kernel32:KERNEL32.dll
 0002:000000dc       __imp__FreeEnvironmentStringsW@4 6665d0dc     kernel32:KERNEL32.dll
 0002:000000e0       __imp__GetEnvironmentStrings@0 6665d0e0     kernel32:KERNEL32.dll
 0002:000000e4       __imp__FreeEnvironmentStringsA@4 6665d0e4     kernel32:KERNEL32.dll
 0002:000000e8       __imp__GetCurrentDirectoryA@8 6665d0e8     kernel32:KERNEL32.dll
 0002:000000ec       __imp__GetFullPathNameA@16 6665d0ec     kernel32:KERNEL32.dll
 0002:000000f0       __imp__RaiseException@16   6665d0f0     kernel32:KERNEL32.dll
 0002:000000f4       __imp__MultiByteToWideChar@24 6665d0f4     kernel32:KERNEL32.dll
 0002:000000f8       __imp__IsBadReadPtr@8      6665d0f8     kernel32:KERNEL32.dll
 0002:000000fc       __imp__HeapAlloc@12        6665d0fc     kernel32:KERNEL32.dll
 0002:00000100       __imp__HeapReAlloc@16      6665d100     kernel32:KERNEL32.dll
 0002:00000104       __imp__HeapFree@12         6665d104     kernel32:KERNEL32.dll
 0002:00000108       __imp__GetLastError@0      6665d108     kernel32:KERNEL32.dll
 0002:0000010c       __imp__EnterCriticalSection@4 6665d10c     kernel32:KERNEL32.dll
 0002:00000110       __imp__LeaveCriticalSection@4 6665d110     kernel32:KERNEL32.dll
 0002:00000114       __imp__FindClose@4         6665d114     kernel32:KERNEL32.dll
 0002:00000118       __imp__FileTimeToSystemTime@8 6665d118     kernel32:KERNEL32.dll
 0002:0000011c       __imp__FileTimeToLocalFileTime@8 6665d11c     kernel32:KERNEL32.dll
 0002:00000120       __imp__GetDriveTypeA@4     6665d120     kernel32:KERNEL32.dll
 0002:00000124       __imp__FindFirstFileA@8    6665d124     kernel32:KERNEL32.dll
 0002:00000128       __imp__MoveFileA@8         6665d128     kernel32:KERNEL32.dll
 0002:0000012c       __imp__GetCurrentThreadId@0 6665d12c     kernel32:KERNEL32.dll
 0002:00000130       __imp__GetCPInfo@8         6665d130     kernel32:KERNEL32.dll
 0002:00000134       __imp__InterlockedIncrement@4 6665d134     kernel32:KERNEL32.dll
 0002:00000138       __imp__InterlockedDecrement@4 6665d138     kernel32:KERNEL32.dll
 0002:0000013c       __imp__GetACP@0            6665d13c     kernel32:KERNEL32.dll
 0002:00000140       __imp__GetOEMCP@0          6665d140     kernel32:KERNEL32.dll
 0002:00000144       __imp__IsValidCodePage@4   6665d144     kernel32:KERNEL32.dll
 0002:00000148       __imp__GetModuleHandleW@4  6665d148     kernel32:KERNEL32.dll
 0002:0000014c       __imp__TlsGetValue@4       6665d14c     kernel32:KERNEL32.dll
 0002:00000150       __imp__TlsAlloc@0          6665d150     kernel32:KERNEL32.dll
 0002:00000154       __imp__TlsSetValue@8       6665d154     kernel32:KERNEL32.dll
 0002:00000158       __imp__TlsFree@4           6665d158     kernel32:KERNEL32.dll
 0002:0000015c       __imp__SetLastError@4      6665d15c     kernel32:KERNEL32.dll
 0002:00000160       __imp__TerminateProcess@8  6665d160     kernel32:KERNEL32.dll
 0002:00000164       __imp__UnhandledExceptionFilter@4 6665d164     kernel32:KERNEL32.dll
 0002:00000168       __imp__SetUnhandledExceptionFilter@4 6665d168     kernel32:KERNEL32.dll
 0002:0000016c       __imp__IsDebuggerPresent@0 6665d16c     kernel32:KERNEL32.dll
 0002:00000170       __imp__GetConsoleCP@0      6665d170     kernel32:KERNEL32.dll
 0002:00000174       __imp__GetConsoleMode@8    6665d174     kernel32:KERNEL32.dll
 0002:00000178       __imp__FlushFileBuffers@4  6665d178     kernel32:KERNEL32.dll
 0002:0000017c       __imp__DeleteCriticalSection@4 6665d17c     kernel32:KERNEL32.dll
 0002:00000180       __imp__SetHandleCount@4    6665d180     kernel32:KERNEL32.dll
 0002:00000184       __imp__GetStdHandle@4      6665d184     kernel32:KERNEL32.dll
 0002:00000188       __imp__GetFileType@4       6665d188     kernel32:KERNEL32.dll
 0002:0000018c       __imp__GetStartupInfoA@4   6665d18c     kernel32:KERNEL32.dll
 0002:00000190       __imp__VirtualFree@12      6665d190     kernel32:KERNEL32.dll
 0002:00000194       __imp__VirtualAlloc@16     6665d194     kernel32:KERNEL32.dll
 0002:00000198       __imp__LCMapStringW@24     6665d198     kernel32:KERNEL32.dll
 0002:0000019c       __imp__ExitProcess@4       6665d19c     kernel32:KERNEL32.dll
 0002:000001a0       __imp__RtlUnwind@16        6665d1a0     kernel32:KERNEL32.dll
 0002:000001a4       __imp__ReadFile@20         6665d1a4     kernel32:KERNEL32.dll
 0002:000001a8       __imp__SetEnvironmentVariableA@8 6665d1a8     kernel32:KERNEL32.dll
 0002:000001ac       \177KERNEL32_NULL_THUNK_DATA 6665d1ac     kernel32:KERNEL32.dll
 0002:000001b0       __imp__GetWindowRect@8     6665d1b0     user32:USER32.dll
 0002:000001b4       __imp__AdjustWindowRectEx@16 6665d1b4     user32:USER32.dll
 0002:000001b8       __imp__SetWindowPos@28     6665d1b8     user32:USER32.dll
 0002:000001bc       __imp__GetClassNameA@12    6665d1bc     user32:USER32.dll
 0002:000001c0       __imp__OpenClipboard@4     6665d1c0     user32:USER32.dll
 0002:000001c4       __imp__EmptyClipboard@0    6665d1c4     user32:USER32.dll
 0002:000001c8       __imp__SetClipboardData@8  6665d1c8     user32:USER32.dll
 0002:000001cc       __imp__CloseClipboard@0    6665d1cc     user32:USER32.dll
 0002:000001d0       __imp__GetDC@4             6665d1d0     user32:USER32.dll
 0002:000001d4       __imp__ReleaseDC@8         6665d1d4     user32:USER32.dll
 0002:000001d8       __imp__SetCursorPos@8      6665d1d8     user32:USER32.dll
 0002:000001dc       __imp__GetKeyState@4       6665d1dc     user32:USER32.dll
 0002:000001e0       __imp__PostMessageA@16     6665d1e0     user32:USER32.dll
 0002:000001e4       __imp__SetWindowTextA@8    6665d1e4     user32:USER32.dll
 0002:000001e8       __imp__SetForegroundWindow@4 6665d1e8     user32:USER32.dll
 0002:000001ec       __imp__GetWindowLongA@8    6665d1ec     user32:USER32.dll
 0002:000001f0       __imp__SetWindowLongA@12   6665d1f0     user32:USER32.dll
 0002:000001f4       __imp__ShowWindow@8        6665d1f4     user32:USER32.dll
 0002:000001f8       __imp__GetWindowPlacement@8 6665d1f8     user32:USER32.dll
 0002:000001fc       __imp__GetClipCursor@4     6665d1fc     user32:USER32.dll
 0002:00000200       __imp__GetClientRect@8     6665d200     user32:USER32.dll
 0002:00000204       __imp__ClientToScreen@8    6665d204     user32:USER32.dll
 0002:00000208       __imp__ClipCursor@4        6665d208     user32:USER32.dll
 0002:0000020c       __imp__GetDesktopWindow@0  6665d20c     user32:USER32.dll
 0002:00000210       __imp__GetWindowInfo@8     6665d210     user32:USER32.dll
 0002:00000214       __imp__SendMessageA@16     6665d214     user32:USER32.dll
 0002:00000218       __imp__wvsprintfW@12       6665d218     user32:USER32.dll
 0002:0000021c       __imp__wvsprintfA@12       6665d21c     user32:USER32.dll
 0002:00000220       __imp__MessageBoxA@16      6665d220     user32:USER32.dll
 0002:00000224       __imp__wsprintfW           6665d224     user32:USER32.dll
 0002:00000228       \177USER32_NULL_THUNK_DATA 6665d228     user32:USER32.dll
 0002:0000022c       ___xc_a                    6665d22c     LIBCMT:crt0init.obj
 0002:00000230       ___xc_z                    6665d230     LIBCMT:crt0init.obj
 0002:00000234       ___xi_a                    6665d234     LIBCMT:crt0init.obj
 0002:0000024c       ___xi_z                    6665d24c     LIBCMT:crt0init.obj
 0002:00000250       ___xp_a                    6665d250     LIBCMT:crt0init.obj
 0002:0000025c       ___xp_z                    6665d25c     LIBCMT:crt0init.obj
 0002:00000260       ___xt_a                    6665d260     LIBCMT:crt0init.obj
 0002:00000264       ___xt_z                    6665d264     LIBCMT:crt0init.obj
 0002:00000f28       __real@408f400000000000    6665df28     config.obj
 0002:00001178       __real@4014000000000000    6665e178     guess.obj
 0002:00001180       __real@4052c00000000000    6665e180     guess.obj
 0002:00001188       __real@4039000000000000    6665e188     guess.obj
 0002:00001190       __real@3fe0000000000000    6665e190     guess.obj
 0002:00001198       __real@4008000000000000    6665e198     guess.obj
 0002:000011a0       __real@4040000000000000    6665e1a0     guess.obj
 0002:000011a8       __real@4059000000000000    6665e1a8     guess.obj
 0002:000011b0       __real@4010000000000000    6665e1b0     guess.obj
 0002:00003db0       __real@4022000000000000    66660db0     common.obj
 0002:00003db8       __real@4070000000000000    66660db8     common.obj
 0002:00003dc0       __real@3fd999999999999a    66660dc0     common.obj
 0002:00006a98       __real@4024000000000000    66663a98     env.obj
 0002:00007f70       __real@3ff8000000000000    66664f70     item.obj
 0002:00008860       __real@4028000000000000    66665860     dangerous.obj
 0002:00008868       __real@4020000000000000    66665868     dangerous.obj
 0002:0000b7bc       __real@41200000            666687bc     skill.obj
 0002:0000b7c0       __real@41e80000            666687c0     skill.obj
 0002:0000b7c4       __real@41d00000            666687c4     skill.obj
 0002:0000b7c8       __real@41c00000            666687c8     skill.obj
 0002:0000b7cc       __real@41f00000            666687cc     skill.obj
 0002:0000b7d0       __real@41f80000            666687d0     skill.obj
 0002:0000b7d4       __real@41000000            666687d4     skill.obj
 0002:0000b7d8       __real@41a00000            666687d8     skill.obj
 0002:0000b7dc       __real@41980000            666687dc     skill.obj
 0002:0000b7e0       __real@40a00000            666687e0     skill.obj
 0002:0000b7e8       __real@0000000000000000    666687e8     skill.obj
 0002:0000b7f0       __real@42040000            666687f0     skill.obj
 0002:0000cdb0       __real@40c3880000000000    66669db0     Snapshot.obj
 0002:0000cdb8       __real@40a0000000000000    66669db8     Snapshot.obj
 0002:0000d0f8       __real@401c000000000000    6666a0f8     teleport.obj
 0002:0000d100       __real@412e848000000000    6666a100     teleport.obj
 0002:0000e5e8       __real@40f0000000000000    6666b5e8     uber.obj
 0002:0000e5f0       __real@401921fb3fa6defc    6666b5f0     uber.obj
 0002:0000e618       __FPinit                   6666b618     LIBCMT:_fpinit_.obj
 0002:0000e61c       __FPmtinit                 6666b61c     LIBCMT:_fpinit_.obj
 0002:0000e620       __FPmtterm                 6666b620     LIBCMT:_fpinit_.obj
 0002:0000e624       ??_C@_0P@GHFPNOJB@bad?5allocation?$AA@ 6666b624     LIBCMT:new.obj
 0002:0000e638       ??_7bad_alloc@std@@6B@     6666b638     LIBCMT:new.obj
 0002:0000e640       ??_C@_03LLEJOLGL@?4?1?2?$AA@ 6666b640     LIBCMT:stati32.obj
 0002:0000e644       ??_C@_02EAOCEIGI@?$DP?$CK?$AA@ 6666b644     LIBCMT:stati32.obj
 0002:0000e648       __pRawDllMain              6666b648     LIBCMT:dllcrt0.obj
 0002:0000e648       __pDefaultRawDllMain       6666b648     LIBCMT:dllcrt0.obj
 0002:0000e6d0       ??_C@_01NEMOKFLO@?$DN?$AA@ 6666b6d0     LIBCMT:setlocal.obj
 0002:0000e6d2       ??_C@_00CNPNBAHC@?$AA@     6666b6d2     LIBCMT:setlocal.obj
 0002:0000e6d4       ??_C@_0O@NLDKAIKN@EncodePointer?$AA@ 6666b6d4     LIBCMT:tidtable.obj
 0002:0000e6e4       ??_C@_1BK@DBDEIDLH@?$AAK?$AAE?$AAR?$AAN?$AAE?$AAL?$AA3?$AA2?$AA?4?$AAD?$AAL?$AAL?$AA?$AA@ 6666b6e4     LIBCMT:tidtable.obj
 0002:0000e700       ??_C@_0O@KBPMFGHI@DecodePointer?$AA@ 6666b700     LIBCMT:tidtable.obj
 0002:0000e710       ??_C@_07PEJMOBNF@FlsFree?$AA@ 6666b710     LIBCMT:tidtable.obj
 0002:0000e718       ??_C@_0M@JCPCPOEF@FlsSetValue?$AA@ 6666b718     LIBCMT:tidtable.obj
 0002:0000e724       ??_C@_0M@GDNOONDI@FlsGetValue?$AA@ 6666b724     LIBCMT:tidtable.obj
 0002:0000e730       ??_C@_08KNHFBNJ@FlsAlloc?$AA@ 6666b730     LIBCMT:tidtable.obj
 0002:0000e73c       ??_C@_1O@CEDCILHN@?$AA?$CI?$AAn?$AAu?$AAl?$AAl?$AA?$CJ?$AA?$AA@ 6666b73c     LIBCMT:output.obj
 0002:0000e74c       ??_C@_06OJHGLDPL@?$CInull?$CJ?$AA@ 6666b74c     LIBCMT:output.obj
 0002:0000e758       ___lookuptable             6666b758     LIBCMT:output.obj
 0002:0000e7bc       ??_C@_13NOLLCAOD@?$AA?$AA?$AA?$AA@ 6666b7bc     LIBCMT:a_map.obj
 0002:0000e7c0       ??_C@_0P@MIGLKIOC@CorExitProcess?$AA@ 6666b7c0     LIBCMT:crt0dat.obj
 0002:0000e7d0       ??_C@_1BI@BGOHAHKC@?$AAm?$AAs?$AAc?$AAo?$AAr?$AAe?$AAe?$AA?4?$AAd?$AAl?$AAl?$AA?$AA@ 6666b7d0     LIBCMT:crt0dat.obj
 0002:0000e7e8       ??_C@_05KLBDPFGC@e?$CL000?$AA@ 6666b7e8     LIBCMT:cvt.obj
 0002:0000e7f0       __real@4150017ec0000000    6666b7f0     LIBCMT:_testfdiv_.obj
 0002:0000e7f8       __real@4147ffff80000000    6666b7f8     LIBCMT:_testfdiv_.obj
 0002:0000e800       ??_C@_0BK@NHEOCAHP@IsProcessorFeaturePresent?$AA@ 6666b800     LIBCMT:_testfdiv_.obj
 0002:0000e81c       ??_C@_08CPNIBGIE@KERNEL32?$AA@ 6666b81c     LIBCMT:_testfdiv_.obj
 0002:0000e828       ??_C@_0P@GGKDKEEG@runtime?5error?5?$AA@ 6666b828     LIBCMT:crt0msg.obj
 0002:0000e838       ??_C@_02PCIJFNDE@?$AN?6?$AA@ 6666b838     LIBCMT:crt0msg.obj
 0002:0000e83c       ??_C@_0O@MJNIPGOH@TLOSS?5error?$AN?6?$AA@ 6666b83c     LIBCMT:crt0msg.obj
 0002:0000e84c       ??_C@_0N@BONNPDHF@SING?5error?$AN?6?$AA@ 6666b84c     LIBCMT:crt0msg.obj
 0002:0000e85c       ??_C@_0P@MBDAJNE@DOMAIN?5error?$AN?6?$AA@ 6666b85c     LIBCMT:crt0msg.obj
 0002:0000e870       ??_C@_0JL@DFDOOABL@R6034?$AN?6An?5application?5has?5made?5a@ 6666b870     LIBCMT:crt0msg.obj
 0002:0000e910       ??_C@_0PH@EPAFIJ@R6033?$AN?6?9?5Attempt?5to?5use?5MSIL?5cod@ 6666b910     LIBCMT:crt0msg.obj
 0002:0000ea08       ??_C@_0DD@BKEEABMM@R6032?$AN?6?9?5not?5enough?5space?5for?5lo@ 6666ba08     LIBCMT:crt0msg.obj
 0002:0000ea40       ??_C@_0GD@OFKILIED@R6031?$AN?6?9?5Attempt?5to?5initialize?5t@ 6666ba40     LIBCMT:crt0msg.obj
 0002:0000eaa4       ??_C@_0BP@LPMHJOKI@R6030?$AN?6?9?5CRT?5not?5initialized?$AN?6?$AA@ 6666baa4     LIBCMT:crt0msg.obj
 0002:0000eac4       ??_C@_0CF@KJDAIALP@R6028?$AN?6?9?5unable?5to?5initialize?5he@ 6666bac4     LIBCMT:crt0msg.obj
 0002:0000eaec       ??_C@_0DF@GAKBPDFP@R6027?$AN?6?9?5not?5enough?5space?5for?5lo@ 6666baec     LIBCMT:crt0msg.obj
 0002:0000eb24       ??_C@_0DF@IBLNNAIG@R6026?$AN?6?9?5not?5enough?5space?5for?5st@ 6666bb24     LIBCMT:crt0msg.obj
 0002:0000eb5c       ??_C@_0CG@IOHKGFNJ@R6025?$AN?6?9?5pure?5virtual?5function?5c@ 6666bb5c     LIBCMT:crt0msg.obj
 0002:0000eb84       ??_C@_0DF@JIJJFJDC@R6024?$AN?6?9?5not?5enough?5space?5for?5_o@ 6666bb84     LIBCMT:crt0msg.obj
 0002:0000ebbc       ??_C@_0CJ@EGEJHFME@R6019?$AN?6?9?5unable?5to?5open?5console?5@ 6666bbbc     LIBCMT:crt0msg.obj
 0002:0000ebe8       ??_C@_0CB@GNHNIELH@R6018?$AN?6?9?5unexpected?5heap?5error?$AN?6@ 6666bbe8     LIBCMT:crt0msg.obj
 0002:0000ec0c       ??_C@_0CN@FOLDKNG@R6017?$AN?6?9?5unexpected?5multithread?5@ 6666bc0c     LIBCMT:crt0msg.obj
 0002:0000ec3c       ??_C@_0CM@FAHFJNHO@R6016?$AN?6?9?5not?5enough?5space?5for?5th@ 6666bc3c     LIBCMT:crt0msg.obj
 0002:0000ec68       ??_C@_0JG@LBKMGKLD@?$AN?6This?5application?5has?5requested@ 6666bc68     LIBCMT:crt0msg.obj
 0002:0000ed00       ??_C@_0CM@FLCNIPKK@R6009?$AN?6?9?5not?5enough?5space?5for?5en@ 6666bd00     LIBCMT:crt0msg.obj
 0002:0000ed2c       ??_C@_0CK@KMMJOAPP@R6008?$AN?6?9?5not?5enough?5space?5for?5ar@ 6666bd2c     LIBCMT:crt0msg.obj
 0002:0000ed58       ??_C@_0CN@LEKKICBM@R6002?$AN?6?9?5floating?5point?5support?5@ 6666bd58     LIBCMT:crt0msg.obj
 0002:0000ed88       ??_C@_0CF@GOGNBNAK@Microsoft?5Visual?5C?$CL?$CL?5Runtime?5Lib@ 6666bd88     LIBCMT:crt0msg.obj
 0002:0000edb0       ??_C@_02PHMGELLB@?6?6?$AA@ 6666bdb0     LIBCMT:crt0msg.obj
 0002:0000edb4       ??_C@_03KHICJKCI@?4?4?4?$AA@ 6666bdb4     LIBCMT:crt0msg.obj
 0002:0000edb8       ??_C@_0BH@DNAGHKFM@?$DMprogram?5name?5unknown?$DO?$AA@ 6666bdb8     LIBCMT:crt0msg.obj
 0002:0000edd0       ??_C@_0BK@OFGJDLJJ@Runtime?5Error?$CB?6?6Program?3?5?$AA@ 6666bdd0     LIBCMT:crt0msg.obj
 0002:0000edf0       ??_7exception@std@@6B@     6666bdf0     LIBCMT:stdexcpt.obj
 0002:0000edf8       ??_C@_0BC@EOODALEL@Unknown?5exception?$AA@ 6666bdf8     LIBCMT:stdexcpt.obj
 0002:0000ee10       ??_7type_info@@6B@         6666be10     LIBCMT:typinfo.obj
 0002:0000ee34       ??_C@_04PNGHFIJN@?4com?$AA@ 6666be34     LIBCMT:stat.obj
 0002:0000ee3c       ??_C@_04NEEFLLOK@?4bat?$AA@ 6666be3c     LIBCMT:stat.obj
 0002:0000ee44       ??_C@_04CPCBDHLK@?4cmd?$AA@ 6666be44     LIBCMT:stat.obj
 0002:0000ee4c       ??_C@_04JLMDILM@?4exe?$AA@ 6666be4c     LIBCMT:stat.obj
 0002:0000ee88       __DEFAULT_CW_in_mem        6666be88     LIBCMT:_common_.obj
 0002:0000ee8a       __pi_by_2_to_61            6666be8a     LIBCMT:_common_.obj
 0002:00010020       __XcptActTab               6666d020     LIBCMT:winxfltr.obj
 0002:00010098       ___newctype                6666d098     LIBCMT:ctype.obj
 0002:00010398       __wctype                   6666d398     LIBCMT:ctype.obj
 0002:000105a0       ___newclmap                6666d5a0     LIBCMT:ctype.obj
 0002:00010720       ___newcumap                6666d720     LIBCMT:ctype.obj
 0002:000108a0       ??_C@_08JCCMCCIL@HH?3mm?3ss?$AA@ 6666d8a0     LIBCMT:strftime.obj
 0002:000108ac       ??_C@_0BE@CKGJFCPC@dddd?0?5MMMM?5dd?0?5yyyy?$AA@ 6666d8ac     LIBCMT:strftime.obj
 0002:000108c0       ??_C@_08BPBNCDIB@MM?1dd?1yy?$AA@ 6666d8c0     LIBCMT:strftime.obj
 0002:000108cc       ??_C@_02CJNFDJBF@PM?$AA@   6666d8cc     LIBCMT:strftime.obj
 0002:000108d0       ??_C@_02DEDBPAFC@AM?$AA@   6666d8d0     LIBCMT:strftime.obj
 0002:000108d4       ??_C@_08EDHMEBNP@December?$AA@ 6666d8d4     LIBCMT:strftime.obj
 0002:000108e0       ??_C@_08HCHEGEOA@November?$AA@ 6666d8e0     LIBCMT:strftime.obj
 0002:000108ec       ??_C@_07JJNFCEND@October?$AA@ 6666d8ec     LIBCMT:strftime.obj
 0002:000108f4       ??_C@_09BHHEALKD@September?$AA@ 6666d8f4     LIBCMT:strftime.obj
 0002:00010900       ??_C@_06LBBHFDDG@August?$AA@ 6666d900     LIBCMT:strftime.obj
 0002:00010908       ??_C@_04MIEPOIFP@July?$AA@ 6666d908     LIBCMT:strftime.obj
 0002:00010910       ??_C@_04CNLMGBGM@June?$AA@ 6666d910     LIBCMT:strftime.obj
 0002:00010918       ??_C@_05DMJDNLEJ@April?$AA@ 6666d918     LIBCMT:strftime.obj
 0002:00010920       ??_C@_05HPCKOFNC@March?$AA@ 6666d920     LIBCMT:strftime.obj
 0002:00010928       ??_C@_08GNJGEPFN@February?$AA@ 6666d928     LIBCMT:strftime.obj
 0002:00010934       ??_C@_07CGJPFGJA@January?$AA@ 6666d934     LIBCMT:strftime.obj
 0002:0001093c       ??_C@_03MKABNOCG@Dec?$AA@  6666d93c     LIBCMT:strftime.obj
 0002:00010940       ??_C@_03JPJOFNIA@Nov?$AA@  6666d940     LIBCMT:strftime.obj
 0002:00010944       ??_C@_03BMAOKBAD@Oct?$AA@  6666d944     LIBCMT:strftime.obj
 0002:00010948       ??_C@_03GGCAPAJC@Sep?$AA@  6666d948     LIBCMT:strftime.obj
 0002:0001094c       ??_C@_03IFJFEIGA@Aug?$AA@  6666d94c     LIBCMT:strftime.obj
 0002:00010950       ??_C@_03LBGABGKK@Jul?$AA@  6666d950     LIBCMT:strftime.obj
 0002:00010954       ??_C@_03IDFGHECI@Jun?$AA@  6666d954     LIBCMT:strftime.obj
 0002:00010958       ??_C@_03CNMDKL@May?$AA@    6666d958     LIBCMT:strftime.obj
 0002:0001095c       ??_C@_03LEOLGMJP@Apr?$AA@  6666d95c     LIBCMT:strftime.obj
 0002:00010960       ??_C@_03ODNJBKGA@Mar?$AA@  6666d960     LIBCMT:strftime.obj
 0002:00010964       ??_C@_03HJBDCHOM@Feb?$AA@  6666d964     LIBCMT:strftime.obj
 0002:00010968       ??_C@_03JIHJHPIE@Jan?$AA@  6666d968     LIBCMT:strftime.obj
 0002:0001096c       ??_C@_08INBOOONO@Saturday?$AA@ 6666d96c     LIBCMT:strftime.obj
 0002:00010978       ??_C@_06JECMNKMI@Friday?$AA@ 6666d978     LIBCMT:strftime.obj
 0002:00010980       ??_C@_08HACCIKIA@Thursday?$AA@ 6666d980     LIBCMT:strftime.obj
 0002:0001098c       ??_C@_09DLIGFAKA@Wednesday?$AA@ 6666d98c     LIBCMT:strftime.obj
 0002:00010998       ??_C@_07BAAGCFCM@Tuesday?$AA@ 6666d998     LIBCMT:strftime.obj
 0002:000109a0       ??_C@_06JLEDEDGH@Monday?$AA@ 6666d9a0     LIBCMT:strftime.obj
 0002:000109a8       ??_C@_06OOPIFAJ@Sunday?$AA@ 6666d9a8     LIBCMT:strftime.obj
 0002:000109b0       ??_C@_03FEFJNEK@Sat?$AA@   6666d9b0     LIBCMT:strftime.obj
 0002:000109b4       ??_C@_03IDIOELNC@Fri?$AA@  6666d9b4     LIBCMT:strftime.obj
 0002:000109b8       ??_C@_03IOFIKPDN@Thu?$AA@  6666d9b8     LIBCMT:strftime.obj
 0002:000109bc       ??_C@_03MHOMLAJA@Wed?$AA@  6666d9bc     LIBCMT:strftime.obj
 0002:000109c0       ??_C@_03NAGEINEP@Tue?$AA@  6666d9c0     LIBCMT:strftime.obj
 0002:000109c4       ??_C@_03PDAGKDH@Mon?$AA@   6666d9c4     LIBCMT:strftime.obj
 0002:000109c8       ??_C@_03KOEHGMDN@Sun?$AA@  6666d9c8     LIBCMT:strftime.obj
 0002:000109d0       ___lookuptable_s           6666d9d0     LIBCMT:outputs.obj
 0002:00010a2c       ??_C@_0BI@DFKBFLJE@GetProcessWindowStation?$AA@ 6666da2c     LIBCMT:crtmbox.obj
 0002:00010a44       ??_C@_0BK@CIDNPOGP@GetUserObjectInformationA?$AA@ 6666da44     LIBCMT:crtmbox.obj
 0002:00010a60       ??_C@_0BD@HHGDFDBJ@GetLastActivePopup?$AA@ 6666da60     LIBCMT:crtmbox.obj
 0002:00010a74       ??_C@_0BA@HNOPNCHB@GetActiveWindow?$AA@ 6666da74     LIBCMT:crtmbox.obj
 0002:00010a84       ??_C@_0M@CHKKJDAI@MessageBoxA?$AA@ 6666da84     LIBCMT:crtmbox.obj
 0002:00010a90       ??_C@_0L@NDEGIDAG@USER32?4DLL?$AA@ 6666da90     LIBCMT:crtmbox.obj
 0002:00010a9c       ??_C@_02CLFPBFFP@TZ?$AA@   6666da9c     LIBCMT:tzset.obj
 0002:00010aa0       ___dnames                  6666daa0     LIBCMT:timeset.obj
 0002:00010ab8       ___mnames                  6666dab8     LIBCMT:timeset.obj
 0002:00010ae0       ??_C@_07GPDNMNG@CONOUT$?$AA@ 6666dae0     LIBCMT:initcon.obj
 0002:00010ae8       ??_C@_06IMKFLFPG@1?$CDQNAN?$AA@ 6666dae8     LIBCMT:_x10fout_.obj
 0002:00010af0       ??_C@_05DNEBIAHO@1?$CDINF?$AA@ 6666daf0     LIBCMT:_x10fout_.obj
 0002:00010af8       ??_C@_05PHHOCPM@1?$CDIND?$AA@ 6666daf8     LIBCMT:_x10fout_.obj
 0002:00010b00       ??_C@_06PGGFOGJG@1?$CDSNAN?$AA@ 6666db00     LIBCMT:_x10fout_.obj
 0002:00010b08       ??_C@_0BK@CFCOFLF@?5Complete?5Object?5Locator?8?$AA@ 6666db08     LIBCMT:undname.obj
 0002:00010b24       ??_C@_0BN@MECKDCOJ@?5Class?5Hierarchy?5Descriptor?8?$AA@ 6666db24     LIBCMT:undname.obj
 0002:00010b44       ??_C@_0BD@LGICGFMM@?5Base?5Class?5Array?8?$AA@ 6666db44     LIBCMT:undname.obj
 0002:00010b58       ??_C@_0BM@LDKODKLH@?5Base?5Class?5Descriptor?5at?5?$CI?$AA@ 6666db58     LIBCMT:undname.obj
 0002:00010b74       ??_C@_0BC@DAFEJGAK@?5Type?5Descriptor?8?$AA@ 6666db74     LIBCMT:undname.obj
 0002:00010b88       ??_C@_0BM@PMGGMLDN@?$GAlocal?5static?5thread?5guard?8?$AA@ 6666db88     LIBCMT:undname.obj
 0002:00010ba4       ??_C@_0CL@FGIJHLCE@?$GAmanaged?5vector?5copy?5constructor@ 6666dba4     LIBCMT:undname.obj
 0002:00010bd0       ??_C@_0CJ@GJELGAMM@?$GAvector?5vbase?5copy?5constructor?5i@ 6666dbd0     LIBCMT:undname.obj
 0002:00010bfc       ??_C@_0CD@CGAJBKEJ@?$GAvector?5copy?5constructor?5iterato@ 6666dbfc     LIBCMT:undname.obj
 0002:00010c20       ??_C@_0CB@PDBIFEP@?$GAdynamic?5atexit?5destructor?5for?5?8@ 6666dc20     LIBCMT:undname.obj
 0002:00010c44       ??_C@_0BL@CLIPGLGB@?$GAdynamic?5initializer?5for?5?8?$AA@ 6666dc44     LIBCMT:undname.obj
 0002:00010c60       ??_C@_0CM@FCBBDIGB@?$GAeh?5vector?5vbase?5copy?5constructo@ 6666dc60     LIBCMT:undname.obj
 0002:00010c8c       ??_C@_0CG@HLDDJMAG@?$GAeh?5vector?5copy?5constructor?5iter@ 6666dc8c     LIBCMT:undname.obj
 0002:00010cb4       ??_C@_0CF@IMGKMJNO@?$GAmanaged?5vector?5destructor?5itera@ 6666dcb4     LIBCMT:undname.obj
 0002:00010cdc       ??_C@_0CG@CFDHKGGD@?$GAmanaged?5vector?5constructor?5iter@ 6666dcdc     LIBCMT:undname.obj
 0002:00010d04       ??_C@_0BN@CKNJLHMB@?$GAplacement?5delete?$FL?$FN?5closure?8?$AA@ 6666dd04     LIBCMT:undname.obj
 0002:00010d24       ??_C@_0BL@CNOONJFP@?$GAplacement?5delete?5closure?8?$AA@ 6666dd24     LIBCMT:undname.obj
 0002:00010d40       ??_C@_0P@HJKNJFNN@?$GAomni?5callsig?8?$AA@ 6666dd40     LIBCMT:undname.obj
 0002:00010d50       ??_C@_09LBNFPBCA@?5delete?$FL?$FN?$AA@ 6666dd50     LIBCMT:undname.obj
 0002:00010d5c       ??_C@_06FHBGPFGH@?5new?$FL?$FN?$AA@ 6666dd5c     LIBCMT:undname.obj
 0002:00010d64       ??_C@_0CE@IIHCMGGL@?$GAlocal?5vftable?5constructor?5closu@ 6666dd64     LIBCMT:undname.obj
 0002:00010d88       ??_C@_0BA@KKLDJDLB@?$GAlocal?5vftable?8?$AA@ 6666dd88     LIBCMT:undname.obj
 0002:00010d98       ??_C@_05KHLCHHI@?$GARTTI?$AA@ 6666dd98     LIBCMT:undname.obj
 0002:00010da0       ??_C@_03KLGMFNMG@?$GAEH?$AA@ 6666dda0     LIBCMT:undname.obj
 0002:00010da4       ??_C@_0BA@KBCDOMBN@?$GAudt?5returning?8?$AA@ 6666dda4     LIBCMT:undname.obj
 0002:00010db4       ??_C@_0BL@LLKPOHJI@?$GAcopy?5constructor?5closure?8?$AA@ 6666ddb4     LIBCMT:undname.obj
 0002:00010dd0       ??_C@_0CH@OOJPLCPH@?$GAeh?5vector?5vbase?5constructor?5ite@ 6666ddd0     LIBCMT:undname.obj
 0002:00010df8       ??_C@_0CA@GCEOPDGL@?$GAeh?5vector?5destructor?5iterator?8?$AA@ 6666ddf8     LIBCMT:undname.obj
 0002:00010e18       ??_C@_0CB@JONCMFFK@?$GAeh?5vector?5constructor?5iterator?8@ 6666de18     LIBCMT:undname.obj
 0002:00010e3c       ??_C@_0BL@NILFHHPC@?$GAvirtual?5displacement?5map?8?$AA@ 6666de3c     LIBCMT:undname.obj
 0002:00010e58       ??_C@_0CE@IKBNEHA@?$GAvector?5vbase?5constructor?5iterat@ 6666de58     LIBCMT:undname.obj
 0002:00010e7c       ??_C@_0BN@LFPFMEDL@?$GAvector?5destructor?5iterator?8?$AA@ 6666de7c     LIBCMT:undname.obj
 0002:00010e9c       ??_C@_0BO@PFGOCPJJ@?$GAvector?5constructor?5iterator?8?$AA@ 6666de9c     LIBCMT:undname.obj
 0002:00010ebc       ??_C@_0BN@IMDCHIKM@?$GAscalar?5deleting?5destructor?8?$AA@ 6666debc     LIBCMT:undname.obj
 0002:00010edc       ??_C@_0BO@OBMKPJIG@?$GAdefault?5constructor?5closure?8?$AA@ 6666dedc     LIBCMT:undname.obj
 0002:00010efc       ??_C@_0BN@DEGPLNFK@?$GAvector?5deleting?5destructor?8?$AA@ 6666defc     LIBCMT:undname.obj
 0002:00010f1c       ??_C@_0BD@JDLKDPAB@?$GAvbase?5destructor?8?$AA@ 6666df1c     LIBCMT:undname.obj
 0002:00010f30       ??_C@_08OBABFOLI@?$GAstring?8?$AA@ 6666df30     LIBCMT:undname.obj
 0002:00010f3c       ??_C@_0BF@KDPPACIK@?$GAlocal?5static?5guard?8?$AA@ 6666df3c     LIBCMT:undname.obj
 0002:00010f54       ??_C@_08LLFFHHDJ@?$GAtypeof?8?$AA@ 6666df54     LIBCMT:undname.obj
 0002:00010f60       ??_C@_07FEEIOKP@?$GAvcall?8?$AA@ 6666df60     LIBCMT:undname.obj
 0002:00010f68       ??_C@_09BLBHBJP@?$GAvbtable?8?$AA@ 6666df68     LIBCMT:undname.obj
 0002:00010f74       ??_C@_09IFPLHPGF@?$GAvftable?8?$AA@ 6666df74     LIBCMT:undname.obj
 0002:00010f80       ??_C@_02MHEGNOJ@?$FO?$DN?$AA@ 6666df80     LIBCMT:undname.obj
 0002:00010f84       ??_C@_02DHLNPPGH@?$HM?$DN?$AA@ 6666df84     LIBCMT:undname.obj
 0002:00010f88       ??_C@_02FGJGFEAB@?$CG?$DN?$AA@ 6666df88     LIBCMT:undname.obj
 0002:00010f8c       ??_C@_03CDNPDDLA@?$DM?$DM?$DN?$AA@ 6666df8c     LIBCMT:undname.obj
 0002:00010f90       ??_C@_03IKFCCPFF@?$DO?$DO?$DN?$AA@ 6666df90     LIBCMT:undname.obj
 0002:00010f94       ??_C@_02FENAOKFI@?$CF?$DN?$AA@ 6666df94     LIBCMT:undname.obj
 0002:00010f98       ??_C@_02FJEHGPIO@?1?$DN?$AA@ 6666df98     LIBCMT:undname.obj
 0002:00010f9c       ??_C@_02FKMDLLOA@?9?$DN?$AA@ 6666df9c     LIBCMT:undname.obj
 0002:00010fa0       ??_C@_02FOEOMHFC@?$CL?$DN?$AA@ 6666dfa0     LIBCMT:undname.obj
 0002:00010fa4       ??_C@_02FPIMKNGF@?$CK?$DN?$AA@ 6666dfa4     LIBCMT:undname.obj
 0002:00010fa8       ??_C@_02NONPIBCD@?$HM?$HM?$AA@ 6666dfa8     LIBCMT:undname.obj
 0002:00010fac       ??_C@_02PPKAJPJL@?$CG?$CG?$AA@ 6666dfac     LIBCMT:undname.obj
 0002:00010fb0       ??_C@_01DNKMNLPK@?$HM?$AA@ 6666dfb0     LIBCMT:undname.obj
 0002:00010fb4       ??_C@_01JKBOJNNK@?$FO?$AA@ 6666dfb4     LIBCMT:undname.obj
 0002:00010fb8       ??_C@_01PJKLJHI@?$HO?$AA@  6666dfb8     LIBCMT:undname.obj
 0002:00010fbc       ??_C@_02HCKGKOFO@?$CI?$CJ?$AA@ 6666dfbc     LIBCMT:undname.obj
 0002:00010fc0       ??_C@_01IHBHIGKO@?0?$AA@   6666dfc0     LIBCMT:undname.obj
 0002:00010fc4       ??_C@_02EEKDKGMJ@?$DO?$DN?$AA@ 6666dfc4     LIBCMT:undname.obj
 0002:00010fc8       ??_C@_01PPODPGHN@?$DO?$AA@ 6666dfc8     LIBCMT:undname.obj
 0002:00010fcc       ??_C@_02EHCHHCKH@?$DM?$DN?$AA@ 6666dfcc     LIBCMT:undname.obj
 0002:00010fd0       ??_C@_01MNNFJEPP@?$DM?$AA@ 6666dfd0     LIBCMT:undname.obj
 0002:00010fd4       ??_C@_01FGNFDNOH@?$CF?$AA@ 6666dfd4     LIBCMT:undname.obj
 0002:00010fd8       ??_C@_01KMDKNFGN@?1?$AA@   6666dfd8     LIBCMT:undname.obj
 0002:00010fdc       ??_C@_03MNHNFDLC@?9?$DO?$CK?$AA@ 6666dfdc     LIBCMT:undname.obj
 0002:00010fe0       ??_C@_01HNPIGOCE@?$CG?$AA@ 6666dfe0     LIBCMT:undname.obj
 0002:00010fe4       ??_C@_01MIFGBAGJ@?$CL?$AA@ 6666dfe4     LIBCMT:undname.obj
 0002:00010fe8       ??_C@_01JOAMLHOP@?9?$AA@   6666dfe8     LIBCMT:undname.obj
 0002:00010fec       ??_C@_02BAABKJLB@?9?9?$AA@ 6666dfec     LIBCMT:undname.obj
 0002:00010ff0       ??_C@_02ECNGHCIF@?$CL?$CL?$AA@ 6666dff0     LIBCMT:undname.obj
 0002:00010ff4       ??_C@_01NBENCBCI@?$CK?$AA@ 6666dff4     LIBCMT:undname.obj
 0002:00010ff8       ??_C@_02HBOOOICD@?9?$DO?$AA@ 6666dff8     LIBCMT:undname.obj
 0002:00010ffc       ??_C@_08LHJFAFGD@operator?$AA@ 6666dffc     LIBCMT:undname.obj
 0002:00011008       ??_C@_02GPECMEKF@?$FL?$FN?$AA@ 6666e008     LIBCMT:undname.obj
 0002:0001100c       ??_C@_02FDNJECIE@?$CB?$DN?$AA@ 6666e00c     LIBCMT:undname.obj
 0002:00011010       ??_C@_02EGOFBIJA@?$DN?$DN?$AA@ 6666e010     LIBCMT:undname.obj
 0002:00011014       ??_C@_01DCLJPIOD@?$CB?$AA@ 6666e014     LIBCMT:undname.obj
 0002:00011018       ??_C@_02FODMEDOG@?$DM?$DM?$AA@ 6666e018     LIBCMT:undname.obj
 0002:0001101c       ??_C@_02GPIOPFAK@?$DO?$DO?$AA@ 6666e01c     LIBCMT:undname.obj
 0002:00011020       ??_C@_07FPCDHGMM@?5delete?$AA@ 6666e020     LIBCMT:undname.obj
 0002:00011028       ??_C@_04NIHEBCM@?5new?$AA@ 6666e028     LIBCMT:undname.obj
 0002:00011030       ??_C@_0M@GFIIJFMG@__unaligned?$AA@ 6666e030     LIBCMT:undname.obj
 0002:0001103c       ??_C@_0L@PILCLIHE@__restrict?$AA@ 6666e03c     LIBCMT:undname.obj
 0002:00011048       ??_C@_07JOMMBBKO@__ptr64?$AA@ 6666e048     LIBCMT:undname.obj
 0002:00011050       ??_C@_09HIJEGCPM@__clrcall?$AA@ 6666e050     LIBCMT:undname.obj
 0002:0001105c       ??_C@_0L@JMKHOMEK@__fastcall?$AA@ 6666e05c     LIBCMT:undname.obj
 0002:00011068       ??_C@_0L@NPHFGOKO@__thiscall?$AA@ 6666e068     LIBCMT:undname.obj
 0002:00011074       ??_C@_09IFJBGAPI@__stdcall?$AA@ 6666e074     LIBCMT:undname.obj
 0002:00011080       ??_C@_08GHMPAG@__pascal?$AA@ 6666e080     LIBCMT:undname.obj
 0002:0001108c       ??_C@_07KOLFKCDI@__cdecl?$AA@ 6666e08c     LIBCMT:undname.obj
 0002:00011094       ??_C@_08EHJDFFNH@__based?$CI?$AA@ 6666e094     LIBCMT:undname.obj
 0002:00011220       ??_C@_0L@KDOEJCKC@_nextafter?$AA@ 6666e220     LIBCMT:_fpexcept_.obj
 0002:0001122c       ??_C@_05JGDBENOH@_logb?$AA@ 6666e22c     LIBCMT:_fpexcept_.obj
 0002:00011234       ??_C@_03ONILCKOB@_yn?$AA@  6666e234     LIBCMT:_fpexcept_.obj
 0002:00011238       ??_C@_03NAKIGLHK@_y1?$AA@  6666e238     LIBCMT:_fpexcept_.obj
 0002:0001123c       ??_C@_03MJLDFKDL@_y0?$AA@  6666e23c     LIBCMT:_fpexcept_.obj
 0002:00011240       ??_C@_05GKKHEGJL@frexp?$AA@ 6666e240     LIBCMT:_fpexcept_.obj
 0002:00011248       ??_C@_04KEPJIHGP@fmod?$AA@ 6666e248     LIBCMT:_fpexcept_.obj
 0002:00011250       ??_C@_06MEIMCGCF@_hypot?$AA@ 6666e250     LIBCMT:_fpexcept_.obj
 0002:00011258       ??_C@_05KBKMEMPO@_cabs?$AA@ 6666e258     LIBCMT:_fpexcept_.obj
 0002:00011260       ??_C@_05CEJMAHNP@ldexp?$AA@ 6666e260     LIBCMT:_fpexcept_.obj
 0002:00011268       ??_C@_04EHEDPDJG@modf?$AA@ 6666e268     LIBCMT:_fpexcept_.obj
 0002:00011270       ??_C@_04ODHECPBC@fabs?$AA@ 6666e270     LIBCMT:_fpexcept_.obj
 0002:00011278       ??_C@_05PBJFFIGL@floor?$AA@ 6666e278     LIBCMT:_fpexcept_.obj
 0002:00011280       ??_C@_04GFPJNGEK@ceil?$AA@ 6666e280     LIBCMT:_fpexcept_.obj
 0002:00011288       ??_C@_03IIINPABG@tan?$AA@  6666e288     LIBCMT:_fpexcept_.obj
 0002:0001128c       ??_C@_03LALBNOCG@cos?$AA@  6666e28c     LIBCMT:_fpexcept_.obj
 0002:00011290       ??_C@_03BLEJJJBH@sin?$AA@  6666e290     LIBCMT:_fpexcept_.obj
 0002:00011294       ??_C@_04EIAKFFMI@sqrt?$AA@ 6666e294     LIBCMT:_fpexcept_.obj
 0002:0001129c       ??_C@_05KNGEOGJB@atan2?$AA@ 6666e29c     LIBCMT:_fpexcept_.obj
 0002:000112a4       ??_C@_04MLLJIGOK@atan?$AA@ 6666e2a4     LIBCMT:_fpexcept_.obj
 0002:000112ac       ??_C@_04PDIFKINK@acos?$AA@ 6666e2ac     LIBCMT:_fpexcept_.obj
 0002:000112b4       ??_C@_04FIHNOPOL@asin?$AA@ 6666e2b4     LIBCMT:_fpexcept_.obj
 0002:000112bc       ??_C@_04FJHINJAO@tanh?$AA@ 6666e2bc     LIBCMT:_fpexcept_.obj
 0002:000112c4       ??_C@_04HPJJNFIM@cosh?$AA@ 6666e2c4     LIBCMT:_fpexcept_.obj
 0002:000112cc       ??_C@_04COOMCNPB@sinh?$AA@ 6666e2cc     LIBCMT:_fpexcept_.obj
 0002:000112d4       ??_C@_05HGHHAHAP@log10?$AA@ 6666e2d4     LIBCMT:_fpexcept_.obj
 0002:000112dc       ??_C@_03MGHMBJCF@log?$AA@  6666e2dc     LIBCMT:_fpexcept_.obj
 0002:000112e0       ??_C@_03JGHBODFD@pow?$AA@  6666e2e0     LIBCMT:_fpexcept_.obj
 0002:000112e4       ??_C@_03KHJOGHMM@exp?$AA@  6666e2e4     LIBCMT:_fpexcept_.obj
 0002:000112e8       __load_config_used         6666e2e8     LIBCMT:loadcfg.obj
 0002:00011330       ??_R4bad_alloc@std@@6B@    6666e330     LIBCMT:new.obj
 0002:00011344       ??_R3bad_alloc@std@@8      6666e344     LIBCMT:new.obj
 0002:00011354       ??_R2bad_alloc@std@@8      6666e354     LIBCMT:new.obj
 0002:00011360       ??_R1A@?0A@EA@bad_alloc@std@@8 6666e360     LIBCMT:new.obj
 0002:0001137c       ??_R1A@?0A@EA@exception@std@@8 6666e37c     LIBCMT:new.obj
 0002:00011398       ??_R3exception@std@@8      6666e398     LIBCMT:new.obj
 0002:000113a8       ??_R2exception@std@@8      6666e3a8     LIBCMT:new.obj
 0002:000113b0       ??_R4exception@std@@6B@    6666e3b0     LIBCMT:stdexcpt.obj
 0002:000113c4       ??_R4type_info@@6B@        6666e3c4     LIBCMT:typinfo.obj
 0002:000113d8       ??_R3type_info@@8          6666e3d8     LIBCMT:typinfo.obj
 0002:000113e8       ??_R2type_info@@8          6666e3e8     LIBCMT:typinfo.obj
 0002:000113f0       ??_R1A@?0A@EA@type_info@@8 6666e3f0     LIBCMT:typinfo.obj
 0002:00011410       ___safe_se_handler_table   6666e410     <linker-defined>
 0002:0001141c       ___rtc_iaa                 6666e41c     LIBCMT:_initsect_.obj
 0002:00011420       ___rtc_izz                 6666e420     LIBCMT:_initsect_.obj
 0002:00011424       ___rtc_taa                 6666e424     LIBCMT:_initsect_.obj
 0002:00011428       ___rtc_tzz                 6666e428     LIBCMT:_initsect_.obj
 0002:0001161c       __TI2?AVbad_alloc@std@@    6666e61c     LIBCMT:new.obj
 0002:0001162c       __CTA2?AVbad_alloc@std@@   6666e62c     LIBCMT:new.obj
 0002:00011638       __CT??_R0?AVbad_alloc@std@@@8??0bad_alloc@std@@QAE@ABV01@@Z12 6666e638     LIBCMT:new.obj
 0002:00011654       __CT??_R0?AVexception@std@@@8??0exception@std@@QAE@ABV01@@Z12 6666e654     LIBCMT:new.obj
 0002:00011b64       __IMPORT_DESCRIPTOR_KERNEL32 6666eb64     kernel32:KERNEL32.dll
 0002:00011b78       __IMPORT_DESCRIPTOR_USER32 6666eb78     user32:USER32.dll
 0002:00011b8c       __IMPORT_DESCRIPTOR_GDI32  6666eb8c     gdi32:GDI32.dll
 0002:00011ba0       __IMPORT_DESCRIPTOR_IMM32  6666eba0     imm32:IMM32.dll
 0002:00011bb4       __NULL_IMPORT_DESCRIPTOR   6666ebb4     kernel32:KERNEL32.dll
 0003:00000000       ?szRuntimePath@@3PADA      66670000     config.obj
 0003:00000100       ?fShowCheckInfo@@3HA       66670100     config.obj
 0003:00000104       ?fLoadItemColours@@3HA     66670104     config.obj
 0003:00000600       ?dwGameWindowId@@3HA       66670600     DllMain.obj
 0003:00000608       ?dwGameLng@@3HA            66670608     install.obj
 0003:0000060c       ?addr_storm@@3PAUHINSTANCE__@@A 6667060c     install.obj
 0003:00000610       ?addr_d2client@@3PAUHINSTANCE__@@A 66670610     install.obj
 0003:00000614       ?addr_d2common@@3PAUHINSTANCE__@@A 66670614     install.obj
 0003:00000618       ?addr_d2gfx@@3PAUHINSTANCE__@@A 66670618     install.obj
 0003:0000061c       ?addr_d2win@@3PAUHINSTANCE__@@A 6667061c     install.obj
 0003:00000620       ?addr_d2lang@@3PAUHINSTANCE__@@A 66670620     install.obj
 0003:00000624       ?addr_d2cmp@@3PAUHINSTANCE__@@A 66670624     install.obj
 0003:00000628       ?addr_bnclient@@3PAUHINSTANCE__@@A 66670628     install.obj
 0003:0000062c       ?addr_d2net@@3PAUHINSTANCE__@@A 6667062c     install.obj
 0003:00000630       ?addr_fog@@3PAUHINSTANCE__@@A 66670630     install.obj
 0003:00000634       ?addr_d2game@@3PAUHINSTANCE__@@A 66670634     install.obj
 0003:00000638       ?addr_d2launch@@3PAUHINSTANCE__@@A 66670638     install.obj
 0003:0000063c       ?addr_d2gdi@@3PAUHINSTANCE__@@A 6667063c     install.obj
 0003:00000640       ?addr_d2sound@@3PAUHINSTANCE__@@A 66670640     install.obj
 0003:00000644       ?addr_d2multi@@3PAUHINSTANCE__@@A 66670644     install.obj
 0003:00000648       ?addr_d2mcpclient@@3PAUHINSTANCE__@@A 66670648     install.obj
 0003:0000064c       ?fFixSocketError@@3HA      6667064c     install.obj
 0003:00000650       ?tReloadDll@@3UToggleVar@@A 66670650     install.obj
 0003:00000680       ?tReloadConfig@@3UToggleVar@@A 66670680     install.obj
 0003:000006b0       ?tInstallPatches@@3UToggleVar@@A 666706b0     install.obj
 0003:0000080c       ?dwPetListChangeCount@@3HA 6667080c     common.obj
 0003:00000810       ?skillTypes@@3PAY0BO@HA    66670810     common.obj
 0003:00000b70       ?tShowTestInfo@@3UToggleVar@@A 66670b70     dbg.obj
 0003:00000ba8       ?fPlayerInTown@@3HA        66670ba8     loop.obj
 0003:00000bac       ?actlvls@@3PAHA            66670bac     loop.obj
 0003:00000bc4       ?dwCurrentLevel@@3HA       66670bc4     loop.obj
 0003:00000bc8       ?dwLeftSkill@@3HA          66670bc8     loop.obj
 0003:00000bcc       ?dwRightSkill@@3HA         66670bcc     loop.obj
 0003:00000bd0       ?fCanUseLeftSkill@@3HA     66670bd0     loop.obj
 0003:00000bd4       ?fCanUseRightSkill@@3HA    66670bd4     loop.obj
 0003:00000cc4       ?dwAutoRevealMode@@3HA     66670cc4     map.obj
 0003:00000cc8       ?tRevealAct@@3UToggleVar@@A 66670cc8     map.obj
 0003:00000cf8       ?tRevealLevel@@3UToggleVar@@A 66670cf8     map.obj
 0003:00000d28       ?tPrevMapTarget@@3UToggleVar@@A 66670d28     map.obj
 0003:00000d58       ?tNextMapTarget@@3UToggleVar@@A 66670d58     map.obj
 0003:00000d88       ?tAutomapLevelNames@@3UToggleVar@@A 66670d88     map.obj
 0003:00000db8       ?tAutoMap@@3UToggleVar@@A  66670db8     map.obj
 0003:00000de8       ?tMiniShrine@@3UToggleVar@@A 66670de8     map.obj
 0003:00000e18       ?tAutomapActiveRect@@3UToggleVar@@A 66670e18     map.obj
 0003:00000e48       ?tAutomapReadyRect@@3UToggleVar@@A 66670e48     map.obj
 0003:00000e78       ?tAutomapScreenArea@@3UToggleVar@@A 66670e78     map.obj
 0003:00000ea8       ?nAutomapActiveRectColors@@3EA 66670ea8     map.obj
 0003:00000ea9       ?nAutomapReadyRectColors@@3EA 66670ea9     map.obj
 0003:00000eaa       ?nAutomapScreenColors@@3EA 66670eaa     map.obj
 0003:00000eab       ?nMinimapSize@@3EA         66670eab     map.obj
 0003:00000eac       ?routeLineColor@@3EA       66670eac     map.obj
 0003:00000ead       ?fAutomapPartyDefault@@3EA 66670ead     map.obj
 0003:00000eae       ?fAutomapNamesDefault@@3EA 66670eae     map.obj
 0003:00000eaf       ?nHostileMissileColor@@3EA 66670eaf     map.obj
 0003:00000eb0       ?tMinimapDirectLineToggle@@3UToggleVar@@A 66670eb0     map.obj
 0003:00000ee0       ?tAutomapCorpse@@3UToggleVar@@A 66670ee0     map.obj
 0003:00000f10       ?tAutomapMonsters@@3UToggleVar@@A 66670f10     map.obj
 0003:00000f40       ?tAutomapChests@@3UToggleVar@@A 66670f40     map.obj
 0003:00000f70       ?tAutomapMissiles@@3UToggleVar@@A 66670f70     map.obj
 0003:00000fa0       ?tAutomapItems@@3UToggleVar@@A 66670fa0     map.obj
 0003:00000fd0       ?nGuidedMissileColor@@3EA  66670fd0     map.obj
 0003:00000fd1       ?nTracerMissileColor@@3EA  66670fd1     map.obj
 0003:00000fd2       ?nOtherMissileColor@@3EA   66670fd2     map.obj
 0003:00000fd3       ?nClosedChestColor@@3EA    66670fd3     map.obj
 0003:00000fd4       ?nLockedChestColor@@3EA    66670fd4     map.obj
 0003:00000fd5       ?nNormalCorpseColor@@3EA   66670fd5     map.obj
 0003:00000fd6       ?nBossCorpseColor@@3EA     66670fd6     map.obj
 0003:00000fd7       ?nMinionCorpseColor@@3EA   66670fd7     map.obj
 0003:00000fd8       ?nChampionCorpseColor@@3EA 66670fd8     map.obj
 0003:00000fd9       ?nMonsterNormalColor@@3EA  66670fd9     map.obj
 0003:00000fda       ?nMonsterBossColor@@3EA    66670fda     map.obj
 0003:00000fdb       ?nMonsterMinionColor@@3EA  66670fdb     map.obj
 0003:00000fdc       ?nMonsterChampColor@@3EA   66670fdc     map.obj
 0003:00000fdd       ?nSuperUniqueColor@@3EA    66670fdd     map.obj
 0003:00000fde       ?nNeutralPlayerColor@@3EA  66670fde     map.obj
 0003:00000fdf       ?nHostilePlayerColor@@3EA  66670fdf     map.obj
 0003:00000fe0       ?nFriendMinionColor@@3EA   66670fe0     map.obj
 0003:00000fe1       ?nPlayerMinionColor@@3EA   66670fe1     map.obj
 0003:00000fe2       ?nPartyTextColour@@3EA     66670fe2     map.obj
 0003:00000fe3       ?nNeutralTextColour@@3EA   66670fe3     map.obj
 0003:00000fe4       ?nHostileTextColour@@3EA   66670fe4     map.obj
 0003:00000fe5       ?nMonsterTextCol@@3EA      66670fe5     map.obj
 0003:00000fe8       ?tBossNameToggle@@3UToggleVar@@A 66670fe8     map.obj
 0003:00001018       ?tScreenshake@@3UToggleVar@@A 66671018     map.obj
 0003:00001048       ?tCenterMap@@3UToggleVar@@A 66671048     map.obj
 0003:00001078       ?nScrollMode@@3HA          66671078     map.obj
 0003:000023f0       ?dwSocketTimeOutSec@@3HA   666723f0     packet.obj
 0003:000023f4       ?dwSocketTimeOut@@3HA      666723f4     packet.obj
 0003:000023f8       ?dwAddStatMaxCount@@3HA    666723f8     packet.obj
 0003:000023fc       ?tPacketHandler@@3UToggleVar@@A 666723fc     packet.obj
 0003:0000242c       ?tDoTest@@3UToggleVar@@A   6667242c     packet.obj
 0003:0000245c       ?tNecTeleportAttract@@3UToggleVar@@A 6667245c     packet.obj
 0003:000025c8       ?tAutomapRouteInfo@@3UToggleVar@@A 666725c8     route.obj
 0003:000025f8       ?tScreenRouteGuide@@3UToggleVar@@A 666725f8     route.obj
 0003:00002628       ?tReroute@@3UToggleVar@@A  66672628     route.obj
 0003:000027e8       ?fWinActive@@3HA           666727e8     winmsg.obj
 0003:000027ec       ?dwQuickSwapItemDelayMs@@3HA 666727ec     winmsg.obj
 0003:000027f0       ?dwAutoCallToArm@@3HA      666727f0     winmsg.obj
 0003:000027f4       ?tLockMouseToggle@@3UToggleVar@@A 666727f4     winmsg.obj
 0003:00002824       ?tAutoHideMinimapToggle@@3UToggleVar@@A 66672824     winmsg.obj
 0003:00002854       ?tAutoMinimapTeleportToggle@@3UToggleVar@@A 66672854     winmsg.obj
 0003:00002884       ?tFullScreen@@3UToggleVar@@A 66672884     winmsg.obj
 0003:000028b4       ?tFullScreenNoCaption@@3UToggleVar@@A 666728b4     winmsg.obj
 0003:000028e4       ?tResizeWindowBar@@3UToggleVar@@A 666728e4     winmsg.obj
 0003:00002914       ?tAttractNPC@@3UToggleVar@@A 66672914     winmsg.obj
 0003:00002944       ?tEnableScreenSaver@@3UToggleVar@@A 66672944     winmsg.obj
 0003:00002974       ?tEnableMenuScreenSaver@@3UToggleVar@@A 66672974     winmsg.obj
 0003:000029a4       ?tNoHide@@3UToggleVar@@A   666729a4     winmsg.obj
 0003:000029d4       ?tSaveGame@@3UToggleVar@@A 666729d4     winmsg.obj
 0003:00002fb0       ?newTextBoxData@@3PAKA     66672fb0     winmsg.obj
 0003:00002fe0       ?tChangeVisualEffect@@3UToggleVar@@A 66672fe0     env.obj
 0003:00003010       ?tWeather@@3UToggleVar@@A  66673010     env.obj
 0003:00003040       ?tHiddenCorpse@@3UToggleVar@@A 66673040     env.obj
 0003:00003178       ?tCountDown@@3UToggleVar@@A 66673178     GameMonitor.obj
 0003:000031a8       ?dwGameMonitorX@@3HA       666731a8     GameMonitor.obj
 0003:000031ac       ?dwGameMonitorY@@3HA       666731ac     GameMonitor.obj
 0003:000031b0       ?dwCountDownFontSize@@3HA  666731b0     GameMonitor.obj
 0003:000031b4       ?dwCountDownGap@@3HA       666731b4     GameMonitor.obj
 0003:000031b8       ?dwCountDownFlashSecond@@3HA 666731b8     GameMonitor.obj
 0003:000031bc       ?tKillCount@@3UToggleVar@@A 666731bc     GameMonitor.obj
 0003:000031ec       ?tGetHitCount@@3UToggleVar@@A 666731ec     GameMonitor.obj
 0003:00003568       ?countDowns@@3PAPAUCountDown@@A 66673568     GameMonitor.obj
 0003:000035a0       ?tServerIp@@3UToggleVar@@A 666735a0     info.obj
 0003:000035d0       ?tGameTime@@3UToggleVar@@A 666735d0     info.obj
 0003:00003600       ?tClock@@3UToggleVar@@A    66673600     info.obj
 0003:00003630       ?tLayerLevelNo@@3UToggleVar@@A 66673630     info.obj
 0003:00003660       ?tAreaLevel@@3UToggleVar@@A 66673660     info.obj
 0003:00003690       ?tPermShowOrb@@3UToggleVar@@A 66673690     info.obj
 0003:000036c0       ?tShowExp@@3UToggleVar@@A  666736c0     info.obj
 0003:000036f0       ?tShowPing@@3UToggleVar@@A 666736f0     info.obj
 0003:00003720       ?tShowPartyPosition@@3UToggleVar@@A 66673720     info.obj
 0003:00003750       ?tShowPartyLevel@@3UToggleVar@@A 66673750     info.obj
 0003:00003780       ?tViewEquipmentKey@@3UToggleVar@@A 66673780     info.obj
 0003:000037b0       ?tViewPlayerStatsKey@@3UToggleVar@@A 666737b0     info.obj
 0003:000037e0       ?tShowBaseStat@@3UToggleVar@@A 666737e0     info.obj
 0003:00003810       ?tFirstPlayerStat@@3UToggleVar@@A 66673810     info.obj
 0003:00003840       ?tNextPlayerStat@@3UToggleVar@@A 66673840     info.obj
 0003:00003870       ?tPrevPlayerStat@@3UToggleVar@@A 66673870     info.obj
 0003:00003b60       ?szOrbPattern@@3PADA       66673b60     info.obj
 0003:00003b64       ?viewStatUnit@@3UViewUnitInfo@@A 66673b64     info.obj
 0003:00003b74       ?viewEquUnit@@3UViewUnitInfo@@A 66673b74     info.obj
 0003:00003c58       ?tLogMessage@@3UToggleVar@@A 66673c58     MessageLog.obj
 0003:00003c88       ?dwMessageFileSize@@3HA    66673c88     MessageLog.obj
 0003:00003ce8       ?anGoldGoodCol@@3PADA      66673ce8     item.obj
 0003:00003cec       ?anGoldPoorCol@@3PADA      66673cec     item.obj
 0003:00003cf0       ?tSwitchItemMode@@3UToggleVar@@A 66673cf0     item.obj
 0003:00003d20       ?dwItemShowMode@@3HA       66673d20     item.obj
 0003:00003d24       ?nQuestItemColour@@3EA     66673d24     item.obj
 0003:00003d25       ?nDefaultExtInfoColour@@3EA 66673d25     item.obj
 0003:00003d28       ?tRuneNumbers@@3UToggleVar@@A 66673d28     item.obj
 0003:00003d58       ?tSocketNumbers@@3UToggleVar@@A 66673d58     item.obj
 0003:00003d88       ?tItemLevel@@3UToggleVar@@A 66673d88     item.obj
 0003:00003db8       ?tItemValue@@3UToggleVar@@A 66673db8     item.obj
 0003:00003de8       ?tItemIndex@@3UToggleVar@@A 66673de8     item.obj
 0003:00003e18       ?tItemFileIndex@@3UToggleVar@@A 66673e18     item.obj
 0003:00003e48       ?tUnitNumber@@3UToggleVar@@A 66673e48     item.obj
 0003:00003e78       ?tItemQLevel@@3UToggleVar@@A 66673e78     item.obj
 0003:00003ea8       ?tItemMLevel@@3UToggleVar@@A 66673ea8     item.obj
 0003:00003ed8       ?tItemALevel@@3UToggleVar@@A 66673ed8     item.obj
 0003:00003f08       ?tAfterCube@@3UToggleVar@@A 66673f08     item.obj
 0003:00003f38       ?tLifePerLevel@@3UToggleVar@@A 66673f38     item.obj
 0003:00003f68       ?dwItemValueNpc@@3PAHA     66673f68     item.obj
 0003:00003f7c       ?tShowBaseED@@3UToggleVar@@A 66673f7c     item.obj
 0003:00003fac       ?tShowIdentifiedItem@@3UToggleVar@@A 66673fac     item.obj
 0003:00003fdc       ?tHiddenItems@@3UToggleVar@@A 66673fdc     item.obj
 0003:0000400c       ?tPermShowItems@@3UToggleVar@@A 6667400c     item.obj
 0003:0000403c       ?tLockAltToggle@@3UToggleVar@@A 6667403c     item.obj
 0003:0000406c       ?tItemBasicStat@@3UToggleVar@@A 6667406c     item.obj
 0003:0000409c       ?tViewSocketable@@3UToggleVar@@A 6667409c     item.obj
 0003:000040cc       ?tViewSocketBase@@3UToggleVar@@A 666740cc     item.obj
 0003:000040fc       ?tShowItemVariableProp@@3UToggleVar@@A 666740fc     item.obj
 0003:0000412c       ?tSocketProtect@@3UToggleVar@@A 6667412c     item.obj
 0003:0000415c       ?tItemExtInfo@@3UToggleVar@@A 6667415c     item.obj
 0003:00004898       ?dwAutoPotionCheckMs@@3HA  66674898     dangerous.obj
 0003:0000489c       ?dwHirePotionDelayMs@@3HA  6667489c     dangerous.obj
 0003:000048a0       ?dwManaPotionDelayMs@@3HA  666748a0     dangerous.obj
 0003:000048a4       ?nChickenLifeAction@@3HA   666748a4     dangerous.obj
 0003:000048a8       ?tHealingPotion@@3UToggleVar@@A 666748a8     dangerous.obj
 0003:000048d8       ?tManaPotion@@3UToggleVar@@A 666748d8     dangerous.obj
 0003:00004908       ?tChickenLife@@3UToggleVar@@A 66674908     dangerous.obj
 0003:00004938       ?tChickenHostile@@3UToggleVar@@A 66674938     dangerous.obj
 0003:00004968       ?tChickenHostileNearby@@3UToggleVar@@A 66674968     dangerous.obj
 0003:00004998       ?tChickenDangerousMonster@@3UToggleVar@@A 66674998     dangerous.obj
 0003:000049c8       ?tAutoPotion@@3UToggleVar@@A 666749c8     dangerous.obj
 0003:000049f8       ?dwChickenLifeForcedClevel@@3HA 666749f8     dangerous.obj
 0003:000049fc       ?dwChickenLifeEnterGame@@3HA 666749fc     dangerous.obj
 0003:00004a00       ?nDangerousMonsterAction@@3HA 66674a00     dangerous.obj
 0003:00004fc8       ?dwBugAlertTimes@@3HA      66674fc8     quest.obj
 0003:00004fcc       ?tBugKCountess@@3UToggleVar@@A 66674fcc     quest.obj
 0003:00004ffc       ?tBugKM@@3UToggleVar@@A    66674ffc     quest.obj
 0003:0000502c       ?tBugKD@@3UToggleVar@@A    6667502c     quest.obj
 0003:0000505c       ?tBugKB@@3UToggleVar@@A    6667505c     quest.obj
 0003:0000508c       ?tBugAutoQuit@@3UToggleVar@@A 6667508c     quest.obj
 0003:000050bc       ?tBugAutoQuitHell@@3UToggleVar@@A 666750bc     quest.obj
 0003:000050ec       ?tBugAutoQuitHellAct1@@3UToggleVar@@A 666750ec     quest.obj
 0003:0000511c       ?tBugAutoQuitHellAct3@@3UToggleVar@@A 6667511c     quest.obj
 0003:0000514c       ?tBugAutoQuitHellAct4@@3UToggleVar@@A 6667514c     quest.obj
 0003:0000517c       ?tBugAutoQuitHellAct5@@3UToggleVar@@A 6667517c     quest.obj
 0003:000051ac       ?tBugAllHellAlert@@3UToggleVar@@A 666751ac     quest.obj
 0003:000051dc       ?tAlertNoBug@@3UToggleVar@@A 666751dc     quest.obj
 0003:00005538       ?tMonsterLevel@@3UToggleVar@@A 66675538     lifebar.obj
 0003:00005568       ?tMonsterTC@@3UToggleVar@@A 66675568     lifebar.obj
 0003:00005598       ?tMonsterRuneTC@@3UToggleVar@@A 66675598     lifebar.obj
 0003:000055c8       ?tMonsterResists@@3UToggleVar@@A 666755c8     lifebar.obj
 0003:000055f8       ?tMonsterHPPercent@@3UToggleVar@@A 666755f8     lifebar.obj
 0003:00005628       ?tMonsterDistance@@3UToggleVar@@A 66675628     lifebar.obj
 0003:00005658       ?tMonsterID@@3UToggleVar@@A 66675658     lifebar.obj
 0003:00005688       ?tSPMonsterHP@@3UToggleVar@@A 66675688     lifebar.obj
 0003:000056b8       ?tSPMonsterExp@@3UToggleVar@@A 666756b8     lifebar.obj
 0003:000056e8       ?nLifeBarTrans@@3EA        666756e8     lifebar.obj
 0003:000056e9       ?nLifeBarColour@@3EA       666756e9     lifebar.obj
 0003:000056ec       ?tPlayerLevel@@3UToggleVar@@A 666756ec     lifebar.obj
 0003:0000571c       ?tPlayerDistance@@3UToggleVar@@A 6667571c     lifebar.obj
 0003:0000574c       ?tPlayerHPPercent@@3UToggleVar@@A 6667574c     lifebar.obj
 0003:00005ac8       ?tDropProtectionToggle@@3UToggleVar@@A 66675ac8     DropProtection.obj
 0003:00005af8       ?tResetProtectionToggle@@3UToggleVar@@A 66675af8     DropProtection.obj
 0003:00005c30       ?tWisperNotice@@3UToggleVar@@A 66675c30     GameChat.obj
 0003:00005c60       ?tInputLine@@3UToggleVar@@A 66675c60     GameChat.obj
 0003:00005c90       ?tUseCustomFont@@3UToggleVar@@A 66675c90     GameChat.obj
 0003:00005eb8       ?tOutTownSelect@@3UToggleVar@@A 66675eb8     misc.obj
 0003:00005ee8       ?tULCMask@@3UToggleVar@@A  66675ee8     misc.obj
 0003:00005fa0       ?dwMultiClientMaxWindowId@@3HA 66675fa0     multi.obj
 0003:00005fa4       ?tMultiClient@@3UToggleVar@@A 66675fa4     multi.obj
 0003:00005fd4       ?tMultiClientToggleFollow@@3UToggleVar@@A 66675fd4     multi.obj
 0003:00006004       ?tMultiClientStartFollow1@@3UToggleVar@@A 66676004     multi.obj
 0003:00006034       ?tMultiClientStartFollow2@@3UToggleVar@@A 66676034     multi.obj
 0003:00006064       ?tMultiClientStopFollow@@3UToggleVar@@A 66676064     multi.obj
 0003:00006094       ?tMultiClientEnterDoor@@3UToggleVar@@A 66676094     multi.obj
 0003:000060c4       ?tMultiClientRetreat@@3UToggleVar@@A 666760c4     multi.obj
 0003:000060f4       ?tMultiClientClick@@3UToggleVar@@A 666760f4     multi.obj
 0003:00006124       ?tMultiClientClick2@@3UToggleVar@@A 66676124     multi.obj
 0003:00006154       ?dwMultiClientGroupSize1@@3HA 66676154     multi.obj
 0003:00006158       ?dwMultiClientGroupSize2@@3HA 66676158     multi.obj
 0003:0000615c       ?dwAutoFollowDistance@@3HA 6667615c     multi.obj
 0003:00006160       ?dwAutoFollowMaxDistance@@3HA 66676160     multi.obj
 0003:00006164       ?dwAutoFollowMoveDistance@@3HA 66676164     multi.obj
 0003:00006168       ?dwAutoFollowCheckInterval@@3HA 66676168     multi.obj
 0003:0000616c       ?dwAutoFollowClickObjectDelayMs@@3HA 6667616c     multi.obj
 0003:00006170       ?dwWaitTeamEnterPortalMaxDelayMs@@3HA 66676170     multi.obj
 0003:00006174       ?tNecNoAttackInHell@@3UToggleVar@@A 66676174     multi.obj
 0003:00006518       ?tNpcTradeShowInfo@@3UToggleVar@@A 66676518     NpcTrade.obj
 0003:00006598       ?mAutoPartyDelays@@3HA     66676598     party.obj
 0003:0000659c       ?tAutoParty@@3UToggleVar@@A 6667659c     party.obj
 0003:000065cc       ?tAutoInvite@@3UToggleVar@@A 666765cc     party.obj
 0003:000065fc       ?tAutoPermit@@3UToggleVar@@A 666765fc     party.obj
 0003:000066e0       ?nTownportalAlertNums@@3HA 666766e0     quick.obj
 0003:000066e8       ?tBackToTown@@3UToggleVar@@A 666766e8     quick.obj
 0003:00006718       ?tExitGame@@3UToggleVar@@A 66676718     quick.obj
 0003:00006748       ?tQuickNextGame@@3UToggleVar@@A 66676748     quick.obj
 0003:00006778       ?tQuickNextGame2@@3UToggleVar@@A 66676778     quick.obj
 0003:000069c0       ?tRightClickSwap@@3UToggleVar@@A 666769c0     QuickSwapItem.obj
 0003:000069f0       ?tQuickDropToggle@@3UToggleVar@@A 666769f0     QuickSwapItem.obj
 0003:00006aa8       ?tHighResolution@@3UToggleVar@@A 66676aa8     resolution.obj
 0003:00006b08       ?tAutoPickupToggle@@3UToggleVar@@A 66676b08     skill.obj
 0003:00006b38       ?tAutoEnchant@@3UToggleVar@@A 66676b38     skill.obj
 0003:00006b68       ?dwRenewEnchantMs@@3HA     66676b68     skill.obj
 0003:00006b6c       ?dwAutoEnchantMana@@3HA    66676b6c     skill.obj
 0003:00006b70       ?dwRenewEnchantMana@@3HA   66676b70     skill.obj
 0003:00006b74       ?dwAutoEnchantPlayerLevel@@3HA 66676b74     skill.obj
 0003:00006b78       ?tAutoWarCry@@3UToggleVar@@A 66676b78     skill.obj
 0003:00006ba8       ?tAutoBackgroundSkill@@3UToggleVar@@A 66676ba8     skill.obj
 0003:00006bd8       ?tAutoForegroundSkillToggle@@3UToggleVar@@A 66676bd8     skill.obj
 0003:00006c08       ?tAutoForegroundSkill@@3UToggleVar@@A 66676c08     skill.obj
 0003:00006c38       ?dwAutoSkillCheckInterval@@3HA 66676c38     skill.obj
 0003:00006c3c       ?dwAutoSkillIdleDelay@@3HA 66676c3c     skill.obj
 0003:00006c40       ?dwAutoThrowMinQuantity@@3HA 66676c40     skill.obj
 0003:00006c44       ?dwAutoStaticFieldHPPercent@@3HA 66676c44     skill.obj
 0003:00006c48       ?tAutoSummon@@3UToggleVar@@A 66676c48     skill.obj
 0003:00006c78       ?tAutoSummonRevive@@3UToggleVar@@A 66676c78     skill.obj
 0003:00006ca8       ?tShowSummonInfo@@3UToggleVar@@A 66676ca8     skill.obj
 0003:00006cd8       ?dwAutoSummonMana@@3HA     66676cd8     skill.obj
 0003:00006cdc       ?dwSwitchSkillMs@@3HA      66676cdc     skill.obj
 0003:00006ce0       ?dwAutoSummonSkeletonLevelAdjust@@3HA 66676ce0     skill.obj
 0003:00006ce4       ?dwAutoSummonSkeletonMageLevelAdjust@@3HA 66676ce4     skill.obj
 0003:00006ce8       ?dwAutoSummonReviveLevelAdjust@@3HA 66676ce8     skill.obj
 0003:00006cec       ?tAutoForegroundSkill2@@3UToggleVar@@A 66676cec     skill.obj
 0003:00007310       ?szSnapshotPath@@3PADA     66677310     Snapshot.obj
 0003:00007410       ?szSnapshotNamesPath@@3PADA 66677410     Snapshot.obj
 0003:00007510       ?tDoSnapshot@@3UToggleVar@@A 66677510     Snapshot.obj
 0003:00007540       ?tSnapshot@@3UToggleVar@@A 66677540     Snapshot.obj
 0003:00007570       ?tSnapshotNewGame@@3UToggleVar@@A 66677570     Snapshot.obj
 0003:000075a0       ?tSnapshotEndGame@@3UToggleVar@@A 666775a0     Snapshot.obj
 0003:000075d0       ?tSnapshotLog@@3UToggleVar@@A 666775d0     Snapshot.obj
 0003:00007600       ?tSnapshotSaveD2s@@3UToggleVar@@A 66677600     Snapshot.obj
 0003:00007ce8       ?tServerTest@@3UToggleVar@@A 66677ce8     server.obj
 0003:00007d18       ?tRepeatAdminCmd@@3UToggleVar@@A 66677d18     server.obj
 0003:00007d6c       ?fEnableAdminCmd@@3HA      66677d6c     server.obj
 0003:00007d74       ?adminCmdPrefix@@3PADA     66677d74     server.obj
 0003:00008124       ?UberMephistoNbMinions@@3HA 66678124     uber.obj
 0003:00008128       ?UberMephistoMinions@@3PAHA 66678128     uber.obj
 0003:00008140       ?UberMephistoSpawnPercent@@3HA 66678140     uber.obj
 0003:00008144       ?UberMephistoSpawnRadius@@3HA 66678144     uber.obj
 0003:00008148       ?UberBaalNbMinions@@3HA    66678148     uber.obj
 0003:0000814c       ?UberBaalMinions@@3PAHA    6667814c     uber.obj
 0003:00008154       ?UberBaalSpawnPercent@@3HA 66678154     uber.obj
 0003:00008158       ?UberBaalSpawnRadius@@3HA  66678158     uber.obj
 0003:0000815c       ?UberDiabloNbMinions@@3HA  6667815c     uber.obj
 0003:00008160       ?UberDiabloMinions@@3PAHA  66678160     uber.obj
 0003:00008164       ?UberDiabloSpawnPercent@@3HA 66678164     uber.obj
 0003:00008168       ?UberDiabloSpawnRadius@@3HA 66678168     uber.obj
 0003:0000816c       ?uberBaalChillingArmorTimer@@3HA 6667816c     uber.obj
 0003:00008220       ?szVersion@@3PADA          66678220     version.obj
 0003:00008224       ?compileTime@@3PADA        66678224     version.obj
 0003:00008228       ___security_cookie         66678228     LIBCMT:gs_cookie.obj
 0003:0000822c       ___security_cookie_complement 6667822c     LIBCMT:gs_cookie.obj
 0003:00008230       __iob                      66678230     LIBCMT:_file.obj
 0003:000084b0       __fltused                  666784b0     LIBCMT:_fpinit_.obj
 0003:000084b4       __ldused                   666784b4     LIBCMT:_fpinit_.obj
 0003:000084c4       ??_R0?AVbad_alloc@std@@@8  666784c4     LIBCMT:new.obj
 0003:000084e0       ??_R0?AVexception@std@@@8  666784e0     LIBCMT:new.obj
 0003:00008528       ___initialmbcinfo          66678528     LIBCMT:mbctype.obj
 0003:00008748       __mbctype                  66678748     LIBCMT:mbctype.obj
 0003:00008850       __mbcasemap                66678850     LIBCMT:mbctype.obj
 0003:00008950       ___ptmbcinfo               66678950     LIBCMT:mbctype.obj
 0003:00008a4c       ___globallocalestatus      66678a4c     LIBCMT:glstatus.obj
 0003:00008a50       ___clocalestr              66678a50     LIBCMT:nlsdata2.obj
 0003:00008a58       ___initiallocinfo          66678a58     LIBCMT:nlsdata2.obj
 0003:00008b30       ___ptlocinfo               66678b30     LIBCMT:nlsdata2.obj
 0003:00008b34       ___lc_clike                66678b34     LIBCMT:nlsdata2.obj
 0003:00008b38       ___initiallocalestructinfo 66678b38     LIBCMT:nlsdata2.obj
 0003:00008b40       ___flsindex                66678b40     LIBCMT:tidtable.obj
 0003:00008b44       ___getvalueindex           66678b44     LIBCMT:tidtable.obj
 0003:00008dd8       ___nullstring              66678dd8     LIBCMT:output.obj
 0003:00008ddc       ___wnullstring             66678ddc     LIBCMT:output.obj
 0003:00008de0       ___badioinfo               66678de0     LIBCMT:ioinit.obj
 0003:00008e20       __amblksiz                 66678e20     LIBCMT:heapinit.obj
 0003:00008e30       __aexit_rtn                66678e30     LIBCMT:crt0dat.obj
 0003:00008e34       __cfltcvt_tab              66678e34     LIBCMT:cmiscdat.obj
 0003:00008f18       __lookuptrailbytes         66678f18     LIBCMT:read.obj
 0003:00009020       ??_R0?AVtype_info@@@8      66679020     LIBCMT:typinfo.obj
 0003:00009040       __indefinite               66679040     LIBCMT:_87disp_.obj
 0003:0000904a       __piby2                    6667904a     LIBCMT:_87disp_.obj
 0003:00009070       __First_FPE_Indx           66679070     LIBCMT:winxfltr.obj
 0003:00009074       __Num_FPE                  66679074     LIBCMT:winxfltr.obj
 0003:00009078       __XcptActTabSize           66679078     LIBCMT:winxfltr.obj
 0003:0000907c       __XcptActTabCount          6667907c     LIBCMT:winxfltr.obj
 0003:00009080       __pctype                   66679080     LIBCMT:ctype.obj
 0003:00009084       __pwctype                  66679084     LIBCMT:ctype.obj
 0003:00009088       ___lc_time_c               66679088     LIBCMT:strftime.obj
 0003:00009140       ___lc_time_curr            66679140     LIBCMT:strftime.obj
 0003:00009144       ___lconv_static_decimal    66679144     LIBCMT:lconv.obj
 0003:00009148       ___lconv_c                 66679148     LIBCMT:lconv.obj
 0003:00009178       ___lconv                   66679178     LIBCMT:lconv.obj
 0003:0000917c       ___mb_cur_max              6667917c     LIBCMT:nlsdata1.obj
 0003:00009180       ___decimal_point           66679180     LIBCMT:nlsdata1.obj
 0003:00009184       ___decimal_point_length    66679184     LIBCMT:nlsdata1.obj
 0003:000091a0       __NLG_Destination          666791a0     LIBCMT:exsup.obj
 0003:000091d0       __timezone                 666791d0     LIBCMT:timeset.obj
 0003:000091d4       __daylight                 666791d4     LIBCMT:timeset.obj
 0003:000091d8       __dstbias                  666791d8     LIBCMT:timeset.obj
 0003:00009260       __tzname                   66679260     LIBCMT:timeset.obj
 0003:00009268       __lpdays                   66679268     LIBCMT:days.obj
 0003:0000929c       __days                     6667929c     LIBCMT:days.obj
 0003:000092d0       __coninpfh                 666792d0     LIBCMT:initcon.obj
 0003:000092d4       __confh                    666792d4     LIBCMT:initcon.obj
 0003:000092d8       ___abort_behavior          666792d8     LIBCMT:abort.obj
 0003:000093f8       __matherr_flag             666793f8     LIBCMT:_matherr_.obj
 0003:00009420       __pow10pos                 66679420     LIBCMT:_constpow_.obj
 0003:00009580       __pow10neg                 66679580     LIBCMT:_constpow_.obj
 0003:000096e0       __d_inf                    666796e0     LIBCMT:_util_.obj
 0003:000096e8       __d_ind                    666796e8     LIBCMT:_util_.obj
 0003:000096f0       __d_max                    666796f0     LIBCMT:_util_.obj
 0003:000096f8       __d_min                    666796f8     LIBCMT:_util_.obj
 0003:00009700       __d_mzero                  66679700     LIBCMT:_util_.obj
 0003:00009720       ?tmpSymbols@@3PAUSymbol@@A 66679720     config.obj
 0003:00009b24       ?logfp@@3PAU_iobuf@@A      66679b24     config.obj
 0003:00009b28       ?tKeyEventMap@@3PAPAUToggleVar@@A 66679b28     config.obj
 0003:0000bb30       ?warningMsgs@@3PAUWarningMsg@@A 6667bb30     config.obj
 0003:0000bb38       ?pSymbols@@3PAUSymbol@@A   6667bb38     config.obj
 0003:0000bb3c       ?nSymbols@@3HA             6667bb3c     config.obj
 0003:0000bb40       ?capSymbols@@3HA           6667bb40     config.obj
 0003:0000bb44       ?nTmpSymbols@@3HA          6667bb44     config.obj
 0003:0000bb48       ?fSymbolSorted@@3HA        6667bb48     config.obj
 0003:0000bb50       ?configVarCap@@3HA         6667bb50     config.obj
 0003:0000bb54       ?configVarCount@@3HA       6667bb54     config.obj
 0003:0000bb58       ?loadingConfigs@@3PAULoadingConfig@@A 6667bb58     config.obj
 0003:0000bb60       ?hInstDLL@@3PAUHINSTANCE__@@A 6667bb60     DllMain.obj
 0003:0000bb64       ?dllHeap@@3PAXA            6667bb64     DllMain.obj
 0003:0000bb68       ?confHeap@@3PAXA           6667bb68     DllMain.obj
 0003:0000bb6c       ?gameHeap@@3PAXA           6667bb6c     DllMain.obj
 0003:0000bb70       ?fIsSinglePlayer@@3HA      6667bb70     DllMain.obj
 0003:0000bb74       ?fIsTcpIp@@3HA             6667bb74     DllMain.obj
 0003:0000bb78       ?fIsRealmServer@@3HA       6667bb78     DllMain.obj
 0003:0000bb7c       ?fIsRealmClient@@3HA       6667bb7c     DllMain.obj
 0003:0000bb80       ?szDllPath@@3PADA          6667bb80     DllMain.obj
 0003:0000bc88       ?szPluginPath@@3PADA       6667bc88     DllMain.obj
 0003:0000bd90       ?reloadStorage@@3PADA      6667bd90     DllMain.obj
 0003:0000bd94       ?reloadStorageSize@@3HA    6667bd94     DllMain.obj
 0003:0000bd98       ?storm_pmpq_load_flag@@3PAHA 6667bd98     install.obj
 0003:0000bd9c       ?storm_pmpq_crypt_table@@3PAHA 6667bd9c     install.obj
 0003:0000bda0       ?storm_regQueryValue@@3P6GHPAD0H0H@ZA 6667bda0     install.obj
 0003:0000bda4       ?storm_snprintf@@3P6AHPADHHZZA 6667bda4     install.obj
 0003:0000bda8       ?storm_openMpq@@3P6GHPBDHHPAX@ZA 6667bda8     install.obj
 0003:0000bdac       ?storm_mpq_open_block@@3P6GHPADPAUmpq_block@@@ZA 6667bdac     install.obj
 0003:0000bdb0       ?storm_mpq_open_block_from@@3P6GHPAXPADHPAUmpq_block@@@ZA 6667bdb0     install.obj
 0003:0000bdb4       ?storm_mpq_read_block@@3P6GHPAUmpq_block@@HPADH@ZA 6667bdb4     install.obj
 0003:0000bdb8       ?storm_mk_abs_path@@3P6GPADPADPAX@ZA 6667bdb8     install.obj
 0003:0000bdbc       ?storm_mpq_hashstring@@3P6GHH@ZA 6667bdbc     install.obj
 0003:0000bdc0       ?storm_mpq_uncompress@@3P6GHPAXPAH0H@ZA 6667bdc0     install.obj
 0003:0000bdc4       ?fog_Ord10218@@3P6IHXZA    6667bdc4     install.obj
 0003:0000bdc8       ?fog_getMCPPacket@@3P6GHPAXPADH@ZA 6667bdc8     install.obj
 0003:0000bdcc       ?fog_Ord10089@@3P6IHH@ZA   6667bdcc     install.obj
 0003:0000bdd0       ?fog_uninit@@3P6GHXZA      6667bdd0     install.obj
 0003:0000bdd4       ?fog_allocMemory@@3P6IPAXHHPADHH@ZA 6667bdd4     install.obj
 0003:0000bdd8       ?fog_freeMemory@@3P6IHHPAXPADHH@ZA 6667bdd8     install.obj
 0003:0000bddc       ?fog_Ord10101@@3P6IHHH@ZA  6667bddc     install.obj
 0003:0000bde0       ?fog_mpq_open_block@@3P6IHPADPAUmpq_block@@@ZA 6667bde0     install.obj
 0003:0000bde4       ?fog_initBitStream@@3P6GPAUFogBits@@PAU1@PADH@ZA 6667bde4     install.obj
 0003:0000bde8       ?fog_writeBitStream@@3P6GXPAUFogBits@@HH@ZA 6667bde8     install.obj
 0003:0000bdec       ?fog_setBit@@3P6GXPAXH@ZA  6667bdec     install.obj
 0003:0000bdf0       ?fog_clearBit@@3P6GXPAXH@ZA 6667bdf0     install.obj
 0003:0000bdf4       ?fog_getBitStreamBytes@@3P6GHPAUFogBits@@@ZA 6667bdf4     install.obj
 0003:0000bdf8       ?fog_alignBitStreamToByte@@3P6GHPAUFogBits@@@ZA 6667bdf8     install.obj
 0003:0000bdfc       ?fog_Ord10019@@3P6IHPADPAX0H@ZA 6667bdfc     install.obj
 0003:0000be00       ?fog_FogValidateCriticalSection@@3P6IHPAUCriticalSection@@H@ZA 6667be00     install.obj
 0003:0000be04       ?fog_reportError@@3P6AXPAXHH@ZA 6667be04     install.obj
 0003:0000be08       ?fog_setLogFilePrefix@@3P6IHPAD@ZA 6667be08     install.obj
 0003:0000be0c       ?fog_getEIP@@3P6GHXZA      6667be0c     install.obj
 0003:0000be10       ?fog_getClientID@@3P6GHPAUClientInfos@@H@ZA 6667be10     install.obj
 0003:0000be14       ?fog_getClientInfo@@3P6GPAUClientInfo@@PAUClientInfos@@H@ZA 6667be14     install.obj
 0003:0000be18       ?fog_enableNTFeature@@3P6GHPAH@ZA 6667be18     install.obj
 0003:0000be1c       ?fog_exit@@3P6GXH@ZA       6667be1c     install.obj
 0003:0000be20       ?d2win_pDrawHoverY@@3PAHA  6667be20     install.obj
 0003:0000be24       ?d2win_pmusic_volumn@@3PAHA 6667be24     install.obj
 0003:0000be28       ?d2win_pRunningFlag@@3PAHA 6667be28     install.obj
 0003:0000be2c       ?d2win_pFocusedControl@@3PAPAUD2EditBox@@A 6667be2c     install.obj
 0003:0000be30       ?d2win_DrawMainMenu@@3P6IPAXXZA 6667be30     install.obj
 0003:0000be34       ?d2win_CreateTextBox@@3P6GPAXPAK@ZA 6667be34     install.obj
 0003:0000be38       ?d2win_DestroyListBox@@3P6GXPAUD2EditBox@@@ZA 6667be38     install.obj
 0003:0000be3c       ?d2win_CreateEditBox@@3P6IPAUD2EditBox@@HHHHHHPAUCellFile@@KKKPAX@ZA 6667be3c     install.obj
 0003:0000be40       ?d2win_DestroyEditBox@@3P6IHPAUD2EditBox@@@ZA 6667be40     install.obj
 0003:0000be44       ?d2win_AddEditBoxChar@@3P6IKPAUD2EditBox@@E@ZA 6667be44     install.obj
 0003:0000be48       ?d2win_SetEditBoxText@@3P6IPAXPAUD2EditBox@@PA_W@ZA 6667be48     install.obj
 0003:0000be4c       ?d2win_SetEditBoxProc@@3P6IXPAUD2EditBox@@P6GH0HPAD@Z@ZA 6667be4c     install.obj
 0003:0000be50       ?d2win_SelectEditBoxText@@3P6IXPAUD2EditBox@@@ZA 6667be50     install.obj
 0003:0000be54       ?d2win_GetEditBoxText@@3P6IPA_WPAUD2EditBox@@@ZA 6667be54     install.obj
 0003:0000be58       ?d2win_DrawHover@@3P6IXXZA 6667be58     install.obj
 0003:0000be5c       ?d2win_SetTextFont@@3P6IHH@ZA 6667be5c     install.obj
 0003:0000be60       ?d2win_DrawText@@3P6IXPA_WJJHH@ZA 6667be60     install.obj
 0003:0000be64       ?d2win_GetTextPixelLen@@3P6IHPA_W@ZA 6667be64     install.obj
 0003:0000be68       ?d2win_DrawUnitLifeBar@@3P6IHPA_WJJHKK@ZA 6667be68     install.obj
 0003:0000be6c       ?d2win_GetTextAreaSize@@3P6IHPA_WPAH1@ZA 6667be6c     install.obj
 0003:0000be70       ?d2win_DrawHoverText@@3P6IXPA_WJJHH@ZA 6667be70     install.obj
 0003:0000be74       ?d2win_initMPQ@@3P6IHXZA   6667be74     install.obj
 0003:0000be78       ?d2win_uninit@@3P6GHXZA    6667be78     install.obj
 0003:0000be7c       ?d2win_addLineToList@@3P6IXPAUD2EditBox@@PAD@ZA 6667be7c     install.obj
 0003:0000be80       ?d2win_PrintLineOnTextBox@@3P6IXPAXPADH@ZA 6667be80     install.obj
 0003:0000be84       ?d2win_setLineEndText@@3P6IXPAUD2EditBox@@PADPAXH@ZA 6667be84     install.obj
 0003:0000be88       ?d2win_ToggleSound@@3P6GXXZA 6667be88     install.obj
 0003:0000be8c       ?d2sound_pmusic_volumn@@3PAHA 6667be8c     install.obj
 0003:0000be90       ?d2sound_get_music_volumn@@3P6AHXZA 6667be90     install.obj
 0003:0000be94       ?d2sound_set_music_volumn@@3P6IHH@ZA 6667be94     install.obj
 0003:0000be98       ?d2net_pclientInfos@@3PAPAUClientInfos@@A 6667be98     install.obj
 0003:0000be9c       ?d2net_pUnkNetFlag@@3PAKA  6667be9c     install.obj
 0003:0000bea0       ?d2net_ppacketSizes@@3PAHA 6667bea0     install.obj
 0003:0000bea4       ?d2net_SendPacket@@3P6GXHHPAE@ZA 6667bea4     install.obj
 0003:0000bea8       ?d2net_getPacketSize@@3P6IXPADHPAH@ZA 6667bea8     install.obj
 0003:0000beac       ?d2net_initNetwork@@3P6GHHH@ZA 6667beac     install.obj
 0003:0000beb0       ?d2net_SendToClient@@3P6GHHHPAXH@ZA 6667beb0     install.obj
 0003:0000beb4       ?d2net_uninit@@3P6GHXZA    6667beb4     install.obj
 0003:0000beb8       ?d2net_getWorldId@@3P6GHH@ZA 6667beb8     install.obj
 0003:0000bebc       ?d2multi_plastRefreshMs2@@3PAHA 6667bebc     install.obj
 0003:0000bec0       ?d2multi_plastRefreshMs1@@3PAHA 6667bec0     install.obj
 0003:0000bec4       ?d2multi_pnGames@@3PAHA    6667bec4     install.obj
 0003:0000bec8       ?d2multi_pGameDescription@@3PAPAUD2EditBox@@A 6667bec8     install.obj
 0003:0000becc       ?d2multi_pGamePassword@@3PAPAUD2EditBox@@A 6667becc     install.obj
 0003:0000bed0       ?d2multi_pGameName@@3PAPAUD2EditBox@@A 6667bed0     install.obj
 0003:0000bed4       ?d2multi_pGameListControl@@3PAPAUD2EditBox@@A 6667bed4     install.obj
 0003:0000bed8       ?d2multi_pmcp05_games2@@3PAUMcp05Game@@A 6667bed8     install.obj
 0003:0000bedc       ?d2multi_pEditboxPreferences@@3PAPAXA 6667bedc     install.obj
 0003:0000bee0       ?d2multi_pmcp05_games@@3PAUMcp05Game@@A 6667bee0     install.obj
 0003:0000bee4       ?d2multi_reset_games@@3P6GHXZA 6667bee4     install.obj
 0003:0000bee8       ?d2multi_add_game@@3P6GHXZA 6667bee8     install.obj
 0003:0000beec       ?d2multi_show_games@@3P6GHXZA 6667beec     install.obj
 0003:0000bef0       ?d2multi_num2str@@3P6AHHPADH@ZA 6667bef0     install.obj
 0003:0000bef4       ?d2multi_num2str1058@@3P6GHHH@ZA 6667bef4     install.obj
 0003:0000bef8       ?d2mcpclient_pmcp05_type@@3PAHA 6667bef8     install.obj
 0003:0000befc       ?d2mcpclient_pmcp05_gameName2@@3PADA 6667befc     install.obj
 0003:0000bf00       ?d2mcpclient_pmcp05_gameName@@3PADA 6667bf00     install.obj
 0003:0000bf04       ?d2mcpclient_pmcp05_off08@@3PAHA 6667bf04     install.obj
 0003:0000bf08       ?d2mcpclient_pmcp05_nPlayers@@3PAHA 6667bf08     install.obj
 0003:0000bf0c       ?d2mcpclient_pmcp05_idx@@3PAHA 6667bf0c     install.obj
 0003:0000bf10       ?d2mcpclient_pmcp05_seqId@@3PAHA 6667bf10     install.obj
 0003:0000bf14       ?d2mcpclient_pmcp05_buf@@3PAUMcp05Buf@@A 6667bf14     install.obj
 0003:0000bf18       ?d2mcpclient_pmcpSrc@@3PAPAXA 6667bf18     install.obj
 0003:0000bf1c       ?d2mcpclient_pAccountInfo@@3PAUD2AccountInfo@@A 6667bf1c     install.obj
 0003:0000bf20       ?d2mcpclient_pmpc05_seqId@@3PAFA 6667bf20     install.obj
 0003:0000bf24       ?d2mcpclient_processOnePacket@@3P6GHXZA 6667bf24     install.obj
 0003:0000bf28       ?d2mcpclient_getMcp05Buf@@3P6GPAUMcp05Buf@@XZA 6667bf28     install.obj
 0003:0000bf2c       ?d2mcpclient_mcpPacket05@@3P6IHPAUMCPPacket05@@H@ZA 6667bf2c     install.obj
 0003:0000bf30       ?d2launch_pcharCount@@3PAHA 6667bf30     install.obj
 0003:0000bf34       ?d2launch_pD2Characters@@3PAPAUD2Character@@A 6667bf34     install.obj
 0003:0000bf38       ?d2launch_plaunchNumChildren@@3PAHA 6667bf38     install.obj
 0003:0000bf3c       ?d2launch_plaunchChildren@@3PAPAXA 6667bf3c     install.obj
 0003:0000bf40       ?d2launch_pSelectedCharIndex@@3PAHA 6667bf40     install.obj
 0003:0000bf44       ?d2launch_pcreateTextBoxParam11F0@@3PAPAKA 6667bf44     install.obj
 0003:0000bf48       ?d2launch_DeleteCharacter@@3P6IXPAD@ZA 6667bf48     install.obj
 0003:0000bf4c       ?d2launch_DeleteSelectedCharacter@@3P6GHH@ZA 6667bf4c     install.obj
 0003:0000bf50       ?d2launch_sprintf@@3P6AHPAD0ZZA 6667bf50     install.obj
 0003:0000bf54       ?d2lang_strcat@@3P6IPA_WPA_W0@ZA 6667bf54     install.obj
 0003:0000bf58       ?d2lang_initLanguage@@3P6IHHPADH@ZA 6667bf58     install.obj
 0003:0000bf5c       ?d2lang_uninit@@3P6GHXZA   6667bf5c     install.obj
 0003:0000bf60       ?d2lang_GetLocaleText@@3P6IPA_WH@ZA 6667bf60     install.obj
 0003:0000bf64       ?d2gfx_pWinState@@3PAHA    6667bf64     install.obj
 0003:0000bf68       ?d2gfx_pDrawGoundH1@@3PAHA 6667bf68     install.obj
 0003:0000bf6c       ?d2gfx_pDrawGoundH2@@3PAHA 6667bf6c     install.obj
 0003:0000bf70       ?d2gfx_pResolutionMode@@3PAHA 6667bf70     install.obj
 0003:0000bf74       ?d2gfx_DrawRectangle@@3P6GXJJJJHH@ZA 6667bf74     install.obj
 0003:0000bf78       ?d2gfx_DrawLine@@3P6GXHHHHHH@ZA 6667bf78     install.obj
 0003:0000bf7c       ?d2gfx_getResolutionMode@@3P6GHXZA 6667bf7c     install.obj
 0003:0000bf80       ?d2gfx_DrawCellFile@@3P6GXPAUCellContext@@HHKHPAE@ZA 6667bf80     install.obj
 0003:0000bf84       ?d2gfx_drawSomething@@3P6GXPAXHHHHH@ZA 6667bf84     install.obj
 0003:0000bf88       ?d2gfx_FillOrb@@3P6GXHHHHHH@ZA 6667bf88     install.obj
 0003:0000bf8c       ?d2gfx_DrawAutomapNode@@3P6GXPAUCellContext@@HHPAUtagRECT@@K@ZA 6667bf8c     install.obj
 0003:0000bf90       ?d2gfx_drawShadow@@3P6GXPAXHH@ZA 6667bf90     install.obj
 0003:0000bf94       ?d2gfx_clearFramebuf@@3P6GXHHHH@ZA 6667bf94     install.obj
 0003:0000bf98       ?d2gfx_flushFramebuf@@3P6GXXZA 6667bf98     install.obj
 0003:0000bf9c       ?d2gfx_Ordinal10043@@3P6GXXZA 6667bf9c     install.obj
 0003:0000bfa0       ?d2gfx_MinimizeWindows@@3P6GXK@ZA 6667bfa0     install.obj
 0003:0000bfa4       ?d2gfx_GetHwnd@@3P6GPAUHWND__@@XZA 6667bfa4     install.obj
 0003:0000bfa8       ?d2gfx_drawGroundPiece@@3P6GXPAX0HHHHHHH@ZA 6667bfa8     install.obj
 0003:0000bfac       ?d2gdi_pFrameBuf@@3PAPAXA  6667bfac     install.obj
 0003:0000bfb0       ?d2gdi_pDisplayRight@@3PAHA 6667bfb0     install.obj
 0003:0000bfb4       ?d2gdi_pFrameBufHeight@@3PAHA 6667bfb4     install.obj
 0003:0000bfb8       ?d2gdi_pFrameBufWidth@@3PAHA 6667bfb8     install.obj
 0003:0000bfbc       ?d2gdi_pColorMap@@3PAHA    6667bfbc     install.obj
 0003:0000bfc0       ?d2game_pDropChioceProb@@3PAHA 6667bfc0     install.obj
 0003:0000bfc4       ?d2game_pDropChioces@@3PAHA 6667bfc4     install.obj
 0003:0000bfc8       ?d2game_pworldHash@@3PAPAUWorldHash@@A 6667bfc8     install.obj
 0003:0000bfcc       ?d2game_pcriticalSection@@3PAUCriticalSection@@A 6667bfcc     install.obj
 0003:0000bfd0       ?d2game_pSPUnitOffsets@@3PAHA 6667bfd0     install.obj
 0003:0000bfd4       ?d2game_psgptDataTables@@3PAPAUD2DataTables@@A 6667bfd4     install.obj
 0003:0000bfd8       ?d2game_MonsterMove@@3P6IXPAUWorld@@PAUUnitAny@@1HHHHH@ZA 6667bfd8     install.obj
 0003:0000bfdc       ?d2game_MonsterUseSkill@@3P6IXPAUWorld@@PAUUnitAny@@HH1HH@ZA 6667bfdc     install.obj
 0003:0000bfe0       ?d2game_SpawnMonster@@3P6IPAUUnitAny@@HHPAUWorld@@PAUAreaRectData@@HHHH@ZA 6667bfe0     install.obj
 0003:0000bfe4       ?d2game_SpawnMonsterEF10@@3P6IPAUUnitAny@@PAUSpawnMon@@@ZA 6667bfe4     install.obj
 0003:0000bfe8       ?d2game_MakeD2S@@3P6IHPAUUnitAny@@PAUWorld@@PADPAHHHH@ZA 6667bfe8     install.obj
 0003:0000bfec       ?d2game_playerUpgrade@@3P6GHPAUWorld@@@ZA 6667bfec     install.obj
 0003:0000bff0       ?d2game_CreateUnit@@3P6IPAUUnitAny@@HHHHPAUWorld@@PAUAreaRectData@@HHH@ZA 6667bff0     install.obj
 0003:0000bff4       ?d2game_GetUnit@@3P6IHPAUWorld@@H@ZA 6667bff4     install.obj
 0003:0000bff8       ?d2game_isUnitDead@@3P6GHXZA 6667bff8     install.obj
 0003:0000bffc       ?d2game_swapWeapon@@3P6GHPAUWorld@@PAH@ZA 6667bffc     install.obj
 0003:0000c000       ?d2game_pickupItem@@3P6GHHPAH@ZA 6667c000     install.obj
 0003:0000c004       ?d2game_putItemInSocketD4A70@@3P6GHPAUWorld@@PAUUnitAny@@HPAHHHHH@ZA 6667c004     install.obj
 0003:0000c008       ?d2game_recv19_invToHand@@3P6IHPAUWorld@@PAUUnitAny@@PADH@ZA 6667c008     install.obj
 0003:0000c00c       ?d2game_recv16_pickup@@3P6IHPAUWorld@@PAUUnitAny@@PADH@ZA 6667c00c     install.obj
 0003:0000c010       ?d2game_pickup@@3P6IHPAUWorld@@HPAUUnitAny@@H@ZA 6667c010     install.obj
 0003:0000c014       ?d2game_recv60_swapWeapon@@3P6IHPAUWorld@@PAUUnitAny@@PADH@ZA 6667c014     install.obj
 0003:0000c018       ?d2game_recv1A_handToBody@@3P6IHPAUWorld@@PAUUnitAny@@PADH@ZA 6667c018     install.obj
 0003:0000c01c       ?d2game_recv28_socket@@3P6IHPAUWorld@@PAUUnitAny@@PADH@ZA 6667c01c     install.obj
 0003:0000c020       ?d2game_itemNotInInv@@3P6IHHHPAUUnitAny@@@ZA 6667c020     install.obj
 0003:0000c024       ?d2game_processPacket@@3P6GHPAUWorld@@H@ZA 6667c024     install.obj
 0003:0000c028       ?d2game_recv40_quest@@3P6IHPAUWorld@@PAUUnitAny@@PADH@ZA 6667c028     install.obj
 0003:0000c02c       ?d2game_passClassicB9F20@@3P6IHPAUWorld@@PAUUnitAny@@H@ZA 6667c02c     install.obj
 0003:0000c030       ?d2game_passClassicB9A30@@3P6IHXZA 6667c030     install.obj
 0003:0000c034       ?d2game_BaalAI@@3P6IXPAUWorld@@PAUUnitAny@@PAX@ZA 6667c034     install.obj
 0003:0000c038       ?d2game_UberBaalAI@@3P6IXPAUWorld@@PAUUnitAny@@PAX@ZA 6667c038     install.obj
 0003:0000c03c       ?d2game_DiabloAI@@3P6IXPAUWorld@@PAUUnitAny@@PAX@ZA 6667c03c     install.obj
 0003:0000c040       ?d2game_UberDiabloAI@@3P6IXPAUWorld@@PAUUnitAny@@PAX@ZA 6667c040     install.obj
 0003:0000c044       ?d2game_NecSummon@@3P6IPAUUnitAny@@XZA 6667c044     install.obj
 0003:0000c048       ?d2game_LinkPortal@@3P6GPAUUnitAny@@PAUWorld@@PAU1@HH@ZA 6667c048     install.obj
 0003:0000c04c       ?d2game_fun_8EBC0@@3P6GHPAUWorld@@PAX@ZA 6667c04c     install.obj
 0003:0000c050       ?d2game_SetSkillBaseLevelOnClient@@3P6IXPAXPAUUnitAny@@HHH@ZA 6667c050     install.obj
 0003:0000c054       ?d2game_sendPacket@@3P6GHPADH@ZA 6667c054     install.obj
 0003:0000c058       ?d2game_MephAI@@3P6IXPAUWorld@@PAUUnitAny@@PAX@ZA 6667c058     install.obj
 0003:0000c05c       ?d2game_UberMephAI@@3P6IXPAUWorld@@PAUUnitAny@@PAX@ZA 6667c05c     install.obj
 0003:0000c060       ?d2game_fun_769A0@@3P6GHPAUWorld@@HH@ZA 6667c060     install.obj
 0003:0000c064       ?d2game_OpenPandPortal@@3P6IXPAUWorld@@PAUUnitAny@@@ZA 6667c064     install.obj
 0003:0000c068       ?d2game_OpenPandFinalPortal@@3P6IXPAUWorld@@PAUUnitAny@@@ZA 6667c068     install.obj
 0003:0000c06c       ?d2game_passExpansion599E0@@3P6IXPAUWorld@@PAUUnitAny@@H@ZA 6667c06c     install.obj
 0003:0000c070       ?d2game_passExpansion58BE0@@3P6IXPAUUnitAny@@@ZA 6667c070     install.obj
 0003:0000c074       ?d2game_fun_4E2A0@@3P6IXPAUWorld@@PAUUnitAny@@H@ZA 6667c074     install.obj
 0003:0000c078       ?d2game_getNetClient@@3P6IPAUNetClient@@H@ZA 6667c078     install.obj
 0003:0000c07c       ?d2game_processClientQuestReq@@3P6GHPAUWorld@@PAUUnitAny@@@ZA 6667c07c     install.obj
 0003:0000c080       ?d2game_sendQuestToClient@@3P6GHPAUWorld@@@ZA 6667c080     install.obj
 0003:0000c084       ?d2game_processGame@@3P6GHXZA 6667c084     install.obj
 0003:0000c088       ?d2game_isBusy@@3P6GHH@ZA  6667c088     install.obj
 0003:0000c08c       ?d2game_Ord10024@@3P6GHHH@ZA 6667c08c     install.obj
 0003:0000c090       ?d2game_endAllGames@@3P6AHH@ZA 6667c090     install.obj
 0003:0000c094       ?d2game_Ord10038@@3P6GHXZA 6667c094     install.obj
 0003:0000c098       ?d2game_SendDatabaseCharacter@@3P6GHHPAXHHHHPAUPlayerInfo@@H@ZA 6667c098     install.obj
 0003:0000c09c       ?d2game_removeClientFromGame@@3P6GHH@ZA 6667c09c     install.obj
 0003:0000c0a0       ?d2game_SaveGame@@3P6GXPAUWorld@@@ZA 6667c0a0     install.obj
 0003:0000c0a4       ?d2game_NewEmptyGame@@3P6GHPAD00HDDDPAF@ZA 6667c0a4     install.obj
 0003:0000c0a8       ?d2game_getWorld@@3P6GPAUWorld@@XZA 6667c0a8     install.obj
 0003:0000c0ac       ?d2game_getWorldByID@@3P6GPAUWorld@@H@ZA 6667c0ac     install.obj
 0003:0000c0b0       ?d2game_uninit@@3P6GHXZA   6667c0b0     install.obj
 0003:0000c0b4       ?d2game_setWorldHash@@3P6GHPAUWorldHash@@PAH@ZA 6667c0b4     install.obj
 0003:0000c0b8       ?d2game_initCallbackTable@@3P6GHPAX@ZA 6667c0b8     install.obj
 0003:0000c0bc       ?d2game_SpawnSuperUnique@@3P6IHPAUWorld@@PAUAreaRectData@@HHHHHH@ZA 6667c0bc     install.obj
 0003:0000c0c0       ?d2game_Game235C0@@3P6GXPAUWorld@@PAUAreaRectData@@@ZA 6667c0c0     install.obj
 0003:0000c0c4       ?d2game_DropItem1880@@3P6GXPAUWorld@@HHHH@ZA 6667c0c4     install.obj
 0003:0000c0c8       ?d2game_DropItem1490@@3P6GPAUUnitAny@@PAUWorld@@PAXH@ZA 6667c0c8     install.obj
 0003:0000c0cc       ?d2game_GetFreeXY@@3P6GPAUAreaRectData@@PAU1@PAUtagPOINT@@H@ZA 6667c0cc     install.obj
 0003:0000c0d0       ?d2game_GetUnitLevel@@3P6GHH@ZA 6667c0d0     install.obj
 0003:0000c0d4       ?d2game_hasDroppedUnique@@3P6IHH@ZA 6667c0d4     install.obj
 0003:0000c0d8       ?d2game_exit@@3P6GHH@ZA    6667c0d8     install.obj
 0003:0000c0dc       ?d2game_getWorld_2130@@3P6GPAUWorld@@XZA 6667c0dc     install.obj
 0003:0000c0e0       ?d2game_TestPosition@@3P6IPAUAreaRectData@@XZA 6667c0e0     install.obj
 0003:0000c0e4       ?d2game_random@@3P6IHPAUD2Seed@@@ZA 6667c0e4     install.obj
 0003:0000c0e8       ?d2common_pnCubeMain@@3PAHA 6667c0e8     install.obj
 0003:0000c0ec       ?d2common_ppCubeMainTxt@@3PAPAXA 6667c0ec     install.obj
 0003:0000c0f0       ?d2common_pnMapCache@@3PAHA 6667c0f0     install.obj
 0003:0000c0f4       ?d2common_ppMapCache@@3PAPAXA 6667c0f4     install.obj
 0003:0000c0f8       ?d2common_ppLvlSubCache@@3PAPAXA 6667c0f8     install.obj
 0003:0000c0fc       ?d2common_pnLvlSub@@3PAHA  6667c0fc     install.obj
 0003:0000c100       ?d2common_ppLvlSubTxt@@3PAPAXA 6667c100     install.obj
 0003:0000c104       ?d2common_pnLvlMaze@@3PAHA 6667c104     install.obj
 0003:0000c108       ?d2common_ppLvlMazeTxt@@3PAPAXA 6667c108     install.obj
 0003:0000c10c       ?d2common_pnLvlWarp@@3PAHA 6667c10c     install.obj
 0003:0000c110       ?d2common_ppLvlWarpTxt@@3PAPAXA 6667c110     install.obj
 0003:0000c114       ?d2common_pnLvlTypes@@3PAHA 6667c114     install.obj
 0003:0000c118       ?d2common_pnWaypoints@@3PAHA 6667c118     install.obj
 0003:0000c11c       ?d2common_ppWaypoints@@3PAPAXA 6667c11c     install.obj
 0003:0000c120       ?d2common_ppLvlTypesTxt@@3PAPAXA 6667c120     install.obj
 0003:0000c124       ?d2common_ppArenaTxt@@3PAPAXA 6667c124     install.obj
 0003:0000c128       ?d2common_pnCharTemplate@@3PAHA 6667c128     install.obj
 0003:0000c12c       ?d2common_ppCharTemplateTxt@@3PAPAXA 6667c12c     install.obj
 0003:0000c130       ?d2common_pnLvlSubExtraStuff@@3PAHA 6667c130     install.obj
 0003:0000c134       ?d2common_ppLvlSubExtraStuff@@3PAPAXA 6667c134     install.obj
 0003:0000c138       ?d2common_pExpFieldRuntimeData@@3PAPAXA 6667c138     install.obj
 0003:0000c13c       ?d2common_ppExpFieldD2@@3PAPAXA 6667c13c     install.obj
 0003:0000c140       ?d2common_pnDifficultyLevels@@3PAHA 6667c140     install.obj
 0003:0000c144       ?d2common_ppDifficultyLevelsTxt@@3PAPAXA 6667c144     install.obj
 0003:0000c148       ?d2common_ppExperienceTxt@@3PAPAXA 6667c148     install.obj
 0003:0000c14c       ?d2common_ppAnimTables@@3PAPAXA 6667c14c     install.obj
 0003:0000c150       ?d2common_pItemStatCostStuff@@3PAPAXA 6667c150     install.obj
 0003:0000c154       ?d2common_pnLvlPrest@@3PAHA 6667c154     install.obj
 0003:0000c158       ?d2common_ppLvlPrestTxt@@3PAPAXA 6667c158     install.obj
 0003:0000c15c       ?d2common_ppLvlDefsBin@@3PAPAXA 6667c15c     install.obj
 0003:0000c160       ?d2common_pnLevels@@3PAHA  6667c160     install.obj
 0003:0000c164       ?d2common_ppLevelsTxt@@3PAPAXA 6667c164     install.obj
 0003:0000c168       ?d2common_pnMonUMod@@3PAHA 6667c168     install.obj
 0003:0000c16c       ?d2common_ppMonUModTxt@@3PAPAXA 6667c16c     install.obj
 0003:0000c170       ?d2common_ppMonUModLink@@3PAPAXA 6667c170     install.obj
 0003:0000c174       ?d2common_pnMonTypeNesting@@3PAHA 6667c174     install.obj
 0003:0000c178       ?d2common_ppMonTypeNesting@@3PAPAXA 6667c178     install.obj
 0003:0000c17c       ?d2common_pnMonType@@3PAHA 6667c17c     install.obj
 0003:0000c180       ?d2common_ppMonTypeTxt@@3PAPAXA 6667c180     install.obj
 0003:0000c184       ?d2common_ppMonTypeLink@@3PAPAXA 6667c184     install.obj
 0003:0000c188       ?d2common_pnMonProp@@3PAHA 6667c188     install.obj
 0003:0000c18c       ?d2common_ppMonPropTxt@@3PAPAXA 6667c18c     install.obj
 0003:0000c190       ?d2common_ppMonPropLink@@3PAPAXA 6667c190     install.obj
 0003:0000c194       ?d2common_pnUniqueItems@@3PAHA 6667c194     install.obj
 0003:0000c198       ?d2common_ppUniqueItemsTxt@@3PAPAXA 6667c198     install.obj
 0003:0000c19c       ?d2common_ppUniqueItemsLink@@3PAPAXA 6667c19c     install.obj
 0003:0000c1a0       ?d2common_pnSetItems@@3PAHA 6667c1a0     install.obj
 0003:0000c1a4       ?d2common_ppSetItemsTxt@@3PAPAXA 6667c1a4     install.obj
 0003:0000c1a8       ?d2common_ppSetItemsLink@@3PAPAXA 6667c1a8     install.obj
 0003:0000c1ac       ?d2common_pnSets@@3PAHA    6667c1ac     install.obj
 0003:0000c1b0       ?d2common_ppSetsTxt@@3PAPAXA 6667c1b0     install.obj
 0003:0000c1b4       ?d2common_ppSetsLink@@3PAPAXA 6667c1b4     install.obj
 0003:0000c1b8       ?d2common_ppItemTypeNesting@@3PAPAXA 6667c1b8     install.obj
 0003:0000c1bc       ?d2common_pnItemTypeNesting@@3PAHA 6667c1bc     install.obj
 0003:0000c1c0       ?d2common_pnItemTypes@@3PAHA 6667c1c0     install.obj
 0003:0000c1c4       ?d2common_ppItemTypesTxt@@3PAPAXA 6667c1c4     install.obj
 0003:0000c1c8       ?d2common_ppItemTypesLink@@3PAPAXA 6667c1c8     install.obj
 0003:0000c1cc       ?d2common_pnPetTypes@@3PAHA 6667c1cc     install.obj
 0003:0000c1d0       ?d2common_ppPetTypesLink@@3PAPAXA 6667c1d0     install.obj
 0003:0000c1d4       ?d2common_ppPetTypesTxt@@3PAPAXA 6667c1d4     install.obj
 0003:0000c1d8       ?d2common_pnMonEquip@@3PAHA 6667c1d8     install.obj
 0003:0000c1dc       ?d2common_ppMonEquipTxt@@3PAPAXA 6667c1dc     install.obj
 0003:0000c1e0       ?d2common_pnOpStatNesting@@3PAHA 6667c1e0     install.obj
 0003:0000c1e4       ?d2common_ppOpStatNesting@@3PAPAXA 6667c1e4     install.obj
 0003:0000c1e8       ?d2common_pnItemStatCost@@3PAHA 6667c1e8     install.obj
 0003:0000c1ec       ?d2common_ppItemStatCostLink@@3PAPAXA 6667c1ec     install.obj
 0003:0000c1f0       ?d2common_ppItemStatCostTxt@@3PAPAUItemStatCostTxt@@A 6667c1f0     install.obj
 0003:0000c1f4       ?d2common_pnCharStats@@3PAHA 6667c1f4     install.obj
 0003:0000c1f8       ?d2common_ppCharStatsTxt@@3PAPAXA 6667c1f8     install.obj
 0003:0000c1fc       ?d2common_pnOverlay@@3PAHA 6667c1fc     install.obj
 0003:0000c200       ?d2common_ppOverlayLink@@3PAPAXA 6667c200     install.obj
 0003:0000c204       ?d2common_ppOverlayTxt@@3PAPAXA 6667c204     install.obj
 0003:0000c208       ?d2common_ppPassiveSkillList@@3PAPAXA 6667c208     install.obj
 0003:0000c20c       ?d2common_pnPassiveSkillCount@@3PAHA 6667c20c     install.obj
 0003:0000c210       ?d2common_ppPlayerSkillList@@3PAPAXA 6667c210     install.obj
 0003:0000c214       ?d2common_pnPlayerSkillCount@@3PAHA 6667c214     install.obj
 0003:0000c218       ?d2common_ppPlayerSkillCount@@3PAPAXA 6667c218     install.obj
 0003:0000c21c       ?d2common_pnSkills@@3PAHA  6667c21c     install.obj
 0003:0000c220       ?d2common_ppSkillsLink@@3PAPAXA 6667c220     install.obj
 0003:0000c224       ?d2common_ppSkillsTxt@@3PAPAXA 6667c224     install.obj
 0003:0000c228       ?d2common_pnSkillDesc@@3PAHA 6667c228     install.obj
 0003:0000c22c       ?d2common_ppSkillDescLink@@3PAPAXA 6667c22c     install.obj
 0003:0000c230       ?d2common_ppSkillDescTxt@@3PAPAXA 6667c230     install.obj
 0003:0000c234       ?d2common_pnMonSequences@@3PAHA 6667c234     install.obj
 0003:0000c238       ?d2common_ppMonSequences@@3PAPAXA 6667c238     install.obj
 0003:0000c23c       ?d2common_pnMonSeq@@3PAHA  6667c23c     install.obj
 0003:0000c240       ?d2common_ppMonSeqLink@@3PAPAXA 6667c240     install.obj
 0003:0000c244       ?d2common_ppMonSeqTxt@@3PAPAXA 6667c244     install.obj
 0003:0000c248       ?d2common_pnMonLvl@@3PAHA  6667c248     install.obj
 0003:0000c24c       ?d2common_ppMonLvlTxt@@3PAPAXA 6667c24c     install.obj
 0003:0000c250       ?d2common_pnMissiles@@3PAHA 6667c250     install.obj
 0003:0000c254       ?d2common_ppMissilesLink@@3PAPAXA 6667c254     install.obj
 0003:0000c258       ?d2common_ppMissilesTxt@@3PAPAXA 6667c258     install.obj
 0003:0000c25c       ?d2common_pSuperUniqueHcIdxList@@3PAPAXA 6667c25c     install.obj
 0003:0000c260       ?d2common_pnSuperUniques@@3PAHA 6667c260     install.obj
 0003:0000c264       ?d2common_ppSuperUniquesLink@@3PAPAXA 6667c264     install.obj
 0003:0000c268       ?d2common_ppSuperUniquesTxt@@3PAPAXA 6667c268     install.obj
 0003:0000c26c       ?d2common_pnMonPresetEachAct@@3PAHA 6667c26c     install.obj
 0003:0000c270       ?d2common_ppMonPresetActList@@3PAPAXA 6667c270     install.obj
 0003:0000c274       ?d2common_ppMonPresetTxt@@3PAPAXA 6667c274     install.obj
 0003:0000c278       ?d2common_pnMonPlace@@3PAHA 6667c278     install.obj
 0003:0000c27c       ?d2common_ppMonPlaceLink@@3PAPAXA 6667c27c     install.obj
 0003:0000c280       ?d2common_ppMonPlaceTxt@@3PAPAXA 6667c280     install.obj
 0003:0000c284       ?d2common_pnMonStats2@@3PAHA 6667c284     install.obj
 0003:0000c288       ?d2common_ppMonStats2Link@@3PAPAXA 6667c288     install.obj
 0003:0000c28c       ?d2common_ppMonStats2Txt@@3PAPAXA 6667c28c     install.obj
 0003:0000c290       ?d2common_pnMonSounds@@3PAHA 6667c290     install.obj
 0003:0000c294       ?d2common_ppMonSoundsLink@@3PAPAXA 6667c294     install.obj
 0003:0000c298       ?d2common_ppMonSoundsTxt@@3PAPAXA 6667c298     install.obj
 0003:0000c29c       ?d2common_pnMonStats@@3PAHA 6667c29c     install.obj
 0003:0000c2a0       ?d2common_ppMonStatsLink@@3PAPAXA 6667c2a0     install.obj
 0003:0000c2a4       ?d2common_ppMonStatsTxt@@3PAPAXA 6667c2a4     install.obj
 0003:0000c2a8       ?d2common_ppChestTreasureClassList@@3PAPAXA 6667c2a8     install.obj
 0003:0000c2ac       ?d2common_pnTreasureClassEx@@3PAHA 6667c2ac     install.obj
 0003:0000c2b0       ?d2common_ppTreasureClassExTxt@@3PAPAXA 6667c2b0     install.obj
 0003:0000c2b4       ?d2common_ppTreasureClassExLink@@3PAPAXA 6667c2b4     install.obj
 0003:0000c2b8       ?d2common_ppColorsLink@@3PAPAXA 6667c2b8     install.obj
 0003:0000c2bc       ?d2common_ppColorsTxt@@3PAPAXA 6667c2bc     install.obj
 0003:0000c2c0       ?d2common_pnNpcs@@3PAHA    6667c2c0     install.obj
 0003:0000c2c4       ?d2common_ppNpcsTxt@@3PAPAXA 6667c2c4     install.obj
 0003:0000c2c8       ?d2common_pHireNameListEnd@@3PAPAXA 6667c2c8     install.obj
 0003:0000c2cc       ?d2common_pHireNameListStart@@3PAPAXA 6667c2cc     install.obj
 0003:0000c2d0       ?d2common_pnHirelings@@3PAHA 6667c2d0     install.obj
 0003:0000c2d4       ?d2common_ppHirelingsTxt@@3PAPAXA 6667c2d4     install.obj
 0003:0000c2d8       ?d2common_pnSoundCodes@@3PAHA 6667c2d8     install.obj
 0003:0000c2dc       ?d2common_ppSoundCodesLink@@3PAPAXA 6667c2dc     install.obj
 0003:0000c2e0       ?d2common_ppSoundCodesBin@@3PAPAXA 6667c2e0     install.obj
 0003:0000c2e4       ?d2common_pnColorStates@@3PAHA 6667c2e4     install.obj
 0003:0000c2e8       ?d2common_ppColorStates@@3PAPAXA 6667c2e8     install.obj
 0003:0000c2ec       ?d2common_pnActionStates@@3PAHA 6667c2ec     install.obj
 0003:0000c2f0       ?d2common_ppActionStates@@3PAPAXA 6667c2f0     install.obj
 0003:0000c2f4       ?d2common_pnTransformStates@@3PAHA 6667c2f4     install.obj
 0003:0000c2f8       ?d2common_ppTransformStates@@3PAPAXA 6667c2f8     install.obj
 0003:0000c2fc       ?d2common_pnCurseStates@@3PAHA 6667c2fc     install.obj
 0003:0000c300       ?d2common_ppCurseStates@@3PAPAXA 6667c300     install.obj
 0003:0000c304       ?d2common_pnProgressiveStates@@3PAHA 6667c304     install.obj
 0003:0000c308       ?d2common_ppProgressiveStates@@3PAPAXA 6667c308     install.obj
 0003:0000c30c       ?d2common_ppStateMaskArray@@3PAPAXA 6667c30c     install.obj
 0003:0000c310       ?d2common_ppStateMaskFirst@@3PAPAXA 6667c310     install.obj
 0003:0000c314       ?d2common_pnStates@@3PAHA  6667c314     install.obj
 0003:0000c318       ?d2common_ppStatesLink@@3PAPAXA 6667c318     install.obj
 0003:0000c31c       ?d2common_ppStatesTxt@@3PAPAXA 6667c31c     install.obj
 0003:0000c320       ?d2common_ppHireDescLink@@3PAPAXA 6667c320     install.obj
 0003:0000c324       ?d2common_ppHireDescTxt@@3PAPAXA 6667c324     install.obj
 0003:0000c328       ?d2common_ppRunesLink@@3PAPAXA 6667c328     install.obj
 0003:0000c32c       ?d2common_pnProperties@@3PAHA 6667c32c     install.obj
 0003:0000c330       ?d2common_ppPropertiesLink@@3PAPAXA 6667c330     install.obj
 0003:0000c334       ?d2common_ppPropertiesTxt@@3PAPAXA 6667c334     install.obj
 0003:0000c338       ?d2common_pnItemCalcCacheDelta@@3PAHA 6667c338     install.obj
 0003:0000c33c       ?d2common_pnItemCalcCache@@3PAHA 6667c33c     install.obj
 0003:0000c340       ?d2common_ppItemCalcCache@@3PAPAXA 6667c340     install.obj
 0003:0000c344       ?d2common_ppItemLink@@3PAPAXA 6667c344     install.obj
 0003:0000c348       ?d2common_pnMonAi@@3PAHA   6667c348     install.obj
 0003:0000c34c       ?d2common_ppMonAiLink@@3PAPAXA 6667c34c     install.obj
 0003:0000c350       ?d2common_ppMonAiTxt@@3PAPAXA 6667c350     install.obj
 0003:0000c354       ?d2common_pnCompCodes@@3PAHA 6667c354     install.obj
 0003:0000c358       ?d2common_ppCompCodesLink@@3PAPAXA 6667c358     install.obj
 0003:0000c35c       ?d2common_ppCompCodesTxt@@3PAPAXA 6667c35c     install.obj
 0003:0000c360       ?d2common_ppEventsLink@@3PAPAXA 6667c360     install.obj
 0003:0000c364       ?d2common_ppEventsTxt@@3PAPAXA 6667c364     install.obj
 0003:0000c368       ?d2common_ppSkillCodesLink@@3PAPAXA 6667c368     install.obj
 0003:0000c36c       ?d2common_ppSkillCodesBin@@3PAPAXA 6667c36c     install.obj
 0003:0000c370       ?d2common_pnMissCalcCacheDelta@@3PAHA 6667c370     install.obj
 0003:0000c374       ?d2common_pnMissCalcCache@@3PAHA 6667c374     install.obj
 0003:0000c378       ?d2common_ppMissCalcCache@@3PAPAXA 6667c378     install.obj
 0003:0000c37c       ?d2common_ppMissCalcLink@@3PAPAXA 6667c37c     install.obj
 0003:0000c380       ?d2common_ppMissCalcTxt@@3PAPAXA 6667c380     install.obj
 0003:0000c384       ?d2common_pnSkillDescCalcCacheDelta@@3PAHA 6667c384     install.obj
 0003:0000c388       ?d2common_pnSkillDescCalcCache@@3PAHA 6667c388     install.obj
 0003:0000c38c       ?d2common_ppSkillDescCalcCache@@3PAPAXA 6667c38c     install.obj
 0003:0000c390       ?d2common_pnSkillCalcCacheDelta@@3PAHA 6667c390     install.obj
 0003:0000c394       ?d2common_pnSkillCalcCache@@3PAHA 6667c394     install.obj
 0003:0000c398       ?d2common_ppSkillCalcCache@@3PAPAXA 6667c398     install.obj
 0003:0000c39c       ?d2common_ppSkillCalcLink@@3PAPAXA 6667c39c     install.obj
 0003:0000c3a0       ?d2common_ppSkillCalcTxt@@3PAPAXA 6667c3a0     install.obj
 0003:0000c3a4       ?d2common_ppPlrModeLink@@3PAPAXA 6667c3a4     install.obj
 0003:0000c3a8       ?d2common_ppPlrModeTxt@@3PAPAXA 6667c3a8     install.obj
 0003:0000c3ac       ?d2common_ppMonModeLink@@3PAPAXA 6667c3ac     install.obj
 0003:0000c3b0       ?d2common_ppMonModeTxt@@3PAPAXA 6667c3b0     install.obj
 0003:0000c3b4       ?d2common_ppHitClassLink@@3PAPAXA 6667c3b4     install.obj
 0003:0000c3b8       ?d2common_ppHitClassTxt@@3PAPAXA 6667c3b8     install.obj
 0003:0000c3bc       ?d2common_ppElemTypesLink@@3PAPAXA 6667c3bc     install.obj
 0003:0000c3c0       ?d2common_ppElemTypesTxt@@3PAPAXA 6667c3c0     install.obj
 0003:0000c3c4       ?d2common_ppStorePageLink@@3PAPAXA 6667c3c4     install.obj
 0003:0000c3c8       ?d2common_ppStorePageTxt@@3PAPAXA 6667c3c8     install.obj
 0003:0000c3cc       ?d2common_ppBodyLocsLink@@3PAPAXA 6667c3cc     install.obj
 0003:0000c3d0       ?d2common_ppBodyLocsTxt@@3PAPAXA 6667c3d0     install.obj
 0003:0000c3d4       ?d2common_ppPlayerClassLink@@3PAPAXA 6667c3d4     install.obj
 0003:0000c3d8       ?d2common_ppPlayerClassTxt@@3PAPAXA 6667c3d8     install.obj
 0003:0000c3dc       ?d2common_pRuneWordTxt@@3PAPAURuneWordTxt@@A 6667c3dc     install.obj
 0003:0000c3e0       ?d2common_pRuneWords@@3PAHA 6667c3e0     install.obj
 0003:0000c3e4       ?d2common_pArmorTxts@@3PAHA 6667c3e4     install.obj
 0003:0000c3e8       ?d2common_pWeaponsTxts@@3PAHA 6667c3e8     install.obj
 0003:0000c3ec       ?d2common_pItemTxts@@3PAPAUItemTxt@@A 6667c3ec     install.obj
 0003:0000c3f0       ?d2common_pItemTxtCount@@3PAHA 6667c3f0     install.obj
 0003:0000c3f4       ?d2common_pInventoryTxt@@3PAPAUInventoryBIN@@A 6667c3f4     install.obj
 0003:0000c3f8       ?d2common_pInventoryTxtCount@@3PAHA 6667c3f8     install.obj
 0003:0000c3fc       ?d2common_pDataTables@@3PAPAUD2DataTables@@A 6667c3fc     install.obj
 0003:0000c400       ?d2common_compileInventoryTxt@@3P6GPAUInventoryBIN@@H@ZA 6667c400     install.obj
 0003:0000c404       ?d2common_getInventoryPos16@@3P6GXHHPAUEquipmentLayout16@@@ZA 6667c404     install.obj
 0003:0000c408       ?d2common_getInventoryLayout@@3P6GXHHPAUInvLayout@@@ZA 6667c408     install.obj
 0003:0000c40c       ?d2common_getEquipmentPos@@3P6GXHHPAUEquipmentLayout20@@H@ZA 6667c40c     install.obj
 0003:0000c410       ?d2common_compileItemStatCostTxt@@3P6GPAXH@ZA 6667c410     install.obj
 0003:0000c414       ?d2common_compileItemTypeTxt@@3P6GPAXH@ZA 6667c414     install.obj
 0003:0000c418       ?d2common_GetItemTxt@@3P6GPAUItemTxt@@H@ZA 6667c418     install.obj
 0003:0000c41c       ?d2common_getAreaLevel@@3P6GHHHH@ZA 6667c41c     install.obj
 0003:0000c420       ?d2common_GetLevelTxt@@3P6GPAULevelTxt@@H@ZA 6667c420     install.obj
 0003:0000c424       ?d2common_GetLevelWeather@@3P6GDH@ZA 6667c424     install.obj
 0003:0000c428       ?d2common_GetLevelTxt07@@3P6GDH@ZA 6667c428     install.obj
 0003:0000c42c       ?d2common_GetLevelTxt06@@3P6GDH@ZA 6667c42c     install.obj
 0003:0000c430       ?d2common_GetLevelDefTxt@@3P6IPAULevelDefTxt@@H@ZA 6667c430     install.obj
 0003:0000c434       ?d2common_addToRectData1C@@3P6GHPAUUnitAny@@@ZA 6667c434     install.obj
 0003:0000c438       ?d2common_initGameDataTable@@3P6GHHHH@ZA 6667c438     install.obj
 0003:0000c43c       ?d2common_getLvlOfExp@@3P6GHHH@ZA 6667c43c     install.obj
 0003:0000c440       ?d2common_CompileTxtFile@@3P6GPAXHPADPAUTxtField@@PAHH@ZA 6667c440     install.obj
 0003:0000c444       ?d2common_uninit@@3P6GHXZA 6667c444     install.obj
 0003:0000c448       ?d2common_GetMinExpToLevel@@3P6GHHH@ZA 6667c448     install.obj
 0003:0000c44c       ?d2common_getPlayerMaxLvl@@3P6GHH@ZA 6667c44c     install.obj
 0003:0000c450       ?d2common_compileMonTypeTxt@@3P6GPAXH@ZA 6667c450     install.obj
 0003:0000c454       ?d2common_GetTreasureClasses@@3P6GPAUTreasureClass@@GH@ZA 6667c454     install.obj
 0003:0000c458       ?d2common_GetSuperUniqueTxt@@3P6GPAUSuperUniqueTxt@@H@ZA 6667c458     install.obj
 0003:0000c45c       ?d2common_SetSkillBaseLevel@@3P6GXPAUUnitAny@@HHHPADH@ZA 6667c45c     install.obj
 0003:0000c460       ?d2common_getSkillStatus@@3P6GHPAUUnitAny@@PAUSkill@@@ZA 6667c460     install.obj
 0003:0000c464       ?d2common_getMaxSkeletons@@3P6GHPAUUnitAny@@HHH@ZA 6667c464     install.obj
 0003:0000c468       ?d2common_GetSkillCost@@3P6GHPAUUnitAny@@HHH@ZA 6667c468     install.obj
 0003:0000c46c       ?d2common_GetSkillLevel@@3P6GHPAUUnitAny@@PAUSkill@@H@ZA 6667c46c     install.obj
 0003:0000c470       ?d2common_CheckCorpseCanUse@@3P6GHPAUUnitAny@@K@ZA 6667c470     install.obj
 0003:0000c474       ?d2common_getSkillBonus@@3P6IHXZA 6667c474     install.obj
 0003:0000c478       ?d2common_getSkillId@@3P6GHHH@ZA 6667c478     install.obj
 0003:0000c47c       ?d2common_getPlayerSkillCount@@3P6GHH@ZA 6667c47c     install.obj
 0003:0000c480       ?d2common_setSkillCount@@3P6GXPAUSkill@@H@ZA 6667c480     install.obj
 0003:0000c484       ?d2common_GetDropPos@@3P6GPAUAreaRectData@@PAU1@PAUtagPOINT@@1HHHH@ZA 6667c484     install.obj
 0003:0000c488       ?d2common_IsLineBlocked@@3P6GHPAUAreaRectData@@PAUtagPOINT@@1H@ZA 6667c488     install.obj
 0003:0000c48c       ?d2common_setItemEthereal@@3P6GHPAUUnitAny@@@ZA 6667c48c     install.obj
 0003:0000c490       ?d2common_GetObjectTxt@@3P6GPAUObjectTxt@@H@ZA 6667c490     install.obj
 0003:0000c494       ?d2common_isInTown@@3P6GHPAUAreaRectData@@@ZA 6667c494     install.obj
 0003:0000c498       ?d2common_GetLevelIdFromRectData@@3P6GHPAUAreaRectData@@@ZA 6667c498     install.obj
 0003:0000c49c       ?d2common_Common11084@@3P6GHPAUAreaRectData@@H@ZA 6667c49c     install.obj
 0003:0000c4a0       ?d2common_Ord10196@@3P6GHPAUUnitAny@@@ZA 6667c4a0     install.obj
 0003:0000c4a4       ?d2common_stat_10807@@3P6GHPAUUnitAny@@PAUStatList@@H@ZA 6667c4a4     install.obj
 0003:0000c4a8       ?d2common_changeUnitStat@@3P6GHPAUUnitAny@@HHH@ZA 6667c4a8     install.obj
 0003:0000c4ac       ?d2common_AddPlayerStat@@3P6GXPAUUnitAny@@HHH@ZA 6667c4ac     install.obj
 0003:0000c4b0       ?d2common_addStatList@@3P6GHPAUStatList@@HHH@ZA 6667c4b0     install.obj
 0003:0000c4b4       ?d2common_changeStatList@@3P6GHPAUStatList@@HHH@ZA 6667c4b4     install.obj
 0003:0000c4b8       ?d2common_fun39F70@@3P6GHHPAUUnitAny@@@ZA 6667c4b8     install.obj
 0003:0000c4bc       ?d2common_getStatValue39380@@3P6GHH@ZA 6667c4bc     install.obj
 0003:0000c4c0       ?d2common_getUnitMaxHP@@3P6GHPAUUnitAny@@@ZA 6667c4c0     install.obj
 0003:0000c4c4       ?d2common_getUnitMaxMana@@3P6GHPAUUnitAny@@@ZA 6667c4c4     install.obj
 0003:0000c4c8       ?d2common_getUnitMaxStamina@@3P6GHPAUUnitAny@@@ZA 6667c4c8     install.obj
 0003:0000c4cc       ?d2common_GetUnitBaseStat@@3P6GHPAUUnitAny@@HG@ZA 6667c4cc     install.obj
 0003:0000c4d0       ?d2common_GetUnitStat@@3P6GHPAUUnitAny@@HG@ZA 6667c4d0     install.obj
 0003:0000c4d4       ?d2common_getUnitStatValueB00@@3P6GHPAUItemStatCostTxt@@@ZA 6667c4d4     install.obj
 0003:0000c4d8       ?d2common_getStatValueWithMinChecked@@3P6GHPAUItemStatCostTxt@@@ZA 6667c4d8     install.obj
 0003:0000c4dc       ?d2common_GetStatFromStatList@@3P6GHPAUStatList@@KPAUStatEx@@K@ZA 6667c4dc     install.obj
 0003:0000c4e0       ?d2common_bsearchStat@@3P6GHXZA 6667c4e0     install.obj
 0003:0000c4e4       ?d2common_removeStat@@3P6GHH@ZA 6667c4e4     install.obj
 0003:0000c4e8       ?d2common_GetStatListWithFlag@@3P6GPAUStatList@@PAUUnitAny@@HK@ZA 6667c4e8     install.obj
 0003:0000c4ec       ?d2common_GetUnitPosX@@3P6GHPAUDynamicPath@@@ZA 6667c4ec     install.obj
 0003:0000c4f0       ?d2common_GetUnitPosY@@3P6GHPAUDynamicPath@@@ZA 6667c4f0     install.obj
 0003:0000c4f4       ?d2common_CheckUnitState@@3P6GHPAUUnitAny@@H@ZA 6667c4f4     install.obj
 0003:0000c4f8       ?d2common_setUnitMode@@3P6GHPAUUnitAny@@H@ZA 6667c4f8     install.obj
 0003:0000c4fc       ?d2common_GetMonsterHpPercent@@3P6GHPAUUnitAny@@@ZA 6667c4fc     install.obj
 0003:0000c500       ?d2common_IsUnitBlocked@@3P6GHPAUUnitAny@@0H@ZA 6667c500     install.obj
 0003:0000c504       ?d2common_getUnitSize@@3P6GHPAUUnitAny@@@ZA 6667c504     install.obj
 0003:0000c508       ?d2common_getLeftSkill@@3P6GPAUSkill@@PAUUnitAny@@@ZA 6667c508     install.obj
 0003:0000c50c       ?d2common_getCurrentSkill@@3P6GPAUSkill@@PAUUnitAny@@@ZA 6667c50c     install.obj
 0003:0000c510       ?d2common_getUnitPos@@3P6GXPAUUnitAny@@PAUtagPOINT@@@ZA 6667c510     install.obj
 0003:0000c514       ?d2common_getRectData@@3P6GPAUAreaRectData@@PAUUnitAny@@@ZA 6667c514     install.obj
 0003:0000c518       ?d2common_GetBoxType@@3P6GHPAUUnitAny@@EH@ZA 6667c518     install.obj
 0003:0000c51c       ?d2common_allocUnit@@3P6GPAUUnitAny@@HH@ZA 6667c51c     install.obj
 0003:0000c520       ?d2common_setStaticUnitX@@3P6GXPAUUnitAny@@H@ZA 6667c520     install.obj
 0003:0000c524       ?d2common_setStaticUnitY@@3P6GXPAUUnitAny@@H@ZA 6667c524     install.obj
 0003:0000c528       ?d2common_GetPlayerData@@3P6GPAUPlayerData@@PAUUnitAny@@@ZA 6667c528     install.obj
 0003:0000c52c       ?d2common_getObjectFlags@@3P6GHPAUUnitAny@@@ZA 6667c52c     install.obj
 0003:0000c530       ?d2common_setObjectFlags@@3P6GHPAUUnitAny@@H@ZA 6667c530     install.obj
 0003:0000c534       ?d2common_InitDrlgLevel@@3P6GXPAUDrlgLevel@@@ZA 6667c534     install.obj
 0003:0000c538       ?d2common_GetDrlgLevel@@3P6IPAUDrlgLevel@@PAUDrlgMisc@@H@ZA 6667c538     install.obj
 0003:0000c53c       ?d2common_CheckQuestFlag@@3P6GHPAUQuestInfo@@HH@ZA 6667c53c     install.obj
 0003:0000c540       ?d2common_setQuestFlag@@3P6GXPAUQuestInfo@@HH@ZA 6667c540     install.obj
 0003:0000c544       ?d2common_clearQuestFlag@@3P6GXPAUQuestInfo@@HH@ZA 6667c544     install.obj
 0003:0000c548       ?d2common_copyQuestData@@3P6GPAUQuestInfo@@PAU1@PAFHH@ZA 6667c548     install.obj
 0003:0000c54c       ?d2common_GetMercInfo@@3P6GHHHHPAX@ZA 6667c54c     install.obj
 0003:0000c550       ?d2common_setItemSocket@@3P6GHPAUUnitAny@@H@ZA 6667c550     install.obj
 0003:0000c554       ?d2common_GetItemPrice@@3P6GHPAUUnitAny@@0HPAUQuestInfo@@HK@ZA 6667c554     install.obj
 0003:0000c558       ?d2common_EncodeItem@@3P6GHPAUUnitAny@@PADHHHH@ZA 6667c558     install.obj
 0003:0000c55c       ?d2common_EncodeItemBits@@3P6IHPAUUnitAny@@PAUFogBits@@HHH@ZA 6667c55c     install.obj
 0003:0000c560       ?d2common_EncodeComplexItem@@3P6GHPAUUnitAny@@PAUFogBits@@HH@ZA 6667c560     install.obj
 0003:0000c564       ?d2common_searchRunewordTxt@@3P6GPAURuneWordTxt@@PAUUnitAny@@@ZA 6667c564     install.obj
 0003:0000c568       ?d2common_getSocketCount@@3P6GHPAUUnitAny@@@ZA 6667c568     install.obj
 0003:0000c56c       ?d2common_EncodeCompactItem@@3P6GHPAUUnitAny@@H@ZA 6667c56c     install.obj
 0003:0000c570       ?d2common_getUsedSocketed@@3P6GHXZA 6667c570     install.obj
 0003:0000c574       ?d2common_getItemMaxSocket@@3P6GHPAUUnitAny@@@ZA 6667c574     install.obj
 0003:0000c578       ?d2common_checkItemTypeFlags@@3P6GHPAUUnitAny@@H@ZA 6667c578     install.obj
 0003:0000c57c       ?d2common_isMagicItem@@3P6GHPAUUnitAny@@@ZA 6667c57c     install.obj
 0003:0000c580       ?d2common_writeBitStream@@3P6GXPAUFogBits@@@ZA 6667c580     install.obj
 0003:0000c584       ?d2common_getItemSeed@@3P6GPAUD2Seed@@PAUUnitAny@@@ZA 6667c584     install.obj
 0003:0000c588       ?d2common_getItemFingerPrint@@3P6GHPAUUnitAny@@@ZA 6667c588     install.obj
 0003:0000c58c       ?d2common_setItemFingerPrint@@3P6GXPAUUnitAny@@H@ZA 6667c58c     install.obj
 0003:0000c590       ?d2common_getItemQuality@@3P6GHPAUUnitAny@@@ZA 6667c590     install.obj
 0003:0000c594       ?d2common_setItemQuality@@3P6GXPAUUnitAny@@H@ZA 6667c594     install.obj
 0003:0000c598       ?d2common_getItemMagicPrefix@@3P6GHPAUUnitAny@@H@ZA 6667c598     install.obj
 0003:0000c59c       ?d2common_getItemMagicSuffix@@3P6GHPAUUnitAny@@H@ZA 6667c59c     install.obj
 0003:0000c5a0       ?d2common_getRarePrefix@@3P6GFPAUUnitAny@@@ZA 6667c5a0     install.obj
 0003:0000c5a4       ?d2common_getRareSuffix@@3P6GFPAUUnitAny@@@ZA 6667c5a4     install.obj
 0003:0000c5a8       ?d2common_CheckItemFlag@@3P6GHPAUUnitAny@@KHPAD@ZA 6667c5a8     install.obj
 0003:0000c5ac       ?d2common_setItemFlag@@3P6GXPAUUnitAny@@HH@ZA 6667c5ac     install.obj
 0003:0000c5b0       ?d2common_getItemFlag@@3P6GXPAUUnitAny@@@ZA 6667c5b0     install.obj
 0003:0000c5b4       ?d2common_setItemLevel@@3P6GHPAUUnitAny@@H@ZA 6667c5b4     install.obj
 0003:0000c5b8       ?d2common_setItemLocation@@3P6GHPAUUnitAny@@D@ZA 6667c5b8     install.obj
 0003:0000c5bc       ?d2common_getItemTypeB14@@3P6GHPAUUnitAny@@@ZA 6667c5bc     install.obj
 0003:0000c5c0       ?d2common_getItemCode@@3P6GPADPAUUnitAny@@@ZA 6667c5c0     install.obj
 0003:0000c5c4       ?d2common_getItemType@@3P6GHPAUUnitAny@@@ZA 6667c5c4     install.obj
 0003:0000c5c8       ?d2common_getItemTypeByTxt@@3P6GHH@ZA 6667c5c8     install.obj
 0003:0000c5cc       ?d2common_getItemCode1@@3P6GPADPAUUnitAny@@@ZA 6667c5cc     install.obj
 0003:0000c5d0       ?d2common_isQuestItem@@3P6GHPAUUnitAny@@@ZA 6667c5d0     install.obj
 0003:0000c5d4       ?d2common_GetItemFileIndex@@3P6GHPAUUnitAny@@@ZA 6667c5d4     install.obj
 0003:0000c5d8       ?d2common_setItemFileIndex@@3P6GHPAUUnitAny@@H@ZA 6667c5d8     install.obj
 0003:0000c5dc       ?d2common_getItemData1C_20@@3P6GXPAUUnitAny@@PAX1@ZA 6667c5dc     install.obj
 0003:0000c5e0       ?d2common_setOwnerId@@3P6GXPAUUnitAny@@H@ZA 6667c5e0     install.obj
 0003:0000c5e4       ?d2common_isCompactItem@@3P6IDXZA 6667c5e4     install.obj
 0003:0000c5e8       ?d2common_getItemFormat@@3P6GHPAUUnitAny@@@ZA 6667c5e8     install.obj
 0003:0000c5ec       ?d2common_setItemFormat@@3P6GXPAUUnitAny@@F@ZA 6667c5ec     install.obj
 0003:0000c5f0       ?d2common_isBitSet@@3P6GHHH@ZA 6667c5f0     install.obj
 0003:0000c5f4       ?d2common_putItemIntoSocket10405@@3P6GHPAUUnitInventory@@PAUUnitAny@@H@ZA 6667c5f4     install.obj
 0003:0000c5f8       ?d2common_setCursorItem@@3P6GHPAUUnitInventory@@PAUUnitAny@@@ZA 6667c5f8     install.obj
 0003:0000c5fc       ?d2common_isItemInside@@3P6GHPAUUnitInventory@@PAUUnitAny@@@ZA 6667c5fc     install.obj
 0003:0000c600       ?d2common_CheckInvLocation@@3P6GHPAUUnitInventory@@PAUUnitAny@@HHHPAH2E@ZA 6667c600     install.obj
 0003:0000c604       ?d2common_GetNextItemInInv@@3P6GPAUUnitAny@@PAU1@@ZA 6667c604     install.obj
 0003:0000c608       ?d2common_getOwnerInventory@@3P6GPAUUnitInventory@@XZA 6667c608     install.obj
 0003:0000c60c       ?d2common_createInventory@@3P6GPAUUnitInventory@@PAXPAUUnitAny@@@ZA 6667c60c     install.obj
 0003:0000c610       ?d2common_GetFirstItemInInv@@3P6GPAUUnitAny@@PAUUnitInventory@@@ZA 6667c610     install.obj
 0003:0000c614       ?d2common_GetCursorItem@@3P6GPAUUnitAny@@PAUUnitInventory@@@ZA 6667c614     install.obj
 0003:0000c618       ?d2common_getFilledSockets@@3P6GHPAUUnitInventory@@@ZA 6667c618     install.obj
 0003:0000c61c       ?d2common_subEsp@@3P6GHXZA 6667c61c     install.obj
 0003:0000c620       ?d2common_exit@@3P6GHH@ZA  6667c620     install.obj
 0003:0000c624       ?d2common_GetMonStats2@@3P6IPAXXZA 6667c624     install.obj
 0003:0000c628       ?d2common_GetNearRectDataWithPos@@3P6IPAUAreaRectData@@XZA 6667c628     install.obj
 0003:0000c62c       ?d2common_GetCharStatsTxt@@3P6GPAXXZA 6667c62c     install.obj
 0003:0000c630       ?d2cmp_mpq_path_3010@@3P6IHPAD@ZA 6667c630     install.obj
 0003:0000c634       ?d2cmp_InitCellFile@@3P6GXPAXPAPAUCellFile@@PADHH2@ZA 6667c634     install.obj
 0003:0000c638       ?d2cmp_DeleteCellFile@@3P6GXPAUCellFile@@@ZA 6667c638     install.obj
 0003:0000c63c       ?d2client_pIsEquipment800x600@@3PAHA 6667c63c     install.obj
 0003:0000c640       ?d2client_pQuestPage@@3PAHA 6667c640     install.obj
 0003:0000c644       ?d2client_plpCritialSection@@3PAPAUCriticalSection@@A 6667c644     install.obj
 0003:0000c648       ?d2client_pworldHash@@3PAPAUWorldHash@@A 6667c648     install.obj
 0003:0000c64c       ?d2client_pLastChatMessage@@3PA_WA 6667c64c     install.obj
 0003:0000c650       ?d2client_pPetUnitList@@3PAPAUPetUnit@@A 6667c650     install.obj
 0003:0000c654       ?d2client_pShowManaStr@@3PAHA 6667c654     install.obj
 0003:0000c658       ?d2client_pShowLifeStr@@3PAHA 6667c658     install.obj
 0003:0000c65c       ?d2client_pBeltNotEmpty@@3PADA 6667c65c     install.obj
 0003:0000c660       ?d2client_pScreenBlocked@@3PAHA 6667c660     install.obj
 0003:0000c664       ?d2client_pStandStill@@3PAHA 6667c664     install.obj
 0003:0000c668       ?d2client_pDrlgAct@@3PAPAUDrlgAct@@A 6667c668     install.obj
 0003:0000c66c       ?d2client_pnotAcceptKeys@@3PAHA 6667c66c     install.obj
 0003:0000c670       ?d2client_pMButton@@3PAHA  6667c670     install.obj
 0003:0000c674       ?d2client_pInGame@@3PAHA   6667c674     install.obj
 0003:0000c678       ?d2client_pDifficulty@@3PAEA 6667c678     install.obj
 0003:0000c67c       ?d2client_pMercData32@@3PAHA 6667c67c     install.obj
 0003:0000c680       ?d2client_pFlagUnknownC2F8@@3PAHA 6667c680     install.obj
 0003:0000c684       ?d2client_pHasSelectedObject@@3PAHA 6667c684     install.obj
 0003:0000c688       ?d2client_pFps@@3PAHA      6667c688     install.obj
 0003:0000c68c       ?d2client_pAutoMapSize@@3PAUtagPOINT@@A 6667c68c     install.obj
 0003:0000c690       ?d2client_pMinimapOffset@@3PAUtagPOINT@@A 6667c690     install.obj
 0003:0000c694       ?d2client_pInfoPositionY@@3PAHA 6667c694     install.obj
 0003:0000c698       ?d2client_pScreenMinimapY@@3PAHA 6667c698     install.obj
 0003:0000c69c       ?d2client_pScreenMinimapX@@3PAHA 6667c69c     install.obj
 0003:0000c6a0       ?d2client_pAutomapPos@@3PAUtagPOINT@@A 6667c6a0     install.obj
 0003:0000c6a4       ?d2client_pMinimapCellFile@@3PAPAUCellFile@@A 6667c6a4     install.obj
 0003:0000c6a8       ?d2client_pAutomapLayer@@3PAPAUAutomapLayer@@A 6667c6a8     install.obj
 0003:0000c6ac       ?d2client_pAutomapLayerList@@3PAPAUAutomapLayer@@A 6667c6ac     install.obj
 0003:0000c6b0       ?d2client_pMinimapType@@3PAHA 6667c6b0     install.obj
 0003:0000c6b4       ?d2client_pChatTextLength@@3PAHA 6667c6b4     install.obj
 0003:0000c6b8       ?d2client_pMapShakeX@@3PAJA 6667c6b8     install.obj
 0003:0000c6bc       ?d2client_pIsMapShakeOn@@3PAHA 6667c6bc     install.obj
 0003:0000c6c0       ?d2client_pActiveWeapon@@3PAHA 6667c6c0     install.obj
 0003:0000c6c4       ?d2client_pStachImage@@3PAPAUCellFile@@A 6667c6c4     install.obj
 0003:0000c6c8       ?d2client_pPanelTradeStash@@3PAPAUCellFile@@A 6667c6c8     install.obj
 0003:0000c6cc       ?d2client_pPanelCube@@3PAPAUCellFile@@A 6667c6cc     install.obj
 0003:0000c6d0       ?d2client_pPanelBank@@3PAPAUCellFile@@A 6667c6d0     install.obj
 0003:0000c6d4       ?d2client_pNpcTradeCurrentTab@@3PAHA 6667c6d4     install.obj
 0003:0000c6d8       ?d2client_pCurrentViewItem@@3PAPAUUnitAny@@A 6667c6d8     install.obj
 0003:0000c6dc       ?d2client_pRosterUnitList@@3PAPAURosterUnit@@A 6667c6dc     install.obj
 0003:0000c6e0       ?d2client_pPlayerUnit@@3PAPAUUnitAny@@A 6667c6e0     install.obj
 0003:0000c6e4       ?d2client_pGoldInTranBox@@3PAHA 6667c6e4     install.obj
 0003:0000c6e8       ?d2client_pDrawOffsetY@@3PAHA 6667c6e8     install.obj
 0003:0000c6ec       ?d2client_pDrawOffsetX@@3PAHA 6667c6ec     install.obj
 0003:0000c6f0       ?d2client_pDrawOffset@@3PAUtagPOINT@@A 6667c6f0     install.obj
 0003:0000c6f4       ?d2client_pIs800x600@@3PAHA 6667c6f4     install.obj
 0003:0000c6f8       ?d2client_pGameInfo@@3PAPAUGameStructInfo@@A 6667c6f8     install.obj
 0003:0000c6fc       ?d2client_pMouseX@@3PAHA   6667c6fc     install.obj
 0003:0000c700       ?d2client_pMouseY@@3PAHA   6667c700     install.obj
 0003:0000c704       ?d2client_pPanelBtn@@3PAPAUCellFile@@A 6667c704     install.obj
 0003:0000c708       ?d2client_pPanelInvChar@@3PAPAUCellFile@@A 6667c708     install.obj
 0003:0000c70c       ?d2client_pXButton1@@3PAHA 6667c70c     install.obj
 0003:0000c710       ?d2client_pXButton2@@3PAHA 6667c710     install.obj
 0003:0000c714       ?d2client_pKeyboardSettingEnd@@3PAUKeyboardSetting@@A 6667c714     install.obj
 0003:0000c718       ?d2client_pKeyboardSettingStart@@3PAUKeyboardSetting@@A 6667c718     install.obj
 0003:0000c71c       ?d2client_pSkillHotKeyLeft@@3PAHA 6667c71c     install.obj
 0003:0000c720       ?d2client_pSkillHotKeys@@3PAHA 6667c720     install.obj
 0003:0000c724       ?d2client_pCastingDelayEndFrame@@3PAHA 6667c724     install.obj
 0003:0000c728       ?d2client_pExpansion@@3PAHA 6667c728     install.obj
 0003:0000c72c       ?d2client_pPing@@3PAHA     6667c72c     install.obj
 0003:0000c730       ?d2client_pCurFrame@@3PAHA 6667c730     install.obj
 0003:0000c734       ?d2client_pTradeRelated@@3PAPAHA 6667c734     install.obj
 0003:0000c738       ?d2client_pGameQuestData@@3PAPAUQuestInfo@@A 6667c738     install.obj
 0003:0000c73c       ?d2client_pQuestData@@3PAPAUQuestInfo@@A 6667c73c     install.obj
 0003:0000c740       ?d2client_pAutomapNodeListBaseAddr@@3PAPAXA 6667c740     install.obj
 0003:0000c744       ?d2client_pMapShakeY@@3PAJA 6667c744     install.obj
 0003:0000c748       ?d2client_pUnitTable@@3PAPAUUnitAny@@A 6667c748     install.obj
 0003:0000c74c       ?d2client_pWaypointMenuCount@@3PAHA 6667c74c     install.obj
 0003:0000c750       ?d2client_pWaypointMenuCurTab@@3PAHA 6667c750     install.obj
 0003:0000c754       ?d2client_pWaypointMenuItems@@3PAUWaypointMenuItem@@A 6667c754     install.obj
 0003:0000c758       ?d2client_pUiHelpOn@@3PAHA 6667c758     install.obj
 0003:0000c75c       ?d2client_pUiBeltOn@@3PAHA 6667c75c     install.obj
 0003:0000c760       ?d2client_pUiCubeOn@@3PAHA 6667c760     install.obj
 0003:0000c764       ?d2client_pUiStashOn@@3PAHA 6667c764     install.obj
 0003:0000c768       ?d2client_pUiMessageLogOn@@3PAHA 6667c768     install.obj
 0003:0000c76c       ?d2client_pUiPPLTradeOn@@3PAHA 6667c76c     install.obj
 0003:0000c770       ?d2client_pUiPartyOn@@3PAHA 6667c770     install.obj
 0003:0000c774       ?d2client_pUiWaypointOn@@3PAHA 6667c774     install.obj
 0003:0000c778       ?d2client_pUiNewQuestOn@@3PAHA 6667c778     install.obj
 0003:0000c77c       ?d2client_pUiQuestOn@@3PAHA 6667c77c     install.obj
 0003:0000c780       ?d2client_pUiModItemOn@@3PAHA 6667c780     install.obj
 0003:0000c784       ?d2client_pUiShowItemsOn@@3PAHA 6667c784     install.obj
 0003:0000c788       ?d2client_pUiNpcTradeOn@@3PAHA 6667c788     install.obj
 0003:0000c78c       ?d2client_pAutomapOn@@3PAHA 6667c78c     install.obj
 0003:0000c790       ?d2client_pUiGameMenuOn@@3PAHA 6667c790     install.obj
 0003:0000c794       ?d2client_pUiInteractOn@@3PAHA 6667c794     install.obj
 0003:0000c798       ?d2client_pUiNewSkillOn@@3PAHA 6667c798     install.obj
 0003:0000c79c       ?d2client_pUiNewStatOn@@3PAHA 6667c79c     install.obj
 0003:0000c7a0       ?d2client_pUiChatOn@@3PAHA 6667c7a0     install.obj
 0003:0000c7a4       ?d2client_pUiSkillTreeOn@@3PAHA 6667c7a4     install.obj
 0003:0000c7a8       ?d2client_pUiSelectSkillOn@@3PAHA 6667c7a8     install.obj
 0003:0000c7ac       ?d2client_pUiCharacterOn@@3PAHA 6667c7ac     install.obj
 0003:0000c7b0       ?d2client_pUiInventoryOn@@3PAHA 6667c7b0     install.obj
 0003:0000c7b4       ?d2client_pUiDropGoldWindow@@3PAPAXA 6667c7b4     install.obj
 0003:0000c7b8       ?d2client_pInfoPositionX@@3PAHA 6667c7b8     install.obj
 0003:0000c7bc       ?d2client_pExitAppFlag@@3PAHA 6667c7bc     install.obj
 0003:0000c7c0       ?d2client_pGameControlEnd@@3PAHA 6667c7c0     install.obj
 0003:0000c7c4       ?d2client_pGameControlStart@@3PAHA 6667c7c4     install.obj
 0003:0000c7c8       ?d2client_pMercData16@@3PAHA 6667c7c8     install.obj
 0003:0000c7cc       ?d2client_pMinimapZoom@@3PAHA 6667c7cc     install.obj
 0003:0000c7d0       ?d2client_pCurSkillClass@@3PAHA 6667c7d0     install.obj
 0003:0000c7d4       ?d2client_pCursorInvGridY@@3PAHA 6667c7d4     install.obj
 0003:0000c7d8       ?d2client_pCursorInvGridX@@3PAHA 6667c7d8     install.obj
 0003:0000c7dc       ?d2client_pLastMousePos@@3PAUtagPOINT@@A 6667c7dc     install.obj
 0003:0000c7e0       ?d2client_pScreenHeight@@3PAHA 6667c7e0     install.obj
 0003:0000c7e4       ?d2client_pScreenWidth@@3PAHA 6667c7e4     install.obj
 0003:0000c7e8       ?d2client_pScreenSize@@3PAUtagPOINT@@A 6667c7e8     install.obj
 0003:0000c7ec       ?d2client_psgptDataTables@@3PAPAUD2DataTables@@A 6667c7ec     install.obj
 0003:0000c7f0       ?d2client_DrawControls@@3P6GHH@ZA 6667c7f0     install.obj
 0003:0000c7f4       ?d2client_SetUiStatus@@3P6IHHHK@ZA 6667c7f4     install.obj
 0003:0000c7f8       ?d2client_LoadUiImageSubpath@@3P6IPAUCellFile@@XZA 6667c7f8     install.obj
 0003:0000c7fc       ?d2client_CheckUiStatusStub@@3P6IHH@ZA 6667c7fc     install.obj
 0003:0000c800       ?d2client_PacketHandler@@3P6GXH@ZA 6667c800     install.obj
 0003:0000c804       ?d2client_RecvCommand07@@3P6IXPAE@ZA 6667c804     install.obj
 0003:0000c808       ?d2client_RecvCommand08@@3P6IXPAE@ZA 6667c808     install.obj
 0003:0000c80c       ?d2client_removeUnitFromHash@@3P6IHPAPAUUnitAny@@HHH@ZA 6667c80c     install.obj
 0003:0000c810       ?d2client_addUnitToHash@@3P6GHXZA 6667c810     install.obj
 0003:0000c814       ?d2client_GetUnitFromId@@3P6IPAUUnitAny@@HH@ZA 6667c814     install.obj
 0003:0000c818       ?d2client_CanUseSkillNow@@3P6GHH@ZA 6667c818     install.obj
 0003:0000c81c       ?d2client_DrawAllUnits@@3P6GHXZA 6667c81c     install.obj
 0003:0000c820       ?d2client_CalcShake@@3P6GXPAH0@ZA 6667c820     install.obj
 0003:0000c824       ?d2client_ShowGameMessage@@3P6GXPA_WH@ZA 6667c824     install.obj
 0003:0000c828       ?d2client_ShowPartyMessage@@3P6GXPA_WH@ZA 6667c828     install.obj
 0003:0000c82c       ?d2client_getSkillTreeButtonY@@3P6IHXZA 6667c82c     install.obj
 0003:0000c830       ?d2client_getSkillTreeButtonX@@3P6IHXZA 6667c830     install.obj
 0003:0000c834       ?d2client_ChatInputStub@@3P6GXPAUD2MSG@@@ZA 6667c834     install.obj
 0003:0000c838       ?d2client_InitAutomapLayerStub@@3P6IPAUAutomapLayer@@K@ZA 6667c838     install.obj
 0003:0000c83c       ?d2client_AddAreaRectToMinimap@@3P6GXPAUAreaRectData@@KPAUAutomapLayer@@@ZA 6667c83c     install.obj
 0003:0000c840       ?d2client_AddAutomapNode@@3P6IXPAUAutomapNode@@PAPAU1@@ZA 6667c840     install.obj
 0003:0000c844       ?d2client_SetAutomapPartyStub@@3P6IXK@ZA 6667c844     install.obj
 0003:0000c848       ?d2client_SetAutomapNamesStub@@3P6IXK@ZA 6667c848     install.obj
 0003:0000c84c       ?d2client_NewAutomapNode@@3P6IPAUAutomapNode@@XZA 6667c84c     install.obj
 0003:0000c850       ?d2client_GetSelectedUnit@@3P6GPAUUnitAny@@XZA 6667c850     install.obj
 0003:0000c854       ?d2client_Unknown6150@@3P6GHXZA 6667c854     install.obj
 0003:0000c858       ?d2client_GetScreenDrawY@@3P6GJXZA 6667c858     install.obj
 0003:0000c85c       ?d2client_GetScreenDrawX@@3P6GJXZA 6667c85c     install.obj
 0003:0000c860       ?d2client_DrawSkillButtonE5E0@@3P6GXHHHHHH@ZA 6667c860     install.obj
 0003:0000c864       ?d2client_SkillUnusable@@3P6IXXZA 6667c864     install.obj
 0003:0000c868       ?d2client_processMessages@@3P6IXXZA 6667c868     install.obj
 0003:0000c86c       ?d2client_ShowMap@@3P6IXXZA 6667c86c     install.obj
 0003:0000c870       ?d2client_LoadUiImageFunc@@3P6GPAUCellFile@@H@ZA 6667c870     install.obj
 0003:0000c874       ?d2client_UseBelt@@3P6IXPAUUnitInventory@@PAUUnitAny@@H@ZA 6667c874     install.obj
 0003:0000c878       ?d2client_DrawClient@@3P6IXXZA 6667c878     install.obj
 0003:0000c87c       ?d2client_DrawSkillButton@@3P6GXPAUSkill@@HHH@ZA 6667c87c     install.obj
 0003:0000c880       ?d2client_PlaySound@@3P6IHHHH@ZA 6667c880     install.obj
 0003:0000c884       ?d2client_ItemProtect@@3P6GXPAUUnitAny@@K@ZA 6667c884     install.obj
 0003:0000c888       ?d2client_GetMonsterOwner@@3P6IHH@ZA 6667c888     install.obj
 0003:0000c88c       ?d2client_LeftClickBDE0@@3P6GHXZA 6667c88c     install.obj
 0003:0000c890       ?d2client_RightClickBC40@@3P6GHXZA 6667c890     install.obj
 0003:0000c894       ?d2client_ShouldClick85E0@@3P6GHXZA 6667c894     install.obj
 0003:0000c898       ?d2client_SendPacket3@@3P6IXF@ZA 6667c898     install.obj
 0003:0000c89c       ?d2client_SendPacket43E0@@3P6GXPAD@ZA 6667c89c     install.obj
 0003:0000c8a0       ?d2client_SetResolutionMode@@3P6GXXZA 6667c8a0     install.obj
 0003:0000c8a4       ?d2client_getNearbyRectData@@3P6GXPAUAreaRectData@@PAPAPAU1@PAH@ZA 6667c8a4     install.obj
 0003:0000c8a8       ?d2client_Storm511@@3P6GXPAUD2MSG@@@ZA 6667c8a8     install.obj
 0003:0000c8ac       ?d2client_subEsp@@3P6GHXZA 6667c8ac     install.obj
 0003:0000c8b0       ?d2client_getSkillDescTxt@@3P6IPAXXZA 6667c8b0     install.obj
 0003:0000c8b4       ?bnclient_pBnChatMessage@@3PAPAKA 6667c8b4     install.obj
 0003:0000c8bc       ?load_dll_error@@3HA       6667c8bc     install.obj
 0003:0000c8c0       ?fLocalizationSupport@@3HA 6667c8c0     install.obj
 0003:0000c8c4       ?fGameFilter@@3HA          6667c8c4     install.obj
 0003:0000c8c8       ?hasPlugY@@3HA             6667c8c8     install.obj
 0003:0000c8cc       ?pPatchList@@3PAPAUInstalledPatch@@A 6667c8cc     install.obj
 0003:0000c8dc       ?networkPatch@@3PAUInstalledPatch@@A 6667c8dc     install.obj
 0003:0000dcf0       ?dwDumpMpqPath@@3HA        6667dcf0     mpq.obj
 0003:0000dda0       ?singlePlayerWorld@@3PAUWorld@@A 6667dda0     common.obj
 0003:0000dda4       ?forceStandStill@@3HA      6667dda4     common.obj
 0003:0000e9d0       ?nPet@@3HA                 6667e9d0     common.obj
 0003:0000e9d4       ?petCap@@3HA               6667e9d4     common.obj
 0003:0000e9d8       ?dwPetListChangeVerify@@3HA 6667e9d8     common.obj
 0003:0000e9e0       ?fPartyListValid@@3HA      6667e9e0     common.obj
 0003:0000ea04       ?dwChangeLeftSkill@@3HA    6667ea04     loop.obj
 0003:0000ea08       ?fDebugMs@@3HA             6667ea08     loop.obj
 0003:0000ea0c       ?dwLevelChangeMs@@3HA      6667ea0c     loop.obj
 0003:0000ea10       ?dwCpuUser@@3HA            6667ea10     loop.obj
 0003:0000ea14       ?dwCpuKernel@@3HA          6667ea14     loop.obj
 0003:0000ea18       ?dwLoopFPS@@3HA            6667ea18     loop.obj
 0003:0000ea1c       ?dwDrawFPS@@3HA            6667ea1c     loop.obj
 0003:0000ea20       ?dwCurMs@@3HC              6667ea20     loop.obj
 0003:0000ea24       ?dwEnterGameMs@@3HA        6667ea24     loop.obj
 0003:0000ea28       ?fStartingGame@@3HA        6667ea28     loop.obj
 0003:0000ea2c       ?fInGame@@3HA              6667ea2c     loop.obj
 0003:0000ea30       ?dwEnterGameShowDifficultyMs@@3HA 6667ea30     loop.obj
 0003:0000ea34       ?dwCurrentAct@@3HA         6667ea34     loop.obj
 0003:0000ea38       ?dwPlayerX@@3HA            6667ea38     loop.obj
 0003:0000ea3c       ?dwPlayerY@@3HA            6667ea3c     loop.obj
 0003:0000ea40       ?dwPlayerId@@3HA           6667ea40     loop.obj
 0003:0000ea44       ?dwPlayerPartyId@@3HA      6667ea44     loop.obj
 0003:0000ea48       ?dwPlayerClass@@3HA        6667ea48     loop.obj
 0003:0000ea4c       ?pLeftSkill@@3PAUSkill@@A  6667ea4c     loop.obj
 0003:0000ea50       ?pRightSkill@@3PAUSkill@@A 6667ea50     loop.obj
 0003:0000ea54       ?dwLeftSkillStatus@@3HA    6667ea54     loop.obj
 0003:0000ea58       ?dwRightSkillStatus@@3HA   6667ea58     loop.obj
 0003:0000ea5c       ?dwPlayerLevel@@3HA        6667ea5c     loop.obj
 0003:0000ea60       ?dwPlayerHP@@3HA           6667ea60     loop.obj
 0003:0000ea64       ?dwPlayerMaxHP@@3HA        6667ea64     loop.obj
 0003:0000ea68       ?dwPlayerMana@@3HA         6667ea68     loop.obj
 0003:0000ea6c       ?dwPlayerMaxMana@@3HA      6667ea6c     loop.obj
 0003:0000ea70       ?dwPlayerFcrFrame@@3HA     6667ea70     loop.obj
 0003:0000ea74       ?dwPlayerFcrMs@@3HA        6667ea74     loop.obj
 0003:0000eab8       ?wcsLevelTargetName@@3PA_WA 6667eab8     map.obj
 0003:0000ebb8       ?dwDuranceOfHateLevel3TeleportShift@@3PAHA 6667ebb8     map.obj
 0003:0000ebc0       ?dwRescueBarDy@@3HA        6667ebc0     map.obj
 0003:0000ebc4       ?dwRescueBarDx@@3HA        6667ebc4     map.obj
 0003:0000ebdc       ?pCurMapLevel@@3PAUMinimapLevel@@A 6667ebdc     map.obj
 0003:0000ebe0       ?minimapLevels@@3PAUMinimapLevel@@A 6667ebe0     map.obj
 0003:000102a8       ?pMinimapObjectCell@@3PAUCellFile@@A 666802a8     map.obj
 0003:000102ac       ?dwRevealMapMs@@3HA        666802ac     map.obj
 0003:000102b0       ?dwAutoRevealCLevel@@3HA   666802b0     map.obj
 0003:000102b4       ?nCaveNameTextCol@@3EA     666802b4     map.obj
 0003:000102b5       ?nSuperUniqueDescFont@@3EA 666802b5     map.obj
 0003:000102b8       ?anMonsterColours@@3PAEA   666802b8     map.obj
 0003:000106a0       ?wszStaffTombLvlDesc@@3PA_WA 666806a0     map.obj
 0003:00010704       ?dwScreenScrollCount@@3HA  66680704     map.obj
 0003:00010708       ?aszUnitBlobFiles@@3PAY0DC@DA 66680708     map.obj
 0003:00010930       ?awszEnchantDescs@@3PAY0BE@_WA 66680930     map.obj
 0003:00011100       ?awszAuraDescs@@3PAY0BE@_WA 66681100     map.obj
 0003:00011218       ?awszImmuneDescs@@3PAY0BE@_WA 66681218     map.obj
 0003:00011308       ?anMonsterCorpseColors@@3PAEA 66681308     map.obj
 0003:000116f0       ?anMissileColours@@3PAEA   666816f0     map.obj
 0003:00011ad8       ?dwMinimapScrollCount@@3HA 66681ad8     map.obj
 0003:00011ae0       ?tScreenScrollKeys@@3PAUToggleVar@@A 66681ae0     map.obj
 0003:00011de0       ?dwScreenScrollOffset@@3PAY01HA 66681de0     map.obj
 0003:00011e60       ?tMiniMapScrollKeys@@3PAUToggleVar@@A 66681e60     map.obj
 0003:00012160       ?dwMiniMapScrollOffset@@3PAY01HA 66682160     map.obj
 0003:000123ec       ?dwSendPacketCount@@3HA    666823ec     packet.obj
 0003:000123f0       ?fMonitorSendCmd@@3PADA    666823f0     packet.obj
 0003:000124f0       ?fMonitorRecvCmd@@3PADA    666824f0     packet.obj
 0003:000126f0       ?dwInteractEntityCount@@3HA 666826f0     packet.obj
 0003:000126fc       ?dwTargetDistanceMs@@3HA   666826fc     route.obj
 0003:00012700       ?dwTargetDistance@@3HA     66682700     route.obj
 0003:0001272c       ?pSrcRect@@3PAURouteRect@@A 6668272c     route.obj
 0003:00012730       ?dwTakeWaypointToLevel@@3HA 66682730     waypoint.obj
 0003:00012734       ?waypointBits@@3PADA       66682734     waypoint.obj
 0003:00012740       ?waypointMap@@3PAHA        66682740     waypoint.obj
 0003:00012970       ?mouseL@@3HA               66682970     winmsg.obj
 0003:00012974       ?mouseW@@3HA               66682974     winmsg.obj
 0003:00014d78       ?fSkipPainting@@3HA        66684d78     winmsg.obj
 0003:00014d7c       ?fSkipPaintingMenu@@3HA    66684d7c     winmsg.obj
 0003:00014d80       ?dwQuickSwapItemMs@@3HA    66684d80     winmsg.obj
 0003:00014d84       ?dwScreenBlockMask@@3HA    66684d84     winmsg.obj
 0003:00014d88       ?dwDrawCount@@3HA          66684d88     winmsg.obj
 0003:00014d8c       ?fInMainMenu@@3HA          66684d8c     winmsg.obj
 0003:00014d90       ?fLeftBtnDown@@3HA         66684d90     winmsg.obj
 0003:00014d94       ?fRightBtnDown@@3HA        66684d94     winmsg.obj
 0003:00014d98       ?dwBtnReleaseMs@@3HA       66684d98     winmsg.obj
 0003:00014d9c       ?fUserOperating@@3HA       66684d9c     winmsg.obj
 0003:00014dc8       ?fNoBackgroundImage@@3HA   66684dc8     winmsg.obj
 0003:00014dcc       ?dwAutoHideMinimapKey@@3HA 66684dcc     winmsg.obj
 0003:00014dd0       ?dwGameControlKeys@@3PAY03HA 66684dd0     winmsg.obj
 0003:000151d0       ?dwGameSoundKeys@@3PAHA    666851d0     winmsg.obj
 0003:000153d0       ?tSwitchWindowKeys@@3PAY01UToggleVar@@A 666853d0     winmsg.obj
 0003:000159d0       ?dwSwitchSkillKeyCount@@3HA 666859d0     winmsg.obj
 0003:000159d4       ?fFullWindows@@3HA         666859d4     winmsg.obj
 0003:000159d8       ?dwSwitchSkillKeys@@3PAHA  666859d8     winmsg.obj
 0003:00015a58       ?dwSwitchSkillLeft@@3PAY173HA 66685a58     winmsg.obj
 0003:00016a58       ?dwSwitchSkillRight@@3PAY173HA 66686a58     winmsg.obj
 0003:00017a58       ?dwSwitchSkillLeftUp@@3PAY07HA 66687a58     winmsg.obj
 0003:00017e58       ?dwSwitchSkillRightUp@@3PAY07HA 66687e58     winmsg.obj
 0003:00018258       ?dwSwitchSkillStandStill@@3PAHA 66688258     winmsg.obj
 0003:000182d8       ?dwSwitchSkillLeftOrg@@3PAHA 666882d8     winmsg.obj
 0003:00018358       ?dwSwitchSkillRightOrg@@3PAHA 66688358     winmsg.obj
 0003:00018408       ?dwVisualEffectMode@@3HA   66688408     env.obj
 0003:00018410       ?afMonsterCorpses@@3PAEA   66688410     env.obj
 0003:000187f8       ?afMissileCorpses@@3PAEA   666887f8     env.obj
 0003:00018be0       ?dwNextStackLoc@@3HA       66688be0     GameMonitor.obj
 0003:00018be4       ?dwNextStackY@@3HA         66688be4     GameMonitor.obj
 0003:00018be8       ?dwNextStackX@@3HA         66688be8     GameMonitor.obj
 0003:00018bec       ?dwNextStackingId@@3HA     66688bec     GameMonitor.obj
 0003:00018bf0       ?dwThrowWeaponId@@3HA      66688bf0     GameMonitor.obj
 0003:00018c00       ?dwNextMPotionId@@3HA      66688c00     GameMonitor.obj
 0003:00018c04       ?dwNextHPotionId@@3HA      66688c04     GameMonitor.obj
 0003:00018c08       ?beltLayers@@3HA           66688c08     GameMonitor.obj
 0003:00018c0c       ?dwNeedPotionType@@3HA     66688c0c     GameMonitor.obj
 0003:00018c10       ?beltType@@3PAEA           66688c10     GameMonitor.obj
 0003:00018c14       ?beltCount@@3PAEA          66688c14     GameMonitor.obj
 0003:00018c18       ?fWerebear@@3HA            66688c18     GameMonitor.obj
 0003:00018c1c       ?fWerewolf@@3HA            66688c1c     GameMonitor.obj
 0003:00018c20       ?dwOakSageLvl@@3HA         66688c20     GameMonitor.obj
 0003:00018c24       ?dwRecheckSelfItemMs@@3HA  66688c24     GameMonitor.obj
 0003:00018c28       ?leftWeapon@@3PAUUnitAny@@A 66688c28     GameMonitor.obj
 0003:00018c2c       ?rightWeapon@@3PAUUnitAny@@A 66688c2c     GameMonitor.obj
 0003:00018c30       ?dwTownPortalCount@@3HA    66688c30     GameMonitor.obj
 0003:00018c34       ?dwIdentifyPortalCount@@3HA 66688c34     GameMonitor.obj
 0003:00018c38       ?fUsingBow@@3HA            66688c38     GameMonitor.obj
 0003:00018c3c       ?fUsingCrossBow@@3HA       66688c3c     GameMonitor.obj
 0003:00018c40       ?fUsingThrow@@3HA          66688c40     GameMonitor.obj
 0003:00018c44       ?dwHPotionCount@@3HA       66688c44     GameMonitor.obj
 0003:00018c48       ?dwMPotionCount@@3HA       66688c48     GameMonitor.obj
 0003:00018c4c       ?dwRPotionCount@@3HA       66688c4c     GameMonitor.obj
 0003:00018c50       ?dwArrowCount@@3HA         66688c50     GameMonitor.obj
 0003:00018c54       ?dwCArrowCount@@3HA        66688c54     GameMonitor.obj
 0003:00018c58       ?dwThrowCount@@3HA         66688c58     GameMonitor.obj
 0003:00018c5c       ?fMonitorQuantity@@3HA     66688c5c     GameMonitor.obj
 0003:00018c60       ?fMonitorDurability@@3HA   66688c60     GameMonitor.obj
 0003:00018c64       ?dwKillSum@@3HA            66688c64     GameMonitor.obj
 0003:00018c68       ?dwGameKills@@3HA          66688c68     GameMonitor.obj
 0003:00018c6c       ?dwLastKills@@3HA          66688c6c     GameMonitor.obj
 0003:00018c70       ?dwGetHitSum@@3HA          66688c70     GameMonitor.obj
 0003:00018c74       ?dwGetHits@@3HA            66688c74     GameMonitor.obj
 0003:00018c78       ?dwOrgMode@@3HA            66688c78     GameMonitor.obj
 0003:00018c7c       ?targetNameColor@@3DA      66688c7c     GameMonitor.obj
 0003:00018c80       ?fState100HP@@3HA          66688c80     GameMonitor.obj
 0003:00018c84       ?fState106Mana@@3HA        66688c84     GameMonitor.obj
 0003:00018c8c       ?dwGuessBOMs@@3HA          66688c8c     GameMonitor.obj
 0003:00018c90       ?dwGuessEnchantMs@@3HA     66688c90     GameMonitor.obj
 0003:0001b5b0       ?fViewingTargetUnit@@3HA   6668b5b0     info.obj
 0003:0001b5b4       ?currentgameexp@@3HA       6668b5b4     info.obj
 0003:00090908       ?dwGoldGoodNum@@3HA        66700908     item.obj
 0003:0009090c       ?fSimplifiedPotionName@@3HA 6670090c     item.obj
 0003:00090910       ?anRuneColours@@3PAY03DA   66700910     item.obj
 0003:00090aa0       ?anItemColours@@3PAY37163DA 66700aa0     item.obj
 0003:001d8ca0       ?anItemHideLevel@@3PAY07DA 66848ca0     item.obj
 0003:001dea60       ?anItemShowCLevel@@3PAY01DA 6684ea60     item.obj
 0003:001e01d0       ?wszEtherealItemPrefix@@3PA_WA 668501d0     item.obj
 0003:001e020c       ?wszEtherealItemPostfix@@3PA_WA 6685020c     item.obj
 0003:001e0248       ?dwShowValuableItem@@3HA   66850248     item.obj
 0003:001e024c       ?fViewSockFlag@@3HA        6685024c     item.obj
 0003:001e0250       ?szItemExtInfoCfgName@@3PAY0BAA@DA 66850250     item.obj
 0003:001e0450       ?fViewSocketableOn@@3HA    66850450     item.obj
 0003:001e0458       ?wszDescText@@3PA_WA       66850458     item.obj
 0003:001f0578       ?dwCheckMercMs@@3HA        66860578     dangerous.obj
 0003:001f0594       ?dwIronGolemLifeAlertPercent@@3HA 66860594     dangerous.obj
 0003:001f0598       ?dwIronGolemLifeTownPercent@@3HA 66860598     dangerous.obj
 0003:001f059c       ?dwIronGolemLifeExitPercent@@3HA 6686059c     dangerous.obj
 0003:001f05a0       ?dwIronGolemTownLifePercent@@3HA 668605a0     dangerous.obj
 0003:001f05a4       ?dwHirePotionMinCLevel@@3HA 668605a4     dangerous.obj
 0003:001f05a8       ?dwHirePotionLifePercent@@3HA 668605a8     dangerous.obj
 0003:001f05ac       ?dwHirePotionColumn@@3HA   668605ac     dangerous.obj
 0003:001f05b0       ?dwHealingPotionLifePercent@@3HA 668605b0     dangerous.obj
 0003:001f05b4       ?dwHealingPotionDelayMs@@3HA 668605b4     dangerous.obj
 0003:001f05b8       ?dwManaPotionMax@@3HA      668605b8     dangerous.obj
 0003:001f05bc       ?dwManaPotionValue@@3HA    668605bc     dangerous.obj
 0003:001f05c0       ?dwManaPotionNTValue@@3HA  668605c0     dangerous.obj
 0003:001f05c4       ?dwChickenLife@@3HA        668605c4     dangerous.obj
 0003:001f05c8       ?dwChickenMaxLife@@3HA     668605c8     dangerous.obj
 0003:001f05cc       ?dwChickenHostileLife@@3HA 668605cc     dangerous.obj
 0003:001f05d0       ?dwChickenHostileNearbyLife@@3HA 668605d0     dangerous.obj
 0003:001f05d4       ?dwChickenLifePercent@@3HA 668605d4     dangerous.obj
 0003:001f05d8       ?dwChickenHostileLifePercent@@3HA 668605d8     dangerous.obj
 0003:001f05dc       ?dwChickenHostileNearbyLifePercent@@3HA 668605dc     dangerous.obj
 0003:001f05e0       ?dwChickenLifeMinClevel@@3HA 668605e0     dangerous.obj
 0003:001f05e4       ?fLifeProtectOn@@3HA       668605e4     dangerous.obj
 0003:001f05e8       ?fDangerousMonsterActive@@3HA 668605e8     dangerous.obj
 0003:001f05f0       ?anDangerousMonster@@3PAY01DA 668605f0     dangerous.obj
 0003:001f0e38       ?dwUpdateQuestMs@@3HA      66860e38     quest.obj
 0003:001f0e3c       ?dwQuestAlertMs@@3HA       66860e3c     quest.obj
 0003:001f0e40       ?wszBugKBAlertMessage@@3PA_WA 66860e40     quest.obj
 0003:001f4fa8       ?afMonsterDeathAnims@@3PAEA 66864fa8     lifebar.obj
 0003:001f53c8       ?aDropProtectRune@@3PADA   668653c8     DropProtection.obj
 0003:001f53f0       ?aDropProtectRuneword@@3PADA 668653f0     DropProtection.obj
 0003:001f54f0       ?aDropProtectUnique@@3PADA 668654f0     DropProtection.obj
 0003:001f56f0       ?aDropProtectSet@@3PADA    668656f0     DropProtection.obj
 0003:001f9c08       ?fAutoEnchantCheckUnit@@3HA 66869c08     enchant.obj
 0003:001f9c10       ?pD2WinEditBox@@3PAUD2EditBox@@A 66869c10     GameChat.obj
 0003:001f9c14       ?fMyChatOn@@3HA            66869c14     GameChat.obj
 0003:001f9ce0       ?dwAutoLoginMs@@3HA        66869ce0     login.obj
 0003:001f9ce8       ?dwAutoSelectCharMs@@3HA   66869ce8     login.obj
 0003:001f9cf8       ?nCurCharTags@@3HA         66869cf8     login.obj
 0003:001f9cfc       ?mSkipQuestMessage@@3HA    66869cfc     misc.obj
 0003:001f9d0c       ?dwWaitTeamEnterPortalId@@3HA 66869d0c     multi.obj
 0003:001f9d10       ?dwWaitTeamEnterPortalMs@@3HA 66869d10     multi.obj
 0003:001f9d50       ?d2wins@@3PAUD2Window@@A   66869d50     multi.obj
 0003:001fb8d0       ?d2winLastId@@3HA          6686b8d0     multi.obj
 0003:001fb8d4       ?fAutoFollowMoving@@3HA    6686b8d4     multi.obj
 0003:001fb8d8       ?wszTransferClick@@3PA_WA  6686b8d8     multi.obj
 0003:001fb958       ?tMCFormationKeys@@3PAUToggleVar@@A 6686b958     multi.obj
 0003:001fbf58       ?aMCFormation@@3PAY0BA@CA  6686bf58     multi.obj
 0003:001fc158       ?fTransferClick@@3HA       6686c158     multi.obj
 0003:001fc15c       ?dwTeamMemberCount@@3HA    6686c15c     multi.obj
 0003:001fc160       ?aAutoFollowClickObject@@3PADA 6686c160     multi.obj
 0003:001fc560       ?dwLeaderId@@3HA           6686c560     multi.obj
 0003:001fc580       ?wszNpcTradeInfo@@3PA_WA   6686c580     NpcTrade.obj
 0003:001fd0e4       ?dwNpcTradeCheckMs@@3HA    6686d0e4     NpcTrade.obj
 0003:001fd0e8       ?fCanInvite@@3HA           6686d0e8     party.obj
 0003:001fd0ec       ?dwPartyResponseMs@@3HA    6686d0ec     party.obj
 0003:001fd0f8       ?fCanExitGame@@3HA         6686d0f8     quick.obj
 0003:001fd0fc       ?dwBackToTownTimeout@@3HA  6686d0fc     quick.obj
 0003:001fd108       ?fAutoNextGameName@@3HA    6686d108     quick.obj
 0003:001fd10c       ?fAutoNextGamePassword@@3HA 6686d10c     quick.obj
 0003:001fd110       ?fAutoNextGameDescription@@3HA 6686d110     quick.obj
 0003:001fd118       ?wszGameName@@3PA_WA       6686d118     quick.obj
 0003:001fd158       ?wszGamePassword@@3PA_WA   6686d158     quick.obj
 0003:001fd198       ?wszGameDescription@@3PA_WA 6686d198     quick.obj
 0003:001fd200       ?fHighRes@@3HA             6686d200     resolution.obj
 0003:002012d4       ?dwAutoSkillReloading@@3HA 668712d4     skill.obj
 0003:002012d8       ?dwRescueBarSafeDistance@@3HA 668712d8     skill.obj
 0003:002012dc       ?fAutoEnchant@@3HA         668712dc     skill.obj
 0003:002012e0       ?aAutoPickupItem@@3PADA    668712e0     skill.obj
 0003:00201e98       ?fAutoEnchantUseLeftSkill@@3HA 66871e98     skill.obj
 0003:00201e9c       ?fAutoWarCry@@3HA          66871e9c     skill.obj
 0003:00201ea0       ?dwAutoEnchantMonster@@3PADA 66871ea0     skill.obj
 0003:002022a0       ?fAutoWarCryUseLeftSkill@@3HA 668722a0     skill.obj
 0003:002022a4       ?dwAutoWarCryRenewPercent@@3HA 668722a4     skill.obj
 0003:002022a8       ?dwUseLeftSkillFirst@@3HA  668722a8     skill.obj
 0003:002022ac       ?dwAutoReloadThrowing@@3HA 668722ac     skill.obj
 0003:002022b0       ?dwAutoSkillCheckMs@@3HA   668722b0     skill.obj
 0003:002022b4       ?dwAutoSkillMode@@3HA      668722b4     skill.obj
 0003:002022b8       ?fAutoSkillNow@@3HA        668722b8     skill.obj
 0003:002022bc       ?fAutoSkill@@3HA           668722bc     skill.obj
 0003:002022c0       ?aAutoDimVisionMonster@@3PADA 668722c0     skill.obj
 0003:002026c0       ?aAutoSkillMonsterType@@3PADA 668726c0     skill.obj
 0003:00202ac0       ?aAutoSkillDistance@@3PAY01DA 66872ac0     skill.obj
 0003:00202ec0       ?fAutoSummon@@3HA          66872ec0     skill.obj
 0003:00202ec4       ?fAutoSummonUseLeftSkill@@3HA 66872ec4     skill.obj
 0003:00202ec8       ?dwAutoSummonStartMs@@3HA  66872ec8     skill.obj
 0003:00202ecc       ?dwAutoSummonCheckEnchantMs@@3HA 66872ecc     skill.obj
 0003:00202ed0       ?aAutoReviveMonster@@3PADA 66872ed0     skill.obj
 0003:002032d0       ?dwSkeletonCount@@3HA      668732d0     skill.obj
 0003:002032d4       ?dwEnchantSkeletonCount@@3HA 668732d4     skill.obj
 0003:002032d8       ?dwSkeletonMaxCount@@3HA   668732d8     skill.obj
 0003:002032dc       ?dwSkeletonMageCount@@3HA  668732dc     skill.obj
 0003:002032e0       ?dwSkeletonMageMaxCount@@3HA 668732e0     skill.obj
 0003:002032e4       ?dwReviveCount@@3HA        668732e4     skill.obj
 0003:002032e8       ?dwReviveMaxCount@@3HA     668732e8     skill.obj
 0003:002032ec       ?dwSkeletonHPPercent@@3HA  668732ec     skill.obj
 0003:002032f0       ?dwSkeletonMageHPPercent@@3HA 668732f0     skill.obj
 0003:002034ac       ?dwMercNameId@@3HA         668734ac     Snapshot.obj
 0003:002044b0       ?setItemNames@@3PAPADA     668744b0     Snapshot.obj
 0003:00204cb0       ?uniqueNames@@3PAPADA      66874cb0     Snapshot.obj
 0003:002054b0       ?runeWordNames@@3PAPADA    668754b0     Snapshot.obj
 0003:00205cb0       ?questNames@@3PAPADA       66875cb0     Snapshot.obj
 0003:00205d78       ?dwMercSeed@@3HA           66875d78     Snapshot.obj
 0003:00205d80       ?itemNames@@3PAPADA        66875d80     Snapshot.obj
 0003:0020a478       ?dwCheckSkeletonCountMs@@3HA 6687a478     summon.obj
 0003:0020e4a0       ?fAutoSummonSwitchSkillTmp@@3HA 6687e4a0     summon.obj
 0003:0020e4a4       ?fAutoSummonSwitchSkill@@3HA 6687e4a4     summon.obj
 0003:0020e4a8       ?fAutoSummonNeedCorpse@@3HA 6687e4a8     summon.obj
 0003:0020e4ac       ?dwNecInfoExpireMs@@3HA    6687e4ac     summon.obj
 0003:0020e4b0       ?dwNecMana@@3HA            6687e4b0     summon.obj
 0003:0020e4b4       ?dwTotalMonsterCount@@3HA  6687e4b4     summon.obj
 0003:0020e4b8       ?dwSkillChangeCount@@3HA   6687e4b8     summon.obj
 0003:0020e920       ?maxTpDisRaw@@3HA          6687e920     teleport.obj
 0003:0020e994       ?dwTpDoneMs@@3HA           6687e994     teleport.obj
 0003:0020e998       ?dwTpMs@@3HA               6687e998     teleport.obj
 0003:0020e99c       ?TPfailedRect@@3PAUAreaRectData@@A 6687e99c     teleport.obj
 0003:0020e9a0       ?TPtargetRect@@3PAUAreaRectData@@A 6687e9a0     teleport.obj
 0003:0020e9a4       ?TPtarget@@3UtagPOINT@@A   6687e9a4     teleport.obj
 0003:0020e9d8       ?fAutoTeleporting@@3HA     6687e9d8     teleport.obj
 0003:0020e9dc       ?unexpectedMonCount@@3HA   6687e9dc     teleport.obj
 0003:0020e9e0       ?unexpectedMonTotalMs@@3HA 6687e9e0     teleport.obj
 0003:0020e9f8       ?serverCubeType@@3HA       6687e9f8     panel.obj
 0003:0020e9fc       ?clientCubeType@@3HA       6687e9fc     panel.obj
 0003:0020ea00       ?serverStashType@@3HA      6687ea00     panel.obj
 0003:0020ea04       ?clientStashType@@3HA      6687ea04     panel.obj
 0003:0020ea08       ?serverInvType@@3HA        6687ea08     panel.obj
 0003:0020ea0c       ?clientInvType@@3HA        6687ea0c     panel.obj
 0003:0020ea18       ?fEnableBigStash@@3HA      6687ea18     panel.obj
 0003:0020ea1c       ?dwInvType@@3HA            6687ea1c     panel.obj
 0003:0020ea20       ?dwStashType@@3HA          6687ea20     panel.obj
 0003:0020ea24       ?dwCubeType@@3HA           6687ea24     panel.obj
 0003:0020ec7c       ?active_UberDiabloRushTweekAI@@3_NA 6687ec7c     uber.obj
 0003:0020ec7d       ?active_UberBaalTeleportTweekAI@@3_NA 6687ec7d     uber.obj
 0003:0020ec7e       ?active_UberBaalChillingArmorTweekAI@@3_NA 6687ec7e     uber.obj
 0003:0020ec80       ?uberBaalChillingArmorLastFrame@@3HA 6687ec80     uber.obj
 0003:0020ec84       __cflush                   6687ec84     LIBCMT:_file.obj
 0003:0020ec88       ___fastflag                6687ec88     LIBCMT:_fpinit_.obj
 0003:0020ec8c       __adjust_fdiv              6687ec8c     LIBCMT:_fpinit_.obj
 0003:0020eca8       __aenvptr                  6687eca8     LIBCMT:dllcrt0.obj
 0003:0020ecac       __wenvptr                  6687ecac     LIBCMT:dllcrt0.obj
 0003:0020ecb0       ___error_mode              6687ecb0     LIBCMT:dllcrt0.obj
 0003:0020ecb4       ___app_type                6687ecb4     LIBCMT:dllcrt0.obj
 0003:0020ecbc       ___mbulinfo                6687ecbc     LIBCMT:mbctype.obj
 0003:0020ecc8       ___mbcodepage              6687ecc8     LIBCMT:mbctype.obj
 0003:0020eccc       ___ismbcodepage            6687eccc     LIBCMT:mbctype.obj
 0003:0020ecd0       ___mblcid                  6687ecd0     LIBCMT:mbctype.obj
 0003:0020ecd4       ___locale_changed          6687ecd4     LIBCMT:setlocal.obj
 0003:0020ecd8       ___lc_handle               6687ecd8     LIBCMT:nlsdata2.obj
 0003:0020ecf0       ___lc_codepage             6687ecf0     LIBCMT:nlsdata2.obj
 0003:0020ecf4       ___lc_collate_cp           6687ecf4     LIBCMT:nlsdata2.obj
 0003:0020ecf8       _gpFlsAlloc                6687ecf8     LIBCMT:tidtable.obj
 0003:0020ecfc       _gpFlsGetValue             6687ecfc     LIBCMT:tidtable.obj
 0003:0020ed00       _gpFlsSetValue             6687ed00     LIBCMT:tidtable.obj
 0003:0020ed04       _gpFlsFree                 6687ed04     LIBCMT:tidtable.obj
 0003:0020ed08       ___pInvalidArgHandler      6687ed08     LIBCMT:invarg.obj
 0003:0020ee60       __stdbuf                   6687ee60     LIBCMT:_sftbuf.obj
 0003:0020f18c       ?_pnhHeap@@3P6AHI@ZA       6687f18c     LIBCMT:handler.obj
 0003:0020f190       __newmode                  6687f190     LIBCMT:_newmode.obj
 0003:0020f194       __crtheap                  6687f194     LIBCMT:heapinit.obj
 0003:0020f198       ___sbh_pHeaderDefer        6687f198     LIBCMT:sbheap.obj
 0003:0020f1a0       __maxwait                  6687f1a0     LIBCMT:crtheap.obj
 0003:0020f1a4       __umaskval                 6687f1a4     LIBCMT:crt0dat.obj
 0003:0020f1a8       ___argc                    6687f1a8     LIBCMT:crt0dat.obj
 0003:0020f1ac       ___argv                    6687f1ac     LIBCMT:crt0dat.obj
 0003:0020f1b0       ___wargv                   6687f1b0     LIBCMT:crt0dat.obj
 0003:0020f1b4       __environ                  6687f1b4     LIBCMT:crt0dat.obj
 0003:0020f1b8       ___initenv                 6687f1b8     LIBCMT:crt0dat.obj
 0003:0020f1bc       __wenviron                 6687f1bc     LIBCMT:crt0dat.obj
 0003:0020f1c0       ___winitenv                6687f1c0     LIBCMT:crt0dat.obj
 0003:0020f1c4       __pgmptr                   6687f1c4     LIBCMT:crt0dat.obj
 0003:0020f1c8       __wpgmptr                  6687f1c8     LIBCMT:crt0dat.obj
 0003:0020f1cc       __exitflag                 6687f1cc     LIBCMT:crt0dat.obj
 0003:0020f1d0       __C_Termination_Done       6687f1d0     LIBCMT:crt0dat.obj
 0003:0020f1d4       __C_Exit_Done              6687f1d4     LIBCMT:crt0dat.obj
 0003:0020f600       ___lconv_static_null       6687f600     LIBCMT:lconv.obj
 0003:0020f608       ?__pInconsistency@@3P6AXXZA 6687f608     LIBCMT:hooks.obj
 0003:0020f62c       ___pPurecall               6687f62c     LIBCMT:inithelp.obj
 0003:0020f630       __outputformat             6687f630     LIBCMT:outputformat.obj
 0003:0020f708       __commode                  6687f708     LIBCMT:ncommode.obj
 0003:0020f720       ?pArgList@UnDecorator@@0PAVReplicator@@A 6687f720     LIBCMT:undname.obj
 0003:0020f724       ?pZNameList@UnDecorator@@0PAVReplicator@@A 6687f724     LIBCMT:undname.obj
 0003:0020f728       ?pTemplateArgList@UnDecorator@@0PAVReplicator@@A 6687f728     LIBCMT:undname.obj
 0003:0020f72c       ?gName@UnDecorator@@0PBDB  6687f72c     LIBCMT:undname.obj
 0003:0020f730       ?name@UnDecorator@@0PBDB   6687f730     LIBCMT:undname.obj
 0003:0020f734       ?outputString@UnDecorator@@0PADA 6687f734     LIBCMT:undname.obj
 0003:0020f738       ?maxStringLength@UnDecorator@@0HA 6687f738     LIBCMT:undname.obj
 0003:0020f73c       ?disableFlags@UnDecorator@@0KA 6687f73c     LIBCMT:undname.obj
 0003:0020f740       ?m_pGetParameter@UnDecorator@@0P6APADJ@ZA 6687f740     LIBCMT:undname.obj
 0003:0020f744       ?fExplicitTemplateParams@UnDecorator@@0_NA 6687f744     LIBCMT:undname.obj
 0003:0020f745       ?fGetTemplateArgumentList@UnDecorator@@0_NA 6687f745     LIBCMT:undname.obj
 0003:0020f748       __fmode                    6687f748     LIBCMT:txtmode.obj
 0003:0020f750       __debugger_hook_dummy      6687f750     <common>
 0003:0020f754       ___use_sse2_mathfcns       6687f754     <common>
 0003:0020f758       ___env_initialized         6687f758     <common>
 0003:0020f75c       ___onexitend               6687f75c     <common>
 0003:0020f760       ___onexitbegin             6687f760     <common>
 0003:0020f764       ___mbctype_initialized     6687f764     <common>
 0003:0020f768       ___dyn_tls_init_callback   6687f768     <common>
 0003:0020f76c       ___sbh_cntHeaderList       6687f76c     <common>
 0003:0020f770       ___sbh_pHeaderList         6687f770     <common>
 0003:0020f774       ___sbh_threshold           6687f774     <common>
 0003:0020f778       ___sbh_pHeaderScan         6687f778     <common>
 0003:0020f77c       ___sbh_sizeHeaderList      6687f77c     <common>
 0003:0020f780       ___sbh_indGroupDefer       6687f780     <common>
 0003:0020f784       ___active_heap             6687f784     <common>
 0003:0020f788       ___sse2_available          6687f788     <common>
 0003:0020f78c       __nhandle                  6687f78c     <common>
 0003:0020f7a0       ___pioinfo                 6687f7a0     <common>
 0003:0020f8a0       __acmdln                   6687f8a0     <common>
 0003:0020f8a4       __pDestructExceptionObject 6687f8a4     <common>
 0003:0020f8a8       ___piob                    6687f8a8     <common>
 0003:0020f8c0       __bufin                    6687f8c0     <common>
 0003:002108c0       __nstream                  668808c0     <common>

 entry point at        0001:0004b7b4

 Static symbols

 0001:00000a20       ?initKeyArray@@YAXPAUConfigVar@@HH@Z 66601a20 f   config.obj
 0001:00002ca0       ?parseInt@@YAHPADPAPAD@Z   66603ca0 f   config.obj
 0001:00002d40       ?parseValues8@@YAXPAD0H@Z  66603d40 f   config.obj
 0001:00002e10       ?parseValues32@@YAXPAHPADH@Z 66603e10 f   config.obj
 0001:000034a0       ?InitValues@@YAXXZ         666044a0 f   config.obj
 0001:00003770       ?changeLogPath@@YAHPAD@Z   66604770 f   config.obj
 0001:00003910       ?loadConfig@@YAXPAD@Z      66604910 f   config.obj
 0001:00004120       ?loadTagFile@@YAXPAD@Z     66605120 f   config.obj
 0001:000042d0       ?loadSymbolFile@@YAXPAD@Z  666052d0 f   config.obj
 0001:000044d0       ?isNumber@@YAHPAD@Z        666054d0 f   config.obj
 0001:00005400       ?doPatchCALL@@YAXHHH@Z     66606400 f   install.obj
 0001:00005450       ?doPatchJMP@@YAXHHH@Z      66606450 f   install.obj
 0001:000054a0       ?doPatchFILL@@YAXHHH@Z     666064a0 f   install.obj
 0001:000054f0       ?doPatchVALUE@@YAXHHH@Z    666064f0 f   install.obj
 0001:00005700       ?parseOriginalCode@@YAHPADH0HPAH@Z 66606700 f   install.obj
 0001:00008ff0       ?InstallPatchAfterLoad@@YAXXZ 66609ff0 f   install.obj
 0001:00009020       ?installD2PatchesAfterLoad@@YAHXZ 6660a020 f   install.obj
 0001:00009380       ?installNetworkRecvPatch@@YAHXZ 6660a380 f   install.obj
 0001:000093d0       ?installPatchToggle@@YAHXZ 6660a3d0 f   install.obj
 0001:00009490       ?installD2Patches@@YAHXZ   6660a490 f   install.obj
 0001:0000b740       ?ReloadDll@@YAHXZ          6660c740 f   install.obj
 0001:0000b7a0       ?ReloadConfig@@YAHXZ       6660c7a0 f   install.obj
 0001:0000b8a0       _stat                      6660c8a0 f   install.obj
 0001:0000b8a0       _stat                      6660c8a0 f   install.obj
 0001:0000c430       ?d2msg@@YAXHPA_WH@Z        6660d430 f   common.obj
 0001:0000e850       ?comparePet@@YAHPBX0@Z     6660f850 f   common.obj
 0001:0000e850       ?compareItem@@YAHPBX0@Z    6660f850 f   common.obj
 0001:0000e850       ?comparePvp@@YAHPBX0@Z     6660f850 f   common.obj
 0001:0000f3a0       ?recvPacket40@@YIXPAUWorld@@PAUUnitAny@@@Z 666103a0 f   dbg.obj
 0001:0000f660       ?LoadUiImagePatch_ASM@@YAXXZ 66610660 f   dbg.obj
 0001:0000f680       ?loadUiImage@@YIXPADH@Z    66610680 f   dbg.obj
 0001:0000f6d0       ?LoadUiImageEndPatch_ASM@@YAXXZ 666106d0 f   dbg.obj
 0001:0000f6f0       ?loadUiImageEnd@@YIXH@Z    666106f0 f   dbg.obj
 0001:0000f730       ?LoadUiImageSubpathPatch_ASM@@YAXXZ 66610730 f   dbg.obj
 0001:0000f750       ?loadUiImageSubpath@@YIXPADH@Z 66610750 f   dbg.obj
 0001:0000f7a0       ?AllocMemoryPatch_ASM@@YAXXZ 666107a0 f   dbg.obj
 0001:0000f7c0       ?allocMemDbg@@YIXPAHHH@Z   666107c0 f   dbg.obj
 0001:0000f850       ?sendPacket43E0Patch_ASM@@YAXXZ 66610850 f   dbg.obj
 0001:0000f870       ?sendPacket43E0@@YIXPADHH@Z 66610870 f   dbg.obj
 0001:0000f8c0       ?sendPacket3Patch_ASM@@YAXXZ 666108c0 f   dbg.obj
 0001:0000f8e0       ?sendPacket3@@YIXDFH@Z     666108e0 f   dbg.obj
 0001:00010140       ?gameStart@@YAXXZ          66611140 f   loop.obj
 0001:00010480       ?checkTag@@YAXPAD@Z        66611480 f   loop.obj
 0001:00010ea0       ?updateTargetName@@YAXXZ   66611ea0 f   map.obj
 0001:000116d0       ?LoadBmpCellFile@@YAPAUCellFile@@PAD@Z 666126d0 f   map.obj
 0001:00011780       ?InitCellFile@@YAPAUCellFile@@PAU1@@Z 66612780 f   map.obj
 0001:00011890       ?DeleteCellFile@@YAXPAUCellFile@@@Z 66612890 f   map.obj
 0001:00011bf0       ?modifyRescueBarTarget@@YAXXZ 66612bf0 f   map.obj
 0001:00011d30       ?target_sort@@YAXPAPAUMinimapLevelTarget@@@Z 66612d30 f   map.obj
 0001:00011e00       ?modifySealTarget@@YAXXZ   66612e00 f   map.obj
 0001:00012260       ?modifyTeleportTarget@@YAXXZ 66613260 f   map.obj
 0001:00012560       ?ResetAutomapNodeCellNo@@YAXPAUAutomapNode@@@Z 66613560 f   map.obj
 0001:00012950       ?wscolorcpy@@YAPA_WPA_W0E@Z 66613950 f   map.obj
 0001:00012950       ?wscolorcpy@@YAPA_WPA_W0E@Z 66613950 f   map.obj
 0001:00014230       ?isConnected@@YAHPAUAreaRectInfo@@0PAUtagPOINT@@@Z 66615230 f   map.obj
 0001:00014590       ?drawAreaRect@@YAXPAUAreaRectInfo@@H@Z 66615590 f   map.obj
 0001:00014890       ?DrawMinimapPoint@@YAXXZ   66615890 f   map.obj
 0001:00015a30       ?hex@@YAXPAU_iobuf@@HPAXH@Z 66616a30 f   packet.obj
 0001:00017540       ?drawAARect@@YAXPAURouteRect@@@Z 66618540 f   route.obj
 0001:000178a0       ?initRectRoute@@YAHPAUMinimapLevelTarget@@@Z 666188a0 f   route.obj
 0001:00017ca0       ?canTeleport@@YAHPAUAreaRectData@@PAURouteRect@@@Z 66618ca0 f   route.obj
 0001:00017e00       ?recycleRouteInfo@@YAXPAUMinimapLevelTarget@@@Z 66618e00 f   route.obj
 0001:00017f60       ?performRectRoute@@YAXPAUMinimapLevelTarget@@@Z 66618f60 f   route.obj
 0001:000189c0       ?recvWaypointMenu@@YIHPADH@Z 666199c0 f   waypoint.obj
 0001:00019850       ?setWinTitle@@YAXPAUHWND__@@H@Z 6661a850 f   winmsg.obj
 0001:0001a7d0       ?keyDown@@YIHHH@Z          6661b7d0 f   winmsg.obj
 0001:0001aa80       ?keyUp@@YIHHH@Z            6661ba80 f   winmsg.obj
 0001:0001aca0       ?createVersionTextBox@@YAXXZ 6661bca0 f   winmsg.obj
 0001:0001adb0       ?debugMsDrawUnitStart@@YAXXZ 6661bdb0 f   winmsg.obj
 0001:0001ae30       ?beforeDrawControl@@YAXXZ  6661be30 f   winmsg.obj
 0001:0001ae50       ?debugMsDrawControlStart@@YAXXZ 6661be50 f   winmsg.obj
 0001:0001ae90       ?debugMsDrawControlEnd@@YAXXZ 6661be90 f   winmsg.obj
 0001:0001aef0       ?shouldSkipAllDrawing@@YAHXZ 6661bef0 f   winmsg.obj
 0001:0001af70       ?clearScreen@@YAXXZ        6661bf70 f   winmsg.obj
 0001:0001b0c0       ?mainMenuLoop@@YAXXZ       6661c0c0 f   winmsg.obj
 0001:0001ba90       ?checkWeapon@@YAXPAUUnitAny@@@Z 6661ca90 f   GameMonitor.obj
 0001:0001bb90       ?checkItem@@YAXPAUUnitAny@@H@Z 6661cb90 f   GameMonitor.obj
 0001:0001dd80       ?recvState@@YIXPAE@Z       6661ed80 f   GameMonitor.obj
 0001:00024ab0       ?rescanMercPointers@@YAXXZ 66625ab0 f   dangerous.obj
 0001:00025db0       ?checkQuest@@YAXHHHPAD@Z   66626db0 f   quest.obj
 0001:000261c0       ?questAlert@@YAXXZ         666271c0 f   quest.obj
 0001:000270d0       ?drawQuestState@@YAXPAG0HHH@Z 666280d0 f   quest.obj
 0001:000294c0       ?switchTo@@YAXH@Z          6662a4c0 f   bo.obj
 0001:000295c0       ?useSkill@@YAHH@Z          6662a5c0 f   bo.obj
 0001:00029930       _time                      6662a930 f   d2s.obj
 0001:0002a9a0       ?hasProp@@YAHPAUUnitAny@@HH@Z 6662b9a0 f   DropProtection.obj
 0001:0002ae20       ?deleteCharacterCallback@@YIXPAD0@Z 6662be20 f   DropProtection.obj
 0001:0002aeb0       ?canDeleteCharacter@@YIHPAUD2Character@@@Z 6662beb0 f   DropProtection.obj
 0001:0002b480       ?skipMenuItem@@YIHPAUMenuItem@@@Z 6662c480 f   DropProtection.obj
 0001:0002bb30       ?doEnchant@@YAHPAUUnitAny@@@Z 6662cb30 f   enchant.obj
 0001:0002cbd0       ?sortGameList@@YAXXZ       6662dbd0 f   mcp.obj
 0001:0002cc10       ?compareMcp05Game@@YAHPBX0@Z 6662dc10 f   mcp.obj
 0001:0002cc60       ?showGameListDifficulty@@YIXPAXPAD@Z 6662dc60 f   mcp.obj
 0001:0002cec0       ?compareCharTag@@YAHPBX0@Z 6662dec0 f   login.obj
 0001:0002d3f0       ?c2w@@YAXPADPA_W@Z         6662e3f0 f   login.obj
 0001:0002d4c0       ?selectChar@@YIXH@Z        6662e4c0 f   login.obj
 0001:0002f840       ?teamMemberInArea@@YAHH@Z  66630840 f   multi.obj
 0001:0002f8e0       ?interactObject@@YAXXZ     666308e0 f   multi.obj
 0001:0002ff20       ?sendStartFollowCmd@@YAHPAUD2Window@@@Z 66630f20 f   multi.obj
 0001:0002ff50       ?sendStopFollowCmd@@YAHPAUD2Window@@@Z 66630f50 f   multi.obj
 0001:000312b0       ?checkItems@@YAXHH@Z       666322b0 f   NpcTrade.obj
 0001:000313f0       ?checkItem@@YAXPAUUnitAny@@H@Z 666323f0 f   NpcTrade.obj
 0001:00032d00       ?getCube@@YAPAUUnitAny@@XZ 66633d00 f   QuickSwapItem.obj
 0001:00032d70       ?updateInv@@YAXPAUInventoryType@@H@Z 66633d70 f   QuickSwapItem.obj
 0001:00033a60       ?getGlobalBeltSlotPosition@@YIXPAH0@Z 66634a60 f   resolution.obj
 0001:00033b10       ?getGlobalBeltRecord@@YIXPAH@Z 66634b10 f   resolution.obj
 0001:00033bd0       ?adjWinRectEx@@YGHHPAUtagRECT@@HHH@Z 66634bd0 f   resolution.obj
 0001:00034680       ?isAutoSkill@@YAHPAUSkill@@@Z 66635680 f   skill.obj
 0001:000347e0       ?checkAutoSkill1@@YAXHH@Z  666357e0 f   skill.obj
 0001:00034ff0       ?updateSkill@@YAXPAUAutoSkillInfo@@H@Z 66635ff0 f   skill.obj
 0001:00035670       ?processStacking@@YAXXZ    66636670 f   skill.obj
 0001:000357b0       ?canUse@@YAHPAUAutoSkillInfo@@@Z 666367b0 f   skill.obj
 0001:00035890       ?checkUnit@@YAXPAUUnitAny@@@Z 66636890 f   skill.obj
 0001:00037010       ?getLvPercent@@YAHPAUUnitAny@@@Z 66638010 f   Snapshot.obj
 0001:000372a0       ?openSnapshotFile@@YAPAU_iobuf@@PAD00D0H@Z 666382a0 f   Snapshot.obj
 0001:00037a90       ?dumpStats@@YAHPAU_iobuf@@PAUStat@@@Z 66638a90 f   Snapshot.obj
 0001:00037fa0       ?dumpInventory@@YAXXZ      66638fa0 f   Snapshot.obj
 0001:000384b0       ?dumpUnit@@YAXPAU_iobuf@@PAUUnitAny@@@Z 666394b0 f   Snapshot.obj
 0001:00038c50       ?countGemRunes@@YAXPAU_iobuf@@PAUUnitAny@@@Z 66639c50 f   Snapshot.obj
 0001:00039320       ?dumpItem@@YAXPAU_iobuf@@PAUUnitAny@@HH@Z 6663a320 f   Snapshot.obj
 0001:0003a0d0       ?dumpItems@@YAXPAU_iobuf@@PAUUnitAny@@H@Z 6663b0d0 f   Snapshot.obj
 0001:0003a530       ?isStartEq@@YAHPAUUnitAny@@@Z 6663b530 f   Snapshot.obj
 0001:0003a5a0       ?dumpQuests@@YAXPAU_iobuf@@@Z 6663b5a0 f   Snapshot.obj
 0001:0003ad10       ?dumpTodo@@YAXPAU_iobuf@@HPADPAUQ@@@Z 6663bd10 f   Snapshot.obj
 0001:0003ae30       ?loadQuests@@YAXXZ         6663be30 f   Snapshot.obj
 0001:0003af00       ?dumpWaypoints@@YAXPAU_iobuf@@@Z 6663bf00 f   Snapshot.obj
 0001:0003b0a0       ?dumpSkills@@YAXPAU_iobuf@@PAUUnitAny@@@Z 6663c0a0 f   Snapshot.obj
 0001:0003b1b0       ?dumpSkill@@YAXPAU_iobuf@@PAUSkill@@@Z 6663c1b0 f   Snapshot.obj
 0001:0003b2c0       ?dumpObject@@YAXPAU_iobuf@@PAUUnitAny@@@Z 6663c2c0 f   Snapshot.obj
 0001:0003b420       ?dumpAreatile@@YAXPAU_iobuf@@PAUUnitAny@@@Z 6663c420 f   Snapshot.obj
 0001:0003b9b0       ?doDeleteSnapshotFile@@YAXPAD@Z 6663c9b0 f   Snapshot.obj
 0001:0003c720       ?checkSummonSkillLevel@@YAXXZ 6663d720 f   summon.obj
 0001:0003c870       ?getSummonCount@@YAHH@Z    6663d870 f   summon.obj
 0001:0003c8a0       ?needSummon@@YAHXZ         6663d8a0 f   summon.obj
 0001:0003cab0       ?switchSummonSkill@@YAXH@Z 6663dab0 f   summon.obj
 0001:0003cae0       ?checkUnit@@YAXPAUUnitAny@@@Z 6663dae0 f   summon.obj
 0001:0003d4d0       ?findBoss@@YAHHH@Z         6663e4d0 f   teleport.obj
 0001:0003d5a0       ?resetMonsters@@YAXXZ      6663e5a0 f   teleport.obj
 0001:0003d620       ?findMonsters@@YAXXZ       6663e620 f   teleport.obj
 0001:0003d970       ?addMonMap@@YAXHH@Z        6663e970 f   teleport.obj
 0001:0003d9d0       ?calBoundingBox@@YAXXZ     6663e9d0 f   teleport.obj
 0001:0003db10       ?getMonDis@@YAHPAUtagPOINT@@@Z 6663eb10 f   teleport.obj
 0001:0003db70       ?dis@@YAHPAUtagPOINT@@0@Z  6663eb70 f   teleport.obj
 0001:0003dba0       ?interact@@YAXPAUtagPOINT@@HH@Z 6663eba0 f   teleport.obj
 0001:0003dc80       ?interactObj@@YAXPAUUnitAny@@@Z 6663ec80 f   teleport.obj
 0001:0003de10       ?teleportForward@@YAHXZ    6663ee10 f   teleport.obj
 0001:0003e230       ?addPossiblePostions@@YAXPAUAreaRectData@@0PAUtagPOINT@@H@Z 6663f230 f   teleport.obj
 0001:0003e650       ?disM256@@YAHPAUtagPOINT@@0@Z 6663f650 f   teleport.obj
 0001:0003e680       ?hasMon@@YAHHH@Z           6663f680 f   teleport.obj
 0001:0003e6e0       ?findValidPosition@@YAHXZ  6663f6e0 f   teleport.obj
 0001:0003e7c0       ?comparePos@@YAHPBX0@Z     6663f7c0 f   teleport.obj
 0001:0003e7e0       ?teleportToSafety@@YAHXZ   6663f7e0 f   teleport.obj
 0001:0003ea80       ?savePrevMonsters@@YAXXZ   6663fa80 f   teleport.obj
 0001:0003eb50       ?findSafestPosition@@YAHXZ 6663fb50 f   teleport.obj
 0001:0003ebd0       ?tpToBoss@@YAHXZ           6663fbd0 f   teleport.obj
 0001:0003ed70       ?autoTarget@@YAHXZ         6663fd70 f   teleport.obj
 0001:0003eee0       ?telekinesisTarget@@YAHPAUUnitAny@@@Z 6663fee0 f   teleport.obj
 0001:0003f1f0       ?findTelekinesisPosition@@YAHXZ 666401f0 f   teleport.obj
 0001:0003f2e0       ?autoDuranceofHateLevel3@@YAHXZ 666402e0 f   teleport.obj
 0001:0003f4c0       ?dumpProp@@YAXPAU_iobuf@@PAUItemProp@@@Z 666404c0 f   txt.obj
 0001:0003f640       ?dumpItemTxt@@YAXXZ        66640640 f   txt.obj
 0001:0003f760       ?dumpUniqueTxt@@YAXXZ      66640760 f   txt.obj
 0001:0003f920       ?dumpSetTxt@@YAXXZ         66640920 f   txt.obj
 0001:0003ff90       ?setStash@@YAXHH@Z         66640f90 f   panel.obj
 0001:000400f0       ?setCube@@YAXH@Z           666410f0 f   panel.obj
 0001:00040270       ?setCharInv@@YAXHH@Z       66641270 f   panel.obj
 0001:00040490       ?loadInvChar8x10@@YAXXZ    66641490 f   panel.obj
 0001:000404f0       ?calDrawOffset@@YAXXZ      666414f0 f   panel.obj
 0001:00040580       ?getEquipmentSlotLayout@@YIXPAH0@Z 66641580 f   panel.obj
 0001:00040620       ?getEquipInvDrawOffset@@YAXPAH0PAX@Z 66641620 f   panel.obj
 0001:00040720       ?getInventoryGridLayout@@YIXPAH0@Z 66641720 f   panel.obj
 0001:000407d0       ?getInventoryPosition@@YIXPAH0@Z 666417d0 f   panel.obj
 0001:00040880       ?addSkillPatch@@YIXH@Z     66641880 f   panel.obj
 0001:00040900       ?recvCommand26@@YIXPAD@Z   66641900 f   panel.obj
 0001:00040c80       ?guessInvType@@YAHHH@Z     66641c80 f   panel.obj
 0001:00040ca0       ?guessStashType@@YAHHH@Z   66641ca0 f   panel.obj
 0001:00040cc0       ?guessCubeType@@YAHHH@Z    66641cc0 f   panel.obj
 0001:00041c90       ?SetSkillBaseLevelOnClient@@YAXPAXPAUUnitAny@@HHH@Z 66642c90 f   server.obj
 0001:00042200       ?resetQuest@@YAXPAUWorld@@PAUUnitAny@@H@Z 66643200 f   server.obj
 0001:00042470       ?skipDropTxt@@YIHH@Z       66643470 f   server.obj
 0001:00042530       ?gameStart@@YIXPAUNetClient@@@Z 66643530 f   server.obj
 0001:00042580       ?createHackmapMsg@@YAXXZ   66643580 f   server.obj
 0001:00042700       ?serverRecvTest@@YAXPAUWorld@@PAUUnitAny@@H@Z 66643700 f   server.obj
 0001:000427c0       ?necSummon@@YAPAUUnitAny@@PAUNecSummon@@@Z 666437c0 f   server.obj
 0001:00042d00       ?clientChat@@YIXPAD@Z      66643d00 f   admin.obj
 0001:00043220       ?selectUnique@@YIHHH@Z     66644220 f   admin.obj
 0001:00043370       ?selectSet@@YIHPAHH@Z      66644370 f   admin.obj
 0001:00044820       ?dropItem@@YAPAUUnitAny@@PAUWorld@@PAU1@HHHH@Z 66645820 f   admin.obj
 0001:000449c0       ?getFreePos@@YAPAUAreaRectData@@PAU1@PAUtagPOINT@@1H@Z 666459c0 f   admin.obj
 0001:000449e0       ?dropRuneword@@YAPAUUnitAny@@PAUWorld@@PAU1@HHH@Z 666459e0 f   admin.obj
 0001:00044c50       ?dropUnique@@YAPAUUnitAny@@PAUWorld@@PAU1@HHH@Z 66645c50 f   admin.obj
 0001:00044d90       ?dropSet@@YAPAUUnitAny@@PAUWorld@@PAU1@HHH@Z 66645d90 f   admin.obj
 0001:00044e70       ?setItemStats@@YAXPAUUnitAny@@PAUd2stats@@@Z 66645e70 f   admin.obj
 0001:00044f80       ?parseStats@@YAPADPADPAUd2stats@@@Z 66645f80 f   admin.obj
 0001:00046790       ?setStat@@YAHPAUd2stats@@HHH@Z 66647790 f   admin.obj
 0001:00046820       ?pickupItemTo@@YAXPAUWorld@@PAUUnitAny@@1H@Z 66647820 f   admin.obj
 0001:000477cd       _flsall                    666487cd f   LIBCMT:fflush.obj
 0001:00048020       _swap                      66649020 f   LIBCMT:qsort.obj
 0001:00048050       _shortsort                 66649050 f   LIBCMT:qsort.obj
 0001:00048abf       ?strtoxl@@YAKPAUlocaleinfo_struct@@PBDPAPBDHH@Z 66649abf f   LIBCMT:strtol.obj
 0001:00049d23       _IsRootUNCName             6664ad23 f   LIBCMT:stati32.obj
 0001:00049d9d       __fullpath_helper          6664ad9d f   LIBCMT:stati32.obj
 0001:0004ae96       ?_strupr_s_l_stat@@YAHPADIPAUlocaleinfo_struct@@@Z 6664be96 f   LIBCMT:strupr.obj
 0001:0004b0ae       ?wcstoxl@@YAKPAUlocaleinfo_struct@@PB_WPAPB_WHH@Z 6664c0ae f   LIBCMT:wcstol.obj
 0001:0004b6be       ___DllMainCRTStartup       6664c6be f   LIBCMT:dllcrt0.obj
 0001:0004b7d7       ?CPtoLCID@@YAHH@Z          6664c7d7 f   LIBCMT:mbctype.obj
 0001:0004b806       ?setSBCS@@YAXPAUthreadmbcinfostruct@@@Z 6664c806 f   LIBCMT:mbctype.obj
 0001:0004b86a       ?setSBUpLow@@YAXPAUthreadmbcinfostruct@@@Z 6664c86a f   LIBCMT:mbctype.obj
 0001:0004baa1       ?getSystemCP@@YAHH@Z       6664caa1 f   LIBCMT:mbctype.obj
 0001:0004c12b       __updatetlocinfoEx_nolock  6664d12b f   LIBCMT:setlocal.obj
 0001:0004d70d       _write_char                6664e70d f   LIBCMT:output.obj
 0001:0004d740       _write_multi_char          6664e740 f   LIBCMT:output.obj
 0001:0004d766       _write_string              6664e766 f   LIBCMT:output.obj
 0001:0004e857       _fastzero_I                6664f857 f   LIBCMT:p4_memset.obj
 0001:0004e93d       _has_osfxsr_set            6664f93d f   LIBCMT:cpu_disp.obj
 0001:0004f7ca       _fastcopy_I                666507ca f   LIBCMT:p4_memcpy.obj
 0001:0004f9ec       ?__crtLCMapStringA_stat@@YAHPAUlocaleinfo_struct@@KKPBDHPADHHH@Z 666509ec f   LIBCMT:a_map.obj
 0001:000500b7       __initterm                 666510b7 f   LIBCMT:crt0dat.obj
 0001:0005017d       _doexit                    6665117d f   LIBCMT:crt0dat.obj
 0001:00050489       __shift                    66651489 f   LIBCMT:cvt.obj
 0001:000504ce       __cftoe2_l                 666514ce f   LIBCMT:cvt.obj
 0001:00050aa0       __cftof2_l                 66651aa0 f   LIBCMT:cvt.obj
 0001:00050f3c       __unwind_handler4          66651f3c f   LIBCMT:exsup4.obj
 0001:00051dd8       __onexit_nolock            66652dd8 f   LIBCMT:onexit.obj
 0001:0005362a       _parse_cmdline             6665462a f   LIBCMT:stdargv.obj
 0001:00053c19       ?__crtGetStringTypeA_stat@@YAHPAUlocaleinfo_struct@@KPBDHPAGHHH@Z 66654c19 f   LIBCMT:a_str.obj
 0001:0005526c       _siglookup                 6665626c f   LIBCMT:winsig.obj
 0001:00055974       __unwind_handler           66656974 f   LIBCMT:exsup.obj
 0001:0005628e       __tzset_nolock             6665728e f   LIBCMT:tzset.obj
 0001:000565d4       _cvtdate                   666575d4 f   LIBCMT:tzset.obj
 0001:000567cb       __isindst_nolock           666577cb f   LIBCMT:tzset.obj
 0001:00056b34       __tsopen_nolock            66657b34 f   LIBCMT:open.obj
 0001:00057885       ?x_ismbbtype_l@@YAHPAUlocaleinfo_struct@@IHH@Z 66658885 f   LIBCMT:ismbbyte.obj
 0001:0005965d       __hw_cw                    6665a65d f   LIBCMT:_ieee87_.obj
 0001:000596eb       ___hw_cw_sse2              6665a6eb f   LIBCMT:_ieee87_.obj
 0001:0005a8b3       ?strncnt@@YAHPBDH@Z        6665b8b3 f   LIBCMT:a_cmp.obj
 0001:0005a8d1       ?__crtCompareStringA_stat@@YAHPAUlocaleinfo_struct@@KKPBDH1HH@Z 6665b8d1 f   LIBCMT:a_cmp.obj
 0001:0005ad7d       _findenv                   6665bd7d f   LIBCMT:setenv.obj
 0001:0005adcf       _copy_environ              6665bdcf f   LIBCMT:setenv.obj
 0001:0005b1a8       ??__Fnomem@?5???2@YAPAXI@Z@YAXXZ 6665c1a8 f   LIBCMT:new.obj
