 d2hackmap

 Timestamp is 6870f7d4 (Fri Jul 11 19:39:00 2025)

 Preferred load address is 66000000

 Start         Length     Name                   Class
 0001:00000000 00074d84H .text                   CODE
 0001:00074d84 00000014H .text$yd                CODE
 0002:00000000 0000021cH .idata$5                DATA
 0002:0000021c 00000004H .CRT$XCA                DATA
 0002:00000220 00000004H .CRT$XCZ                DATA
 0002:00000224 00000004H .CRT$XIA                DATA
 0002:00000228 00000014H .CRT$XIC                DATA
 0002:0000023c 00000004H .CRT$XIZ                DATA
 0002:00000240 00000004H .CRT$XPA                DATA
 0002:00000244 00000004H .CRT$XPX                DATA
 0002:00000248 00000004H .CRT$XPXA               DATA
 0002:0000024c 00000004H .CRT$XPZ                DATA
 0002:00000250 00000004H .CRT$XTA                DATA
 0002:00000254 00000004H .CRT$XTZ                DATA
 0002:00000260 000193e0H .rdata                  DATA
 0002:00019640 000000dcH .rdata$r                DATA
 0002:00019720 0000000cH .rdata$sxdata           DATA
 0002:0001972c 00000004H .rtc$IAA                DATA
 0002:00019730 00000004H .rtc$IZZ                DATA
 0002:00019734 00000004H .rtc$TAA                DATA
 0002:00019738 00000004H .rtc$TZZ                DATA
 0002:00019740 00000754H .xdata$x                DATA
 0002:00019e94 0000003cH .idata$2                DATA
 0002:00019ed0 00000014H .idata$3                DATA
 0002:00019ee4 0000021cH .idata$4                DATA
 0002:0001a100 0000096eH .idata$6                DATA
 0002:0001aa70 000000c7H .edata                  DATA
 0003:00000000 0000afc8H .data                   DATA
 0003:0000afe0 00206684H .bss                    DATA

  Address         Publics by Value              Rva+Base       Lib:Object

 0000:00000000       __except_list              00000000     <absolute>
 0000:00000003       ___safe_se_handler_count   00000003     <absolute>
 0000:00000000       ___ImageBase               66000000     <linker-defined>
 0001:00000000       ?bitstream_init@@YAXPAUbitstream@@PAX1@Z 66001000 f   bitstream.obj
 0001:00000040       ?bitstream_seek@@YAXPAUbitstream@@H@Z 66001040 f   bitstream.obj
 0001:00000080       ?bitstream_rbit@@YAHPAUbitstream@@H@Z 66001080 f   bitstream.obj
 0001:00000170       ?bitstream_wbit@@YAHPAUbitstream@@IH@Z 66001170 f   bitstream.obj
 0001:00000250       ?bitstream_wbit_done@@YAXPAUbitstream@@@Z 66001250 f   bitstream.obj
 0001:000002d0       ?compareConfigVar@@YAHPBX0@Z 660012d0 f   config.obj
 0001:000002f0       ?compareSymbol@@YAHPBX0@Z  660012f0 f   config.obj
 0001:00000310       ?findConfigVar@@YAPAUConfigVar@@PAD@Z 66001310 f   config.obj
 0001:00000400       ?addConfigVar@@YAXPAUConfigVar@@@Z 66001400 f   config.obj
 0001:00000470       ?FixValues@@YAXXZ          66001470 f   config.obj
 0001:000004b0       ?formatKey@@YAXPADH@Z      660014b0 f   config.obj
 0001:00000560       ?formatKeyW@@YAXPA_WH@Z    66001560 f   config.obj
 0001:00000690       ?setupKey@@YAXPAUToggleVar@@@Z 66001690 f   config.obj
 0001:000006e0       ?addExtraKey@@YAPAUToggleVar@@H@Z 660016e0 f   config.obj
 0001:00000740       ?InitKeyEvent@@YAXXZ       66001740 f   config.obj
 0001:00000af0       ?AddWarningMessage@@YAXPADH@Z 66001af0 f   config.obj
 0001:00000c30       ?ShowWarningMessage@@YAXXZ 66001c30 f   config.obj
 0001:00000c90       ?isquote@@YADD@Z           66001c90 f   config.obj
 0001:00000cc0       ?filterSpace@@YAXPAD@Z     66001cc0 f   config.obj
 0001:00000d80       ?splitLine@@YAXPADPAPAD1@Z 66001d80 f   config.obj
 0001:00000e50       ?strchr@@YAPADPADH@Z       66001e50 f i config.obj
 0001:00000e70       ?strrchr@@YAPADPADH@Z      66001e70 f i config.obj
 0001:00000e90       ?findSymbol@@YAPAUSymbol@@PAD@Z 66001e90 f   config.obj
 0001:00000f50       ?doneNameValues@@YAXXZ     66001f50 f   config.obj
 0001:00000ff0       ?addNameValue@@YAXPAD0@Z   66001ff0 f   config.obj
 0001:00001080       ?replaceSymbols@@YAPADPAD@Z 66002080 f   config.obj
 0001:00001420       ?ConvertToWString@@YAHPA_WPADH@Z 66002420 f   config.obj
 0001:00001450       ?ConvertToD2String@@YAXPA_WPADH@Z 66002450 f   config.obj
 0001:000015a0       ?StoreArrayConfig@@YAHPAUConfigVar@@HHPAD1HH@Z 660025a0 f   config.obj
 0001:00001ac0       ?LoadConfigFile@@YAHPADH@Z 66002ac0 f   config.obj
 0001:00002360       ?strstr@@YAPADPADPBD@Z     66003360 f i config.obj
 0001:00004b10       ?ReleaseMem@@YAXXZ         66005b10 f   DllMain.obj
 0001:00004b30       _DllMain@12                66005b30 f   DllMain.obj
 0001:00004d00       _QueryInterface@0          66005d00 f   DllMain.obj
 0001:00004d20       _PatchClient               66005d20 f   DllMain.obj
 0001:00004d70       _MainMenuFlushFramebuf@0   66005d70 f   DllMain.obj
 0001:00004d90       _PatchServer@4             66005d90 f   DllMain.obj
 0001:00004dd0       ?guessEnchantLevel@@YAHXZ  66005dd0 f   guess.obj
 0001:00004e80       ?guessBOLevel@@YAHH@Z      66005e80 f   guess.obj
 0001:000056b0       ?Install_AddConfigVars@@YAXXZ 660066b0 f   install.obj
 0001:000056f0       ?Install_FixValues@@YAXXZ  660066f0 f   install.obj
 0001:00005710       ?get_dll_addr@@YAPAUHINSTANCE__@@PAD@Z 66006710 f   install.obj
 0001:000057a0       ?VirtualProtect@@YAKKKK@Z  660067a0 f   install.obj
 0001:000057d0       ?WriteLocalBYTES@@YAXKPAXH@Z 660067d0 f   install.obj
 0001:00005820       ?FillLocalBYTES@@YAXKEH@Z  66006820 f   install.obj
 0001:00005880       ?InterceptLocalCode2@@YAXEKKH@Z 66006880 f   install.obj
 0001:00005900       ?InterceptLocalCode@@YAXEKKH@Z 66006900 f   install.obj
 0001:00005930       ?patchCall@@YAHPAD0HHHH0@Z 66006930 f   install.obj
 0001:00005980       ?patchJmp@@YAHPAD0HHHH0@Z  66006980 f   install.obj
 0001:000059d0       ?patchFill@@YAHPAD0HHHH0@Z 660069d0 f   install.obj
 0001:00005a20       ?patchValue@@YAHPAD0HHHH0@Z 66006a20 f   install.obj
 0001:00005a70       ?installPatch@@YAHP6AXHHH@ZPAD1HHHH1@Z 66006a70 f   install.obj
 0001:00005e00       ?removePatches@@YAHPAPAUInstalledPatch@@@Z 66006e00 f   install.obj
 0001:00005e80       ?init_d2_ptrs@@YAHH@Z      66006e80 f   install.obj
 0001:000098f0       ?init_d2_ptrs2@@YAHXZ      6600a8f0 f   install.obj
 0001:00009960       ?InstallPatchAfterLoad_ASM@@YAXXZ 6600a960 f   install.obj
 0001:00009c50       ?setResolutionPatch@@YAXH@Z 6600ac50 f   install.obj
 0001:00009ca0       ?MonitorPacket@@YAXXZ      6600aca0 f   install.obj
 0001:0000bfe0       ?check_d2ptrs@@YAXXZ       6600cfe0 f   install.obj
 0001:00013c70       ?Install@@YAHXZ            66014c70 f   install.obj
 0001:00014240       ?patchServer@@YAXXZ        66015240 f   install.obj
 0001:000142a0       @SetReloadFlag@8           660152a0 f   install.obj
 0001:000142d0       @SetBnetIp@4               660152d0 f   install.obj
 0001:000142f0       ?unpatchServer@@YAXXZ      660152f0 f   install.obj
 0001:00014340       ?Uninstall@@YAXXZ          66015340 f   install.obj
 0001:00014460       ?ReloadConfig@@YAHXZ       66015460 f   install.obj
 0001:000145c0       ?init_crypt_table@@YAXXZ   660155c0 f   mpq.obj
 0001:00014660       ?mpq_hashstring@@YAIPBDI@Z 66015660 f   mpq.obj
 0001:000146e0       ?saveMpqTable@@YAXXZ       660156e0 f   mpq.obj
 0001:00014790       ?add_mpq_path@@YIHPAD@Z    66015790 f   mpq.obj
 0001:000148c0       ?dump_mpq_path@@YIXH@Z     660158c0 f   mpq.obj
 0001:00014a60       ?storm268_patch_ASM@@YAXXZ 66015a60 f   mpq.obj
 0001:00014a90       ?common_addConfigVars@@YAXXZ 66015a90 f   common.obj
 0001:00014ad0       ?UnicodeFix2@@YAXPA_W@Z    66015ad0 f   common.obj
 0001:00014b60       ?MyMultiByteToWideChar@@YAHIKPBDHPA_WH@Z 66015b60 f   common.obj
 0001:00014ba0       ?GB2GBK@@YAXPAD@Z          66015ba0 f   common.obj
 0001:00014d20       ?readFully@@YAHPAU_iobuf@@PADH@Z 66015d20 f   common.obj
 0001:00014d80       ?getFileSize@@YAHPBD@Z     66015d80 f   common.obj
 0001:00014dd0       ?fileExist@@YAHPBD@Z       66015dd0 f   common.obj
 0001:00014df0       ?openFile@@YAPAU_iobuf@@PAD0@Z 66015df0 f   common.obj
 0001:00014f00       ?heap_strdup@@YAPADPAXPAD@Z 66015f00 f   common.obj
 0001:00014f80       ?loadFile@@YAPADPAXPAU_iobuf@@PAH@Z 66015f80 f   common.obj
 0001:000150d0       ?mainMenuMsg@@YAXPA_WH@Z   660160d0 f   common.obj
 0001:00015190       ?gameMessage@@YAXPADZZ     66016190 f   common.obj
 0001:000152a0       ?partyMessage@@YAXPADZZ    660162a0 f   common.obj
 0001:00015360       ?gameMessageW@@YAXPA_WZZ   66016360 f   common.obj
 0001:000153b0       ?gameMessageWColor@@YAXHPA_WZZ 660163b0 f   common.obj
 0001:00015410       ?partyMessageW@@YAXPA_WZZ  66016410 f   common.obj
 0001:00015460       ?partyMessageWColor@@YAXHPA_WZZ 66016460 f   common.obj
 0001:000154c0       ?get_cpu_usage@@YAHPAH0@Z  660164c0 f   common.obj
 0001:000155a0       ?getSkillClass@@YAHH@Z     660165a0 f   common.obj
 0001:000155f0       ?getSkillType@@YAHHH@Z     660165f0 f   common.obj
 0001:00015640       ?getSkillLevel@@YAHPAUUnitAny@@H@Z 66016640 f   common.obj
 0001:000157a0       ?getUnitRawDistance2@@YAHPAUUnitAny@@0@Z 660167a0 f   common.obj
 0001:000158b0       ?getUnitYardDistance2@@YAMPAUUnitAny@@0@Z 660168b0 f   common.obj
 0001:000158f0       ?saveDistanceMap@@YAXXZ    660168f0 f   common.obj
 0001:00015950       ?getDistanceM256@@YAHHH@Z  66016950 f   common.obj
 0001:00015a80       ?getPlayerDistanceM256@@YAHPAUUnitAny@@@Z 66016a80 f   common.obj
 0001:00015b10       ?getPlayerDistanceRaw@@YAMPAUUnitAny@@@Z 66016b10 f   common.obj
 0001:00015bb0       ?getPlayerDistanceYard@@YAMPAUUnitAny@@@Z 66016bb0 f   common.obj
 0001:00015be0       ?getRosterUnit@@YAPAURosterUnit@@H@Z 66016be0 f   common.obj
 0001:00015c20       ?getAreatileByTxt@@YAPAUUnitAny@@H@Z 66016c20 f   common.obj
 0001:00015c80       ?findObjectByTxt@@YAPAUUnitAny@@HHH@Z 66016c80 f   common.obj
 0001:00015d30       ?getPortalToArea@@YAPAUUnitAny@@HPAD@Z 66016d30 f   common.obj
 0001:00015e70       ?getAreatileTxtToLevel@@YAHH@Z 66016e70 f   common.obj
 0001:00015ed0       ?getSinglePlayerWorld@@YAPAUWorld@@XZ 66016ed0 f   common.obj
 0001:00015f00       ?encodeItem@@YAHPAUUnitAny@@PADH@Z 66016f00 f   common.obj
 0001:00015f40       ?hasSkill@@YAHH@Z          66016f40 f   common.obj
 0001:00015fc0       ?selectSkill@@YAXHH@Z      66016fc0 f   common.obj
 0001:00016010       ?switchLeftSkill@@YAXH@Z   66017010 f   common.obj
 0001:00016030       ?switchRightSkill@@YAXH@Z  66017030 f   common.obj
 0001:00016050       ?getSinglePlayerUnit@@YAPAUUnitAny@@HH@Z 66017050 f   common.obj
 0001:00016120       ?SendPacket@@YAXPAEH@Z     66017120 f   common.obj
 0001:000161b0       ?LeftClickType@@YAHHPAUUnitAny@@HH@Z 660171b0 f   common.obj
 0001:00016290       ?LeftClickPos@@YAHHH@Z     66017290 f   common.obj
 0001:000162b0       ?LeftClickUnit@@YAHPAUUnitAny@@@Z 660172b0 f   common.obj
 0001:000162d0       ?ShiftLeftClickUnit@@YAHPAUUnitAny@@@Z 660172d0 f   common.obj
 0001:00016320       ?ShiftLeftClickPos@@YAHHH@Z 66017320 f   common.obj
 0001:00016370       ?RightSkill@@YAHPAUUnitAny@@HH@Z 66017370 f   common.obj
 0001:000163c0       ?RightSkillPos@@YAHHH@Z    660173c0 f   common.obj
 0001:000163e0       ?RightSkillUnit@@YAHPAUUnitAny@@@Z 660173e0 f   common.obj
 0001:00016410       ?canUseSkillNow@@YAHPAUUnitAny@@H@Z 66017410 f   common.obj
 0001:00016430       ?skillUnusableAsm@@YAHPAUUnitAny@@PAUSkill@@@Z 66017430 f   common.obj
 0001:00016450       ?skillUnusable@@YAHPAUUnitAny@@PAUSkill@@@Z 66017450 f   common.obj
 0001:00016490       ?useBelt@@YAXHH@Z          66017490 f   common.obj
 0001:00016510       ?GameControlStart@@YAHH@Z  66017510 f   common.obj
 0001:000165a0       ?GameControlEnd@@YAHH@Z    660175a0 f   common.obj
 0001:00016620       ?GameControl@@YAXH@Z       66017620 f   common.obj
 0001:00016640       ?getGameControlKey@@YAHH@Z 66017640 f   common.obj
 0001:00016690       ?sqrt@@YAMM@Z              66017690 f i common.obj
 0001:000166b0       _sqrtf                     660176b0 f i common.obj
 0001:000166d0       ?StandStillPatch_ASM@@YAXXZ 660176d0 f   common.obj
 0001:000166f0       ?setBottomAlertMsg@@YAXHPA_WHHHH@Z 660176f0 f   common.obj
 0001:000167d0       ?setBottomAlertBg@@YAXHHH@Z 660177d0 f   common.obj
 0001:00016820       ?DrawCenterAlertMsg@@YAXXZ 66017820 f   common.obj
 0001:000169a0       ?GetAreaLevel@@YAHXZ       660179a0 f   common.obj
 0001:00016a00       ?GetPetByType@@YAPAUPetUnit@@PAUUnitAny@@H@Z 66017a00 f   common.obj
 0001:00016a50       ?GetUnitFromIdSafe@@YAPAUUnitAny@@KK@Z 66017a50 f   common.obj
 0001:00016ac0       ?GetUnitPet@@YAPAUUnitAny@@PAU1@@Z 66017ac0 f   common.obj
 0001:00016b00       ?getPlayerClass@@YAHH@Z    66017b00 f   common.obj
 0001:00016b40       ?GetUnitMagicStat@@YAKPAUUnitAny@@K@Z 66017b40 f   common.obj
 0001:00016b90       ?GetUnitResist@@YAHPAUUnitAny@@K@Z 66017b90 f   common.obj
 0001:00016be0       ?CheckUnitSelect@@YAHPAUUnitAny@@@Z 66017be0 f   common.obj
 0001:00016d10       ?GetItemILvlAfterCube@@YAHHHH@Z 66017d10 f   common.obj
 0001:00016dc0       ?GetItemAlvl@@YAHHHH@Z     66017dc0 f   common.obj
 0001:00016e40       ?GetTextWidth@@YAKPA_W@Z   66017e40 f   common.obj
 0001:00016e60       ?DrawD2Text@@YAXKPA_WHHKK@Z 66017e60 f   common.obj
 0001:00016ea0       ?DrawCenterText@@YAXKPA_WHHKHK@Z 66017ea0 f   common.obj
 0001:00016ef0       ?drawBgText@@YAHPA_WHHHH@Z 66017ef0 f   common.obj
 0001:00016f70       ?drawBgTextMiddle@@YAHPA_WHHHH@Z 66017f70 f   common.obj
 0001:00016fe0       ?drawBgTextLeft@@YAHPA_WHHHH@Z 66017fe0 f   common.obj
 0001:00017040       ?ExitGame@@YAXXZ           66018040 f   common.obj
 0001:00017080       ?GetGameLanguage@@YAHXZ    66018080 f   common.obj
 0001:00017140       ?getFcrFrame@@YAHHPAUUnitAny@@@Z 66018140 f   common.obj
 0001:00017400       ?IsFullWindow@@YAHXZ       66018400 f   common.obj
 0001:000174c0       ?getUnitOwnerId@@YAHPAUUnitAny@@@Z 660184c0 f   common.obj
 0001:00017690       ?testPvpFlag@@YAHH@Z       66018690 f   common.obj
 0001:000178a0       ?sameParty@@YAHH@Z         660188a0 f   common.obj
 0001:000178c0       ?isInRect@@YA_NPAUAreaRectData@@HH@Z 660188c0 f   common.obj
 0001:00017930       ?testPosition@@YAPAUAreaRectData@@PAU1@HH@Z 66018930 f   common.obj
 0001:00017950       ?portalToLevel@@YAHPAUWorld@@PAUUnitAny@@H@Z 66018950 f   common.obj
 0001:00017b40       ?hasPortalInRect@@YAHPAUAreaRectData@@H@Z 66018b40 f   common.obj
 0001:00017bb0       ?hasPortalNearby@@YAHPAUAreaRectData@@H@Z 66018bb0 f   common.obj
 0001:00017c20       ?hasPortalInLevel@@YAHPAUDrlgLevel@@H@Z 66018c20 f   common.obj
 0001:00017c80       ?unitHasItem@@YAHPAUUnitAny@@H@Z 66018c80 f   common.obj
 0001:00017cf0       ?sendPacketToClient@@YAXPAUNetClient@@PADH@Z 66018cf0 f   common.obj
 0001:00017d10       ?sendChatMessageToServer@@YAXPADZZ 66018d10 f   common.obj
 0001:00017dd0       ?sendMessageToClient@@YAXPAUNetClient@@HHPAD1@Z 66018dd0 f   common.obj
 0001:00017f70       ?getCharStatsTxt@@YAPAUCharStatsTxt@@H@Z 66018f70 f   common.obj
 0001:00017f80       ?getStatMaxValue@@YAHH@Z   66018f80 f   common.obj
 0001:00017fe0       ?cpLocaleName@@YAHPA_W0H@Z 66018fe0 f   common.obj
 0001:00018080       ?acpLocaleName@@YAHPADPA_WH@Z 66019080 f   common.obj
 0001:00018170       ?getSimpleItemStackContent@@YAHPAUUnitAny@@PAH@Z 66019170 f   common.obj
 0001:00018250       ?d2client_SetAutomapParty@@YIXK@Z 66019250 f   d2callstub.obj
 0001:00018260       ?d2client_SetAutomapNames@@YIXK@Z 66019260 f   d2callstub.obj
 0001:00018270       ?d2client_ChatInput@@YIKPAUD2MSG@@@Z 66019270 f   d2callstub.obj
 0001:00018280       ?d2client_CheckUiStatus@@YIHH@Z 66019280 f   d2callstub.obj
 0001:00018290       ?d2client_InitAutomapLayer@@YIPAUAutomapLayer@@H@Z 66019290 f   d2callstub.obj
 0001:000182a0       ?d2common_GetUniqueItemTxt@@YIPAUUniqueItemTxt@@H@Z 660192a0 f   d2callstub.obj
 0001:000182d0       ?d2common_GetItemStatCostTxt@@YIPAUItemStatCostTxt@@H@Z 660192d0 f   d2callstub.obj
 0001:00018300       ?d2common_GetPropertiesTxt@@YIPAUPropertiesTxt@@H@Z 66019300 f   d2callstub.obj
 0001:00018330       ?d2common_GetSetItemTxt@@YIPAUSetItemTxt@@H@Z 66019330 f   d2callstub.obj
 0001:00018360       ?d2common_GetItemTypeTxt@@YIPAUItemTypeTxt@@H@Z 66019360 f   d2callstub.obj
 0001:00018390       ?d2common_GetRuneWordTxt@@YIPAURuneWordTxt@@H@Z 66019390 f   d2callstub.obj
 0001:000183c0       ?d2common_GetRuneWordTxtIndex@@YIHH@Z 660193c0 f   d2callstub.obj
 0001:00018400       ?d2client_LoadUiImage@@YIPAUCellFile@@PAD@Z 66019400 f   d2callstub.obj
 0001:00018410       ?SaveGame@@YAHXZ           66019410 f   dbg.obj
 0001:00018460       ?DoTest@@YAHXZ             66019460 f   dbg.obj
 0001:000184d0       ?installAlwaysDebugPatches@@YAHXZ 660194d0 f   dbg.obj
 0001:000184e0       ?installDebugPatches@@YAHXZ 660194e0 f   dbg.obj
 0001:000186d0       ?loop_addConfigVars@@YAXXZ 660196d0 f   loop.obj
 0001:00018710       ?ToggleIMEInput@@YAXH@Z    66019710 f   loop.obj
 0001:00018770       ?GameLoopPatch@@YAXXZ      66019770 f   loop.obj
 0001:000198b0       ?GameEndPatch@@YAXXZ       6601a8b0 f   loop.obj
 0001:00019ad0       ?GameLoopPatch_ASM@@YAXXZ  6601aad0 f   loop.obj
 0001:00019ae0       ?GameEndPatch_ASM@@YAXXZ   6601aae0 f   loop.obj
 0001:00019af0       ?automap_addConfigVars@@YAXXZ 6601aaf0 f   map.obj
 0001:00019b30       ?automap_initConfigVars@@YAXXZ 6601ab30 f   map.obj
 0001:00019e40       ?automap_initKeyEvent@@YAXXZ 6601ae40 f   map.obj
 0001:00019ec0       ?draw2map@@YAXPAUtagPOINT@@HH@Z 6601aec0 f   map.obj
 0001:00019f30       ?tile2draw@@YAXPAUtagPOINT@@HH@Z 6601af30 f   map.obj
 0001:00019f60       ?tile2map@@YAXPAUtagPOINT@@HH@Z 6601af60 f   map.obj
 0001:00019fb0       ?addMapTarget@@YAXHHHPA_W0@Z 6601afb0 f   map.obj
 0001:0001a090       ?automap_fixValues@@YAXXZ  6601b090 f   map.obj
 0001:0001a0f0       ?AutoMapNewGame@@YAXXZ     6601b0f0 f   map.obj
 0001:0001a1e0       ?PrevMapTarget@@YAHXZ      6601b1e0 f   map.obj
 0001:0001a420       ?NextMapTarget@@YAHXZ      6601b420 f   map.obj
 0001:0001a4c0       ?incMapTargetIf@@YAXH@Z    6601b4c0 f   map.obj
 0001:0001a4f0       ?AutoMapNewLevel@@YAXXZ    6601b4f0 f   map.obj
 0001:0001a6d0       ?addMinimapTarget@@YAXPAUAreaRectInfo@@HHHHHH@Z 6601b6d0 f   map.obj
 0001:0001a7d0       ?bitmap2dc6@@YAPAUCellFile@@PAEHH@Z 6601b7d0 f   map.obj
 0001:0001aa00       ?InitCellFiles@@YAXXZ      6601ba00 f   map.obj
 0001:0001ad00       ?DeleteCellFiles@@YAXXZ    6601bd00 f   map.obj
 0001:0001ae10       ?InitAutomapLayer@@YAXH@Z  6601be10 f   map.obj
 0001:0001ae30       ?mapReveal@@YAXPAUAreaRectInfo@@@Z 6601be30 f   map.obj
 0001:0001ae80       ?mapHide@@YAXPAUAreaRectInfo@@@Z 6601be80 f   map.obj
 0001:0001aed0       ?addSecretCowLevelCorners@@YAXPAUDrlgLevel@@@Z 6601bed0 f   map.obj
 0001:0001b080       ?RevealAutomapLevel@@YAXPAUDrlgLevel@@H@Z 6601c080 f   map.obj
 0001:0001bc10       ?RevealLevelPlayerIn@@YAHXZ 6601cc10 f   map.obj
 0001:0001bc50       ?RevealCurAct@@YAHXZ       6601cc50 f   map.obj
 0001:0001be00       ?RemoveMyAutomapNodes@@YAXXZ 6601ce00 f   map.obj
 0001:0001bed0       ?DrawAutomapNodePatch@@YGXPAUCellContext@@HHPAUtagRECT@@H@Z 6601ced0 f   map.obj
 0001:0001c250       ?AddShrinePatch_ASM@@YAXXZ 6601d250 f   map.obj
 0001:0001c280       ?OverrideShrinePatch@@YIXPAUAutomapNode@@0@Z 6601d280 f   map.obj
 0001:0001c2e0       ?OverrideShrinePatch_ASM@@YAXXZ 6601d2e0 f   map.obj
 0001:0001c300       ?DrawAutomapNode@@YAXPAUCellFile@@HHD@Z 6601d300 f   map.obj
 0001:0001c480       ?DrawAutomapBlob@@YIXHHHPAUUnitAny@@@Z 6601d480 f   map.obj
 0001:0001c600       ?ForceDrawBlob_ASM@@YAXXZ  6601d600 f   map.obj
 0001:0001c610       ?DrawBlobPath_ASM@@YAXXZ   6601d610 f   map.obj
 0001:0001c620       ?DrawPartyPlayerBlobPatch_ASM@@YAXXZ 6601d620 f   map.obj
 0001:0001c630       ?HostilePlayerPatch@@YIEPAUUnitAny@@@Z 6601d630 f   map.obj
 0001:0001c670       ?HostilePlayerColor_ASM@@YAXXZ 6601d670 f   map.obj
 0001:0001c680       ?DrawPlayerTextPatch@@YIEPAUUnitAny@@@Z 6601d680 f   map.obj
 0001:0001c6e0       ?DrawPlayerTextPatch_ASM@@YAXXZ 6601d6e0 f   map.obj
 0001:0001c700       ?MonsterBlobDesc@@YIXPAUUnitAny@@@Z 6601d700 f   map.obj
 0001:0001cbf0       ?MonsterBlobDescPatch_ASM@@YAXXZ 6601dbf0 f   map.obj
 0001:0001cc10       ?MonsterBlobCol@@YIEPAUUnitAny@@@Z 6601dc10 f   map.obj
 0001:0001cd40       ?CorpseBlobCol@@YIEPAUUnitAny@@@Z 6601dd40 f   map.obj
 0001:0001cdf0       ?ObjectBlobCol@@YIEPAUUnitAny@@@Z 6601ddf0 f   map.obj
 0001:0001cfb0       ?MissileBlobCol@@YIEPAUUnitAny@@@Z 6601dfb0 f   map.obj
 0001:0001d0b0       ?MixedBlobColPatch@@YIEPAUUnitAny@@@Z 6601e0b0 f   map.obj
 0001:0001d160       ?MixedBlobColPatch_ASM@@YAXXZ 6601e160 f   map.obj
 0001:0001d180       ?AddRectToMinimap@@YAHPAUAreaRectInfo@@H@Z 6601e180 f   map.obj
 0001:0001ddd0       ?drawActiveRectAreaOnMinimap@@YAXXZ 6601edd0 f   map.obj
 0001:0001df30       ?drawActiveRectAreaOnScreen@@YAXXZ 6601ef30 f   map.obj
 0001:0001e110       ?drawScreenAreaOnMinimap@@YAXXZ 6601f110 f   map.obj
 0001:0001e230       ?MinimapPatch@@YAXXZ       6601f230 f   map.obj
 0001:0001e510       ?MinimapPatch_ASM@@YAXXZ   6601f510 f   map.obj
 0001:0001e520       ?InitScrollLock@@YAXH@Z    6601f520 f   map.obj
 0001:0001e550       ?SetScrollMapPos@@YAXHH@Z  6601f550 f   map.obj
 0001:0001e5b0       ?MiniMapScroll@@YAHH@Z     6601f5b0 f   map.obj
 0001:0001e5e0       ?CenterMap@@YAHXZ          6601f5e0 f   map.obj
 0001:0001e600       ?ShakeScreenPatch@@YGXPAH0@Z 6601f600 f   map.obj
 0001:0001e6a0       ?ScrollScreenEnd@@YAHH@Z   6601f6a0 f   map.obj
 0001:0001e6e0       ?ScrollScreenStart@@YAHH@Z 6601f6e0 f   map.obj
 0001:0001e7b0       ?DrawScrollOffset@@YAXPA_WH@Z 6601f7b0 f   map.obj
 0001:0001e800       ?recvObjectState@@YIXPAD@Z 6601f800 f   map.obj
 0001:0001e890       ?RecvPacket0EPatch_ASM@@YAXXZ 6601f890 f   map.obj
 0001:0001e8a0       ?packet_addConfigVars@@YAXXZ 6601f8a0 f   packet.obj
 0001:0001e8e0       ?packet_initConfigVars@@YAXXZ 6601f8e0 f   packet.obj
 0001:0001e910       ?packet_FixValues@@YAXXZ   6601f910 f   packet.obj
 0001:0001e950       ?ResetPacketHandlerTimer@@YAXXZ 6601f950 f   packet.obj
 0001:0001e960       ?PacketNewGame@@YAXXZ      6601f960 f   packet.obj
 0001:0001e980       ?FixSocketTimeOut_ASM@@YAXXZ 6601f980 f   packet.obj
 0001:0001e990       ?FixSocketErrRet_ASM@@YAXXZ 6601f990 f   packet.obj
 0001:0001e9b0       ?dump9c@@YAXPAEH@Z         6601f9b0 f   packet.obj
 0001:0001eb10       ?GamePacketReceivedInterceptPatch_ASM@@YAXXZ 6601fb10 f   packet.obj
 0001:0001eb50       ?dumpRecvPacket@@YIXPAEH@Z 6601fb50 f   packet.obj
 0001:0001f720       ?GamePacketSendInterceptPatch_ASM@@YAXXZ 66020720 f   packet.obj
 0001:0001f780       ?dumpSendPacket@@YIXPAH@Z  66020780 f   packet.obj
 0001:0001fe30       ?showResetProtectMsg@@YAXXZ 66020e30 f   packet.obj
 0001:0001fea0       ?activeBufferItem@@YAHHHH@Z 66020ea0 f   packet.obj
 0001:0001ff10       ?ResetSkillPatch_ASM@@YAXXZ 66020f10 f   packet.obj
 0001:0001ff30       ?blockSendPacket@@YIHPAH@Z 66020f30 f   packet.obj
 0001:00020a90       ?initSendPacketCheckTable@@YAXXZ 66021a90 f   packet.obj
 0001:00020b30       ?autoroute_addConfigVars@@YAXXZ 66021b30 f   route.obj
 0001:00020b70       ?autoroute_fixValues@@YAXXZ 66021b70 f   route.obj
 0001:00020b90       ?AutoRouteNewGame@@YAXXZ   66021b90 f   route.obj
 0001:00020bc0       ?AutoRouteLocateSource@@YAHH@Z 66021bc0 f   route.obj
 0001:00020d60       ?minimapDebug@@YAXXZ       66021d60 f   route.obj
 0001:00020eb0       ?AutoRouteDrawScreenPath@@YAXXZ 66021eb0 f   route.obj
 0001:00021170       ?AutoRouteDrawMinimapPath@@YAXXZ 66022170 f   route.obj
 0001:00021810       ?markNextPathInvalid@@YAXH@Z 66022810 f   route.obj
 0001:00021880       ?AutoTeleportGetTarget@@YAHPAUtagPOINT@@PAH11@Z 66022880 f   route.obj
 0001:000219e0       ?RerouteRectPath@@YAHXZ    660229e0 f   route.obj
 0001:000225e0       ?AutoMapRoute@@YAXXZ       660235e0 f   route.obj
 0001:000226d0       ?waypoint_initConfigVars@@YAXXZ 660236d0 f   waypoint.obj
 0001:00022750       ?waypointExist@@YAHH@Z     66023750 f   waypoint.obj
 0001:00022790       ?hasWaypoint@@YAHH@Z       66023790 f   waypoint.obj
 0001:000227f0       ?WaypointNewGame@@YAXXZ    660237f0 f   waypoint.obj
 0001:00022810       ?isWaypointTxt@@YAHH@Z     66023810 f   waypoint.obj
 0001:000229d0       ?findWaypoint@@YAPAUUnitAny@@H@Z 660239d0 f   waypoint.obj
 0001:00022c10       ?takeWaypointToLevel@@YAHPAUUnitAny@@H@Z 66023c10 f   waypoint.obj
 0001:00022c80       ?takeWaypointToLvl@@YAHHH@Z 66023c80 f   waypoint.obj
 0001:00022cc0       ?RecvCommand_63_Patch_ASM@@YAXXZ 66023cc0 f   waypoint.obj
 0001:00022db0       ?winmsg_addConfigVars@@YAXXZ 66023db0 f   winmsg.obj
 0001:00022df0       ?winmsg_initConfigVars@@YAXXZ 66023df0 f   winmsg.obj
 0001:00022f00       ?WinMessageFixValues@@YAXXZ 66023f00 f   winmsg.obj
 0001:00022f90       ?WinMessage_initKeyEvent@@YAXXZ 66023f90 f   winmsg.obj
 0001:000233d0       ?IsKeyDown@@YAHH@Z         660243d0 f   winmsg.obj
 0001:000233f0       ?LockMouse@@YAHXZ          660243f0 f   winmsg.obj
 0001:000235b0       ?switchSkillStart@@YAHH@Z  660245b0 f   winmsg.obj
 0001:00023730       ?switchSkillEnd@@YAHH@Z    66024730 f   winmsg.obj
 0001:000238b0       ?GameSound@@YAHH@Z         660248b0 f   winmsg.obj
 0001:000238f0       ?FullScreen@@YAHXZ         660248f0 f   winmsg.obj
 0001:000239e0       ?AttractNPC@@YAHXZ         660249e0 f   winmsg.obj
 0001:00023a80       ?SwitchWindow@@YAHH@Z      66024a80 f   winmsg.obj
 0001:00023ae0       ?WinMessageNewGame@@YAXXZ  66024ae0 f   winmsg.obj
 0001:00023d30       ?WinMessageEndGame@@YAXXZ  66024d30 f   winmsg.obj
 0001:00023d60       ?refreshScreenSaver@@YAXXZ 66024d60 f   winmsg.obj
 0001:00023da0       ?refreshMenuScreenSaver@@YAXXZ 66024da0 f   winmsg.obj
 0001:00023de0       ?winActiveMsg@@YAXH@Z      66024de0 f   winmsg.obj
 0001:00023f20       ?hasCTA@@YAHXZ             66024f20 f   winmsg.obj
 0001:00023fc0       ?WinMessageRunLoop@@YAXXZ  66024fc0 f   winmsg.obj
 0001:00024290       ?canExitGame@@YAHXZ        66025290 f   winmsg.obj
 0001:00024440       ?WinMessage@@YAHHHPAUHWND__@@HHH@Z 66025440 f   winmsg.obj
 0001:00025460       ?WinMessagePatch_ASM@@YAXXZ 66026460 f   winmsg.obj
 0001:00025470       ?KeydownPatch_ASM@@YAXXZ   66026470 f   winmsg.obj
 0001:00025490       ?KeyupPatch_ASM@@YAXXZ     66026490 f   winmsg.obj
 0001:000254b0       ?ReceiveSwapWeapon_ASM@@YAXXZ 660264b0 f   winmsg.obj
 0001:000254f0       ?ShowVersion_Patch_ASM@@YAXXZ 660264f0 f   winmsg.obj
 0001:00025590       ?SetCursorPosPatch_ASM@@YAXXZ 66026590 f   winmsg.obj
 0001:000255b0       ?DrawLeftBackImagePatch_ASM@@YAXXZ 660265b0 f   winmsg.obj
 0001:000255d0       ?DrawRightBackImagePatch_ASM@@YAXXZ 660265d0 f   winmsg.obj
 0001:000255f0       ?DrawGroundAndUnitPatch_ASM@@YAXXZ 660265f0 f   winmsg.obj
 0001:00025650       ?DrawControlsPatch_ASM@@YAXXZ 66026650 f   winmsg.obj
 0001:00025750       ?SkipDrawUnitAndControlPatch_ASM@@YAXXZ 66026750 f   winmsg.obj
 0001:000257f0       ?SkipAllDrawingPatch_ASM@@YAXXZ 660267f0 f   winmsg.obj
 0001:000258a0       ?SkipDrawMenuPatch2_ASM@@YAXXZ 660268a0 f   winmsg.obj
 0001:00025930       ?SkipDrawMenuPatch_ASM@@YAXXZ 66026930 f   winmsg.obj
 0001:00025a40       ?NoHidePatch_ASM@@YAXXZ    66026a40 f   winmsg.obj
 0001:00025a70       ?env_addConfigVars@@YAXXZ  66026a70 f   env.obj
 0001:00025ab0       ?env_initConfigVars@@YAXXZ 66026ab0 f   env.obj
 0001:00025b00       ?ChangeVisualEffect@@YAHXZ 66026b00 f   env.obj
 0001:00025b80       ?WeatherPatch_ASM@@YAXXZ   66026b80 f   env.obj
 0001:00025b90       ?LightingPatch_ASM@@YAXXZ  66026b90 f   env.obj
 0001:00025bc0       ?InfravisionPatch@@YIKPAUUnitAny@@@Z 66026bc0 f   env.obj
 0001:000261a0       ?InfravisionPatch_ASM@@YAXXZ 660271a0 f   env.obj
 0001:000261c0       ?drawMyGround@@YAXXZ       660271c0 f   env.obj
 0001:00026360       ?SkipDrawGroundPatch_ASM@@YAXXZ 66027360 f   env.obj
 0001:00026380       ?playerAddExp@@YAXH@Z      66027380 f   GameMonitor.obj
 0001:00026400       ?gamemonitor_addConfigVars@@YAXXZ 66027400 f   GameMonitor.obj
 0001:00026440       ?gamemonitor_initConfigVars@@YAXXZ 66027440 f   GameMonitor.obj
 0001:00026480       ?usePotion@@YAXH@Z         66027480 f   GameMonitor.obj
 0001:00026560       ?updateCurStashPage@@YAXXZ 66027560 f   GameMonitor.obj
 0001:000266a0       ?recheckSelfItems@@YAXXZ   660276a0 f   GameMonitor.obj
 0001:00026dc0       ?setKDCountDown@@YAXH@Z    66027dc0 f   GameMonitor.obj
 0001:00026de0       ?setKBCountDown@@YAXHH@Z   66027de0 f   GameMonitor.obj
 0001:00026e80       ?setCountDownEndTime@@YAXPAUCountDown@@@Z 66027e80 f   GameMonitor.obj
 0001:00026f60       ?setupCountdown@@YAXPAUCountDown@@@Z 66027f60 f   GameMonitor.obj
 0001:00026fb0       ?onRightSkillMap@@YAXHH@Z  66027fb0 f   GameMonitor.obj
 0001:00027160       ?onRightSkillUnit@@YAXHH@Z 66028160 f   GameMonitor.obj
 0001:000272c0       ?GameMonitorNewGame@@YAXXZ 660282c0 f   GameMonitor.obj
 0001:00027380       ?GameMonitorEndGame@@YAXXZ 66028380 f   GameMonitor.obj
 0001:000273a0       ?ShowGameCount@@YAXXZ      660283a0 f   GameMonitor.obj
 0001:00027630       ?SetKills@@YIXK@Z          66028630 f   GameMonitor.obj
 0001:00027680       ?KillCountPatch_ASM@@YAXXZ 66028680 f   GameMonitor.obj
 0001:000276a0       ?UnitModeChangePatch_ASM@@YAXXZ 660286a0 f   GameMonitor.obj
 0001:000276e0       ?drawSimpleItemStackInfo@@YAXPAUUnitAny@@HH@Z 660286e0 f   GameMonitor.obj
 0001:00027930       ?DrawMonitorInfo@@YAXXZ    66028930 f   GameMonitor.obj
 0001:00029350       ?SetState@@YGXKH@Z         6602a350 f   GameMonitor.obj
 0001:00029680       ?RecvCommand_A7_Patch_ASM@@YAXXZ 6602a680 f   GameMonitor.obj
 0001:00029800       ?RecvCommand_A8_Patch_ASM@@YAXXZ 6602a800 f   GameMonitor.obj
 0001:00029850       ?RecvCommand_A9_Patch_ASM@@YAXXZ 6602a850 f   GameMonitor.obj
 0001:000298a0       ?itemAction@@YAXPAUbitstream@@PAD@Z 6602a8a0 f   GameMonitor.obj
 0001:00029a10       ?changeStashPage@@YAXH@Z   6602aa10 f   GameMonitor.obj
 0001:00029ae0       ?itemAction9C@@YIXPAD@Z    6602aae0 f   GameMonitor.obj
 0001:00029b60       ?itemAction9D@@YIXPAD@Z    6602ab60 f   GameMonitor.obj
 0001:00029be0       ?updateItemSkill@@YIXPAD@Z 6602abe0 f   GameMonitor.obj
 0001:00029c70       ?RecvCommand_9C_Patch_ASM@@YAXXZ 6602ac70 f   GameMonitor.obj
 0001:00029c80       ?RecvCommand_9D_Patch_ASM@@YAXXZ 6602ac80 f   GameMonitor.obj
 0001:00029c90       ?RecvCommand_22_Patch_ASM@@YAXXZ 6602ac90 f   GameMonitor.obj
 0001:00029ca0       ?getOverheadNameGid@@YAHHH@Z 6602aca0 f   GameMonitor.obj
 0001:00029d20       ?getTowerValue@@YAHHH@Z    6602ad20 f   GameMonitor.obj
 0001:00029db0       ?drawUnitsInfo@@YAXXZ      6602adb0 f   GameMonitor.obj
 0001:0002bbb0       ?playerSkillOnMap@@YIXPAD@Z 6602cbb0 f   GameMonitor.obj
 0001:0002bc90       ?RecvCommand_4C_Patch_ASM@@YAXXZ 6602cc90 f   GameMonitor.obj
 0001:0002bdf0       ?info_AddConfigVars@@YAXXZ 6602cdf0 f   info.obj
 0001:0002be30       ?infoNewGame@@YAXXZ        6602ce30 f   info.obj
 0001:0002be50       ?wsprintfW2@@YAPA_WPA_WPADZZ 6602ce50 f   info.obj
 0001:0002beb0       ?DrawGameInfoPatch@@YIXH@Z 6602ceb0 f   info.obj
 0001:0002c170       ?DrawPetHeadPatch@@YIXHPAUUnitAny@@@Z 6602d170 f   info.obj
 0001:0002c1f0       ?DrawPetHeadPatch_ASM@@YAXXZ 6602d1f0 f   info.obj
 0001:0002c200       ?getGameWinId@@YAHH@Z      6602d200 f   info.obj
 0001:0002c260       ?DrawPartyHeadPatch@@YIXHPAURosterUnit@@@Z 6602d260 f   info.obj
 0001:0002c760       ?StartDrawPartyHeadPatch_ASM@@YAXXZ 6602d760 f   info.obj
 0001:0002c780       ?DrawPartyHeadPatch_ASM@@YAXXZ 6602d780 f   info.obj
 0001:0002c7a0       ?DrawSkeletonHeadPatch@@YIXHH@Z 6602d7a0 f   info.obj
 0001:0002c8c0       ?DrawSkeletonHeadPatch_ASM@@YAXXZ 6602d8c0 f   info.obj
 0001:0002c8d0       ?UpdateExp@@YAXXZ          6602d8d0 f   info.obj
 0001:0002caf0       ?InitExp@@YAXXZ            6602daf0 f   info.obj
 0001:0002cb20       ?UpdateExp_ASM@@YAXXZ      6602db20 f   info.obj
 0001:0002cb40       ?info_FixValues@@YAXXZ     6602db40 f   info.obj
 0001:0002cc20       ?DrawClientPatch@@YAXXZ    6602dc20 f   info.obj
 0001:0002cda0       ?DrawClientPatch_ASM@@YAXXZ 6602dda0 f   info.obj
 0001:0002cdc0       ?ShowLifeWithMyPattern@@YGKKHH@Z 6602ddc0 f   info.obj
 0001:0002ce40       ?ShowManaWithMyPattern@@YGKKHH@Z 6602de40 f   info.obj
 0001:0002cec0       ?ShowLifePatch_ASM@@YAXXZ  6602dec0 f   info.obj
 0001:0002cee0       ?ShowManaPatch_ASM@@YAXXZ  6602dee0 f   info.obj
 0001:0002cf00       ?SetLifeManaShow@@YAHXZ    6602df00 f   info.obj
 0001:0002cf40       ?GetViewEquUnit@@YAPAUUnitAny@@XZ 6602df40 f   info.obj
 0001:0002cf70       ?GetViewStatUnit@@YAPAUUnitAny@@XZ 6602df70 f   info.obj
 0001:0002cfa0       ?SetViewUnit@@YAXXZ        6602dfa0 f   info.obj
 0001:0002d090       ?ViewUnit@@YAHH@Z          6602e090 f   info.obj
 0001:0002d130       ?GetViewingStatsPlayerPatch1_ASM@@YAXXZ 6602e130 f   info.obj
 0001:0002d140       ?GetViewingStatsPlayerPatch2_ASM@@YAXXZ 6602e140 f   info.obj
 0001:0002d150       ?GetUnitDrawEquipItemPatch_ASM@@YAXXZ 6602e150 f   info.obj
 0001:0002d160       ?GetUnitDrawItemDescPath_ASM@@YAXXZ 6602e160 f   info.obj
 0001:0002d170       ?GetUnitTestHasItem_ASM@@YAXXZ 6602e170 f   info.obj
 0001:0002d190       ?GetUnitText@@YIPA_WPA_WPAUUnitAny@@@Z 6602e190 f   info.obj
 0001:0002d230       ?ViewDrawInvItemPatch@@YAPAUUnitAny@@XZ 6602e230 f   info.obj
 0001:0002d2b0       ?GetUnitDrawInvItemPatch_ASM@@YAXXZ 6602e2b0 f   info.obj
 0001:0002d2c0       ?GetUnitProtectClickEquipPatch_ASM@@YAXXZ 6602e2c0 f   info.obj
 0001:0002d300       ?GetUnitProtectClickInvPatch_ASM@@YAXXZ 6602e300 f   info.obj
 0001:0002d330       ?DrawDefaultFontText@@YAXPA_WHHKHK@Z 6602e330 f   info.obj
 0001:0002d360       ?SwitchStatPage@@YAHH@Z    6602e360 f   info.obj
 0001:0002d3b0       ?DrawUnitStat@@YAXHHHHPAD00KHH@Z 6602e3b0 f   info.obj
 0001:0002d490       ?ViewUnitStatPatch@@YIXPAUUnitAny@@@Z 6602e490 f   info.obj
 0001:0002d890       ?ViewUnitStatPatch_ASM@@YAXXZ 6602e890 f   info.obj
 0001:0002d8b0       ?ViewPetStatPatch@@YIXPAUUnitAny@@@Z 6602e8b0 f   info.obj
 0001:0002db20       ?ViewPetStatPatch_ASM@@YAXXZ 6602eb20 f   info.obj
 0001:0002db40       ?messagelog_AddConfigVars@@YAXXZ 6602eb40 f   MessageLog.obj
 0001:0002db80       ?OpenFileNew@@YAPAXPAD@Z   6602eb80 f   MessageLog.obj
 0001:0002dbb0       ?OpenFileWrite@@YAPAXPAD@Z 6602ebb0 f   MessageLog.obj
 0001:0002dbe0       ?WriteFile@@YAKPAX0K@Z     6602ebe0 f   MessageLog.obj
 0001:0002dc10       ?MessageLogPatch1_ASM@@YAXXZ 6602ec10 f   MessageLog.obj
 0001:0002e0f0       ?MessageLogPatch2_ASM@@YAXXZ 6602f0f0 f   MessageLog.obj
 0001:0002e100       ?MessageLogExitGame@@YAXXZ 6602f100 f   MessageLog.obj
 0001:0002e3f0       ?item_addConfigVars@@YAXXZ 6602f3f0 f   item.obj
 0001:0002e430       ?item_initConfigVars@@YAXXZ 6602f430 f   item.obj
 0001:0002e4c0       ?item_NewGame@@YAXXZ       6602f4c0 f   item.obj
 0001:0002e4e0       ?wcs_insert@@YAPA_WPA_W0@Z 6602f4e0 f   item.obj
 0001:0002e5b0       ?GetItemIndex@@YAHH@Z      6602f5b0 f   item.obj
 0001:0002e600       ?CheckItemVisible@@YAHPAUUnitAny@@@Z 6602f600 f   item.obj
 0001:0002e700       ?GetItemColour@@YAEPAUUnitAny@@H@Z 6602f700 f   item.obj
 0001:0002e9a0       ?SwitchItemMode@@YAHXZ     6602f9a0 f   item.obj
 0001:0002ea50       ?trimspaces@@YAXPA_W@Z     6602fa50 f   item.obj
 0001:0002eb10       ?ColourD2String@@YIPA_WPA_WK@Z 6602fb10 f   item.obj
 0001:0002eba0       ?ItemHaveLevel@@YAHE@Z     6602fba0 f   item.obj
 0001:0002ec00       ?ItemNamePatch@@YIXPA_WPAUUnitAny@@PAUItemTxt@@@Z 6602fc00 f   item.obj
 0001:0002f850       ?ItemNamePatch_ASM@@YAXXZ  66030850 f   item.obj
 0001:0002f870       ?OpenCubeStringPatch@@YIPA_WPA_WK@Z 66030870 f   item.obj
 0001:0002f8d0       ?OpenCubeStringPatch_ASM@@YAXXZ 660308d0 f   item.obj
 0001:0002f8e0       ?PermShowItemsPatch1@@YAHXZ 660308e0 f   item.obj
 0001:0002f910       ?PermShowItemsPatch2@@YAHXZ 66030910 f   item.obj
 0001:0002f960       ?PermShowItemsPatch3@@YAHXZ 66030960 f   item.obj
 0001:0002f9d0       ?PermShowItemsPatch1_ASM@@YAXXZ 660309d0 f   item.obj
 0001:0002f9e0       ?PermShowItemsPatch2_ASM@@YAXXZ 660309e0 f   item.obj
 0001:0002fa00       ?PermShowItemsPatch3_ASM@@YAXXZ 66030a00 f   item.obj
 0001:0002fa20       ?PermShowItemsPatch4_ASM@@YAXXZ 66030a20 f   item.obj
 0001:0002fa30       ?ItemDescPath@@YIXPA_WHHHH@Z 66030a30 f   item.obj
 0001:0002fb30       ?SocketViewCallRoutine@@YIXPAUUnitAny@@KP6GX0K@Z@Z 66030b30 f   item.obj
 0001:0002fb40       ?ItemSocketViewPatch@@YGXP6GXPAUUnitAny@@K@Z0K@Z 66030b40 f   item.obj
 0001:0002fc10       ?ItemSocketViewPatch_ASM@@YAXXZ 66030c10 f   item.obj
 0001:0002fc20       ?SocketItemStatViewPatch_ASM@@YAXXZ 66030c20 f   item.obj
 0001:0002fc40       ?GetItemExtStatListPatch@@YGPAUStatList@@PAUUnitAny@@KK@Z 66030c40 f   item.obj
 0001:0002fc70       ?ItemBasicStatPatch_ASM@@YAXXZ 66030c70 f   item.obj
 0001:0002fca0       ?SetPropInfo@@YAXHHHPAUItemProp@@@Z 66030ca0 f   item.obj
 0001:00030120       ?GetStatRange@@YAPA_WPA_WKK@Z 66031120 f   item.obj
 0001:00030510       ?GetItemPropStringPatch@@YIKPA_WPAUStatEx@@K@Z 66031510 f   item.obj
 0001:000305e0       ?GetItemPropStringPatch_ASM@@YAXXZ 660315e0 f   item.obj
 0001:00030600       ?StrcatItemPropStringPatch@@YIXPA_W0K@Z 66031600 f   item.obj
 0001:00030720       ?StrcatItemPropStringPatch_ASM@@YAXXZ 66031720 f   item.obj
 0001:00030730       ?StrcatSocketStringPatch@@YIPA_WPA_W@Z 66031730 f   item.obj
 0001:00030760       ?StrcatSocketStringPatch_ASM@@YAXXZ 66031760 f   item.obj
 0001:00030770       ?StrcatDefenseStringPatch@@YIPA_WPA_W@Z 66031770 f   item.obj
 0001:00030a10       ?StrcatDefenseStringPatch_ASM@@YAXXZ 66031a10 f   item.obj
 0001:00030a20       ?StrcatDamageStringPatch@@YIPA_WPA_W@Z 66031a20 f   item.obj
 0001:00030c40       ?StrcatDamageStringPatch_ASM1@@YAXXZ 66031c40 f   item.obj
 0001:00030c50       ?StrcatDamageStringPatch_ASM2@@YAXXZ 66031c50 f   item.obj
 0001:00030c70       ?ShowSocketProtectInfo@@YAXXZ 66031c70 f   item.obj
 0001:00030ce0       ?SocketProtectPatch_ASM@@YAXXZ 66031ce0 f   item.obj
 0001:00030d00       ?SocketProtectPatch1_ASM@@YAXXZ 66031d00 f   item.obj
 0001:00030d40       ?SocketProtectPatch2_ASM@@YAXXZ 66031d40 f   item.obj
 0001:00030d80       ?searchStat@@YAHPAUUnitAny@@HPAH@Z 66031d80 f   item.obj
 0001:00030e60       ?drawInvItemInfo@@YAXPAUUnitAny@@HH@Z 66031e60 f   item.obj
 0001:00032770       ?drawInvItemPatch@@YIHPAUDrawCellFileArgs@@PAUUnitAny@@@Z 66033770 f   item.obj
 0001:000327d0       ?DrawInvItemPatch_ASM@@YAXXZ 660337d0 f   item.obj
 0001:000327f0       ?activeBufferItem@@YIXHHH@Z 660337f0 f   item.obj
 0001:00032900       ?ActiveBufferItemPatch_ASM@@YAXXZ 66033900 f   item.obj
 0001:00032920       ?ItemExtInfoNewGame@@YAXXZ 66033920 f   ItemExtInfo.obj
 0001:00032930       ?ConvertToColorString@@YAXPAEPADH@Z 66033930 f   ItemExtInfo.obj
 0001:00032ad0       ?LoadExtInfo@@YAHXZ        66033ad0 f   ItemExtInfo.obj
 0001:00033ad0       ?UnLoadExtInfo@@YAXXZ      66034ad0 f   ItemExtInfo.obj
 0001:00033cb0       ?SetExtInfoPos@@YAXHHHH@Z  66034cb0 f   ItemExtInfo.obj
 0001:00033da0       ?ShowItemExtInfo@@YAXXZ    66034da0 f   ItemExtInfo.obj
 0001:000340c0       ?DrawHoverPatch_ASM@@YAXXZ 660350c0 f   ItemExtInfo.obj
 0001:000340d0       ?dangerous_addConfigVars@@YAXXZ 660350d0 f   dangerous.obj
 0001:00034110       ?dangerous_initConfigVars@@YAXXZ 66035110 f   dangerous.obj
 0001:00034130       ?protectExitGame@@YAHXZ    66035130 f   dangerous.obj
 0001:00034160       ?ProtectAction@@YAHPA_WHE@Z 66035160 f   dangerous.obj
 0001:00034400       ?ChickenLifeNewGame@@YAXXZ 66035400 f   dangerous.obj
 0001:00034720       ?ChickenLifeLoop@@YAXXZ    66035720 f   dangerous.obj
 0001:00035030       ?isCowKing@@YAHPAUMonsterData@@@Z 66036030 f   dangerous.obj
 0001:000350f0       ?checkBossMonster@@YAXPAUUnitAny@@@Z 660360f0 f   dangerous.obj
 0001:000351f0       ?CheckDangerousPlayer@@YAXPAUUnitAny@@@Z 660361f0 f   dangerous.obj
 0001:000352a0       ?TestMonsterOnScreen@@YAHPAUUnitAny@@0@Z 660362a0 f   dangerous.obj
 0001:00035320       ?CheckDangerousMonster@@YAXPAUUnitAny@@@Z 66036320 f   dangerous.obj
 0001:00035410       ?canLeaveTown@@YAHXZ       66036410 f   dangerous.obj
 0001:00035900       ?quest_initConfigVars@@YAXXZ 66036900 f   quest.obj
 0001:00035920       ?quest_addConfigVars@@YAXXZ 66036920 f   quest.obj
 0001:00035960       ?ReSetTimer@@YAHXZ         66036960 f   quest.obj
 0001:00035980       ?QuestNewAct@@YAXXZ        66036980 f   quest.obj
 0001:00035990       ?QuestNewLevel@@YAXXZ      66036990 f   quest.obj
 0001:00036160       ?quest_FixValues@@YAXXZ    66037160 f   quest.obj
 0001:00036230       ?QuestNewGame@@YAXXZ       66037230 f   quest.obj
 0001:00036390       ?QuestRunLoop@@YAXXZ       66037390 f   quest.obj
 0001:00036700       ?BugKDProtect@@YIXK@Z      66037700 f   quest.obj
 0001:00036980       ?BugKBProtect@@YIXPAE@Z    66037980 f   quest.obj
 0001:000371b0       ?RecvCommand_89_Patch_ASM@@YAXXZ 660381b0 f   quest.obj
 0001:000371d0       ?RecvCommand_5D_Patch_ASM@@YAXXZ 660381d0 f   quest.obj
 0001:000371e0       ?CheckUnitKM@@YAXXZ        660381e0 f   quest.obj
 0001:000372b0       ?getMouseQuestId@@YAHHH@Z  660382b0 f   quest.obj
 0001:00037390       ?DrawQuestPagePatch@@YIXHH@Z 66038390 f   quest.obj
 0001:00037870       ?DrawQuestPagePatch_ASM@@YAXXZ 66038870 f   quest.obj
 0001:00037880       ?PacketA4@@YIXPAD@Z        66038880 f   quest.obj
 0001:00037a00       ?Packet4D@@YIXPAD@Z        66038a00 f   quest.obj
 0001:00037a50       ?RecvCommand_A4_Patch_ASM@@YAXXZ 66038a50 f   quest.obj
 0001:00037a60       ?RecvCommand_4D_Patch_ASM@@YAXXZ 66038a60 f   quest.obj
 0001:00037a70       ?RecvCommand_28_Patch_ASM@@YAXXZ 66038a70 f   quest.obj
 0001:00037ba0       ?UnicodeFix@@YAXPA_WPAK@Z  66038ba0 f   unicode.obj
 0001:00037d90       ?D2Lang_Unicode2WinPatch@@YIPBDPADPA_WH@Z 66038d90 f   unicode.obj
 0001:00037dd0       ?D2Lang_Win2UnicodePatch@@YIPA_WPA_WPBDH@Z 66038dd0 f   unicode.obj
 0001:00037e00       ?EditDeleteSelect@@YAXPAUD2EditBox@@@Z 66038e00 f   unicode.obj
 0001:00037f30       ?ChannelEnterCharPatch@@YIKPAUD2EditBox@@E@Z 66038f30 f   unicode.obj
 0001:00038260       ?UnicodeToUTF_8@@YAXPADPA_W@Z 66039260 f   unicode.obj
 0001:000382d0       ?MultiByteFix@@YGXPAD@Z    660392d0 f   unicode.obj
 0001:000384c0       ?MultiByteFixPatch_ASM@@YAXXZ 660394c0 f   unicode.obj
 0001:000384d0       ?IsPritableCharacterPatch_ASM@@YAXXZ 660394d0 f   unicode.obj
 0001:000384f0       ?lifebar_addConfigVars@@YAXXZ 660394f0 f   lifebar.obj
 0001:00038530       ?lifebar_initConfigVars@@YAXXZ 66039530 f   lifebar.obj
 0001:00038550       ?lifebarNewGame@@YAXXZ     66039550 f   lifebar.obj
 0001:00038560       ?MonsterNamePatch@@YIJPA_WJPAUUnitAny@@JJ@Z 66039560 f   lifebar.obj
 0001:00039070       ?MonsterNamePatch_ASM@@YAXXZ 6603a070 f   lifebar.obj
 0001:00039090       ?MonsterDescCommaPatch1_ASM@@YAXXZ 6603a090 f   lifebar.obj
 0001:000390a0       ?MonsterDescCommaPatch2_ASM@@YAXXZ 6603a0a0 f   lifebar.obj
 0001:000390b0       ?MonsterDescCommaPatch3@@YIXPA_WPAUMonsterTxt@@@Z 6603a0b0 f   lifebar.obj
 0001:00039140       ?MonsterDescCommaPatch3_ASM@@YAXXZ 6603a140 f   lifebar.obj
 0001:00039150       ?LifeBarPatch_ASM@@YAXXZ   6603a150 f   lifebar.obj
 0001:00039170       ?MonsterDeathPatch_ASM@@YAXXZ 6603a170 f   lifebar.obj
 0001:00039190       ?CalculateHighestTC@@YAXHG@Z 6603a190 f   lifebar.obj
 0001:000393d0       ?InitTCList@@YAXXZ         6603a3d0 f   lifebar.obj
 0001:00039450       ?GetTcLevel@@YAPAUMonTC@@GH@Z 6603a450 f   lifebar.obj
 0001:000394e0       ?GetPlayerHpPercent@@YAHPAUUnitAny@@@Z 6603a4e0 f   lifebar.obj
 0001:00039520       ?PlayerNamePatch@@YIXPA_WPAUUnitAny@@@Z 6603a520 f   lifebar.obj
 0001:00039690       ?PlayerNamePatch_ASM@@YAXXZ 6603a690 f   lifebar.obj
 0001:000396b0       ?AutoWarCryNewGame@@YAXXZ  6603a6b0 f   bo.obj
 0001:00039720       ?AutoWarCryRunLoop@@YAXXZ  6603a720 f   bo.obj
 0001:00039e90       ?d2s_init@@YAXPAUd2s_file@@@Z 6603ae90 f   d2s.obj
 0001:0003a0f0       ?d2s_write@@YAHPAUd2s_file@@PADH@Z 6603b0f0 f   d2s.obj
 0001:0003a210       ?d2s_checksum@@YAXPADH@Z   6603b210 f   d2s.obj
 0001:0003a290       ?d2s_generate@@YAHPAU_iobuf@@PAUUnitAny@@1PAGPAD1@Z 6603b290 f   d2s.obj
 0001:0003aed0       ?DropProtection_addConfigVars@@YAXXZ 6603bed0 f   DropProtection.obj
 0001:0003af10       ?DropProtection_initConfigVars@@YAXXZ 6603bf10 f   DropProtection.obj
 0001:0003af90       ?DropProtection@@YAHPAUUnitAny@@@Z 6603bf90 f   DropProtection.obj
 0001:0003b3a0       ?canHireMerc@@YAHXZ        6603c3a0 f   DropProtection.obj
 0001:0003b500       ?DropProtectionPacketBlock@@YAHPAEH@Z 6603c500 f   DropProtection.obj
 0001:0003b660       ?ClickHireMercMenuItemPatch_ASM@@YAXXZ 6603c660 f   DropProtection.obj
 0001:0003b680       ?unicode2win@@YAXPADPA_WH@Z 6603c680 f   DropProtection.obj
 0001:0003b6e0       ?DeleteCharacter_Patch_ASM@@YAXXZ 6603c6e0 f   DropProtection.obj
 0001:0003b770       ?DeleteSelectedCharacter_Patch_ASM@@YAXXZ 6603c770 f   DropProtection.obj
 0001:0003bfc0       ?ClickMenuItem_Patch_ASM@@YAXXZ 6603cfc0 f   DropProtection.obj
 0001:0003c0e0       ?playerHasRune@@YAHH@Z     6603d0e0 f   DropProtection.obj
 0001:0003c130       ?isValidRuneword@@YIHPAUUnitAny@@@Z 6603d130 f   DropProtection.obj
 0001:0003cad0       ?AutoEnchantNewGame@@YAXXZ 6603dad0 f   enchant.obj
 0001:0003cb30       ?checkUnit@@YAHPAUUnitAny@@@Z 6603db30 f   enchant.obj
 0001:0003ce40       ?AutoEnchantRunLoop@@YAXXZ 6603de40 f   enchant.obj
 0001:0003d1b0       ?AutoEnchantPlayerNeedHelp@@YAXH@Z 6603e1b0 f   enchant.obj
 0001:0003d1f0       ?check3bb@@YAXXZ           6603e1f0 f   enchant.obj
 0001:0003d4f0       ?GamePacketPlaySound@@YIXPAE@Z 6603e4f0 f   enchant.obj
 0001:0003d550       ?RecvCommand_2C_Patch_ASM@@YAXXZ 6603e550 f   enchant.obj
 0001:0003d560       ?GameChat_addConfigVars@@YAXXZ 6603e560 f   chat.obj
 0001:0003d5a0       ?chat_initConfigVars@@YAXXZ 6603e5a0 f   chat.obj
 0001:0003d5b0       ?setClipboard@@YAHPAUHWND__@@PA_WH@Z 6603e5b0 f   chat.obj
 0001:0003d680       ?processChatPaste@@YAXXZ   6603e680 f   chat.obj
 0001:0003d7b0       ?sendQuickMessage@@YAHPAUMessageKey@@@Z 6603e7b0 f   chat.obj
 0001:0003d860       ?addQuickMessage@@YAXHPA_WH@Z 6603e860 f   chat.obj
 0001:0003d970       ?SendChatMessageW@@YAXPA_W@Z 6603e970 f   chat.obj
 0001:0003da30       ?SendChatMessage@@YAXPAD@Z 6603ea30 f   chat.obj
 0001:0003dae0       ?WisperPatch@@YAXXZ        6603eae0 f   chat.obj
 0001:0003db00       ?WisperPatch_ASM@@YAXXZ    6603eb00 f   chat.obj
 0001:0003db10       ?CheckD2WinEditBox@@YAXXZ  6603eb10 f   chat.obj
 0001:0003db70       ?InputLinePatch@@YAHE@Z    6603eb70 f   chat.obj
 0001:0003dc10       ?InputLinePatch1_ASM@@YAXXZ 6603ec10 f   chat.obj
 0001:0003dc30       ?Filterbox_InputHandler@@YGHPAUD2EditBox@@HPAD@Z 6603ec30 f   mcp.obj
 0001:0003dc30       ?EditBoxCallBack@@YGHPAUD2EditBox@@HPAD@Z 6603ec30 f   chat.obj
 0001:0003dc40       ?InitD2EditBox@@YAHXZ      6603ec40 f   chat.obj
 0001:0003dd10       ?InputLinePatch2_ASM@@YAXXZ 6603ed10 f   chat.obj
 0001:0003dd30       ?SelectTextPatch1@@YGHPAD@Z 6603ed30 f   chat.obj
 0001:0003de10       ?SelectTextPatch1_ASM@@YAXXZ 6603ee10 f   chat.obj
 0001:0003de30       ?SelectTextPatch2@@YGHPAD@Z 6603ee30 f   chat.obj
 0001:0003dee0       ?SelectTextPatch2_ASM@@YAXXZ 6603eee0 f   chat.obj
 0001:0003df00       ?ResetGameList@@YAXXZ      6603ef00 f   mcp.obj
 0001:0003df20       ?gameFilter_addConfigVars@@YAXXZ 6603ef20 f   mcp.obj
 0001:0003df60       ?D2MCPPacketHandler_05_Patch@@YIHPAEH@Z 6603ef60 f   mcp.obj
 0001:0003e1f0       ?D2MCPPacketHandler_05_Patch_ASM@@YAXXZ 6603f1f0 f   mcp.obj
 0001:0003e210       ?Filterbox_ReturnHandler@@YGHPA_W@Z 6603f210 f   mcp.obj
 0001:0003e280       ?CreateFilterBox@@YAXXZ    6603f280 f   mcp.obj
 0001:0003e300       ?CreateGameBoxPatch_ASM@@YAXXZ 6603f300 f   mcp.obj
 0001:0003e310       ?DestroyGamelistPatch@@YGXPAUD2EditBox@@@Z 6603f310 f   mcp.obj
 0001:0003e350       ?GameListRefreshTimePatch_ASM@@YAXXZ 6603f350 f   mcp.obj
 0001:0003e390       ?DrawGameListPatch@@YAXXZ  6603f390 f   mcp.obj
 0001:0003e520       ?DrawGameListPatch_ASM@@YAXXZ 6603f520 f   mcp.obj
 0001:0003e530       ?SortGameList_Patch_ASM@@YAXXZ 6603f530 f   mcp.obj
 0001:0003e5c0       ?ShowGameListDifficulty_Patch_ASM@@YAXXZ 6603f5c0 f   mcp.obj
 0001:0003e670       ?clearCharacterTag@@YAXXZ  6603f670 f   login.obj
 0001:0003e6a0       ?addCharacterTag@@YAXPAD0@Z 6603f6a0 f   login.obj
 0001:0003e820       ?getCharTag@@YAPADPAD@Z    6603f820 f   login.obj
 0001:0003e8e0       ?doneCharacterTag@@YAXXZ   6603f8e0 f   login.obj
 0001:0003e940       ?drawCharTags@@YAXXZ       6603f940 f   login.obj
 0001:0003ea70       ?login_initConfigVars@@YAXXZ 6603fa70 f   login.obj
 0001:0003ea80       ?addAccount@@YAXHPAD0@Z    6603fa80 f   login.obj
 0001:0003ebd0       ?isLoginScreen@@YAPAUD2EditBox@@XZ 6603fbd0 f   login.obj
 0001:0003ec80       ?getLastUser@@YAPADXZ      6603fc80 f   login.obj
 0001:0003ecf0       ?inputUserPassword@@YAHPAULoginInfo@@@Z 6603fcf0 f   login.obj
 0001:0003ef50       ?autoLogin@@YAXXZ          6603ff50 f   login.obj
 0001:0003f020       ?LastBNet_Patch@@YGHPAD0H0H@Z 66040020 f   login.obj
 0001:0003f070       ?SelectCharPatch_ASM@@YAXXZ 66040070 f   login.obj
 0001:0003f190       ?autoSelectChar@@YAXXZ     66040190 f   login.obj
 0001:0003f2b0       ?saveCharMenu@@YAXXZ       660402b0 f   login.obj
 0001:0003f680       ?OpenCharMenuPatch_ASM@@YAXXZ 66040680 f   login.obj
 0001:0003f690       ?misc_addConfigVars@@YAXXZ 66040690 f   misc.obj
 0001:0003f6d0       ?ULCPatch_ASM@@YAXXZ       660406d0 f   misc.obj
 0001:0003f6f0       ?OutTownSelectPatch@@YIHPAUUnitAny@@@Z 660406f0 f   misc.obj
 0001:0003f730       ?OutTownSelectPatch_ASM1@@YAXXZ 66040730 f   misc.obj
 0001:0003f760       ?CheckOutTownSelected@@YGHPAUUnitAny@@@Z 66040760 f   misc.obj
 0001:0003f7c0       ?OutTownSelectPatch_ASM2@@YAXXZ 660407c0 f   misc.obj
 0001:0003f7e0       ?NPCMessageLoopPatch_ASM@@YAXXZ 660407e0 f   misc.obj
 0001:0003f820       ?NPCQuestMessageStartPatch_ASM@@YAXXZ 66040820 f   misc.obj
 0001:0003f840       ?NPCQuestMessageEndPatch1_ASM@@YAXXZ 66040840 f   misc.obj
 0001:0003f860       ?NPCQuestMessageEndPatch2_ASM@@YAXXZ 66040860 f   misc.obj
 0001:0003f870       ?NsPassingActBugFixPatch_ASM@@YAXXZ 66040870 f   misc.obj
 0001:0003f880       ?SetGoldPatch@@YIHH@Z      66040880 f   misc.obj
 0001:0003f900       ?SetGoldPatch_ASM@@YAXXZ   66040900 f   misc.obj
 0001:0003f910       ?SetDefaultGoldPatch_ASM@@YAXXZ 66040910 f   misc.obj
 0001:0003f920       ?multiclient_addConfigVars@@YAXXZ 66040920 f   multi.obj
 0001:0003f960       ?multiclient_initConfigVars@@YAXXZ 66040960 f   multi.obj
 0001:0003f990       ?multiclient_FixValues@@YAXXZ 66040990 f   multi.obj
 0001:0003f9c0       ?MultiClientNewGame@@YAXXZ 660409c0 f   multi.obj
 0001:0003fae0       ?MultiClientEndGame@@YAXXZ 66040ae0 f   multi.obj
 0001:0003fb00       ?makeRuntimeInfoPath@@YAHPADH@Z 66040b00 f   multi.obj
 0001:0003fbd0       ?saveRuntimeInfo1@@YAHPAUHWND__@@H@Z 66040bd0 f   multi.obj
 0001:0003fde0       ?saveRuntimeInfo@@YAHPAUHWND__@@@Z 66040de0 f   multi.obj
 0001:0003fe00       ?loadRuntimeInfo@@YAHPAUD2Window@@H@Z 66040e00 f   multi.obj
 0001:00040640       ?getLocalPlayer@@YAPAUD2Window@@H@Z 66041640 f   multi.obj
 0001:000406a0       ?isLocalPlayerName@@YAHPAD@Z 660416a0 f   multi.obj
 0001:00040770       ?isLocalPlayer@@YAHH@Z     66041770 f   multi.obj
 0001:000407e0       ?refresh_clients@@YAXXZ    660417e0 f   multi.obj
 0001:000409b0       ?multiclient_load_config@@YAXXZ 660419b0 f   multi.obj
 0001:00040a40       ?multiclient_winactive@@YAXXZ 66041a40 f   multi.obj
 0001:00040b80       ?getGameWindowHwnd@@YAPAUHWND__@@H@Z 66041b80 f   multi.obj
 0001:00040bc0       ?pressESC@@YAXXZ           66041bc0 f   multi.obj
 0001:00040c20       ?canRemoteControl@@YAHXZ   66041c20 f   multi.obj
 0001:00040ce0       ?leader_click_object@@YAXHH@Z 66041ce0 f   multi.obj
 0001:00040da0       ?send_multi_skill_info@@YAXH@Z 66041da0 f   multi.obj
 0001:00040dd0       ?recv_multi_skill_info@@YAXPAUD2Window@@H@Z 66041dd0 f   multi.obj
 0001:00040e40       ?send_multi_quest_info@@YAXH@Z 66041e40 f   multi.obj
 0001:00040e70       ?recv_multi_quest_info@@YAXPAUD2Window@@H@Z 66041e70 f   multi.obj
 0001:00040f80       ?send_multi_reply@@YAXH@Z  66041f80 f   multi.obj
 0001:00040fb0       ?recv_multi_quest_reply@@YAXPAUD2Window@@H@Z 66041fb0 f   multi.obj
 0001:00041030       ?multiclient_recv_info@@YAXH@Z 66042030 f   multi.obj
 0001:00041440       ?multiclient_send_info@@YAXH@Z 66042440 f   multi.obj
 0001:00041490       ?follower_click_object@@YAXHH@Z 66042490 f   multi.obj
 0001:000415f0       ?autoHydra@@YAXXZ          660425f0 f   multi.obj
 0001:00041780       ?MultiClientLoop@@YAXXZ    66042780 f   multi.obj
 0001:00042440       ?follower_left_click_xy@@YAXHH@Z 66043440 f   multi.obj
 0001:00042480       ?follower_right_click_xy@@YAXHH@Z 66043480 f   multi.obj
 0001:000424c0       ?follower_left_click_unit@@YAXHH@Z 660434c0 f   multi.obj
 0001:00042500       ?follower_right_client_unit@@YAXHH@Z 66043500 f   multi.obj
 0001:00042540       ?refresh_followers@@YAXH@Z 66043540 f   multi.obj
 0001:00042660       ?toggle_follower@@YAXH@Z   66043660 f   multi.obj
 0001:00042770       ?follower_stop_follow@@YAXXZ 66043770 f   multi.obj
 0001:00042810       ?findClosetPortal@@YAPAUUnitAny@@XZ 66043810 f   multi.obj
 0001:00042990       ?talkToNpc@@YAXXZ          66043990 f   multi.obj
 0001:00042c30       ?follower_cmd@@YAXH@Z      66043c30 f   multi.obj
 0001:000430c0       ?MultiClientStartFollow@@YAHH@Z 660440c0 f   multi.obj
 0001:000431a0       ?MultiClientStopFollow@@YAHXZ 660441a0 f   multi.obj
 0001:00043240       ?MultiClientStartFollow1@@YAHXZ 66044240 f   multi.obj
 0001:00043260       ?MultiClientStartFollow2@@YAHXZ 66044260 f   multi.obj
 0001:00043280       ?MultiClientToggleFollow@@YAHXZ 66044280 f   multi.obj
 0001:000432b0       ?MultiClientTalkToNpc@@YAHXZ 660442b0 f   multi.obj
 0001:00043380       ?MultiClientAllNextGame@@YAHXZ 66044380 f   multi.obj
 0001:00043430       ?MultiClientJoinGame@@YAHXZ 66044430 f   multi.obj
 0001:000434d0       ?leader_back_to_town@@YAHXZ 660444d0 f   multi.obj
 0001:00043580       ?MultiClientEnterDoor@@YAHXZ 66044580 f   multi.obj
 0001:00043740       ?MultiClientStartClick@@YAHH@Z 66044740 f   multi.obj
 0001:00043760       ?MultiClientStopClick@@YAHH@Z 66044760 f   multi.obj
 0001:00043780       ?MultiClientInitClick@@YAHXZ 66044780 f   multi.obj
 0001:000437e0       ?leader_tp@@YAHHH@Z        660447e0 f   multi.obj
 0001:00043900       ?follower_tp@@YAXHH@Z      66044900 f   multi.obj
 0001:00043960       ?transferClick@@YAHHPAUUnitAny@@HH@Z 66044960 f   multi.obj
 0001:00043b90       ?canTranferClick@@YAHXZ    66044b90 f   multi.obj
 0001:00043bf0       ?shouldLeftClick@@YIHPAH@Z 66044bf0 f   multi.obj
 0001:00044020       ?shouldRightClick@@YIHPAH@Z 66045020 f   multi.obj
 0001:00044220       ?LeftClick_Patch_ASM@@YAXXZ 66045220 f   multi.obj
 0001:00044240       ?RightClick_Patch_ASM@@YAXXZ 66045240 f   multi.obj
 0001:00044260       ?RecvCommand_77_Patch_ASM@@YAXXZ 66045260 f   multi.obj
 0001:00044480       ?RecvCommand_78_Patch_ASM@@YAXXZ 66045480 f   multi.obj
 0001:00044510       ?NpcTrade_AddConfigVars@@YAXXZ 66045510 f   NpcTrade.obj
 0001:00044550       ?NpcTradeNewGame@@YAXXZ    66045550 f   NpcTrade.obj
 0001:00044560       ?drawNpcTradeInfo@@YAXH@Z  66045560 f   NpcTrade.obj
 0001:00045070       ?NpcTradeLoop@@YAXXZ       66046070 f   NpcTrade.obj
 0001:000452d0       ?NpcTradePatch_ASM@@YAXXZ  660462d0 f   NpcTrade.obj
 0001:00045300       ?PartyHelp_addConfigVars@@YAXXZ 66046300 f   party.obj
 0001:00045340       ?PartyHelp_initConfigVars@@YAXXZ 66046340 f   party.obj
 0001:00045350       ?PartyHelpNewGame@@YAXXZ   66046350 f   party.obj
 0001:00045510       ?PartyHelpEndGame@@YAXXZ   66046510 f   party.obj
 0001:00045520       ?ResponseInvite@@YAXXZ     66046520 f   party.obj
 0001:00045850       ?RecvCommand_5A_Patch_ASM@@YAXXZ 66046850 f   party.obj
 0001:00045a30       ?AutoInvite@@YAXXZ         66046a30 f   party.obj
 0001:00045ed0       ?RecvCommand_5B_Patch_ASM@@YAXXZ 66046ed0 f   party.obj
 0001:00045fa0       ?RecvCommand_59_Patch_ASM@@YAXXZ 66046fa0 f   party.obj
 0001:000460c0       ?RecvCommand_8C_Patch_ASM@@YAXXZ 660470c0 f   party.obj
 0001:000462b0       ?quick_addConfigVars@@YAXXZ 660472b0 f   quick.obj
 0001:000462f0       ?quick_NewGame@@YAXXZ      660472f0 f   quick.obj
 0001:00046310       ?quick_EndGame@@YAXXZ      66047310 f   quick.obj
 0001:00046320       ?skillCount@@YAHH@Z        66047320 f   quick.obj
 0001:00046380       ?BackToTown@@YAHXZ         66047380 f   quick.obj
 0001:00046460       ?QuickToLevel@@YAHPAUstQuickToLevel@@@Z 66047460 f   quick.obj
 0001:000464b0       ?addQuickToLevel@@YAXHHH@Z 660474b0 f   quick.obj
 0001:000465c0       ?quickLoop@@YAXXZ          660475c0 f   quick.obj
 0001:000466a0       ?AutoBackToTown@@YIXPAE@Z  660476a0 f   quick.obj
 0001:000467c0       ?RecvCommand_60_Patch_ASM@@YAXXZ 660477c0 f   quick.obj
 0001:000467d0       ?setGameNamePassword@@YAXPAD0@Z 660477d0 f   quick.obj
 0001:00046830       ?autoJoinGame@@YAXXZ       66047830 f   quick.obj
 0001:00046c60       ?joinGame@@YAXPAD0@Z       66047c60 f   quick.obj
 0001:00046d00       ?SaveGameName@@YAXXZ       66047d00 f   quick.obj
 0001:00046da0       ?QuickExitGame@@YAHXZ      66047da0 f   quick.obj
 0001:00046de0       ?QuickNextGame@@YAHH@Z     66047de0 f   quick.obj
 0001:00047050       ?NextGameNamePatch@@YIXPAUD2EditBox@@P6GH0HPAD@Z@Z 66048050 f   quick.obj
 0001:00047090       ?NextGamePasswordPatch@@YIXPAUD2EditBox@@P6GH0HPAD@Z@Z 66048090 f   quick.obj
 0001:000470d0       ?NextGameDecriptionPatch@@YIXPAUD2EditBox@@P6GH0HPAD@Z@Z 660480d0 f   quick.obj
 0001:00047110       ?SelectGamePatch@@YIPAXPAUD2EditBox@@PA_W@Z 66048110 f   quick.obj
 0001:000471b0       ?quickswap_addConfigVars@@YAXXZ 660481b0 f   QuickSwapItem.obj
 0001:000471f0       ?getInvTxt@@YAPAUInventoryBIN@@XZ 660481f0 f   QuickSwapItem.obj
 0001:00047270       ?putIntoCubeIndirect@@YAHXZ 66048270 f   QuickSwapItem.obj
 0001:00047350       ?putItem@@YAHPAUInventoryBIN@@PADH@Z 66048350 f   QuickSwapItem.obj
 0001:00047540       ?putIntoInv@@YAHXZ         66048540 f   QuickSwapItem.obj
 0001:00047560       ?putIntoStash@@YAHXZ       66048560 f   QuickSwapItem.obj
 0001:000475c0       ?MoveItem@@YAXPAUD2MSG@@@Z 660485c0 f   QuickSwapItem.obj
 0001:00048590       ?RButtonUpHandlerPatch@@YGXPAUD2MSG@@@Z 66049590 f   QuickSwapItem.obj
 0001:000485d0       ?RButtonUpHandlerPatch_ASM@@YAXXZ 660495d0 f   QuickSwapItem.obj
 0001:000485f0       ?RButtonInTradePatch_ASM@@YAXXZ 660495f0 f   QuickSwapItem.obj
 0001:00048600       ?CtrlClickHandlerPatch_ASM@@YAXXZ 66049600 f   QuickSwapItem.obj
 0001:00048630       ?clickCubeTransformButton@@YAXXZ 66049630 f   QuickSwapItem.obj
 0001:00048680       ?autoCubeTransform@@YAHXZ  66049680 f   QuickSwapItem.obj
 0001:00048ba0       ?quickswap_NewGame@@YAXXZ  66049ba0 f   QuickSwapItem.obj
 0001:00048bd0       ?RecvPacket3FPatch_ASM@@YAXXZ 66049bd0 f   QuickSwapItem.obj
 0001:00048bf0       ?activeItemStack@@YAXH@Z   66049bf0 f   QuickSwapItem.obj
 0001:00048c60       ?autoIdentify@@YAHXZ       66049c60 f   QuickSwapItem.obj
 0001:00048d90       ?autoSimpleItemStack@@YAHXZ 66049d90 f   QuickSwapItem.obj
 0001:00048f50       ?dropRune789@@YAXXZ        66049f50 f   QuickSwapItem.obj
 0001:00049070       ?Resolution_AddConfigVars@@YAXXZ 6604a070 f   resolution.obj
 0001:000490b0       ?changeResolution@@YAXH@Z  6604a0b0 f   resolution.obj
 0001:000490c0       ?resolution_init@@YAXXZ    6604a0c0 f   resolution.obj
 0001:00049110       ?resolution_uninit@@YAXXZ  6604a110 f   resolution.obj
 0001:00049160       ?fitWindowToResolution@@YAXXZ 6604a160 f   resolution.obj
 0001:000492a0       ?fitResolution@@YAXXZ      6604a2a0 f   resolution.obj
 0001:00049580       ?SetBitBlockWidthAndHeightPatch_ASM@@YAXXZ 6604a580 f   resolution.obj
 0001:00049590       ?SetCelDisplayLeftAndRightPatch_ASM@@YAXXZ 6604a590 f   resolution.obj
 0001:000495b0       ?IsNeedRestoreDownWindowPatchW_ASM@@YAXXZ 6604a5b0 f   resolution.obj
 0001:000495b0       ?IsNeedResizeWindowPatchW_ASM@@YAXXZ 6604a5b0 f   resolution.obj
 0001:000495c0       ?IsNeedResizeWindowPatchH_ASM@@YAXXZ 6604a5c0 f   resolution.obj
 0001:000495c0       ?IsNeedRestoreDownWindowPatchH_ASM@@YAXXZ 6604a5c0 f   resolution.obj
 0001:000495d0       ?SetDisplayWidthAndHeightPatch_ASM@@YAXXZ 6604a5d0 f   resolution.obj
 0001:000495f0       ?SetGeneralDisplayWidthAndHeightPatch_ASM@@YAXXZ 6604a5f0 f   resolution.obj
 0001:00049610       ?GetGlobalBeltSlotPositionPatch_ASM@@YAXXZ 6604a610 f   resolution.obj
 0001:000496c0       ?GetGlobalBeltRecordPatch_ASM@@YAXXZ 6604a6c0 f   resolution.obj
 0001:00049790       ?AdjustWindowRectExPatch_ASM@@YAXXZ 6604a790 f   resolution.obj
 0001:000498e0       ?ClearFramebufPatch_ASM@@YAXXZ 6604a8e0 f   resolution.obj
 0001:00049900       ?DrawLeftOrbImagePatch_ASM@@YAXXZ 6604a900 f   resolution.obj
 0001:00049930       ?DrawLeftOrbPatch_ASM@@YAXXZ 6604a930 f   resolution.obj
 0001:00049950       ?DrawRightOrbImagePatch_ASM@@YAXXZ 6604a950 f   resolution.obj
 0001:00049980       ?DrawRightOrbPatch_ASM@@YAXXZ 6604a980 f   resolution.obj
 0001:000499a0       ?FillLeftOrbPatch_ASM@@YAXXZ 6604a9a0 f   resolution.obj
 0001:000499c0       ?FillRightOrbPatch_ASM@@YAXXZ 6604a9c0 f   resolution.obj
 0001:000499e0       ?DrawLeftSkillButtonPatch_ASM@@YAXXZ 6604a9e0 f   resolution.obj
 0001:00049a00       ?DrawRightSkillButtonPatch_ASM@@YAXXZ 6604aa00 f   resolution.obj
 0001:00049a20       ?DisplayHPTextPatch_ASM@@YAXXZ 6604aa20 f   resolution.obj
 0001:00049a40       ?DisplayManaTextPatch_ASM@@YAXXZ 6604aa40 f   resolution.obj
 0001:00049a60       ?DrawGroundHeightPatch_ASM@@YAXXZ 6604aa60 f   resolution.obj
 0001:00049a90       ?BottomBoundPatch_ASM@@YAXXZ 6604aa90 f   resolution.obj
 0001:00049ab0       ?installResolutionPatches@@YAHXZ 6604aab0 f   resolution.obj
 0001:00049f60       ?autoskill_addConfigVars@@YAXXZ 6604af60 f   skill.obj
 0001:00049fa0       ?autoskill_initConfigVars@@YAXXZ 6604afa0 f   skill.obj
 0001:0004a100       ?AutoSkillNewGame@@YAXXZ   6604b100 f   skill.obj
 0001:0004a170       ?checkAutoSkill@@YAXXZ     6604b170 f   skill.obj
 0001:0004a4b0       ?checkAutoSkillStatus@@YAXXZ 6604b4b0 f   skill.obj
 0001:0004a590       ?stackThrowing@@YAXXZ      6604b590 f   skill.obj
 0001:0004a650       ?AutoSkillNow@@YAHXZ       6604b650 f   skill.obj
 0001:0004a680       ?AutoSkillRunLoop@@YAXXZ   6604b680 f   skill.obj
 0001:0004bc80       ?autoSkillDimVision@@YIXPAD@Z 6604cc80 f   skill.obj
 0001:0004bcd0       ?autoTelekinesis@@YAHXZ    6604ccd0 f   skill.obj
 0001:0004bdf0       ?Snapshot_AddConfigVars@@YAXXZ 6604cdf0 f   Snapshot.obj
 0001:0004be30       ?hex@@YAXPAU_iobuf@@HPAXH@Z 6604ce30 f   Snapshot.obj
 0001:0004bfc0       ?LoadLogNames@@YAXPAU_iobuf@@@Z 6604cfc0 f   Snapshot.obj
 0001:0004c5b0       ?getSnapshotPath1@@YAXPAD00000D@Z 6604d5b0 f   Snapshot.obj
 0001:0004ca90       ?getSnapshotPath@@YAXPAD00000D@Z 6604da90 f   Snapshot.obj
 0001:0004cae0       ?openSnapshotFile@@YAPAU_iobuf@@PAD00D0H@Z 6604dae0 f   Snapshot.obj
 0001:0004cc00       ?openDbgFile@@YAPAU_iobuf@@PAD@Z 6604dc00 f   Snapshot.obj
 0001:0004ce30       ?SnapshotNewGame@@YAXXZ    6604de30 f   Snapshot.obj
 0001:0004d070       ?SnapshotEndGame@@YAXXZ    6604e070 f   Snapshot.obj
 0001:0004d3e0       ?dumpStat@@YAXPAU_iobuf@@HHPAH@Z 6604e3e0 f   Snapshot.obj
 0001:0004d920       ?countAllGemRunes@@YAXXZ   6604e920 f   Snapshot.obj
 0001:0004df20       ?dumpStatList@@YAHPAU_iobuf@@PAUStatList@@H@Z 6604ef20 f   Snapshot.obj
 0001:0004e450       ?loadWaypoints@@YAXPADH@Z  6604f450 f   Snapshot.obj
 0001:0004e500       ?saveWaypoints@@YAXPADH@Z  6604f500 f   Snapshot.obj
 0001:00051d90       ?dumpUnit2@@YAXPAU_iobuf@@PAUUnitAny@@@Z 66052d90 f   Snapshot.obj
 0001:00051f70       ?dumpMap@@YAXXZ            66052f70 f   Snapshot.obj
 0001:000524e0       ?saveMercInfo@@YIXPAD@Z    660534e0 f   Snapshot.obj
 0001:00052620       ?RecvCommand_81_Patch_ASM@@YAXXZ 66053620 f   Snapshot.obj
 0001:00052630       ?removeSnapshot@@YAXPAD00@Z 66053630 f   Snapshot.obj
 0001:00052870       ?dumpServerQuest@@YAXPAU_iobuf@@@Z 66053870 f   Snapshot.obj
 0001:00052af0       ?DoSnapshot@@YAHXZ         66053af0 f   Snapshot.obj
 0001:000530c0       ?saveItems@@YAXXZ          660540c0 f   snap.obj
 0001:00053530       ?formatItems@@YAXPAD00@Z   66054530 f   snap.obj
 0001:00054cc0       ?scan_realm@@YAXPAD@Z      66055cc0 f   snap.obj
 0001:00055100       ?rebuild_snap@@YAXXZ       66056100 f   snap.obj
 0001:00055300       ?AutoSummonNewGame@@YAXXZ  66056300 f   summon.obj
 0001:000553f0       ?checkSkeletonCount@@YAXXZ 660563f0 f   summon.obj
 0001:000555c0       ?AutoSummonRunLoop@@YAXXZ  660565c0 f   summon.obj
 0001:00055df0       ?addUnit@@YIXPAUUnitAny@@@Z 66056df0 f   summon.obj
 0001:00055e70       ?AddUnitPatch_ASM@@YAXXZ   66056e70 f   summon.obj
 0001:00055e90       ?RemoveUnitPatch1_ASM@@YAXXZ 66056e90 f   summon.obj
 0001:00055eb0       ?RemoveUnitPatch2_ASM@@YAXXZ 66056eb0 f   summon.obj
 0001:00055ed0       ?RecvCommand_69_Patch_ASM@@YAXXZ 66056ed0 f   summon.obj
 0001:00056290       ?RecvCommand_7A_Patch_ASM@@YAXXZ 66057290 f   summon.obj
 0001:000562c0       ?RecvCommand_21_Patch_ASM@@YAXXZ 660572c0 f   summon.obj
 0001:000562e0       ?autoteleport_addConfigVars@@YAXXZ 660572e0 f   teleport.obj
 0001:00056320       ?autoteleport_initConfigVars@@YAXXZ 66057320 f   teleport.obj
 0001:00056350       ?autoteleport_fixValues@@YAXXZ 66057350 f   teleport.obj
 0001:00056370       ?autoTpEvade@@YAHPAD@Z     66057370 f   teleport.obj
 0001:00057350       ?AutoTeleportStart@@YAHXZ  66058350 f   teleport.obj
 0001:000573f0       ?AutoTeleportEnd@@YAHXZ    660583f0 f   teleport.obj
 0001:00057470       ?AutoTeleport@@YAHXZ       66058470 f   teleport.obj
 0001:000586c0       ?abs@@YAJJ@Z               660596c0 f i teleport.obj
 0001:00058f00       ?dumpRunewordTxt@@YAXXZ    66059f00 f   txt.obj
 0001:00059270       ?dumpTxt@@YAXXZ            6605a270 f   txt.obj
 0001:00059840       ?panel_addConfigVars@@YAXXZ 6605a840 f   panel.obj
 0001:00059880       ?printPanelConf@@YAPADHPAD0@Z 6605a880 f   panel.obj
 0001:000599b0       ?panelNewGame@@YAXXZ       6605a9b0 f   panel.obj
 0001:00059b40       ?panelEndGame@@YAXXZ       6605ab40 f   panel.obj
 0001:00059b70       ?modifyStashGrid@@YAXXZ    6605ab70 f   panel.obj
 0001:0005a070       ?MpqLoadPatch@@YIXPAD0@Z   6605b070 f   panel.obj
 0001:0005a150       ?MqpLoadPathPatch_ASM@@YAXXZ 6605b150 f   panel.obj
 0001:0005a170       ?ModifyStashImagePatch_ASM@@YAXXZ 6605b170 f   panel.obj
 0001:0005a180       ?ModifyCubeImagePatch_ASM@@YAXXZ 6605b180 f   panel.obj
 0001:0005a1b0       ?ModifyInvCharImagePatch_ASM@@YAXXZ 6605b1b0 f   panel.obj
 0001:0005a1f0       ?ChooseInvCharImagePatch_ASM@@YAXXZ 6605b1f0 f   panel.obj
 0001:0005a220       ?CalDrawOffsetPatch_ASM@@YAXXZ 6605b220 f   panel.obj
 0001:0005a2b0       ?GetEquipmentSlotLayoutPatch_ASM@@YAXXZ 6605b2b0 f   panel.obj
 0001:0005a450       ?GetInventoryGridLayoutPatch_ASM@@YAXXZ 6605b450 f   panel.obj
 0001:0005a500       ?GetInventoryPositionPatch_ASM@@YAXXZ 6605b500 f   panel.obj
 0001:0005a5b0       ?AddSkillPatch_ASM@@YAXXZ  6605b5b0 f   panel.obj
 0001:0005a630       ?RecvCommand_26_Patch_ASM@@YAXXZ 6605b630 f   panel.obj
 0001:0005aa30       ?installPanelPatches@@YAHXZ 6605ba30 f   panel.obj
 0001:0005abd0       ?uninstallBigstashPatches@@YAHXZ 6605bbd0 f   panel.obj
 0001:0005abf0       ?installBigstashPatches@@YAHXZ 6605bbf0 f   panel.obj
 0001:0005b0b0       ?server_addConfigVars@@YAXXZ 6605c0b0 f   server.obj
 0001:0005b0f0       ?client_unassign_stat@@YAHHH@Z 6605c0f0 f   server.obj
 0001:0005b1d0       ?client_mouse_stat@@YAHHH@Z 6605c1d0 f   server.obj
 0001:0005b2a0       ?getSkillDescTxt@@YAPAXH@Z 6605c2a0 f   server.obj
 0001:0005b2b0       ?getSkillTreeButtonY@@YAHH@Z 6605c2b0 f   server.obj
 0001:0005b2c0       ?getSkillTreeButtonX@@YAHH@Z 6605c2c0 f   server.obj
 0001:0005b2d0       ?client_mouse_skillBtn@@YAHHH@Z 6605c2d0 f   server.obj
 0001:0005b3d0       ?client_unassign_skill@@YAHHH@Z 6605c3d0 f   server.obj
 0001:0005b4b0       ?client_reset_quest@@YAHH@Z 6605c4b0 f   server.obj
 0001:0005b4e0       ?UndoStr@@YAXPAUUnitAny@@H@Z 6605c4e0 f   server.obj
 0001:0005b580       ?UndoDex@@YAXPAUUnitAny@@H@Z 6605c580 f   server.obj
 0001:0005b620       ?UndoVit@@YAXPAUUnitAny@@H@Z 6605c620 f   server.obj
 0001:0005b720       ?UndoEne@@YAXPAUUnitAny@@H@Z 6605c720 f   server.obj
 0001:0005b7f0       ?getClient@@YAPAXPAUUnitAny@@@Z 6605c7f0 f   server.obj
 0001:0005b820       ?UndoSkill@@YAXPAUUnitAny@@HH@Z 6605c820 f   server.obj
 0001:0005ba00       ?getQuest@@YAPAGPAUWorld@@PAUUnitAny@@@Z 6605ca00 f   server.obj
 0001:0005ba40       ?serverUndo@@YAHPAUWorld@@PAUUnitAny@@PAD2@Z 6605ca40 f   server.obj
 0001:0005c130       ?ModifyStashGridPatch_ASM@@YAXXZ 6605d130 f   server.obj
 0001:0005c140       ?compileRunesTxt@@YGPAXHPADPAUTxtField@@PAHH@Z 6605d140 f   server.obj
 0001:0005c1a0       ?GameStartPatch_ASM@@YAXXZ 6605d1a0 f   server.obj
 0001:0005c340       ?DoServerTest@@YAHXZ       6605d340 f   server.obj
 0001:0005c420       ?installServerPatches@@YAHXZ 6605d420 f   server.obj
 0001:0005c950       ?RepeatAdminCmd@@YAHXZ     6605d950 f   admin.obj
 0001:0005c9c0       ?ClientChatPatch_ASM@@YAXXZ 6605d9c0 f   admin.obj
 0001:0005ca60       ?setCharLv@@YAXPAUWorld@@PAUUnitAny@@H@Z 6605da60 f   admin.obj
 0001:0005cb10       ?maxCharStat@@YAXPAUWorld@@PAUUnitAny@@@Z 6605db10 f   admin.obj
 0001:0005cbe0       ?enableAllWaypoints@@YAXPAUUnitAny@@@Z 6605dbe0 f   admin.obj
 0001:0005cc60       ?passGame@@YAHPAUWorld@@PAUUnitAny@@H@Z 6605dc60 f   admin.obj
 0001:0005ce80       ?itemIndex2txt@@YAHH@Z     6605de80 f   admin.obj
 0001:0005cf10       ?SelectUniquePatch_ASM@@YAXXZ 6605df10 f   admin.obj
 0001:0005cfe0       ?SelectSetPatch_ASM@@YAXXZ 6605dfe0 f   admin.obj
 0001:0005d070       ?getItemTxtByCode@@YAHH@Z  6605e070 f   admin.obj
 0001:0005d120       ?getRunewordTxt@@YAPAURuneWordTxt@@H@Z 6605e120 f   admin.obj
 0001:0005d160       ?pickupItem@@YAXPAUWorld@@PAUUnitAny@@1H@Z 6605e160 f   admin.obj
 0001:0005d1c0       ?invToHand@@YAXPAUWorld@@PAUUnitAny@@1@Z 6605e1c0 f   admin.obj
 0001:0005d200       ?handToBody@@YAXPAUWorld@@PAUUnitAny@@1H@Z 6605e200 f   admin.obj
 0001:0005d290       ?putItemIntoSocket@@YAXPAUWorld@@PAUUnitAny@@11@Z 6605e290 f   admin.obj
 0001:0005d2d0       ?autoPortal@@YAHPAUWorld@@PAUUnitAny@@@Z 6605e2d0 f   admin.obj
 0001:0005d700       ?MonsterSleepPatch_ASM@@YAXXZ 6605e700 f   admin.obj
 0001:0005d720       ?skipServerPacket15@@YIHPAUWorld@@PAUUnitAny@@PADH@Z 6605e720 f   admin.obj
 0001:000603f0       ?ServerRecvPacket15Patch_ASM@@YAXXZ 660613f0 f   admin.obj
 0001:00060420       ?uber_addConfigVars@@YAXXZ 66061420 f   uber.obj
 0001:00060460       ?resetUberQuest@@YAXXZ     66061460 f   uber.obj
 0001:000604d0       ?openPandPortal@@YIHPAUWorld@@PAUUnitAny@@@Z 660614d0 f   uber.obj
 0001:00060590       ?openPandFinalPortal@@YIHPAUWorld@@PAUUnitAny@@@Z 66061590 f   uber.obj
 0001:000605d0       ?spawnSuperUnique@@YAHPAUWorld@@PAUAreaRectData@@HHHHHH@Z 660615d0 f   uber.obj
 0001:00060600       ?monsterUseSkill@@YAXPAUWorld@@PAUUnitAny@@HH1HH@Z 66061600 f   uber.obj
 0001:00060640       ?spawnUber@@YGXPAUWorld@@PAUAreaRectData@@@Z 66061640 f   uber.obj
 0001:00060890       ?GetNbMonsters@@YAHPAUDrlgLevel@@@Z 66061890 f   uber.obj
 0001:00060920       ?GetNbMonstersRadius@@YAHPAUDrlgLevel@@UtagPOINT@@H@Z 66061920 f   uber.obj
 0001:000609e0       ?CastSummonMonster@@YAHPAUWorld@@PAUUnitAny@@HHPAHHH@Z 660619e0 f   uber.obj
 0001:00060b10       ?randf@@YANXZ              66061b10 f   uber.obj
 0001:00060b30       ?RandInCircle@@YAXPAUtagPOINT@@H@Z 66061b30 f   uber.obj
 0001:00060b90       ?uberMephAI@@YIXPAUWorld@@PAUUnitAny@@PAUAIParam@@@Z 66061b90 f   uber.obj
 0001:00060c20       ?uberDiabloAI@@YIXPAUWorld@@PAUUnitAny@@PAUAIParam@@@Z 66061c20 f   uber.obj
 0001:00060d70       ?uberBaalAI@@YIXPAUWorld@@PAUUnitAny@@PAUAIParam@@@Z 66061d70 f   uber.obj
 0001:00060f40       ?installUberQuestPatches@@YAHXZ 66061f40 f   uber.obj
 0001:00061066       ??0_LocaleUpdate@@QAE@PAUlocaleinfo_struct@@@Z 66062066 f i LIBCMT:stricmp.obj
 0001:000610ed       ___ascii_stricmp           660620ed f   LIBCMT:stricmp.obj
 0001:00061126       __stricmp_l                66062126 f   LIBCMT:stricmp.obj
 0001:000611fb       __stricmp                  660621fb f   LIBCMT:stricmp.obj
 0001:0006124d       __flush                    6606224d f   LIBCMT:fflush.obj
 0001:000612b5       __fflush_nolock            660622b5 f   LIBCMT:fflush.obj
 0001:000613d7       _fflush                    660623d7 f   LIBCMT:fflush.obj
 0001:0006142a       __flushall                 6606242a f   LIBCMT:fflush.obj
 0001:00061433       _fprintf                   66062433 f   LIBCMT:fprintf.obj
 0001:0006154f       _bsearch                   6606254f f   LIBCMT:bsearch.obj
 0001:00061611       @__security_check_cookie@4 66062611 f   LIBCMT:secchk.obj
 0001:00061620       _sprintf                   66062620 f   LIBCMT:sprintf.obj
 0001:000616a0       _memset                    660626a0 f   LIBCMT:memset.obj
 0001:0006171a       __fclose_nolock            6606271a f   LIBCMT:fclose.obj
 0001:00061791       _fclose                    66062791 f   LIBCMT:fclose.obj
 0001:0006180d       _fputs                     6606280d f   LIBCMT:fputs.obj
 0001:00061920       _strncpy                   66062920 f   LIBCMT:strncpy.obj
 0001:00061a60       _strchr                    66062a60 f   LIBCMT:strchr.obj
 0001:00061a66       ___from_strstr_to_strchr   66062a66     LIBCMT:strchr.obj
 0001:00061b20       _strrchr                   66062b20 f   LIBCMT:strrchr.obj
 0001:00061c10       _qsort                     66062c10 f   LIBCMT:qsort.obj
 0001:00061e5d       _realloc                   66062e5d f   LIBCMT:realloc.obj
 0001:00062080       _memcpy                    66063080 f   LIBCMT:memcpy.obj
 0001:000623e5       __isalpha_l                660633e5 f i LIBCMT:_ctype.obj
 0001:0006243b       _isalpha                   6606343b f i LIBCMT:_ctype.obj
 0001:0006246b       __isdigit_l                6606346b f i LIBCMT:_ctype.obj
 0001:000624bc       _isdigit                   660634bc f i LIBCMT:_ctype.obj
 0001:000624ea       __isspace_l                660634ea f i LIBCMT:_ctype.obj
 0001:0006253b       _isspace                   6606353b f i LIBCMT:_ctype.obj
 0001:00062569       __isalnum_l                66063569 f i LIBCMT:_ctype.obj
 0001:000625bf       _isalnum                   660635bf f i LIBCMT:_ctype.obj
 0001:0006281e       _strtol                    6606381e f   LIBCMT:strtol.obj
 0001:00062849       _strtoul                   66063849 f   LIBCMT:strtol.obj
 0001:00062875       __toupper_l                66063875 f   LIBCMT:toupper.obj
 0001:0006298b       _toupper                   6606398b f   LIBCMT:toupper.obj
 0001:000629b7       ___iob_func                660639b7 f   LIBCMT:_file.obj
 0001:000629bd       ___initstdio               660639bd f   LIBCMT:_file.obj
 0001:00062a6e       ___endstdio                66063a6e f   LIBCMT:_file.obj
 0001:00062a8e       __lock_file                66063a8e f   LIBCMT:_file.obj
 0001:00062acf       __lock_file2               66063acf f   LIBCMT:_file.obj
 0001:00062b01       __unlock_file              66063b01 f   LIBCMT:_file.obj
 0001:00062b3d       __unlock_file2             66063b3d f   LIBCMT:_file.obj
 0001:00062b6c       __fpclear                  66063b6c f   LIBCMT:_fpinit_.obj
 0001:00062b6c       __initp_misc_winxfltr      66063b6c f   LIBCMT:winxfltr.obj
 0001:00062b6d       __cfltcvt_init             66063b6d f   LIBCMT:_fpinit_.obj
 0001:00062bcd       __fpmath                   66063bcd f   LIBCMT:_fpinit_.obj
 0001:00062bf0       __except_handler4          66063bf0 f   LIBCMT:chandler4.obj
 0001:00062d7c       _V6_HeapAlloc              66063d7c f   LIBCMT:malloc.obj
 0001:00062dcb       _malloc                    66063dcb f   LIBCMT:malloc.obj
 0001:00062ea0       _strstr                    66063ea0 f   LIBCMT:strstr.obj
 0001:00062f26       _fgets                     66063f26 f   LIBCMT:fgets.obj
 0001:0006306e       __fseek_nolock             6606406e f   LIBCMT:fseek.obj
 0001:000630f8       _fseek                     660640f8 f   LIBCMT:fseek.obj
 0001:0006317d       __fread_nolock_s           6606417d f   LIBCMT:fread.obj
 0001:00063387       _fread_s                   66064387 f   LIBCMT:fread.obj
 0001:0006341d       _fread                     6606441d f   LIBCMT:fread.obj
 0001:0006343a       __memicmp_l                6606443a f   LIBCMT:memicmp.obj
 0001:0006350f       __memicmp                  6606450f f   LIBCMT:memicmp.obj
 0001:0006356e       _strtok                    6606456e f   LIBCMT:strtok.obj
 0001:00063630       __ftol2_sse                66064630 f   LIBCMT:ftol2.obj
 0001:00063639       __ftol2_pentium4           66064639 f   LIBCMT:ftol2.obj
 0001:0006364c       __ftol2_sse_excpt          6606464c f   LIBCMT:ftol2.obj
 0001:00063666       __ftol2                    66064666 f   LIBCMT:ftol2.obj
 0001:000636db       ??3@YAXPAX@Z               660646db f   LIBCMT:delete.obj
 0001:000636e6       ??0bad_alloc@std@@QAE@XZ   660646e6 f i LIBCMT:new.obj
 0001:00063701       ??1bad_alloc@std@@UAE@XZ   66064701 f i LIBCMT:new.obj
 0001:0006370c       ??_Gbad_alloc@std@@UAEPAXI@Z 6606470c f i LIBCMT:new.obj
 0001:0006370c       ??_Ebad_alloc@std@@UAEPAXI@Z 6606470c f i LIBCMT:new.obj
 0001:00063733       ??0bad_alloc@std@@QAE@ABV01@@Z 66064733 f i LIBCMT:new.obj
 0001:00063750       ??2@YAPAXI@Z               66064750 f   LIBCMT:new.obj
 0001:000637b5       _free                      660647b5 f   LIBCMT:free.obj
 0001:0006391d       __stat64i32                6606491d f   LIBCMT:stati32.obj
 0001:00063cf1       __fwrite_nolock            66064cf1 f   LIBCMT:fwrite.obj
 0001:00063e53       _fwrite                    66064e53 f   LIBCMT:fwrite.obj
 0001:00063ed5       __fsopen                   66064ed5 f   LIBCMT:fopen.obj
 0001:00063f99       _fopen                     66064f99 f   LIBCMT:fopen.obj
 0001:00063fb0       __snprintf                 66064fb0 f   LIBCMT:snprintf.obj
 0001:0006405f       __ftell_nolock             6606505f f   LIBCMT:ftell.obj
 0001:000641fc       _ftell                     660651fc f   LIBCMT:ftell.obj
 0001:00064270       __chkstk                   66065270 f   LIBCMT:chkstk.obj
 0001:00064270       __alloca_probe             66065270     LIBCMT:chkstk.obj
 0001:000642a0       __CIsqrt                   660652a0 f   LIBCMT:_sqrt_.obj
 0001:000642b4       _sqrt                      660652b4     LIBCMT:_sqrt_.obj
 0001:0006435a       __vsnprintf_l              6606535a f   LIBCMT:vsnprint.obj
 0001:0006440d       __vsnprintf                6606540d f   LIBCMT:vsnprint.obj
 0001:0006442a       __strdup                   6606542a f   LIBCMT:strdup.obj
 0001:0006447f       _fputc                     6606547f f   LIBCMT:fputc.obj
 0001:0006458b       _rand                      6606558b f   LIBCMT:rand.obj
 0001:000645ad       _rename                    660655ad f   LIBCMT:rename.obj
 0001:000645e0       _memmove                   660655e0 f   LIBCMT:memmove.obj
 0001:00064945       __isleadbyte_l             66065945 f i LIBCMT:_wctype.obj
 0001:0006497d       _isleadbyte                6606597d f i LIBCMT:_wctype.obj
 0001:00064990       _iswspace                  66065990 f i LIBCMT:_wctype.obj
 0001:000649a3       _printf                    660659a3 f   LIBCMT:printf.obj
 0001:00064a52       __get_printf_count_output  66065a52 f   LIBCMT:printf.obj
 0001:00064a68       __time64                   66065a68 f   LIBCMT:time64.obj
 0001:00064ab9       __freea                    66065ab9 f i LIBCMT:strupr.obj
 0001:00064c57       __strupr_s_l               66065c57 f   LIBCMT:strupr.obj
 0001:00064c8c       __strupr                   66065c8c f   LIBCMT:strupr.obj
 0001:00064eeb       _wcstol                    66065eeb f   LIBCMT:wcstol.obj
 0001:00064f20       __allshr                   66065f20 f   LIBCMT:llshr.obj
 0001:00064f50       _sin                       66065f50 f   LIBCMT:_sin_.obj
 0001:00064f90       __CIsin                    66065f90 f   LIBCMT:_sin_.obj
 0001:00064fcb       __CIsin_default            66065fcb f   LIBCMT:_sin_.obj
 0001:00064fdf       __sin_default              66065fdf     LIBCMT:_sin_.obj
 0001:00065080       _cos                       66066080 f   LIBCMT:_cos_.obj
 0001:000650c0       __CIcos                    660660c0 f   LIBCMT:_cos_.obj
 0001:000650fb       __CIcos_default            660660fb f   LIBCMT:_cos_.obj
 0001:0006510f       __cos_default              6606610f     LIBCMT:_cos_.obj
 0001:000651a9       __CRT_INIT@12              660661a9 f   LIBCMT:dllcrt0.obj
 0001:000653d4       __DllMainCRTStartup@12     660663d4 f   LIBCMT:dllcrt0.obj
 0001:0006561d       ___updatetmbcinfo          6606661d f   LIBCMT:mbctype.obj
 0001:0006573d       __setmbcp_nolock           6606673d f   LIBCMT:mbctype.obj
 0001:00065922       __setmbcp                  66066922 f   LIBCMT:mbctype.obj
 0001:00065abc       ___initmbctable            66066abc f   LIBCMT:mbctype.obj
 0001:00065ada       ___freetlocinfo            66066ada f   LIBCMT:setlocal.obj
 0001:00065c23       ___addlocaleref            66066c23 f   LIBCMT:setlocal.obj
 0001:00065cb2       ___removelocaleref         66066cb2 f   LIBCMT:setlocal.obj
 0001:00065d89       ___updatetlocinfo          66066d89 f   LIBCMT:setlocal.obj
 0001:00065dff       __encode_pointer           66066dff f   LIBCMT:tidtable.obj
 0001:00065e71       __encoded_null             66066e71 f   LIBCMT:tidtable.obj
 0001:00065e7a       __decode_pointer           66066e7a f   LIBCMT:tidtable.obj
 0001:00065eec       ___crtTlsAlloc@4           66066eec f   LIBCMT:tidtable.obj
 0001:00065ef5       ___set_flsgetvalue         66066ef5 f   LIBCMT:tidtable.obj
 0001:00065f29       __mtterm                   66066f29 f   LIBCMT:tidtable.obj
 0001:00065f66       __initptd                  66066f66 f   LIBCMT:tidtable.obj
 0001:0006604d       __getptd_noexit            6606704d f   LIBCMT:tidtable.obj
 0001:000660c6       __getptd                   660670c6 f   LIBCMT:tidtable.obj
 0001:000660e0       __freefls@4                660670e0 f   LIBCMT:tidtable.obj
 0001:0006620f       __freeptd                  6606720f f   LIBCMT:tidtable.obj
 0001:0006627d       __mtinit                   6606727d f   LIBCMT:tidtable.obj
 0001:0006640a       __tolower_l                6606740a f   LIBCMT:tolower.obj
 0001:0006651f       _tolower                   6606751f f   LIBCMT:tolower.obj
 0001:0006654b       __initp_misc_invarg        6606754b f   LIBCMT:invarg.obj
 0001:0006655a       __invoke_watson            6606755a f   LIBCMT:invarg.obj
 0001:00066682       __invalid_parameter        66067682 f   LIBCMT:invarg.obj
 0001:000666a8       __get_errno_from_oserr     660676a8 f   LIBCMT:dosmap.obj
 0001:000666ea       __errno                    660676ea f   LIBCMT:dosmap.obj
 0001:000666fd       ___doserrno                660676fd f   LIBCMT:dosmap.obj
 0001:00066710       __dosmaperr                66067710 f   LIBCMT:dosmap.obj
 0001:00066733       __write_nolock             66067733 f   LIBCMT:write.obj
 0001:00066e66       __write                    66067e66 f   LIBCMT:write.obj
 0001:00066f42       __fileno                   66067f42 f   LIBCMT:fileno.obj
 0001:00066f74       __commit                   66067f74 f   LIBCMT:commit.obj
 0001:00067055       __mtinitlocks              66068055 f   LIBCMT:mlock.obj
 0001:000670a0       __mtdeletelocks            660680a0 f   LIBCMT:mlock.obj
 0001:000670f7       __unlock                   660680f7 f   LIBCMT:mlock.obj
 0001:0006710e       __mtinitlocknum            6606810e f   LIBCMT:mlock.obj
 0001:000671d1       __lock                     660681d1 f   LIBCMT:mlock.obj
 0001:00067204       __SEH_prolog4              66068204 f   LIBCMT:sehprolg4.obj
 0001:00067249       __SEH_epilog4              66068249 f   LIBCMT:sehprolg4.obj
 0001:0006725d       __stbuf                    6606825d f   LIBCMT:_sftbuf.obj
 0001:000672f9       __ftbuf                    660682f9 f   LIBCMT:_sftbuf.obj
 0001:000673d3       __output_l                 660683d3 f   LIBCMT:output.obj
 0001:00067f6b       __ioinit                   66068f6b f   LIBCMT:ioinit.obj
 0001:000681bf       __ioterm                   660691bf f   LIBCMT:ioinit.obj
 0001:0006820d       ___report_gsfailure        6606920d f   LIBCMT:gs_report.obj
 0001:00068313       __flsbuf                   66069313 f   LIBCMT:_flsbuf.obj
 0001:000684ce       __VEC_memzero              660694ce f   LIBCMT:p4_memset.obj
 0001:000685ad       __get_sse2_info            660695ad f   LIBCMT:cpu_disp.obj
 0001:0006860f       ___sse2_available_init     6606960f f   LIBCMT:cpu_disp.obj
 0001:0006861c       __close_nolock             6606961c f   LIBCMT:close.obj
 0001:000686b8       __close                    660696b8 f   LIBCMT:close.obj
 0001:00068785       __freebuf                  66069785 f   LIBCMT:_freebuf.obj
 0001:000687c0       _strlen                    660697c0 f   LIBCMT:strlen.obj
 0001:0006884b       __initp_heap_handler       6606984b f   LIBCMT:handler.obj
 0001:0006885a       __callnewh                 6606985a f   LIBCMT:handler.obj
 0001:00068882       __heap_init                66069882 f   LIBCMT:heapinit.obj
 0001:000688b2       __heap_term                660698b2 f   LIBCMT:heapinit.obj
 0001:00068926       ___sbh_find_block          66069926 f   LIBCMT:sbheap.obj
 0001:00068956       ___sbh_free_block          66069956 f   LIBCMT:sbheap.obj
 0001:00068c6c       ___sbh_alloc_new_region    66069c6c f   LIBCMT:sbheap.obj
 0001:00068d1c       ___sbh_alloc_new_group     66069d1c f   LIBCMT:sbheap.obj
 0001:00068e24       ___sbh_resize_block        66069e24 f   LIBCMT:sbheap.obj
 0001:00069105       ___sbh_alloc_block         6606a105 f   LIBCMT:sbheap.obj
 0001:00069471       __VEC_memcpy               6606a471 f   LIBCMT:p4_memcpy.obj
 0001:00069554       __isctype_l                6606a554 f   LIBCMT:isctype.obj
 0001:000699b1       ___crtLCMapStringA         6606a9b1 f   LIBCMT:a_map.obj
 0001:000699f6       __malloc_crt               6606a9f6 f   LIBCMT:crtheap.obj
 0001:00069a3b       __calloc_crt               6606aa3b f   LIBCMT:crtheap.obj
 0001:00069a87       __realloc_crt              6606aa87 f   LIBCMT:crtheap.obj
 0001:00069ad5       __recalloc_crt             6606aad5 f   LIBCMT:crtheap.obj
 0001:00069b27       __fcloseall                6606ab27 f   LIBCMT:closeall.obj
 0001:00069bc6       __crt_waiting_on_module_handle 6606abc6 f   LIBCMT:crt0dat.obj
 0001:00069bf6       __amsg_exit                6606abf6 f   LIBCMT:crt0dat.obj
 0001:00069c1f       ___crtCorExitProcess       6606ac1f f   LIBCMT:crt0dat.obj
 0001:00069c4a       ___crtExitProcess          6606ac4a f   LIBCMT:crt0dat.obj
 0001:00069c62       __lockexit                 6606ac62 f   LIBCMT:crt0dat.obj
 0001:00069c6b       __unlockexit               6606ac6b f   LIBCMT:crt0dat.obj
 0001:00069c91       __initterm_e               6606ac91 f   LIBCMT:crt0dat.obj
 0001:00069cb5       __cinit                    6606acb5 f   LIBCMT:crt0dat.obj
 0001:00069e66       __exit                     6606ae66 f   LIBCMT:crt0dat.obj
 0001:00069e7c       __cexit                    6606ae7c f   LIBCMT:crt0dat.obj
 0001:00069e8b       __init_pointers            6606ae8b f   LIBCMT:crt0dat.obj
 0001:00069ed9       __forcdecpt_l              6606aed9 f   LIBCMT:cvt.obj
 0001:00069f4c       __cropzeros_l              6606af4c f   LIBCMT:cvt.obj
 0001:00069fce       __positive                 6606afce f   LIBCMT:cvt.obj
 0001:00069fea       __fassign_l                6606afea f   LIBCMT:cvt.obj
 0001:0006a02c       __fassign                  6606b02c f   LIBCMT:cvt.obj
 0001:0006a065       __forcdecpt                6606b065 f   LIBCMT:cvt.obj
 0001:0006a078       __cropzeros                6606b078 f   LIBCMT:cvt.obj
 0001:0006a1fa       __cftoe_l                  6606b1fa f   LIBCMT:cvt.obj
 0001:0006a2ca       __cftoe                    6606b2ca f   LIBCMT:cvt.obj
 0001:0006a2ea       __cftoa_l                  6606b2ea f   LIBCMT:cvt.obj
 0001:0006a754       __cftof_l                  6606b754 f   LIBCMT:cvt.obj
 0001:0006a80f       __cftog_l                  6606b80f f   LIBCMT:cvt.obj
 0001:0006a909       __cfltcvt_l                6606b909 f   LIBCMT:cvt.obj
 0001:0006a991       __cfltcvt                  6606b991 f   LIBCMT:cvt.obj
 0001:0006a9b4       __initp_misc_cfltcvt_tab   6606b9b4 f   LIBCMT:cmiscdat.obj
 0001:0006a9d5       __setdefaultprecision      6606b9d5 f   LIBCMT:fp8.obj
 0001:0006aa00       __ms_p5_test_fdiv          6606ba00 f   LIBCMT:_testfdiv_.obj
 0001:0006aa3e       __ms_p5_mp_test_fdiv       6606ba3e f   LIBCMT:_testfdiv_.obj
 0001:0006aa68       __local_unwind4            6606ba68 f   LIBCMT:exsup4.obj
 0001:0006ab3e       __seh_longjmp_unwind4@4    6606bb3e f   LIBCMT:exsup4.obj
 0001:0006ab5a       @_EH4_CallFilterFunc@8     6606bb5a f   LIBCMT:exsup4.obj
 0001:0006ab71       @_EH4_TransferToHandler@8  6606bb71 f   LIBCMT:exsup4.obj
 0001:0006ab8a       @_EH4_GlobalUnwind@4       6606bb8a f   LIBCMT:exsup4.obj
 0001:0006aba4       @_EH4_LocalUnwind@16       6606bba4 f   LIBCMT:exsup4.obj
 0001:0006abc0       __ValidateImageBase        6606bbc0 f   LIBCMT:pesect.obj
 0001:0006ac00       __FindPESection            6606bc00 f   LIBCMT:pesect.obj
 0001:0006ac50       __IsNonwritableInCurrentImage 6606bc50 f   LIBCMT:pesect.obj
 0001:0006ad0d       __NMSG_WRITE               6606bd0d f   LIBCMT:crt0msg.obj
 0001:0006aeb8       __FF_MSGBANNER             6606beb8 f   LIBCMT:crt0msg.obj
 0001:0006aef1       __filbuf                   6606bef1 f   LIBCMT:_filbuf.obj
 0001:0006b01c       __lseek_nolock             6606c01c f   LIBCMT:lseek.obj
 0001:0006b091       __lseek                    6606c091 f   LIBCMT:lseek.obj
 0001:0006b16d       __read_nolock              6606c16d f   LIBCMT:read.obj
 0001:0006b72f       __read                     6606c72f f   LIBCMT:read.obj
 0001:0006b82c       _memcpy_s                  6606c82c f   LIBCMT:memcpy_s.obj
 0001:0006b8b0       ___ascii_memicmp           6606c8b0 f   LIBCMT:_memicmp.obj
 0001:0006b909       ??0exception@std@@QAE@ABQBDH@Z 6606c909 f   LIBCMT:stdexcpt.obj
 0001:0006b926       ??0exception@std@@QAE@ABV01@@Z 6606c926 f   LIBCMT:stdexcpt.obj
 0001:0006b983       ??1exception@std@@UAE@XZ   6606c983 f   LIBCMT:stdexcpt.obj
 0001:0006b999       ?what@exception@std@@UBEPBDXZ 6606c999 f   LIBCMT:stdexcpt.obj
 0001:0006b9a6       ??_Eexception@std@@UAEPAXI@Z 6606c9a6 f i LIBCMT:stdexcpt.obj
 0001:0006b9a6       ??_Gexception@std@@UAEPAXI@Z 6606c9a6 f i LIBCMT:stdexcpt.obj
 0001:0006b9c7       ??1type_info@@UAE@XZ       6606c9c7 f   LIBCMT:typinfo.obj
 0001:0006b9d7       ??_Gtype_info@@UAEPAXI@Z   6606c9d7 f i LIBCMT:typinfo.obj
 0001:0006b9d7       ??_Etype_info@@UAEPAXI@Z   6606c9d7 f i LIBCMT:typinfo.obj
 0001:0006bab2       ___onexitinit              6606cab2 f   LIBCMT:onexit.obj
 0001:0006bae3       __onexit                   6606cae3 f   LIBCMT:onexit.obj
 0001:0006bb1f       _atexit                    6606cb1f f   LIBCMT:onexit.obj
 0001:0006bb36       __CxxThrowException@8      6606cb36 f   LIBCMT:throw.obj
 0001:0006bb82       __fullpath                 6606cb82 f   LIBCMT:fullpath.obj
 0001:0006bc8c       ___dtoxmode                6606cc8c f   LIBCMT:stat.obj
 0001:0006bd49       ___loctotime64_t           6606cd49 f   LIBCMT:dtoxtm64.obj
 0001:0006bfb4       __getdrive                 6606cfb4 f   LIBCMT:drive.obj
 0001:0006c07d       __mbctolower_l             6606d07d f   LIBCMT:mbtolwr.obj
 0001:0006c123       __mbctolower               6606d123 f   LIBCMT:mbtolwr.obj
 0001:0006c136       __mbspbrk_l                6606d136 f   LIBCMT:mbspbrk.obj
 0001:0006c203       __mbspbrk                  6606d203 f   LIBCMT:mbspbrk.obj
 0001:0006c21a       __openfile                 6606d21a f   LIBCMT:_open.obj
 0001:0006c4e3       __getstream                6606d4e3 f   LIBCMT:stream.obj
 0001:0006c620       __trandisp1                6606d620 f   LIBCMT:_87disp_.obj
 0001:0006c687       __trandisp2                6606d687 f   LIBCMT:_87disp_.obj
 0001:0006c713       __rttospopde               6606d713     LIBCMT:_87disp_.obj
 0001:0006c718       __rttospop                 6606d718     LIBCMT:_87disp_.obj
 0001:0006c71a       __rtnospop                 6606d71a     LIBCMT:_87disp_.obj
 0001:0006c71c       __rttosnpop                6606d71c     LIBCMT:_87disp_.obj
 0001:0006c71d       __rtnospopde               6606d71d     LIBCMT:_87disp_.obj
 0001:0006c724       __rtzeropop                6606d724     LIBCMT:_87disp_.obj
 0001:0006c726       __rtzeronpop               6606d726     LIBCMT:_87disp_.obj
 0001:0006c72b       __rtonepop                 6606d72b     LIBCMT:_87disp_.obj
 0001:0006c72d       __rtonenpop                6606d72d     LIBCMT:_87disp_.obj
 0001:0006c732       __tosnan1                  6606d732     LIBCMT:_87disp_.obj
 0001:0006c75d       __nosnan2                  6606d75d     LIBCMT:_87disp_.obj
 0001:0006c75f       __tosnan2                  6606d75f     LIBCMT:_87disp_.obj
 0001:0006c787       __nan2                     6606d787     LIBCMT:_87disp_.obj
 0001:0006c7c6       __rtindfpop                6606d7c6     LIBCMT:_87disp_.obj
 0001:0006c7c8       __rtindfnpop               6606d7c8     LIBCMT:_87disp_.obj
 0001:0006c7d9       __rttosnpopde              6606d7d9     LIBCMT:_87disp_.obj
 0001:0006c7e3       __rtchsifneg               6606d7e3     LIBCMT:_87disp_.obj
 0001:0006c7f0       __startTwoArgErrorHandling 6606d7f0 f   LIBCMT:_genexcep_.obj
 0001:0006c807       __startOneArgErrorHandling 6606d807 f   LIBCMT:_genexcep_.obj
 0001:0006c850       __twoToTOS                 6606d850 f   LIBCMT:_common_.obj
 0001:0006c865       __load_CW                  6606d865 f   LIBCMT:_common_.obj
 0001:0006c87c       __convertTOStoQNaN         6606d87c f   LIBCMT:_common_.obj
 0001:0006c895       __fload_withFB             6606d895 f   LIBCMT:_common_.obj
 0001:0006c8d8       __checkTOS_withFB          6606d8d8 f   LIBCMT:_common_.obj
 0001:0006c8ee       __fast_exit                6606d8ee f   LIBCMT:_common_.obj
 0001:0006c8fb       __math_exit                6606d8fb f   LIBCMT:_common_.obj
 0001:0006c925       __check_overflow_exit      6606d925 f   LIBCMT:_common_.obj
 0001:0006c939       __check_range_exit         6606d939 f   LIBCMT:_common_.obj
 0001:0006c9dc       _strcpy_s                  6606d9dc f   LIBCMT:strcpy_s.obj
 0001:0006ca44       __iswctype_l               6606da44 f   LIBCMT:iswctype.obj
 0001:0006cace       _iswctype                  6606dace f   LIBCMT:iswctype.obj
 0001:0006cb50       __aulldiv                  6606db50 f   LIBCMT:ulldiv.obj
 0001:0006cbb8       _strnlen                   6606dbb8 f   LIBCMT:strlen_s.obj
 0001:0006cbe0       __alloca_probe_16          6606dbe0 f   LIBCMT:alloca16.obj
 0001:0006cbf6       __alloca_probe_8           6606dbf6     LIBCMT:alloca16.obj
 0001:0006cc0c       __wchartodigit             6606dc0c f   LIBCMT:wchtodig.obj
 0001:0006cde7       __sse2_mathfcns_init       6606dde7 f   LIBCMT:_mathfcns_.obj
 0001:0006ce00       __CIsin_pentium4           6606de00 f   LIBCMT:_sin_pentium4_.obj
 0001:0006ce18       __sin_pentium4             6606de18     LIBCMT:_sin_pentium4_.obj
 0001:0006cfd0       __CIcos_pentium4           6606dfd0 f   LIBCMT:_cos_pentium4_.obj
 0001:0006cfe8       __cos_pentium4             6606dfe8     LIBCMT:_cos_pentium4_.obj
 0001:0006d17c       __setenvp                  6606e17c f   LIBCMT:stdenvp.obj
 0001:0006d3f4       __setargv                  6606e3f4 f   LIBCMT:stdargv.obj
 0001:0006d4af       ___crtGetEnvironmentStringsA 6606e4af f   LIBCMT:a_env.obj
 0001:0006d5e6       __RTC_Initialize           6606e5e6 f   LIBCMT:_initsect_.obj
 0001:0006d60c       __RTC_Terminate            6606e60c f   LIBCMT:_initsect_.obj
 0001:0006d632       __XcptFilter               6606e632 f   LIBCMT:winxfltr.obj
 0001:0006d792       ___CppXcptFilter           6606e792 f   LIBCMT:winxfltr.obj
 0001:0006d7b2       ___security_init_cookie    6606e7b2 f   LIBCMT:gs_support.obj
 0001:0006da02       ___crtGetStringTypeA       6606ea02 f   LIBCMT:a_str.obj
 0001:0006da44       ___free_lc_time            6606ea44 f   LIBCMT:inittime.obj
 0001:0006dbd9       ___free_lconv_num          6606ebd9 f   LIBCMT:initnum.obj
 0001:0006dc1e       ___free_lconv_mon          6606ec1e f   LIBCMT:initmon.obj
 0001:0006dcac       ____lc_codepage_func       6606ecac f   LIBCMT:initctyp.obj
 0001:0006dcd2       _strcat_s                  6606ecd2 f   LIBCMT:strcat_s.obj
 0001:0006dd50       _strcspn                   6606ed50 f   LIBCMT:strcspn.obj
 0001:0006dd96       _strncpy_s                 6606ed96 f   LIBCMT:strncpy_s.obj
 0001:0006de50       _strcmp                    6606ee50 f   LIBCMT:strcmp.obj
 0001:0006ded8       _strncmp                   6606eed8 f   LIBCMT:strncmp.obj
 0001:0006dfa0       _strpbrk                   6606efa0 f   LIBCMT:strpbrk.obj
 0001:0006dfe0       __crt_debugger_hook        6606efe0 f   LIBCMT:dbghook.obj
 0001:0006dfe9       __putwch_nolock            6606efe9 f   LIBCMT:putwch.obj
 0001:0006e0ae       __mbtowc_l                 6606f0ae f   LIBCMT:mbtowc.obj
 0001:0006e1c5       _mbtowc                    6606f1c5 f   LIBCMT:mbtowc.obj
 0001:0006e1df       __isatty                   6606f1df f   LIBCMT:isatty.obj
 0001:0006e243       __lseeki64_nolock          6606f243 f   LIBCMT:lseeki64.obj
 0001:0006e2c8       __lseeki64                 6606f2c8 f   LIBCMT:lseeki64.obj
 0001:0006e3e1       __set_osfhnd               6606f3e1 f   LIBCMT:osfinfo.obj
 0001:0006e462       __free_osfhnd              6606f462 f   LIBCMT:osfinfo.obj
 0001:0006e4e8       __get_osfhandle            6606f4e8 f   LIBCMT:osfinfo.obj
 0001:0006e55f       ___lock_fhandle            6606f55f f   LIBCMT:osfinfo.obj
 0001:0006e5ff       __unlock_fhandle           6606f5ff f   LIBCMT:osfinfo.obj
 0001:0006e626       __alloc_osfhnd             6606f626 f   LIBCMT:osfinfo.obj
 0001:0006e7c0       __initp_misc_initcrit      6606f7c0 f   LIBCMT:initcrit.obj
 0001:0006e7cf       ___crtInitCritSecAndSpinCount 6606f7cf f   LIBCMT:initcrit.obj
 0001:0006e82f       __wctomb_s_l               6606f82f f   LIBCMT:wctomb.obj
 0001:0006e99b       _wctomb_s                  6606f99b f   LIBCMT:wctomb.obj
 0001:0006e9c0       __aulldvrm                 6606f9c0 f   LIBCMT:ulldvrm.obj
 0001:0006ea55       __getbuf                   6606fa55 f   LIBCMT:_getbuf.obj
 0001:0006ea9e       ___ansicp                  6606fa9e f   LIBCMT:convrtcp.obj
 0001:0006eae7       ___convertcp               6606fae7 f   LIBCMT:convrtcp.obj
 0001:0006ec9b       __calloc_impl              6606fc9b f   LIBCMT:calloc_impl.obj
 0001:0006edb9       __recalloc                 6606fdb9 f   LIBCMT:recalloc.obj
 0001:0006ee34       ?terminate@@YAXXZ          6606fe34 f   LIBCMT:hooks.obj
 0001:0006ee6d       __initp_eh_hooks           6606fe6d f   LIBCMT:hooks.obj
 0001:0006ee7e       __initp_misc_winsig        6606fe7e f   LIBCMT:winsig.obj
 0001:0006eed3       ___get_sigabrt             6606fed3 f   LIBCMT:winsig.obj
 0001:0006eee0       _raise                     6606fee0 f   LIBCMT:winsig.obj
 0001:0006f090       __initp_misc_rand_s        66070090 f   LIBCMT:rand_s.obj
 0001:0006f09f       __initp_misc_purevirt      6607009f f   LIBCMT:inithelp.obj
 0001:0006f0ae       __atodbl_l                 660700ae f   LIBCMT:atodbl.obj
 0001:0006f156       __atoflt_l                 66070156 f   LIBCMT:atodbl.obj
 0001:0006f1fe       __fptostr                  660701fe f   LIBCMT:_fptostr.obj
 0001:0006f2bd       ___dtold                   660702bd f   LIBCMT:_cfout_.obj
 0001:0006f37a       __fltout2                  6607037a f   LIBCMT:_cfout_.obj
 0001:0006f410       __alldvrm                  66070410 f   LIBCMT:lldvrm.obj
 0001:0006f4f0       __aullshr                  660704f0 f   LIBCMT:ullshr.obj
 0001:0006f50f       __fptrap                   6607050f f   LIBCMT:crt0fp.obj
 0001:0006f518       __controlfp_s              66070518 f   LIBCMT:_contrlfp_.obj
 0001:0006f584       __global_unwind2           66070584 f   LIBCMT:exsup.obj
 0001:0006f5e9       __local_unwind2            660705e9 f   LIBCMT:exsup.obj
 0001:0006f66d       __abnormal_termination     6607066d f   LIBCMT:exsup.obj
 0001:0006f690       __NLG_Notify1              66070690 f   LIBCMT:exsup.obj
 0001:0006f699       __NLG_Notify               66070699 f   LIBCMT:exsup.obj
 0001:0006f6b0       __NLG_Dispatch2            660706b0     LIBCMT:exsup.obj
 0001:0006f6b0       __NLG_Dispatch             660706b0     LIBCMT:exsup.obj
 0001:0006f6b8       __NLG_Call                 660706b8 f   LIBCMT:exsup.obj
 0001:0006f6ba       __NLG_Return2              660706ba     LIBCMT:exsup.obj
 0001:0006f6bb       ___crtMessageBoxA          660706bb f   LIBCMT:crtmbox.obj
 0001:0006f824       __set_error_mode           66070824 f   LIBCMT:errmode.obj
 0001:0006f86f       ?_Type_info_dtor@type_info@@CAXPAV1@@Z 6607086f f   LIBCMT:typname.obj
 0001:0006f8df       __msize                    660708df f   LIBCMT:msize.obj
 0001:0006f982       __validdrive               66070982 f   LIBCMT:getcwd.obj
 0001:0006f9bb       __getdcwd_nolock           660709bb f   LIBCMT:getcwd.obj
 0001:0006faf2       __getcwd                   66070af2 f   LIBCMT:getcwd.obj
 0001:0006fb3b       _calloc                    66070b3b f   LIBCMT:calloc.obj
 0001:0006fb7b       __mbsicmp_l                66070b7b f   LIBCMT:mbsicmp.obj
 0001:0006fda1       __mbsicmp                  66070da1 f   LIBCMT:mbsicmp.obj
 0001:0006fdb8       __mbsrchr_l                66070db8 f   LIBCMT:mbsrchr.obj
 0001:0006fe74       __mbsrchr                  66070e74 f   LIBCMT:mbsrchr.obj
 0001:0006fe8b       __set_daylight             66070e8b f i LIBCMT:tzset.obj
 0001:0006fe9c       __set_dstbias              66070e9c f i LIBCMT:tzset.obj
 0001:0006fead       __set_timezone             66070ead f i LIBCMT:tzset.obj
 0001:000705d3       ___tzset                   660715d3 f   LIBCMT:tzset.obj
 0001:00070622       __isindst                  66071622 f   LIBCMT:tzset.obj
 0001:00070663       __get_daylight             66071663 f   LIBCMT:timeset.obj
 0001:0007069c       __get_dstbias              6607169c f   LIBCMT:timeset.obj
 0001:000706d5       __get_timezone             660716d5 f   LIBCMT:timeset.obj
 0001:0007070e       ___daylight                6607170e f   LIBCMT:timeset.obj
 0001:00070714       ___dstbias                 66071714 f   LIBCMT:timeset.obj
 0001:0007071a       ___timezone                6607171a f   LIBCMT:timeset.obj
 0001:00070720       ___tzname                  66071720 f   LIBCMT:timeset.obj
 0001:00070730       __allmul                   66071730 f   LIBCMT:llmul.obj
 0001:00070e83       __sopen_helper             66071e83 f   LIBCMT:open.obj
 0001:00070f4f       __sopen_s                  66071f4f f   LIBCMT:open.obj
 0001:00070f6f       __mbsnbicmp_l              66071f6f f   LIBCMT:mbsnbicm.obj
 0001:0007119a       __mbsnbicmp                6607219a f   LIBCMT:mbsnbicm.obj
 0001:000711b4       __mbsnbcmp_l               660721b4 f   LIBCMT:mbsnbcmp.obj
 0001:0007131e       __mbsnbcmp                 6607231e f   LIBCMT:mbsnbcmp.obj
 0001:00071338       __87except                 66072338 f   LIBCMT:_87except_.obj
 0001:00071477       ___crtGetStringTypeW       66072477 f   LIBCMT:w_str.obj
 0001:00071508       __ismbblead                66072508 f   LIBCMT:ismbbyte.obj
 0001:00071520       _atol                      66072520 f   LIBCMT:atox.obj
 0001:00071536       __strnicmp_l               66072536 f   LIBCMT:strnicmp.obj
 0001:00071628       __strnicmp                 66072628 f   LIBCMT:strnicmp.obj
 0001:00071686       ___initconout              66072686 f   LIBCMT:initcon.obj
 0001:000716a5       ___termcon                 660726a5 f   LIBCMT:initcon.obj
 0001:000716d2       _abort                     660726d2 f   LIBCMT:abort.obj
 0001:000717e9       __ld12tod                  660727e9 f   LIBCMT:_intrncvt_.obj
 0001:00071d2d       __ld12tof                  66072d2d f   LIBCMT:_intrncvt_.obj
 0001:00072271       ___strgtold12_l            66073271 f   LIBCMT:_strgtold_.obj
 0001:00072969       _$I10_OUTPUT               66073969 f   LIBCMT:_x10fout_.obj
 0001:000733bb       __control87                660743bb f i LIBCMT:_ieee87_.obj
 0001:000736ca       __getenv_helper_nolock     660746ca f   LIBCMT:getenv.obj
 0001:00073751       __chsize_nolock            66074751 f   LIBCMT:chsize.obj
 0001:00073907       __setmode_nolock           66074907 f   LIBCMT:setmode.obj
 0001:000739c3       __get_fmode                660749c3 f   LIBCMT:setmode.obj
 0001:000739fc       __raise_exc_ex             660749fc f   LIBCMT:_fpexcept_.obj
 0001:00073cd8       __raise_exc                66074cd8 f   LIBCMT:_fpexcept_.obj
 0001:00073cfb       __handle_exc               66074cfb f   LIBCMT:_fpexcept_.obj
 0001:00073edd       __set_errno_from_matherr   66074edd f   LIBCMT:_fpexcept_.obj
 0001:00073f0a       __matherr                  66074f0a f   LIBCMT:_matherr_.obj
 0001:00073f0d       __statfp                   66074f0d f   LIBCMT:_fpctrl_.obj
 0001:00073f1d       __clrfp                    66074f1d f   LIBCMT:_fpctrl_.obj
 0001:00073f2e       __ctrlfp                   66074f2e f   LIBCMT:_fpctrl_.obj
 0001:00073f57       __set_statfp               66074f57 f   LIBCMT:_fpctrl_.obj
 0001:00073fb2       ___set_fpsr_sse2           66074fb2 f   LIBCMT:_fpctrl_.obj
 0001:00074030       ___ascii_strnicmp          66075030 f   LIBCMT:_strnicm.obj
 0001:00074091       ___mtold12                 66075091 f   LIBCMT:_mantold_.obj
 0001:0007425f       __mbsnbicoll_l             6607525f f   LIBCMT:mbsnbico.obj
 0001:0007434d       __mbsnbicoll               6607534d f   LIBCMT:mbsnbico.obj
 0001:00074367       ___wtomb_environ           66075367 f   LIBCMT:wtombenv.obj
 0001:000743fe       __set_exp                  660753fe f   LIBCMT:_util_.obj
 0001:0007442a       __decomp                   6607542a f   LIBCMT:_util_.obj
 0001:00074871       ___crtCompareStringA       66075871 f   LIBCMT:a_cmp.obj
 0001:000748b3       __strnicoll_l              660758b3 f   LIBCMT:strnicol.obj
 0001:00074a59       ___crtsetenv               66075a59 f   LIBCMT:setenv.obj
 0001:00074ca4       __mbschr_l                 66075ca4 f   LIBCMT:mbschr.obj
 0001:00074d60       __mbschr                   66075d60 f   LIBCMT:mbschr.obj
 0001:00074d78       _ImmAssociateContext@8     66075d78 f   imm32:IMM32.dll
 0001:00074d7e       _RtlUnwind@16              66075d7e f   kernel32:KERNEL32.dll
 0002:00000000       __imp__ImmAssociateContext@8 66076000     imm32:IMM32.dll
 0002:00000004       \177IMM32_NULL_THUNK_DATA  66076004     imm32:IMM32.dll
 0002:00000008       __imp__IsBadReadPtr@8      66076008     kernel32:KERNEL32.dll
 0002:0000000c       __imp__MultiByteToWideChar@24 6607600c     kernel32:KERNEL32.dll
 0002:00000010       __imp__QueryPerformanceFrequency@4 66076010     kernel32:KERNEL32.dll
 0002:00000014       __imp__HeapCreate@12       66076014     kernel32:KERNEL32.dll
 0002:00000018       __imp__HeapDestroy@4       66076018     kernel32:KERNEL32.dll
 0002:0000001c       __imp__QueryPerformanceCounter@4 6607601c     kernel32:KERNEL32.dll
 0002:00000020       __imp__GetCommandLineA@0   66076020     kernel32:KERNEL32.dll
 0002:00000024       __imp__GetModuleFileNameA@12 66076024     kernel32:KERNEL32.dll
 0002:00000028       __imp__DeleteFileA@4       66076028     kernel32:KERNEL32.dll
 0002:0000002c       __imp__HeapFree@12         6607602c     kernel32:KERNEL32.dll
 0002:00000030       __imp__WideCharToMultiByte@32 66076030     kernel32:KERNEL32.dll
 0002:00000034       __imp__DisableThreadLibraryCalls@4 66076034     kernel32:KERNEL32.dll
 0002:00000038       __imp__LoadLibraryA@4      66076038     kernel32:KERNEL32.dll
 0002:0000003c       __imp__GetModuleHandleA@4  6607603c     kernel32:KERNEL32.dll
 0002:00000040       __imp__VirtualProtect@16   66076040     kernel32:KERNEL32.dll
 0002:00000044       __imp__WriteProcessMemory@20 66076044     kernel32:KERNEL32.dll
 0002:00000048       __imp__GetCurrentProcess@0 66076048     kernel32:KERNEL32.dll
 0002:0000004c       __imp__GetProcAddress@8    6607604c     kernel32:KERNEL32.dll
 0002:00000050       __imp__IsBadWritePtr@8     66076050     kernel32:KERNEL32.dll
 0002:00000054       __imp__LCMapStringA@24     66076054     kernel32:KERNEL32.dll
 0002:00000058       __imp__GetProcessTimes@20  66076058     kernel32:KERNEL32.dll
 0002:0000005c       __imp__GetSystemTimeAsFileTime@4 6607605c     kernel32:KERNEL32.dll
 0002:00000060       __imp__IsBadCodePtr@4      66076060     kernel32:KERNEL32.dll
 0002:00000064       __imp__Sleep@4             66076064     kernel32:KERNEL32.dll
 0002:00000068       __imp__GetTickCount@0      66076068     kernel32:KERNEL32.dll
 0002:0000006c       __imp__GetLocalTime@4      6607606c     kernel32:KERNEL32.dll
 0002:00000070       __imp__CreateFileA@28      66076070     kernel32:KERNEL32.dll
 0002:00000074       __imp__WriteFile@20        66076074     kernel32:KERNEL32.dll
 0002:00000078       __imp__SetFilePointer@16   66076078     kernel32:KERNEL32.dll
 0002:0000007c       __imp__CloseHandle@4       6607607c     kernel32:KERNEL32.dll
 0002:00000080       __imp__GetFileSize@8       66076080     kernel32:KERNEL32.dll
 0002:00000084       __imp__GetCurrentProcessId@0 66076084     kernel32:KERNEL32.dll
 0002:00000088       __imp__GlobalFree@4        66076088     kernel32:KERNEL32.dll
 0002:0000008c       __imp__GlobalUnlock@4      6607608c     kernel32:KERNEL32.dll
 0002:00000090       __imp__GlobalLock@4        66076090     kernel32:KERNEL32.dll
 0002:00000094       __imp__GlobalAlloc@8       66076094     kernel32:KERNEL32.dll
 0002:00000098       __imp__HeapAlloc@12        66076098     kernel32:KERNEL32.dll
 0002:0000009c       __imp__FindNextFileA@8     6607609c     kernel32:KERNEL32.dll
 0002:000000a0       __imp__FindFirstFileA@8    660760a0     kernel32:KERNEL32.dll
 0002:000000a4       __imp__GetFileAttributesA@4 660760a4     kernel32:KERNEL32.dll
 0002:000000a8       __imp__CompareStringW@24   660760a8     kernel32:KERNEL32.dll
 0002:000000ac       __imp__CompareStringA@24   660760ac     kernel32:KERNEL32.dll
 0002:000000b0       __imp__GetProcessHeap@0    660760b0     kernel32:KERNEL32.dll
 0002:000000b4       __imp__SetEndOfFile@4      660760b4     kernel32:KERNEL32.dll
 0002:000000b8       __imp__GetTimeZoneInformation@4 660760b8     kernel32:KERNEL32.dll
 0002:000000bc       __imp__HeapSize@12         660760bc     kernel32:KERNEL32.dll
 0002:000000c0       __imp__InitializeCriticalSectionAndSpinCount@8 660760c0     kernel32:KERNEL32.dll
 0002:000000c4       __imp__SetStdHandle@8      660760c4     kernel32:KERNEL32.dll
 0002:000000c8       __imp__WriteConsoleW@20    660760c8     kernel32:KERNEL32.dll
 0002:000000cc       __imp__GetConsoleOutputCP@0 660760cc     kernel32:KERNEL32.dll
 0002:000000d0       __imp__WriteConsoleA@20    660760d0     kernel32:KERNEL32.dll
 0002:000000d4       __imp__GetLocaleInfoA@16   660760d4     kernel32:KERNEL32.dll
 0002:000000d8       __imp__GetStringTypeW@16   660760d8     kernel32:KERNEL32.dll
 0002:000000dc       __imp__GetStringTypeA@20   660760dc     kernel32:KERNEL32.dll
 0002:000000e0       __imp__GetEnvironmentStringsW@0 660760e0     kernel32:KERNEL32.dll
 0002:000000e4       __imp__FreeEnvironmentStringsW@4 660760e4     kernel32:KERNEL32.dll
 0002:000000e8       __imp__GetEnvironmentStrings@0 660760e8     kernel32:KERNEL32.dll
 0002:000000ec       __imp__FreeEnvironmentStringsA@4 660760ec     kernel32:KERNEL32.dll
 0002:000000f0       __imp__GetCurrentDirectoryA@8 660760f0     kernel32:KERNEL32.dll
 0002:000000f4       __imp__GetFullPathNameA@16 660760f4     kernel32:KERNEL32.dll
 0002:000000f8       __imp__RaiseException@16   660760f8     kernel32:KERNEL32.dll
 0002:000000fc       __imp__ReadFile@20         660760fc     kernel32:KERNEL32.dll
 0002:00000100       __imp__SetEnvironmentVariableA@8 66076100     kernel32:KERNEL32.dll
 0002:00000104       __imp__CreateDirectoryA@8  66076104     kernel32:KERNEL32.dll
 0002:00000108       __imp__HeapReAlloc@16      66076108     kernel32:KERNEL32.dll
 0002:0000010c       __imp__GetLastError@0      6607610c     kernel32:KERNEL32.dll
 0002:00000110       __imp__EnterCriticalSection@4 66076110     kernel32:KERNEL32.dll
 0002:00000114       __imp__LeaveCriticalSection@4 66076114     kernel32:KERNEL32.dll
 0002:00000118       __imp__FindClose@4         66076118     kernel32:KERNEL32.dll
 0002:0000011c       __imp__FileTimeToSystemTime@8 6607611c     kernel32:KERNEL32.dll
 0002:00000120       __imp__FileTimeToLocalFileTime@8 66076120     kernel32:KERNEL32.dll
 0002:00000124       __imp__GetDriveTypeA@4     66076124     kernel32:KERNEL32.dll
 0002:00000128       __imp__MoveFileA@8         66076128     kernel32:KERNEL32.dll
 0002:0000012c       __imp__GetCurrentThreadId@0 6607612c     kernel32:KERNEL32.dll
 0002:00000130       __imp__GetCPInfo@8         66076130     kernel32:KERNEL32.dll
 0002:00000134       __imp__InterlockedIncrement@4 66076134     kernel32:KERNEL32.dll
 0002:00000138       __imp__InterlockedDecrement@4 66076138     kernel32:KERNEL32.dll
 0002:0000013c       __imp__GetACP@0            6607613c     kernel32:KERNEL32.dll
 0002:00000140       __imp__GetOEMCP@0          66076140     kernel32:KERNEL32.dll
 0002:00000144       __imp__IsValidCodePage@4   66076144     kernel32:KERNEL32.dll
 0002:00000148       __imp__GetModuleHandleW@4  66076148     kernel32:KERNEL32.dll
 0002:0000014c       __imp__TlsGetValue@4       6607614c     kernel32:KERNEL32.dll
 0002:00000150       __imp__TlsAlloc@0          66076150     kernel32:KERNEL32.dll
 0002:00000154       __imp__TlsSetValue@8       66076154     kernel32:KERNEL32.dll
 0002:00000158       __imp__TlsFree@4           66076158     kernel32:KERNEL32.dll
 0002:0000015c       __imp__SetLastError@4      6607615c     kernel32:KERNEL32.dll
 0002:00000160       __imp__TerminateProcess@8  66076160     kernel32:KERNEL32.dll
 0002:00000164       __imp__UnhandledExceptionFilter@4 66076164     kernel32:KERNEL32.dll
 0002:00000168       __imp__SetUnhandledExceptionFilter@4 66076168     kernel32:KERNEL32.dll
 0002:0000016c       __imp__IsDebuggerPresent@0 6607616c     kernel32:KERNEL32.dll
 0002:00000170       __imp__GetConsoleCP@0      66076170     kernel32:KERNEL32.dll
 0002:00000174       __imp__GetConsoleMode@8    66076174     kernel32:KERNEL32.dll
 0002:00000178       __imp__FlushFileBuffers@4  66076178     kernel32:KERNEL32.dll
 0002:0000017c       __imp__DeleteCriticalSection@4 6607617c     kernel32:KERNEL32.dll
 0002:00000180       __imp__SetHandleCount@4    66076180     kernel32:KERNEL32.dll
 0002:00000184       __imp__GetStdHandle@4      66076184     kernel32:KERNEL32.dll
 0002:00000188       __imp__GetFileType@4       66076188     kernel32:KERNEL32.dll
 0002:0000018c       __imp__GetStartupInfoA@4   6607618c     kernel32:KERNEL32.dll
 0002:00000190       __imp__VirtualFree@12      66076190     kernel32:KERNEL32.dll
 0002:00000194       __imp__VirtualAlloc@16     66076194     kernel32:KERNEL32.dll
 0002:00000198       __imp__LCMapStringW@24     66076198     kernel32:KERNEL32.dll
 0002:0000019c       __imp__ExitProcess@4       6607619c     kernel32:KERNEL32.dll
 0002:000001a0       __imp__RtlUnwind@16        660761a0     kernel32:KERNEL32.dll
 0002:000001a4       \177KERNEL32_NULL_THUNK_DATA 660761a4     kernel32:KERNEL32.dll
 0002:000001a8       __imp__GetWindowRect@8     660761a8     user32:USER32.dll
 0002:000001ac       __imp__AdjustWindowRectEx@16 660761ac     user32:USER32.dll
 0002:000001b0       __imp__SetWindowPos@28     660761b0     user32:USER32.dll
 0002:000001b4       __imp__GetClassNameA@12    660761b4     user32:USER32.dll
 0002:000001b8       __imp__OpenClipboard@4     660761b8     user32:USER32.dll
 0002:000001bc       __imp__EmptyClipboard@0    660761bc     user32:USER32.dll
 0002:000001c0       __imp__SetClipboardData@8  660761c0     user32:USER32.dll
 0002:000001c4       __imp__CloseClipboard@0    660761c4     user32:USER32.dll
 0002:000001c8       __imp__SetCursorPos@8      660761c8     user32:USER32.dll
 0002:000001cc       __imp__GetKeyState@4       660761cc     user32:USER32.dll
 0002:000001d0       __imp__PostMessageA@16     660761d0     user32:USER32.dll
 0002:000001d4       __imp__SetWindowTextA@8    660761d4     user32:USER32.dll
 0002:000001d8       __imp__GetWindowLongA@8    660761d8     user32:USER32.dll
 0002:000001dc       __imp__SetWindowLongA@12   660761dc     user32:USER32.dll
 0002:000001e0       __imp__ShowWindow@8        660761e0     user32:USER32.dll
 0002:000001e4       __imp__GetWindowPlacement@8 660761e4     user32:USER32.dll
 0002:000001e8       __imp__GetClipCursor@4     660761e8     user32:USER32.dll
 0002:000001ec       __imp__GetClientRect@8     660761ec     user32:USER32.dll
 0002:000001f0       __imp__ClientToScreen@8    660761f0     user32:USER32.dll
 0002:000001f4       __imp__ClipCursor@4        660761f4     user32:USER32.dll
 0002:000001f8       __imp__GetDesktopWindow@0  660761f8     user32:USER32.dll
 0002:000001fc       __imp__GetWindowInfo@8     660761fc     user32:USER32.dll
 0002:00000200       __imp__SendMessageA@16     66076200     user32:USER32.dll
 0002:00000204       __imp__wvsprintfW@12       66076204     user32:USER32.dll
 0002:00000208       __imp__wvsprintfA@12       66076208     user32:USER32.dll
 0002:0000020c       __imp__MessageBoxA@16      6607620c     user32:USER32.dll
 0002:00000210       __imp__wsprintfW           66076210     user32:USER32.dll
 0002:00000214       __imp__SetForegroundWindow@4 66076214     user32:USER32.dll
 0002:00000218       \177USER32_NULL_THUNK_DATA 66076218     user32:USER32.dll
 0002:0000021c       ___xc_a                    6607621c     LIBCMT:crt0init.obj
 0002:00000220       ___xc_z                    66076220     LIBCMT:crt0init.obj
 0002:00000224       ___xi_a                    66076224     LIBCMT:crt0init.obj
 0002:0000023c       ___xi_z                    6607623c     LIBCMT:crt0init.obj
 0002:00000240       ___xp_a                    66076240     LIBCMT:crt0init.obj
 0002:0000024c       ___xp_z                    6607624c     LIBCMT:crt0init.obj
 0002:00000250       ___xt_a                    66076250     LIBCMT:crt0init.obj
 0002:00000254       ___xt_z                    66076254     LIBCMT:crt0init.obj
 0002:00000ff0       __real@408f400000000000    66076ff0     config.obj
 0002:00001240       __real@4014000000000000    66077240     guess.obj
 0002:00001248       __real@4052c00000000000    66077248     guess.obj
 0002:00001250       __real@4039000000000000    66077250     guess.obj
 0002:00001258       __real@3fe0000000000000    66077258     guess.obj
 0002:00001260       __real@4008000000000000    66077260     guess.obj
 0002:00001268       __real@4040000000000000    66077268     guess.obj
 0002:00001270       __real@4059000000000000    66077270     guess.obj
 0002:00001278       __real@4010000000000000    66077278     guess.obj
 0002:00009298       __real@4022000000000000    6607f298     common.obj
 0002:000092a0       __real@4070000000000000    6607f2a0     common.obj
 0002:000092a8       __real@3fd999999999999a    6607f2a8     common.obj
 0002:00009c00       __real@412e848000000000    6607fc00     loop.obj
 0002:0000d088       __real@4024000000000000    66083088     GameMonitor.obj
 0002:0000e470       __real@3ff8000000000000    66084470     item.obj
 0002:00012fcc       __real@41200000            66088fcc     skill.obj
 0002:00012fd0       __real@41e80000            66088fd0     skill.obj
 0002:00012fd4       __real@41d00000            66088fd4     skill.obj
 0002:00012fd8       __real@41c00000            66088fd8     skill.obj
 0002:00012fdc       __real@41f00000            66088fdc     skill.obj
 0002:00012fe0       __real@41f80000            66088fe0     skill.obj
 0002:00012fe4       __real@41000000            66088fe4     skill.obj
 0002:00012fe8       __real@41a00000            66088fe8     skill.obj
 0002:00012fec       __real@41980000            66088fec     skill.obj
 0002:00012ff0       __real@40a00000            66088ff0     skill.obj
 0002:00012ff8       __real@0000000000000000    66088ff8     skill.obj
 0002:00013000       __real@42040000            66089000     skill.obj
 0002:00014808       __real@40c3880000000000    6608a808     Snapshot.obj
 0002:00014810       __real@4054400000000000    6608a810     Snapshot.obj
 0002:00014818       __real@4020000000000000    6608a818     Snapshot.obj
 0002:00014820       __real@40a0000000000000    6608a820     Snapshot.obj
 0002:000153c0       __real@401c000000000000    6608b3c0     teleport.obj
 0002:00016900       __real@40f0000000000000    6608c900     uber.obj
 0002:00016908       __real@401921fb3fa6defc    6608c908     uber.obj
 0002:00016930       __FPinit                   6608c930     LIBCMT:_fpinit_.obj
 0002:00016934       __FPmtinit                 6608c934     LIBCMT:_fpinit_.obj
 0002:00016938       __FPmtterm                 6608c938     LIBCMT:_fpinit_.obj
 0002:0001693c       ??_C@_0P@GHFPNOJB@bad?5allocation?$AA@ 6608c93c     LIBCMT:new.obj
 0002:00016950       ??_7bad_alloc@std@@6B@     6608c950     LIBCMT:new.obj
 0002:00016958       ??_C@_03LLEJOLGL@?4?1?2?$AA@ 6608c958     LIBCMT:stati32.obj
 0002:0001695c       ??_C@_02EAOCEIGI@?$DP?$CK?$AA@ 6608c95c     LIBCMT:stati32.obj
 0002:00016960       __pRawDllMain              6608c960     LIBCMT:dllcrt0.obj
 0002:00016960       __pDefaultRawDllMain       6608c960     LIBCMT:dllcrt0.obj
 0002:000169e8       ??_C@_01NEMOKFLO@?$DN?$AA@ 6608c9e8     LIBCMT:setlocal.obj
 0002:000169ea       ??_C@_00CNPNBAHC@?$AA@     6608c9ea     LIBCMT:setlocal.obj
 0002:000169ec       ??_C@_0O@NLDKAIKN@EncodePointer?$AA@ 6608c9ec     LIBCMT:tidtable.obj
 0002:000169fc       ??_C@_1BK@DBDEIDLH@?$AAK?$AAE?$AAR?$AAN?$AAE?$AAL?$AA3?$AA2?$AA?4?$AAD?$AAL?$AAL?$AA?$AA@ 6608c9fc     LIBCMT:tidtable.obj
 0002:00016a18       ??_C@_0O@KBPMFGHI@DecodePointer?$AA@ 6608ca18     LIBCMT:tidtable.obj
 0002:00016a28       ??_C@_07PEJMOBNF@FlsFree?$AA@ 6608ca28     LIBCMT:tidtable.obj
 0002:00016a30       ??_C@_0M@JCPCPOEF@FlsSetValue?$AA@ 6608ca30     LIBCMT:tidtable.obj
 0002:00016a3c       ??_C@_0M@GDNOONDI@FlsGetValue?$AA@ 6608ca3c     LIBCMT:tidtable.obj
 0002:00016a48       ??_C@_08KNHFBNJ@FlsAlloc?$AA@ 6608ca48     LIBCMT:tidtable.obj
 0002:00016a54       ??_C@_1O@CEDCILHN@?$AA?$CI?$AAn?$AAu?$AAl?$AAl?$AA?$CJ?$AA?$AA@ 6608ca54     LIBCMT:output.obj
 0002:00016a64       ??_C@_06OJHGLDPL@?$CInull?$CJ?$AA@ 6608ca64     LIBCMT:output.obj
 0002:00016a70       ___lookuptable             6608ca70     LIBCMT:output.obj
 0002:00016ad4       ??_C@_13NOLLCAOD@?$AA?$AA?$AA?$AA@ 6608cad4     LIBCMT:a_map.obj
 0002:00016ad8       ??_C@_0P@MIGLKIOC@CorExitProcess?$AA@ 6608cad8     LIBCMT:crt0dat.obj
 0002:00016ae8       ??_C@_1BI@BGOHAHKC@?$AAm?$AAs?$AAc?$AAo?$AAr?$AAe?$AAe?$AA?4?$AAd?$AAl?$AAl?$AA?$AA@ 6608cae8     LIBCMT:crt0dat.obj
 0002:00016b00       ??_C@_05KLBDPFGC@e?$CL000?$AA@ 6608cb00     LIBCMT:cvt.obj
 0002:00016b08       __real@4150017ec0000000    6608cb08     LIBCMT:_testfdiv_.obj
 0002:00016b10       __real@4147ffff80000000    6608cb10     LIBCMT:_testfdiv_.obj
 0002:00016b18       ??_C@_0BK@NHEOCAHP@IsProcessorFeaturePresent?$AA@ 6608cb18     LIBCMT:_testfdiv_.obj
 0002:00016b34       ??_C@_08CPNIBGIE@KERNEL32?$AA@ 6608cb34     LIBCMT:_testfdiv_.obj
 0002:00016b40       ??_C@_0P@GGKDKEEG@runtime?5error?5?$AA@ 6608cb40     LIBCMT:crt0msg.obj
 0002:00016b50       ??_C@_02PCIJFNDE@?$AN?6?$AA@ 6608cb50     LIBCMT:crt0msg.obj
 0002:00016b54       ??_C@_0O@MJNIPGOH@TLOSS?5error?$AN?6?$AA@ 6608cb54     LIBCMT:crt0msg.obj
 0002:00016b64       ??_C@_0N@BONNPDHF@SING?5error?$AN?6?$AA@ 6608cb64     LIBCMT:crt0msg.obj
 0002:00016b74       ??_C@_0P@MBDAJNE@DOMAIN?5error?$AN?6?$AA@ 6608cb74     LIBCMT:crt0msg.obj
 0002:00016b88       ??_C@_0JL@DFDOOABL@R6034?$AN?6An?5application?5has?5made?5a@ 6608cb88     LIBCMT:crt0msg.obj
 0002:00016c28       ??_C@_0PH@EPAFIJ@R6033?$AN?6?9?5Attempt?5to?5use?5MSIL?5cod@ 6608cc28     LIBCMT:crt0msg.obj
 0002:00016d20       ??_C@_0DD@BKEEABMM@R6032?$AN?6?9?5not?5enough?5space?5for?5lo@ 6608cd20     LIBCMT:crt0msg.obj
 0002:00016d58       ??_C@_0GD@OFKILIED@R6031?$AN?6?9?5Attempt?5to?5initialize?5t@ 6608cd58     LIBCMT:crt0msg.obj
 0002:00016dbc       ??_C@_0BP@LPMHJOKI@R6030?$AN?6?9?5CRT?5not?5initialized?$AN?6?$AA@ 6608cdbc     LIBCMT:crt0msg.obj
 0002:00016ddc       ??_C@_0CF@KJDAIALP@R6028?$AN?6?9?5unable?5to?5initialize?5he@ 6608cddc     LIBCMT:crt0msg.obj
 0002:00016e04       ??_C@_0DF@GAKBPDFP@R6027?$AN?6?9?5not?5enough?5space?5for?5lo@ 6608ce04     LIBCMT:crt0msg.obj
 0002:00016e3c       ??_C@_0DF@IBLNNAIG@R6026?$AN?6?9?5not?5enough?5space?5for?5st@ 6608ce3c     LIBCMT:crt0msg.obj
 0002:00016e74       ??_C@_0CG@IOHKGFNJ@R6025?$AN?6?9?5pure?5virtual?5function?5c@ 6608ce74     LIBCMT:crt0msg.obj
 0002:00016e9c       ??_C@_0DF@JIJJFJDC@R6024?$AN?6?9?5not?5enough?5space?5for?5_o@ 6608ce9c     LIBCMT:crt0msg.obj
 0002:00016ed4       ??_C@_0CJ@EGEJHFME@R6019?$AN?6?9?5unable?5to?5open?5console?5@ 6608ced4     LIBCMT:crt0msg.obj
 0002:00016f00       ??_C@_0CB@GNHNIELH@R6018?$AN?6?9?5unexpected?5heap?5error?$AN?6@ 6608cf00     LIBCMT:crt0msg.obj
 0002:00016f24       ??_C@_0CN@FOLDKNG@R6017?$AN?6?9?5unexpected?5multithread?5@ 6608cf24     LIBCMT:crt0msg.obj
 0002:00016f54       ??_C@_0CM@FAHFJNHO@R6016?$AN?6?9?5not?5enough?5space?5for?5th@ 6608cf54     LIBCMT:crt0msg.obj
 0002:00016f80       ??_C@_0JG@LBKMGKLD@?$AN?6This?5application?5has?5requested@ 6608cf80     LIBCMT:crt0msg.obj
 0002:00017018       ??_C@_0CM@FLCNIPKK@R6009?$AN?6?9?5not?5enough?5space?5for?5en@ 6608d018     LIBCMT:crt0msg.obj
 0002:00017044       ??_C@_0CK@KMMJOAPP@R6008?$AN?6?9?5not?5enough?5space?5for?5ar@ 6608d044     LIBCMT:crt0msg.obj
 0002:00017070       ??_C@_0CN@LEKKICBM@R6002?$AN?6?9?5floating?5point?5support?5@ 6608d070     LIBCMT:crt0msg.obj
 0002:000170a0       ??_C@_0CF@GOGNBNAK@Microsoft?5Visual?5C?$CL?$CL?5Runtime?5Lib@ 6608d0a0     LIBCMT:crt0msg.obj
 0002:000170c8       ??_C@_02PHMGELLB@?6?6?$AA@ 6608d0c8     LIBCMT:crt0msg.obj
 0002:000170cc       ??_C@_03KHICJKCI@?4?4?4?$AA@ 6608d0cc     LIBCMT:crt0msg.obj
 0002:000170d0       ??_C@_0BH@DNAGHKFM@?$DMprogram?5name?5unknown?$DO?$AA@ 6608d0d0     LIBCMT:crt0msg.obj
 0002:000170e8       ??_C@_0BK@OFGJDLJJ@Runtime?5Error?$CB?6?6Program?3?5?$AA@ 6608d0e8     LIBCMT:crt0msg.obj
 0002:00017108       ??_7exception@std@@6B@     6608d108     LIBCMT:stdexcpt.obj
 0002:00017110       ??_C@_0BC@EOODALEL@Unknown?5exception?$AA@ 6608d110     LIBCMT:stdexcpt.obj
 0002:00017128       ??_7type_info@@6B@         6608d128     LIBCMT:typinfo.obj
 0002:0001714c       ??_C@_04PNGHFIJN@?4com?$AA@ 6608d14c     LIBCMT:stat.obj
 0002:00017154       ??_C@_04NEEFLLOK@?4bat?$AA@ 6608d154     LIBCMT:stat.obj
 0002:0001715c       ??_C@_04CPCBDHLK@?4cmd?$AA@ 6608d15c     LIBCMT:stat.obj
 0002:00017164       ??_C@_04JLMDILM@?4exe?$AA@ 6608d164     LIBCMT:stat.obj
 0002:00017198       __DEFAULT_CW_in_mem        6608d198     LIBCMT:_common_.obj
 0002:0001719a       __pi_by_2_to_61            6608d19a     LIBCMT:_common_.obj
 0002:00018330       __XcptActTab               6608e330     LIBCMT:winxfltr.obj
 0002:000183a8       ___newctype                6608e3a8     LIBCMT:ctype.obj
 0002:000186a8       __wctype                   6608e6a8     LIBCMT:ctype.obj
 0002:000188b0       ___newclmap                6608e8b0     LIBCMT:ctype.obj
 0002:00018a30       ___newcumap                6608ea30     LIBCMT:ctype.obj
 0002:00018bb0       ??_C@_08JCCMCCIL@HH?3mm?3ss?$AA@ 6608ebb0     LIBCMT:strftime.obj
 0002:00018bbc       ??_C@_0BE@CKGJFCPC@dddd?0?5MMMM?5dd?0?5yyyy?$AA@ 6608ebbc     LIBCMT:strftime.obj
 0002:00018bd0       ??_C@_08BPBNCDIB@MM?1dd?1yy?$AA@ 6608ebd0     LIBCMT:strftime.obj
 0002:00018bdc       ??_C@_02CJNFDJBF@PM?$AA@   6608ebdc     LIBCMT:strftime.obj
 0002:00018be0       ??_C@_02DEDBPAFC@AM?$AA@   6608ebe0     LIBCMT:strftime.obj
 0002:00018be4       ??_C@_08EDHMEBNP@December?$AA@ 6608ebe4     LIBCMT:strftime.obj
 0002:00018bf0       ??_C@_08HCHEGEOA@November?$AA@ 6608ebf0     LIBCMT:strftime.obj
 0002:00018bfc       ??_C@_07JJNFCEND@October?$AA@ 6608ebfc     LIBCMT:strftime.obj
 0002:00018c04       ??_C@_09BHHEALKD@September?$AA@ 6608ec04     LIBCMT:strftime.obj
 0002:00018c10       ??_C@_06LBBHFDDG@August?$AA@ 6608ec10     LIBCMT:strftime.obj
 0002:00018c18       ??_C@_04MIEPOIFP@July?$AA@ 6608ec18     LIBCMT:strftime.obj
 0002:00018c20       ??_C@_04CNLMGBGM@June?$AA@ 6608ec20     LIBCMT:strftime.obj
 0002:00018c28       ??_C@_05DMJDNLEJ@April?$AA@ 6608ec28     LIBCMT:strftime.obj
 0002:00018c30       ??_C@_05HPCKOFNC@March?$AA@ 6608ec30     LIBCMT:strftime.obj
 0002:00018c38       ??_C@_08GNJGEPFN@February?$AA@ 6608ec38     LIBCMT:strftime.obj
 0002:00018c44       ??_C@_07CGJPFGJA@January?$AA@ 6608ec44     LIBCMT:strftime.obj
 0002:00018c4c       ??_C@_03MKABNOCG@Dec?$AA@  6608ec4c     LIBCMT:strftime.obj
 0002:00018c50       ??_C@_03JPJOFNIA@Nov?$AA@  6608ec50     LIBCMT:strftime.obj
 0002:00018c54       ??_C@_03BMAOKBAD@Oct?$AA@  6608ec54     LIBCMT:strftime.obj
 0002:00018c58       ??_C@_03GGCAPAJC@Sep?$AA@  6608ec58     LIBCMT:strftime.obj
 0002:00018c5c       ??_C@_03IFJFEIGA@Aug?$AA@  6608ec5c     LIBCMT:strftime.obj
 0002:00018c60       ??_C@_03LBGABGKK@Jul?$AA@  6608ec60     LIBCMT:strftime.obj
 0002:00018c64       ??_C@_03IDFGHECI@Jun?$AA@  6608ec64     LIBCMT:strftime.obj
 0002:00018c68       ??_C@_03CNMDKL@May?$AA@    6608ec68     LIBCMT:strftime.obj
 0002:00018c6c       ??_C@_03LEOLGMJP@Apr?$AA@  6608ec6c     LIBCMT:strftime.obj
 0002:00018c70       ??_C@_03ODNJBKGA@Mar?$AA@  6608ec70     LIBCMT:strftime.obj
 0002:00018c74       ??_C@_03HJBDCHOM@Feb?$AA@  6608ec74     LIBCMT:strftime.obj
 0002:00018c78       ??_C@_03JIHJHPIE@Jan?$AA@  6608ec78     LIBCMT:strftime.obj
 0002:00018c7c       ??_C@_08INBOOONO@Saturday?$AA@ 6608ec7c     LIBCMT:strftime.obj
 0002:00018c88       ??_C@_06JECMNKMI@Friday?$AA@ 6608ec88     LIBCMT:strftime.obj
 0002:00018c90       ??_C@_08HACCIKIA@Thursday?$AA@ 6608ec90     LIBCMT:strftime.obj
 0002:00018c9c       ??_C@_09DLIGFAKA@Wednesday?$AA@ 6608ec9c     LIBCMT:strftime.obj
 0002:00018ca8       ??_C@_07BAAGCFCM@Tuesday?$AA@ 6608eca8     LIBCMT:strftime.obj
 0002:00018cb0       ??_C@_06JLEDEDGH@Monday?$AA@ 6608ecb0     LIBCMT:strftime.obj
 0002:00018cb8       ??_C@_06OOPIFAJ@Sunday?$AA@ 6608ecb8     LIBCMT:strftime.obj
 0002:00018cc0       ??_C@_03FEFJNEK@Sat?$AA@   6608ecc0     LIBCMT:strftime.obj
 0002:00018cc4       ??_C@_03IDIOELNC@Fri?$AA@  6608ecc4     LIBCMT:strftime.obj
 0002:00018cc8       ??_C@_03IOFIKPDN@Thu?$AA@  6608ecc8     LIBCMT:strftime.obj
 0002:00018ccc       ??_C@_03MHOMLAJA@Wed?$AA@  6608eccc     LIBCMT:strftime.obj
 0002:00018cd0       ??_C@_03NAGEINEP@Tue?$AA@  6608ecd0     LIBCMT:strftime.obj
 0002:00018cd4       ??_C@_03PDAGKDH@Mon?$AA@   6608ecd4     LIBCMT:strftime.obj
 0002:00018cd8       ??_C@_03KOEHGMDN@Sun?$AA@  6608ecd8     LIBCMT:strftime.obj
 0002:00018ce0       ___lookuptable_s           6608ece0     LIBCMT:outputs.obj
 0002:00018d3c       ??_C@_0BI@DFKBFLJE@GetProcessWindowStation?$AA@ 6608ed3c     LIBCMT:crtmbox.obj
 0002:00018d54       ??_C@_0BK@CIDNPOGP@GetUserObjectInformationA?$AA@ 6608ed54     LIBCMT:crtmbox.obj
 0002:00018d70       ??_C@_0BD@HHGDFDBJ@GetLastActivePopup?$AA@ 6608ed70     LIBCMT:crtmbox.obj
 0002:00018d84       ??_C@_0BA@HNOPNCHB@GetActiveWindow?$AA@ 6608ed84     LIBCMT:crtmbox.obj
 0002:00018d94       ??_C@_0M@CHKKJDAI@MessageBoxA?$AA@ 6608ed94     LIBCMT:crtmbox.obj
 0002:00018da0       ??_C@_0L@NDEGIDAG@USER32?4DLL?$AA@ 6608eda0     LIBCMT:crtmbox.obj
 0002:00018dac       ??_C@_02CLFPBFFP@TZ?$AA@   6608edac     LIBCMT:tzset.obj
 0002:00018db0       ___dnames                  6608edb0     LIBCMT:timeset.obj
 0002:00018dc8       ___mnames                  6608edc8     LIBCMT:timeset.obj
 0002:00018df0       ??_C@_07GPDNMNG@CONOUT$?$AA@ 6608edf0     LIBCMT:initcon.obj
 0002:00018df8       ??_C@_06IMKFLFPG@1?$CDQNAN?$AA@ 6608edf8     LIBCMT:_x10fout_.obj
 0002:00018e00       ??_C@_05DNEBIAHO@1?$CDINF?$AA@ 6608ee00     LIBCMT:_x10fout_.obj
 0002:00018e08       ??_C@_05PHHOCPM@1?$CDIND?$AA@ 6608ee08     LIBCMT:_x10fout_.obj
 0002:00018e10       ??_C@_06PGGFOGJG@1?$CDSNAN?$AA@ 6608ee10     LIBCMT:_x10fout_.obj
 0002:00018e18       ??_C@_0BK@CFCOFLF@?5Complete?5Object?5Locator?8?$AA@ 6608ee18     LIBCMT:undname.obj
 0002:00018e34       ??_C@_0BN@MECKDCOJ@?5Class?5Hierarchy?5Descriptor?8?$AA@ 6608ee34     LIBCMT:undname.obj
 0002:00018e54       ??_C@_0BD@LGICGFMM@?5Base?5Class?5Array?8?$AA@ 6608ee54     LIBCMT:undname.obj
 0002:00018e68       ??_C@_0BM@LDKODKLH@?5Base?5Class?5Descriptor?5at?5?$CI?$AA@ 6608ee68     LIBCMT:undname.obj
 0002:00018e84       ??_C@_0BC@DAFEJGAK@?5Type?5Descriptor?8?$AA@ 6608ee84     LIBCMT:undname.obj
 0002:00018e98       ??_C@_0BM@PMGGMLDN@?$GAlocal?5static?5thread?5guard?8?$AA@ 6608ee98     LIBCMT:undname.obj
 0002:00018eb4       ??_C@_0CL@FGIJHLCE@?$GAmanaged?5vector?5copy?5constructor@ 6608eeb4     LIBCMT:undname.obj
 0002:00018ee0       ??_C@_0CJ@GJELGAMM@?$GAvector?5vbase?5copy?5constructor?5i@ 6608eee0     LIBCMT:undname.obj
 0002:00018f0c       ??_C@_0CD@CGAJBKEJ@?$GAvector?5copy?5constructor?5iterato@ 6608ef0c     LIBCMT:undname.obj
 0002:00018f30       ??_C@_0CB@PDBIFEP@?$GAdynamic?5atexit?5destructor?5for?5?8@ 6608ef30     LIBCMT:undname.obj
 0002:00018f54       ??_C@_0BL@CLIPGLGB@?$GAdynamic?5initializer?5for?5?8?$AA@ 6608ef54     LIBCMT:undname.obj
 0002:00018f70       ??_C@_0CM@FCBBDIGB@?$GAeh?5vector?5vbase?5copy?5constructo@ 6608ef70     LIBCMT:undname.obj
 0002:00018f9c       ??_C@_0CG@HLDDJMAG@?$GAeh?5vector?5copy?5constructor?5iter@ 6608ef9c     LIBCMT:undname.obj
 0002:00018fc4       ??_C@_0CF@IMGKMJNO@?$GAmanaged?5vector?5destructor?5itera@ 6608efc4     LIBCMT:undname.obj
 0002:00018fec       ??_C@_0CG@CFDHKGGD@?$GAmanaged?5vector?5constructor?5iter@ 6608efec     LIBCMT:undname.obj
 0002:00019014       ??_C@_0BN@CKNJLHMB@?$GAplacement?5delete?$FL?$FN?5closure?8?$AA@ 6608f014     LIBCMT:undname.obj
 0002:00019034       ??_C@_0BL@CNOONJFP@?$GAplacement?5delete?5closure?8?$AA@ 6608f034     LIBCMT:undname.obj
 0002:00019050       ??_C@_0P@HJKNJFNN@?$GAomni?5callsig?8?$AA@ 6608f050     LIBCMT:undname.obj
 0002:00019060       ??_C@_09LBNFPBCA@?5delete?$FL?$FN?$AA@ 6608f060     LIBCMT:undname.obj
 0002:0001906c       ??_C@_06FHBGPFGH@?5new?$FL?$FN?$AA@ 6608f06c     LIBCMT:undname.obj
 0002:00019074       ??_C@_0CE@IIHCMGGL@?$GAlocal?5vftable?5constructor?5closu@ 6608f074     LIBCMT:undname.obj
 0002:00019098       ??_C@_0BA@KKLDJDLB@?$GAlocal?5vftable?8?$AA@ 6608f098     LIBCMT:undname.obj
 0002:000190a8       ??_C@_05KHLCHHI@?$GARTTI?$AA@ 6608f0a8     LIBCMT:undname.obj
 0002:000190b0       ??_C@_03KLGMFNMG@?$GAEH?$AA@ 6608f0b0     LIBCMT:undname.obj
 0002:000190b4       ??_C@_0BA@KBCDOMBN@?$GAudt?5returning?8?$AA@ 6608f0b4     LIBCMT:undname.obj
 0002:000190c4       ??_C@_0BL@LLKPOHJI@?$GAcopy?5constructor?5closure?8?$AA@ 6608f0c4     LIBCMT:undname.obj
 0002:000190e0       ??_C@_0CH@OOJPLCPH@?$GAeh?5vector?5vbase?5constructor?5ite@ 6608f0e0     LIBCMT:undname.obj
 0002:00019108       ??_C@_0CA@GCEOPDGL@?$GAeh?5vector?5destructor?5iterator?8?$AA@ 6608f108     LIBCMT:undname.obj
 0002:00019128       ??_C@_0CB@JONCMFFK@?$GAeh?5vector?5constructor?5iterator?8@ 6608f128     LIBCMT:undname.obj
 0002:0001914c       ??_C@_0BL@NILFHHPC@?$GAvirtual?5displacement?5map?8?$AA@ 6608f14c     LIBCMT:undname.obj
 0002:00019168       ??_C@_0CE@IKBNEHA@?$GAvector?5vbase?5constructor?5iterat@ 6608f168     LIBCMT:undname.obj
 0002:0001918c       ??_C@_0BN@LFPFMEDL@?$GAvector?5destructor?5iterator?8?$AA@ 6608f18c     LIBCMT:undname.obj
 0002:000191ac       ??_C@_0BO@PFGOCPJJ@?$GAvector?5constructor?5iterator?8?$AA@ 6608f1ac     LIBCMT:undname.obj
 0002:000191cc       ??_C@_0BN@IMDCHIKM@?$GAscalar?5deleting?5destructor?8?$AA@ 6608f1cc     LIBCMT:undname.obj
 0002:000191ec       ??_C@_0BO@OBMKPJIG@?$GAdefault?5constructor?5closure?8?$AA@ 6608f1ec     LIBCMT:undname.obj
 0002:0001920c       ??_C@_0BN@DEGPLNFK@?$GAvector?5deleting?5destructor?8?$AA@ 6608f20c     LIBCMT:undname.obj
 0002:0001922c       ??_C@_0BD@JDLKDPAB@?$GAvbase?5destructor?8?$AA@ 6608f22c     LIBCMT:undname.obj
 0002:00019240       ??_C@_08OBABFOLI@?$GAstring?8?$AA@ 6608f240     LIBCMT:undname.obj
 0002:0001924c       ??_C@_0BF@KDPPACIK@?$GAlocal?5static?5guard?8?$AA@ 6608f24c     LIBCMT:undname.obj
 0002:00019264       ??_C@_08LLFFHHDJ@?$GAtypeof?8?$AA@ 6608f264     LIBCMT:undname.obj
 0002:00019270       ??_C@_07FEEIOKP@?$GAvcall?8?$AA@ 6608f270     LIBCMT:undname.obj
 0002:00019278       ??_C@_09BLBHBJP@?$GAvbtable?8?$AA@ 6608f278     LIBCMT:undname.obj
 0002:00019284       ??_C@_09IFPLHPGF@?$GAvftable?8?$AA@ 6608f284     LIBCMT:undname.obj
 0002:00019290       ??_C@_02MHEGNOJ@?$FO?$DN?$AA@ 6608f290     LIBCMT:undname.obj
 0002:00019294       ??_C@_02DHLNPPGH@?$HM?$DN?$AA@ 6608f294     LIBCMT:undname.obj
 0002:00019298       ??_C@_02FGJGFEAB@?$CG?$DN?$AA@ 6608f298     LIBCMT:undname.obj
 0002:0001929c       ??_C@_03CDNPDDLA@?$DM?$DM?$DN?$AA@ 6608f29c     LIBCMT:undname.obj
 0002:000192a0       ??_C@_03IKFCCPFF@?$DO?$DO?$DN?$AA@ 6608f2a0     LIBCMT:undname.obj
 0002:000192a4       ??_C@_02FENAOKFI@?$CF?$DN?$AA@ 6608f2a4     LIBCMT:undname.obj
 0002:000192a8       ??_C@_02FJEHGPIO@?1?$DN?$AA@ 6608f2a8     LIBCMT:undname.obj
 0002:000192ac       ??_C@_02FKMDLLOA@?9?$DN?$AA@ 6608f2ac     LIBCMT:undname.obj
 0002:000192b0       ??_C@_02FOEOMHFC@?$CL?$DN?$AA@ 6608f2b0     LIBCMT:undname.obj
 0002:000192b4       ??_C@_02FPIMKNGF@?$CK?$DN?$AA@ 6608f2b4     LIBCMT:undname.obj
 0002:000192b8       ??_C@_02NONPIBCD@?$HM?$HM?$AA@ 6608f2b8     LIBCMT:undname.obj
 0002:000192bc       ??_C@_02PPKAJPJL@?$CG?$CG?$AA@ 6608f2bc     LIBCMT:undname.obj
 0002:000192c0       ??_C@_01DNKMNLPK@?$HM?$AA@ 6608f2c0     LIBCMT:undname.obj
 0002:000192c4       ??_C@_01JKBOJNNK@?$FO?$AA@ 6608f2c4     LIBCMT:undname.obj
 0002:000192c8       ??_C@_01PJKLJHI@?$HO?$AA@  6608f2c8     LIBCMT:undname.obj
 0002:000192cc       ??_C@_02HCKGKOFO@?$CI?$CJ?$AA@ 6608f2cc     LIBCMT:undname.obj
 0002:000192d0       ??_C@_01IHBHIGKO@?0?$AA@   6608f2d0     LIBCMT:undname.obj
 0002:000192d4       ??_C@_02EEKDKGMJ@?$DO?$DN?$AA@ 6608f2d4     LIBCMT:undname.obj
 0002:000192d8       ??_C@_01PPODPGHN@?$DO?$AA@ 6608f2d8     LIBCMT:undname.obj
 0002:000192dc       ??_C@_02EHCHHCKH@?$DM?$DN?$AA@ 6608f2dc     LIBCMT:undname.obj
 0002:000192e0       ??_C@_01MNNFJEPP@?$DM?$AA@ 6608f2e0     LIBCMT:undname.obj
 0002:000192e4       ??_C@_01FGNFDNOH@?$CF?$AA@ 6608f2e4     LIBCMT:undname.obj
 0002:000192e8       ??_C@_01KMDKNFGN@?1?$AA@   6608f2e8     LIBCMT:undname.obj
 0002:000192ec       ??_C@_03MNHNFDLC@?9?$DO?$CK?$AA@ 6608f2ec     LIBCMT:undname.obj
 0002:000192f0       ??_C@_01HNPIGOCE@?$CG?$AA@ 6608f2f0     LIBCMT:undname.obj
 0002:000192f4       ??_C@_01MIFGBAGJ@?$CL?$AA@ 6608f2f4     LIBCMT:undname.obj
 0002:000192f8       ??_C@_01JOAMLHOP@?9?$AA@   6608f2f8     LIBCMT:undname.obj
 0002:000192fc       ??_C@_02BAABKJLB@?9?9?$AA@ 6608f2fc     LIBCMT:undname.obj
 0002:00019300       ??_C@_02ECNGHCIF@?$CL?$CL?$AA@ 6608f300     LIBCMT:undname.obj
 0002:00019304       ??_C@_01NBENCBCI@?$CK?$AA@ 6608f304     LIBCMT:undname.obj
 0002:00019308       ??_C@_02HBOOOICD@?9?$DO?$AA@ 6608f308     LIBCMT:undname.obj
 0002:0001930c       ??_C@_08LHJFAFGD@operator?$AA@ 6608f30c     LIBCMT:undname.obj
 0002:00019318       ??_C@_02GPECMEKF@?$FL?$FN?$AA@ 6608f318     LIBCMT:undname.obj
 0002:0001931c       ??_C@_02FDNJECIE@?$CB?$DN?$AA@ 6608f31c     LIBCMT:undname.obj
 0002:00019320       ??_C@_02EGOFBIJA@?$DN?$DN?$AA@ 6608f320     LIBCMT:undname.obj
 0002:00019324       ??_C@_01DCLJPIOD@?$CB?$AA@ 6608f324     LIBCMT:undname.obj
 0002:00019328       ??_C@_02FODMEDOG@?$DM?$DM?$AA@ 6608f328     LIBCMT:undname.obj
 0002:0001932c       ??_C@_02GPIOPFAK@?$DO?$DO?$AA@ 6608f32c     LIBCMT:undname.obj
 0002:00019330       ??_C@_07FPCDHGMM@?5delete?$AA@ 6608f330     LIBCMT:undname.obj
 0002:00019338       ??_C@_04NIHEBCM@?5new?$AA@ 6608f338     LIBCMT:undname.obj
 0002:00019340       ??_C@_0M@GFIIJFMG@__unaligned?$AA@ 6608f340     LIBCMT:undname.obj
 0002:0001934c       ??_C@_0L@PILCLIHE@__restrict?$AA@ 6608f34c     LIBCMT:undname.obj
 0002:00019358       ??_C@_07JOMMBBKO@__ptr64?$AA@ 6608f358     LIBCMT:undname.obj
 0002:00019360       ??_C@_09HIJEGCPM@__clrcall?$AA@ 6608f360     LIBCMT:undname.obj
 0002:0001936c       ??_C@_0L@JMKHOMEK@__fastcall?$AA@ 6608f36c     LIBCMT:undname.obj
 0002:00019378       ??_C@_0L@NPHFGOKO@__thiscall?$AA@ 6608f378     LIBCMT:undname.obj
 0002:00019384       ??_C@_09IFJBGAPI@__stdcall?$AA@ 6608f384     LIBCMT:undname.obj
 0002:00019390       ??_C@_08GHMPAG@__pascal?$AA@ 6608f390     LIBCMT:undname.obj
 0002:0001939c       ??_C@_07KOLFKCDI@__cdecl?$AA@ 6608f39c     LIBCMT:undname.obj
 0002:000193a4       ??_C@_08EHJDFFNH@__based?$CI?$AA@ 6608f3a4     LIBCMT:undname.obj
 0002:00019530       ??_C@_0L@KDOEJCKC@_nextafter?$AA@ 6608f530     LIBCMT:_fpexcept_.obj
 0002:0001953c       ??_C@_05JGDBENOH@_logb?$AA@ 6608f53c     LIBCMT:_fpexcept_.obj
 0002:00019544       ??_C@_03ONILCKOB@_yn?$AA@  6608f544     LIBCMT:_fpexcept_.obj
 0002:00019548       ??_C@_03NAKIGLHK@_y1?$AA@  6608f548     LIBCMT:_fpexcept_.obj
 0002:0001954c       ??_C@_03MJLDFKDL@_y0?$AA@  6608f54c     LIBCMT:_fpexcept_.obj
 0002:00019550       ??_C@_05GKKHEGJL@frexp?$AA@ 6608f550     LIBCMT:_fpexcept_.obj
 0002:00019558       ??_C@_04KEPJIHGP@fmod?$AA@ 6608f558     LIBCMT:_fpexcept_.obj
 0002:00019560       ??_C@_06MEIMCGCF@_hypot?$AA@ 6608f560     LIBCMT:_fpexcept_.obj
 0002:00019568       ??_C@_05KBKMEMPO@_cabs?$AA@ 6608f568     LIBCMT:_fpexcept_.obj
 0002:00019570       ??_C@_05CEJMAHNP@ldexp?$AA@ 6608f570     LIBCMT:_fpexcept_.obj
 0002:00019578       ??_C@_04EHEDPDJG@modf?$AA@ 6608f578     LIBCMT:_fpexcept_.obj
 0002:00019580       ??_C@_04ODHECPBC@fabs?$AA@ 6608f580     LIBCMT:_fpexcept_.obj
 0002:00019588       ??_C@_05PBJFFIGL@floor?$AA@ 6608f588     LIBCMT:_fpexcept_.obj
 0002:00019590       ??_C@_04GFPJNGEK@ceil?$AA@ 6608f590     LIBCMT:_fpexcept_.obj
 0002:00019598       ??_C@_03IIINPABG@tan?$AA@  6608f598     LIBCMT:_fpexcept_.obj
 0002:0001959c       ??_C@_03LALBNOCG@cos?$AA@  6608f59c     LIBCMT:_fpexcept_.obj
 0002:000195a0       ??_C@_03BLEJJJBH@sin?$AA@  6608f5a0     LIBCMT:_fpexcept_.obj
 0002:000195a4       ??_C@_04EIAKFFMI@sqrt?$AA@ 6608f5a4     LIBCMT:_fpexcept_.obj
 0002:000195ac       ??_C@_05KNGEOGJB@atan2?$AA@ 6608f5ac     LIBCMT:_fpexcept_.obj
 0002:000195b4       ??_C@_04MLLJIGOK@atan?$AA@ 6608f5b4     LIBCMT:_fpexcept_.obj
 0002:000195bc       ??_C@_04PDIFKINK@acos?$AA@ 6608f5bc     LIBCMT:_fpexcept_.obj
 0002:000195c4       ??_C@_04FIHNOPOL@asin?$AA@ 6608f5c4     LIBCMT:_fpexcept_.obj
 0002:000195cc       ??_C@_04FJHINJAO@tanh?$AA@ 6608f5cc     LIBCMT:_fpexcept_.obj
 0002:000195d4       ??_C@_04HPJJNFIM@cosh?$AA@ 6608f5d4     LIBCMT:_fpexcept_.obj
 0002:000195dc       ??_C@_04COOMCNPB@sinh?$AA@ 6608f5dc     LIBCMT:_fpexcept_.obj
 0002:000195e4       ??_C@_05HGHHAHAP@log10?$AA@ 6608f5e4     LIBCMT:_fpexcept_.obj
 0002:000195ec       ??_C@_03MGHMBJCF@log?$AA@  6608f5ec     LIBCMT:_fpexcept_.obj
 0002:000195f0       ??_C@_03JGHBODFD@pow?$AA@  6608f5f0     LIBCMT:_fpexcept_.obj
 0002:000195f4       ??_C@_03KHJOGHMM@exp?$AA@  6608f5f4     LIBCMT:_fpexcept_.obj
 0002:000195f8       __load_config_used         6608f5f8     LIBCMT:loadcfg.obj
 0002:00019640       ??_R4bad_alloc@std@@6B@    6608f640     LIBCMT:new.obj
 0002:00019654       ??_R3bad_alloc@std@@8      6608f654     LIBCMT:new.obj
 0002:00019664       ??_R2bad_alloc@std@@8      6608f664     LIBCMT:new.obj
 0002:00019670       ??_R1A@?0A@EA@bad_alloc@std@@8 6608f670     LIBCMT:new.obj
 0002:0001968c       ??_R1A@?0A@EA@exception@std@@8 6608f68c     LIBCMT:new.obj
 0002:000196a8       ??_R3exception@std@@8      6608f6a8     LIBCMT:new.obj
 0002:000196b8       ??_R2exception@std@@8      6608f6b8     LIBCMT:new.obj
 0002:000196c0       ??_R4exception@std@@6B@    6608f6c0     LIBCMT:stdexcpt.obj
 0002:000196d4       ??_R4type_info@@6B@        6608f6d4     LIBCMT:typinfo.obj
 0002:000196e8       ??_R3type_info@@8          6608f6e8     LIBCMT:typinfo.obj
 0002:000196f8       ??_R2type_info@@8          6608f6f8     LIBCMT:typinfo.obj
 0002:00019700       ??_R1A@?0A@EA@type_info@@8 6608f700     LIBCMT:typinfo.obj
 0002:00019720       ___safe_se_handler_table   6608f720     <linker-defined>
 0002:0001972c       ___rtc_iaa                 6608f72c     LIBCMT:_initsect_.obj
 0002:00019730       ___rtc_izz                 6608f730     LIBCMT:_initsect_.obj
 0002:00019734       ___rtc_taa                 6608f734     LIBCMT:_initsect_.obj
 0002:00019738       ___rtc_tzz                 6608f738     LIBCMT:_initsect_.obj
 0002:0001992c       __TI2?AVbad_alloc@std@@    6608f92c     LIBCMT:new.obj
 0002:0001993c       __CTA2?AVbad_alloc@std@@   6608f93c     LIBCMT:new.obj
 0002:00019948       __CT??_R0?AVbad_alloc@std@@@8??0bad_alloc@std@@QAE@ABV01@@Z12 6608f948     LIBCMT:new.obj
 0002:00019964       __CT??_R0?AVexception@std@@@8??0exception@std@@QAE@ABV01@@Z12 6608f964     LIBCMT:new.obj
 0002:00019e94       __IMPORT_DESCRIPTOR_KERNEL32 6608fe94     kernel32:KERNEL32.dll
 0002:00019ea8       __IMPORT_DESCRIPTOR_USER32 6608fea8     user32:USER32.dll
 0002:00019ebc       __IMPORT_DESCRIPTOR_IMM32  6608febc     imm32:IMM32.dll
 0002:00019ed0       __NULL_IMPORT_DESCRIPTOR   6608fed0     kernel32:KERNEL32.dll
 0003:00000000       ?szRuntimePath@@3PADA      66091000     config.obj
 0003:00000100       ?fShowCheckInfo@@3HA       66091100     config.obj
 0003:00000104       ?fLoadItemColours@@3HA     66091104     config.obj
 0003:00000108       ?mainMenuMsgTimeout@@3HA   66091108     config.obj
 0003:00000790       ?dwGameWindowId@@3HA       66091790     DllMain.obj
 0003:00000798       ?dwGameLng@@3HA            66091798     install.obj
 0003:0000079c       ?fFixSocketError@@3HA      6609179c     install.obj
 0003:000007a0       ?tReloadDll@@3UToggleVar@@A 660917a0     install.obj
 0003:000007d0       ?tReloadConfig@@3UToggleVar@@A 660917d0     install.obj
 0003:00000800       ?tInstallPatches@@3UToggleVar@@A 66091800     install.obj
 0003:000009cc       ?dwPetListChangeCount@@3HA 660919cc     common.obj
 0003:000009d0       ?skillTypes@@3PAY0BO@HA    660919d0     common.obj
 0003:00000d18       ?tShowTestInfo@@3UToggleVar@@A 66091d18     dbg.obj
 0003:00000d50       ?fPlayerInTown@@3HA        66091d50     loop.obj
 0003:00000d54       ?actlvls@@3PAHA            66091d54     loop.obj
 0003:00000d6c       ?dwCurrentLevel@@3HA       66091d6c     loop.obj
 0003:00000d70       ?dwLeftSkill@@3HA          66091d70     loop.obj
 0003:00000d74       ?dwRightSkill@@3HA         66091d74     loop.obj
 0003:00000d78       ?fCanUseLeftSkill@@3HA     66091d78     loop.obj
 0003:00000d7c       ?fCanUseRightSkill@@3HA    66091d7c     loop.obj
 0003:00000d80       ?dwSlowMs@@3HA             66091d80     loop.obj
 0003:00000d84       ?dwSlowSkipMs@@3HA         66091d84     loop.obj
 0003:00000ecc       ?dwAutoRevealMode@@3HA     66091ecc     map.obj
 0003:00000ed0       ?tRevealAct@@3UToggleVar@@A 66091ed0     map.obj
 0003:00000f00       ?tRevealLevel@@3UToggleVar@@A 66091f00     map.obj
 0003:00000f30       ?tPrevMapTarget@@3UToggleVar@@A 66091f30     map.obj
 0003:00000f60       ?tNextMapTarget@@3UToggleVar@@A 66091f60     map.obj
 0003:00000f90       ?tAutomapLevelNames@@3UToggleVar@@A 66091f90     map.obj
 0003:00000fc0       ?tAutoMap@@3UToggleVar@@A  66091fc0     map.obj
 0003:00000ff0       ?tMiniShrine@@3UToggleVar@@A 66091ff0     map.obj
 0003:00001020       ?tAutomapActiveRect@@3UToggleVar@@A 66092020     map.obj
 0003:00001050       ?tAutomapReadyRect@@3UToggleVar@@A 66092050     map.obj
 0003:00001080       ?tAutomapScreenArea@@3UToggleVar@@A 66092080     map.obj
 0003:000010b0       ?nAutomapActiveRectColors@@3EA 660920b0     map.obj
 0003:000010b1       ?nAutomapReadyRectColors@@3EA 660920b1     map.obj
 0003:000010b2       ?nAutomapScreenColors@@3EA 660920b2     map.obj
 0003:000010b3       ?nMinimapSize@@3EA         660920b3     map.obj
 0003:000010b4       ?routeLineColor@@3EA       660920b4     map.obj
 0003:000010b5       ?fAutomapPartyDefault@@3EA 660920b5     map.obj
 0003:000010b6       ?fAutomapNamesDefault@@3EA 660920b6     map.obj
 0003:000010b7       ?nHostileMissileColor@@3EA 660920b7     map.obj
 0003:000010b8       ?tMinimapDirectLineToggle@@3UToggleVar@@A 660920b8     map.obj
 0003:000010e8       ?tMinimapDebugToggle@@3UToggleVar@@A 660920e8     map.obj
 0003:00001118       ?tAutomapCorpse@@3UToggleVar@@A 66092118     map.obj
 0003:00001148       ?tAutomapMonsters@@3UToggleVar@@A 66092148     map.obj
 0003:00001178       ?tAutomapChests@@3UToggleVar@@A 66092178     map.obj
 0003:000011a8       ?tAutomapMissiles@@3UToggleVar@@A 660921a8     map.obj
 0003:000011d8       ?tAutomapItems@@3UToggleVar@@A 660921d8     map.obj
 0003:00001208       ?nGuidedMissileColor@@3EA  66092208     map.obj
 0003:00001209       ?nTracerMissileColor@@3EA  66092209     map.obj
 0003:0000120a       ?nOtherMissileColor@@3EA   6609220a     map.obj
 0003:0000120b       ?nClosedChestColor@@3EA    6609220b     map.obj
 0003:0000120c       ?nLockedChestColor@@3EA    6609220c     map.obj
 0003:0000120d       ?nNormalCorpseColor@@3EA   6609220d     map.obj
 0003:0000120e       ?nBossCorpseColor@@3EA     6609220e     map.obj
 0003:0000120f       ?nMinionCorpseColor@@3EA   6609220f     map.obj
 0003:00001210       ?nChampionCorpseColor@@3EA 66092210     map.obj
 0003:00001211       ?nMonsterNormalColor@@3EA  66092211     map.obj
 0003:00001212       ?nMonsterBossColor@@3EA    66092212     map.obj
 0003:00001213       ?nMonsterMinionColor@@3EA  66092213     map.obj
 0003:00001214       ?nMonsterChampColor@@3EA   66092214     map.obj
 0003:00001215       ?nSuperUniqueColor@@3EA    66092215     map.obj
 0003:00001216       ?nNeutralPlayerColor@@3EA  66092216     map.obj
 0003:00001217       ?nHostilePlayerColor@@3EA  66092217     map.obj
 0003:00001218       ?nFriendMinionColor@@3EA   66092218     map.obj
 0003:00001219       ?nPlayerMinionColor@@3EA   66092219     map.obj
 0003:0000121a       ?nPartyTextColour@@3EA     6609221a     map.obj
 0003:0000121b       ?nNeutralTextColour@@3EA   6609221b     map.obj
 0003:0000121c       ?nHostileTextColour@@3EA   6609221c     map.obj
 0003:0000121d       ?nMonsterTextCol@@3EA      6609221d     map.obj
 0003:00001220       ?tBossNameToggle@@3UToggleVar@@A 66092220     map.obj
 0003:00001250       ?tScreenshake@@3UToggleVar@@A 66092250     map.obj
 0003:00001280       ?tCenterMap@@3UToggleVar@@A 66092280     map.obj
 0003:000012b0       ?nScrollMode@@3HA          660922b0     map.obj
 0003:000012b4       ?dwDuranceOfHateLevel3TeleportShift@@3PAHA 660922b4     map.obj
 0003:000012c0       ?dwDuranceOfHateLevel3TeleportShiftBugKM@@3PAHA 660922c0     map.obj
 0003:000026f0       ?dwSocketTimeOutSec@@3HA   660936f0     packet.obj
 0003:000026f4       ?dwSocketTimeOut@@3HA      660936f4     packet.obj
 0003:000026f8       ?dwAddStatMaxCount@@3HA    660936f8     packet.obj
 0003:000026fc       ?tPacketHandler@@3UToggleVar@@A 660936fc     packet.obj
 0003:0000272c       ?tDoTest@@3UToggleVar@@A   6609372c     packet.obj
 0003:0000275c       ?tNecTeleportAttract@@3UToggleVar@@A 6609375c     packet.obj
 0003:0000278c       ?tHardCoreSwapWeaponProtect@@3UToggleVar@@A 6609378c     packet.obj
 0003:00002920       ?tAutomapRouteInfo@@3UToggleVar@@A 66093920     route.obj
 0003:00002950       ?tScreenRouteGuide@@3UToggleVar@@A 66093950     route.obj
 0003:00002980       ?tReroute@@3UToggleVar@@A  66093980     route.obj
 0003:00002b40       ?fWinActive@@3HA           66093b40     winmsg.obj
 0003:00002b44       ?dwQuickSwapItemDelayMs@@3HA 66093b44     winmsg.obj
 0003:00002b48       ?dwAutoCallToArm@@3HA      66093b48     winmsg.obj
 0003:00002b4c       ?tLockMouseToggle@@3UToggleVar@@A 66093b4c     winmsg.obj
 0003:00002b7c       ?tHardCoreEscapeProtect@@3UToggleVar@@A 66093b7c     winmsg.obj
 0003:00002bac       ?tAutoHideMinimapToggle@@3UToggleVar@@A 66093bac     winmsg.obj
 0003:00002bdc       ?tAutoMinimapTeleportToggle@@3UToggleVar@@A 66093bdc     winmsg.obj
 0003:00002c0c       ?tFullScreen@@3UToggleVar@@A 66093c0c     winmsg.obj
 0003:00002c3c       ?tFullScreenNoCaption@@3UToggleVar@@A 66093c3c     winmsg.obj
 0003:00002c6c       ?tResizeWindowBar@@3UToggleVar@@A 66093c6c     winmsg.obj
 0003:00002c9c       ?tAttractNPC@@3UToggleVar@@A 66093c9c     winmsg.obj
 0003:00002ccc       ?tEnableScreenSaver@@3UToggleVar@@A 66093ccc     winmsg.obj
 0003:00002cfc       ?tEnableMenuScreenSaver@@3UToggleVar@@A 66093cfc     winmsg.obj
 0003:00002d2c       ?tNoHide@@3UToggleVar@@A   66093d2c     winmsg.obj
 0003:00002d5c       ?tSaveGame@@3UToggleVar@@A 66093d5c     winmsg.obj
 0003:00003390       ?newTextBoxData@@3PAKA     66094390     winmsg.obj
 0003:000033c0       ?tChangeVisualEffect@@3UToggleVar@@A 660943c0     env.obj
 0003:000033f0       ?tWeather@@3UToggleVar@@A  660943f0     env.obj
 0003:00003420       ?tHiddenCorpse@@3UToggleVar@@A 66094420     env.obj
 0003:00003450       ?tSkipDrawToggle@@3UToggleVar@@A 66094450     env.obj
 0003:00003480       ?tHide3BB@@3UToggleVar@@A  66094480     env.obj
 0003:00003640       ?simpleItemStackTxt@@3HA   66094640     GameMonitor.obj
 0003:00003644       ?simpleItemStackIdx@@3HA   66094644     GameMonitor.obj
 0003:00003648       ?simpleItemStackStatId@@3HA 66094648     GameMonitor.obj
 0003:0000364c       ?changeStashPageCmd@@3HA   6609464c     GameMonitor.obj
 0003:00003650       ?changeStashPageCmdOffset@@3HA 66094650     GameMonitor.obj
 0003:00003654       ?changeStashPageCmdValue@@3HA 66094654     GameMonitor.obj
 0003:00003658       ?changeStashPageValueOffset@@3HA 66094658     GameMonitor.obj
 0003:000036a4       ?tCountDown@@3UToggleVar@@A 660946a4     GameMonitor.obj
 0003:000036d4       ?tDrawMultiPageStashCount@@3UToggleVar@@A 660946d4     GameMonitor.obj
 0003:00003704       ?dwGameMonitorX@@3HA       66094704     GameMonitor.obj
 0003:00003708       ?dwGameMonitorY@@3HA       66094708     GameMonitor.obj
 0003:0000370c       ?dwCountDownFontSize@@3HA  6609470c     GameMonitor.obj
 0003:00003710       ?dwCountDownGap@@3HA       66094710     GameMonitor.obj
 0003:00003714       ?dwCountDownFlashSecond@@3HA 66094714     GameMonitor.obj
 0003:00003718       ?tKillCount@@3UToggleVar@@A 66094718     GameMonitor.obj
 0003:00003748       ?tGetHitCount@@3UToggleVar@@A 66094748     GameMonitor.obj
 0003:00003778       ?tNecAutomapCorpsesToggle@@3UToggleVar@@A 66094778     GameMonitor.obj
 0003:000037a8       ?tDrawBossHpToggle@@3UToggleVar@@A 660947a8     GameMonitor.obj
 0003:000037d8       ?bossLineColor@@3HA        660947d8     GameMonitor.obj
 0003:000037dc       ?tDrawPlayerNameToggle@@3UToggleVar@@A 660947dc     GameMonitor.obj
 0003:0000380c       ?tAnalyzeMonsterExp@@3UToggleVar@@A 6609480c     GameMonitor.obj
 0003:0000383c       ?tLogMonsterExp@@3UToggleVar@@A 6609483c     GameMonitor.obj
 0003:0000386c       ?dwDrawPlayerNameDy@@3HA   6609486c     GameMonitor.obj
 0003:00003870       ?HasCowKing@@3HA           66094870     GameMonitor.obj
 0003:00003874       ?tShowPlayerCastPath@@3UToggleVar@@A 66094874     GameMonitor.obj
 0003:00003fe4       ?countDowns@@3PAPAUCountDown@@A 66094fe4     GameMonitor.obj
 0003:00004118       ?tServerIp@@3UToggleVar@@A 66095118     info.obj
 0003:00004148       ?tGameTime@@3UToggleVar@@A 66095148     info.obj
 0003:00004178       ?tClock@@3UToggleVar@@A    66095178     info.obj
 0003:000041a8       ?tLayerLevelNo@@3UToggleVar@@A 660951a8     info.obj
 0003:000041d8       ?tAreaLevel@@3UToggleVar@@A 660951d8     info.obj
 0003:00004208       ?tPermShowOrb@@3UToggleVar@@A 66095208     info.obj
 0003:00004238       ?tShowExp@@3UToggleVar@@A  66095238     info.obj
 0003:00004268       ?tShowPing@@3UToggleVar@@A 66095268     info.obj
 0003:00004298       ?tShowPartyPosition@@3UToggleVar@@A 66095298     info.obj
 0003:000042c8       ?tShowPartyLevel@@3UToggleVar@@A 660952c8     info.obj
 0003:000042f8       ?tViewEquipmentKey@@3UToggleVar@@A 660952f8     info.obj
 0003:00004328       ?tViewPlayerStatsKey@@3UToggleVar@@A 66095328     info.obj
 0003:00004358       ?tShowBaseStat@@3UToggleVar@@A 66095358     info.obj
 0003:00004388       ?tFirstPlayerStat@@3UToggleVar@@A 66095388     info.obj
 0003:000043b8       ?tNextPlayerStat@@3UToggleVar@@A 660953b8     info.obj
 0003:000043e8       ?tPrevPlayerStat@@3UToggleVar@@A 660953e8     info.obj
 0003:000046d8       ?szOrbPattern@@3PADA       660956d8     info.obj
 0003:000046dc       ?viewStatUnit@@3UViewUnitInfo@@A 660956dc     info.obj
 0003:000046ec       ?viewEquUnit@@3UViewUnitInfo@@A 660956ec     info.obj
 0003:000047d0       ?tLogMessage@@3UToggleVar@@A 660957d0     MessageLog.obj
 0003:00004800       ?dwMessageFileSize@@3HA    66095800     MessageLog.obj
 0003:00004860       ?anGoldGoodCol@@3PADA      66095860     item.obj
 0003:00004864       ?anGoldPoorCol@@3PADA      66095864     item.obj
 0003:00004868       ?tSwitchItemMode@@3UToggleVar@@A 66095868     item.obj
 0003:00004898       ?dwItemShowMode@@3HA       66095898     item.obj
 0003:0000489c       ?nQuestItemColour@@3EA     6609589c     item.obj
 0003:0000489d       ?nDefaultExtInfoColour@@3EA 6609589d     item.obj
 0003:000048a0       ?tRuneNumbers@@3UToggleVar@@A 660958a0     item.obj
 0003:000048d0       ?tSocketNumbers@@3UToggleVar@@A 660958d0     item.obj
 0003:00004900       ?tItemLevel@@3UToggleVar@@A 66095900     item.obj
 0003:00004930       ?tItemValue@@3UToggleVar@@A 66095930     item.obj
 0003:00004960       ?tItemIndex@@3UToggleVar@@A 66095960     item.obj
 0003:00004990       ?tItemFileIndex@@3UToggleVar@@A 66095990     item.obj
 0003:000049c0       ?tUnitNumber@@3UToggleVar@@A 660959c0     item.obj
 0003:000049f0       ?tItemQLevel@@3UToggleVar@@A 660959f0     item.obj
 0003:00004a20       ?tItemMLevel@@3UToggleVar@@A 66095a20     item.obj
 0003:00004a50       ?tItemALevel@@3UToggleVar@@A 66095a50     item.obj
 0003:00004a80       ?tAfterCube@@3UToggleVar@@A 66095a80     item.obj
 0003:00004ab0       ?tLifePerLevel@@3UToggleVar@@A 66095ab0     item.obj
 0003:00004ae0       ?dwItemValueNpc@@3PAHA     66095ae0     item.obj
 0003:00004af4       ?tShowBaseED@@3UToggleVar@@A 66095af4     item.obj
 0003:00004b24       ?tShowIdentifiedItem@@3UToggleVar@@A 66095b24     item.obj
 0003:00004b54       ?tHiddenItems@@3UToggleVar@@A 66095b54     item.obj
 0003:00004b84       ?tPermShowItems@@3UToggleVar@@A 66095b84     item.obj
 0003:00004bb4       ?tLockAltToggle@@3UToggleVar@@A 66095bb4     item.obj
 0003:00004be4       ?tItemBasicStat@@3UToggleVar@@A 66095be4     item.obj
 0003:00004c14       ?tViewSocketable@@3UToggleVar@@A 66095c14     item.obj
 0003:00004c44       ?tViewSocketBase@@3UToggleVar@@A 66095c44     item.obj
 0003:00004c74       ?tShowItemVariableProp@@3UToggleVar@@A 66095c74     item.obj
 0003:00004ca4       ?tSocketProtect@@3UToggleVar@@A 66095ca4     item.obj
 0003:00004cd4       ?tRunewordProtect@@3UToggleVar@@A 66095cd4     item.obj
 0003:00004d04       ?tDrawInvItemInfo@@3UToggleVar@@A 66095d04     item.obj
 0003:00004d34       ?tItemExtInfo@@3UToggleVar@@A 66095d34     item.obj
 0003:00004d64       ?maxTownPortalCount@@3HA   66095d64     item.obj
 0003:00004d68       ?maxIdentifyPortalCount@@3HA 66095d68     item.obj
 0003:00004d6c       ?batchSimpleItemStackCount@@3HA 66095d6c     item.obj
 0003:00004d70       ?tDrawSimpleItemStackCount@@3UToggleVar@@A 66095d70     item.obj
 0003:000056ec       ?dwAutoPotionCheckMs@@3HA  660966ec     dangerous.obj
 0003:000056f0       ?dwHirePotionDelayMs@@3HA  660966f0     dangerous.obj
 0003:000056f4       ?dwManaPotionDelayMs@@3HA  660966f4     dangerous.obj
 0003:000056f8       ?nChickenLifeAction@@3HA   660966f8     dangerous.obj
 0003:000056fc       ?tHealingPotion@@3UToggleVar@@A 660966fc     dangerous.obj
 0003:0000572c       ?tManaPotion@@3UToggleVar@@A 6609672c     dangerous.obj
 0003:0000575c       ?tChickenLife@@3UToggleVar@@A 6609675c     dangerous.obj
 0003:0000578c       ?tChickenHostile@@3UToggleVar@@A 6609678c     dangerous.obj
 0003:000057bc       ?tChickenHostileNearby@@3UToggleVar@@A 660967bc     dangerous.obj
 0003:000057ec       ?tChickenDangerousMonster@@3UToggleVar@@A 660967ec     dangerous.obj
 0003:0000581c       ?tAutoPotion@@3UToggleVar@@A 6609681c     dangerous.obj
 0003:0000584c       ?tHardCoreAllBackTownIfProtect@@3UToggleVar@@A 6609684c     dangerous.obj
 0003:0000587c       ?tHardCoreLeaveTownDurability@@3UToggleVar@@A 6609687c     dangerous.obj
 0003:000058ac       ?dwHardCoreLeaveTownDurabilityPercent@@3HA 660968ac     dangerous.obj
 0003:000058b0       ?dwChickenLifeForcedClevel@@3HA 660968b0     dangerous.obj
 0003:000058b4       ?dwNoQuitIfDeadClevel@@3HA 660968b4     dangerous.obj
 0003:000058b8       ?dwChickenLifeEnterGame@@3HA 660968b8     dangerous.obj
 0003:000058bc       ?nDangerousMonsterAction@@3HA 660968bc     dangerous.obj
 0003:00006010       ?dwBarbrianLeft@@3HA       66097010     quest.obj
 0003:00006014       ?dwBugAlertTimes@@3HA      66097014     quest.obj
 0003:00006018       ?tBugKCountess@@3UToggleVar@@A 66097018     quest.obj
 0003:00006048       ?tBugKM@@3UToggleVar@@A    66097048     quest.obj
 0003:00006078       ?tBugKD@@3UToggleVar@@A    66097078     quest.obj
 0003:000060a8       ?tBugKB@@3UToggleVar@@A    660970a8     quest.obj
 0003:000060d8       ?tBugAutoQuit@@3UToggleVar@@A 660970d8     quest.obj
 0003:00006108       ?tBugAutoQuitHell@@3UToggleVar@@A 66097108     quest.obj
 0003:00006138       ?tBugAutoQuitHellAct1@@3UToggleVar@@A 66097138     quest.obj
 0003:00006168       ?tBugAutoQuitHellAct3@@3UToggleVar@@A 66097168     quest.obj
 0003:00006198       ?tBugAutoQuitHellAct4@@3UToggleVar@@A 66097198     quest.obj
 0003:000061c8       ?tBugAutoQuitHellAct5@@3UToggleVar@@A 660971c8     quest.obj
 0003:000061f8       ?tBugAutoQuitAct5@@3UToggleVar@@A 660971f8     quest.obj
 0003:00006228       ?tBugAllHellAlert@@3UToggleVar@@A 66097228     quest.obj
 0003:00006258       ?tAlertNoBug@@3UToggleVar@@A 66097258     quest.obj
 0003:00006288       ?t3BBProtect@@3UToggleVar@@A 66097288     quest.obj
 0003:00006668       ?tMonsterLevel@@3UToggleVar@@A 66097668     lifebar.obj
 0003:00006698       ?tMonsterTC@@3UToggleVar@@A 66097698     lifebar.obj
 0003:000066c8       ?tMonsterRuneTC@@3UToggleVar@@A 660976c8     lifebar.obj
 0003:000066f8       ?tMonsterResists@@3UToggleVar@@A 660976f8     lifebar.obj
 0003:00006728       ?tMonsterHPPercent@@3UToggleVar@@A 66097728     lifebar.obj
 0003:00006758       ?tMonsterDistance@@3UToggleVar@@A 66097758     lifebar.obj
 0003:00006788       ?tMonsterID@@3UToggleVar@@A 66097788     lifebar.obj
 0003:000067b8       ?tSPMonsterHP@@3UToggleVar@@A 660977b8     lifebar.obj
 0003:000067e8       ?tSPMonsterExp@@3UToggleVar@@A 660977e8     lifebar.obj
 0003:00006818       ?nLifeBarTrans@@3EA        66097818     lifebar.obj
 0003:00006819       ?nLifeBarColour@@3EA       66097819     lifebar.obj
 0003:0000681c       ?tPlayerLevel@@3UToggleVar@@A 6609781c     lifebar.obj
 0003:0000684c       ?tPlayerDistance@@3UToggleVar@@A 6609784c     lifebar.obj
 0003:0000687c       ?tPlayerHPPercent@@3UToggleVar@@A 6609787c     lifebar.obj
 0003:00006bf8       ?tDropProtectionToggle@@3UToggleVar@@A 66097bf8     DropProtection.obj
 0003:00006c28       ?tResetProtectionToggle@@3UToggleVar@@A 66097c28     DropProtection.obj
 0003:00006c58       ?protectCharLv@@3HA        66097c58     DropProtection.obj
 0003:00006dc0       ?tWisperNotice@@3UToggleVar@@A 66097dc0     chat.obj
 0003:00006df0       ?tInputLine@@3UToggleVar@@A 66097df0     chat.obj
 0003:00006e20       ?tUseCustomFont@@3UToggleVar@@A 66097e20     chat.obj
 0003:00006e50       ?tQuickMessagePasteOnly@@3UToggleVar@@A 66097e50     chat.obj
 0003:000070d0       ?tOutTownSelect@@3UToggleVar@@A 660980d0     misc.obj
 0003:00007100       ?tULCMask@@3UToggleVar@@A  66098100     misc.obj
 0003:000071b8       ?tMultiClient@@3UToggleVar@@A 660981b8     multi.obj
 0003:000071e8       ?tMultiClientToggleFollow@@3UToggleVar@@A 660981e8     multi.obj
 0003:00007218       ?tMultiClientStartFollow1@@3UToggleVar@@A 66098218     multi.obj
 0003:00007248       ?tMultiClientStartFollow2@@3UToggleVar@@A 66098248     multi.obj
 0003:00007278       ?tMultiClientStopFollow@@3UToggleVar@@A 66098278     multi.obj
 0003:000072a8       ?tMultiClientEnterDoor@@3UToggleVar@@A 660982a8     multi.obj
 0003:000072d8       ?tMultiClientRetreat@@3UToggleVar@@A 660982d8     multi.obj
 0003:00007308       ?tMultiClientClick@@3UToggleVar@@A 66098308     multi.obj
 0003:00007338       ?tMultiClientClick2@@3UToggleVar@@A 66098338     multi.obj
 0003:00007368       ?tMultiClientTalkToNpc@@3UToggleVar@@A 66098368     multi.obj
 0003:00007398       ?tMultiClientTp@@3UToggleVar@@A 66098398     multi.obj
 0003:000073c8       ?dwMultiClientGroupSize1@@3HA 660983c8     multi.obj
 0003:000073cc       ?dwMultiClientGroupSize2@@3HA 660983cc     multi.obj
 0003:000073d0       ?dwAutoFollowDistance@@3HA 660983d0     multi.obj
 0003:000073d4       ?dwAutoFollowMaxDistance@@3HA 660983d4     multi.obj
 0003:000073d8       ?dwAutoFollowMoveDistance@@3HA 660983d8     multi.obj
 0003:000073dc       ?dwAutoFollowCheckInterval@@3HA 660983dc     multi.obj
 0003:000073e0       ?dwAutoFollowClickObjectDelayMs@@3HA 660983e0     multi.obj
 0003:000073e4       ?dwWaitTeamEnterPortalMaxDelayMs@@3HA 660983e4     multi.obj
 0003:000073e8       ?tNecNoAttackInHell@@3UToggleVar@@A 660983e8     multi.obj
 0003:000077e0       ?tNpcTradeShowInfo@@3UToggleVar@@A 660987e0     NpcTrade.obj
 0003:00007860       ?mAutoPartyDelays@@3HA     66098860     party.obj
 0003:00007864       ?tAutoParty@@3UToggleVar@@A 66098864     party.obj
 0003:00007894       ?tAutoInvite@@3UToggleVar@@A 66098894     party.obj
 0003:000078c4       ?tAutoPermit@@3UToggleVar@@A 660988c4     party.obj
 0003:000078f4       ?tAutoLocalPermit@@3UToggleVar@@A 660988f4     party.obj
 0003:00007924       ?tAutoPartyBugMF@@3UToggleVar@@A 66098924     party.obj
 0003:00007954       ?tHardCoreBackTownIfAnyoneDie@@3UToggleVar@@A 66098954     party.obj
 0003:00007984       ?autoPartyLevelRange@@3PAY01DA 66098984     party.obj
 0003:00007af0       ?nTownportalAlertNums@@3HA 66098af0     quick.obj
 0003:00007af8       ?tBackToTown@@3UToggleVar@@A 66098af8     quick.obj
 0003:00007b28       ?tExitGame@@3UToggleVar@@A 66098b28     quick.obj
 0003:00007b58       ?tQuickNextGame@@3UToggleVar@@A 66098b58     quick.obj
 0003:00007b88       ?tQuickNextGame2@@3UToggleVar@@A 66098b88     quick.obj
 0003:00007bb8       ?tAllNextGame@@3UToggleVar@@A 66098bb8     quick.obj
 0003:00007be8       ?tAutoJoinGame@@3UToggleVar@@A 66098be8     quick.obj
 0003:00007c18       ?tCancelAutoJoinIfForeground@@3UToggleVar@@A 66098c18     quick.obj
 0003:00007f10       ?tRightClickSwap@@3UToggleVar@@A 66098f10     QuickSwapItem.obj
 0003:00007f40       ?tQuickDropToggle@@3UToggleVar@@A 66098f40     QuickSwapItem.obj
 0003:00007f70       ?tEnableGemAutoMerge@@3UToggleVar@@A 66098f70     QuickSwapItem.obj
 0003:00007fa0       ?tEnableAutoSimpleItemStack@@3UToggleVar@@A 66098fa0     QuickSwapItem.obj
 0003:000080e8       ?tHighResolution@@3UToggleVar@@A 660990e8     resolution.obj
 0003:00008148       ?tAutoPickupToggle@@3UToggleVar@@A 66099148     skill.obj
 0003:00008178       ?tAutoEnchant@@3UToggleVar@@A 66099178     skill.obj
 0003:000081a8       ?dwRenewEnchantMs@@3HA     660991a8     skill.obj
 0003:000081ac       ?dwAutoEnchantMana@@3HA    660991ac     skill.obj
 0003:000081b0       ?dwRenewEnchantMana@@3HA   660991b0     skill.obj
 0003:000081b4       ?dwAutoEnchantPlayerLevel@@3HA 660991b4     skill.obj
 0003:000081b8       ?tAutoWarCry@@3UToggleVar@@A 660991b8     skill.obj
 0003:000081e8       ?tAutoBackgroundSkill@@3UToggleVar@@A 660991e8     skill.obj
 0003:00008218       ?tAutoForegroundSkillToggle@@3UToggleVar@@A 66099218     skill.obj
 0003:00008248       ?tAutoForegroundSkill@@3UToggleVar@@A 66099248     skill.obj
 0003:00008278       ?dwAutoSkillCheckInterval@@3HA 66099278     skill.obj
 0003:0000827c       ?dwAutoSkillIdleDelay@@3HA 6609927c     skill.obj
 0003:00008280       ?dwAutoThrowMinQuantity@@3HA 66099280     skill.obj
 0003:00008284       ?dwAutoStaticFieldHPPercent@@3HA 66099284     skill.obj
 0003:00008288       ?tAutoSummon@@3UToggleVar@@A 66099288     skill.obj
 0003:000082b8       ?tAutoSummonRevive@@3UToggleVar@@A 660992b8     skill.obj
 0003:000082e8       ?tShowSummonInfo@@3UToggleVar@@A 660992e8     skill.obj
 0003:00008318       ?dwAutoSummonMana@@3HA     66099318     skill.obj
 0003:0000831c       ?dwSwitchSkillMs@@3HA      6609931c     skill.obj
 0003:00008320       ?dwAutoSummonSkeletonLevelAdjust@@3HA 66099320     skill.obj
 0003:00008324       ?dwAutoSummonSkeletonMageLevelAdjust@@3HA 66099324     skill.obj
 0003:00008328       ?dwAutoSummonReviveLevelAdjust@@3HA 66099328     skill.obj
 0003:0000832c       ?tAutoForegroundSkill2@@3UToggleVar@@A 6609932c     skill.obj
 0003:0000894c       ?showStatNum@@3HA          6609994c     Snapshot.obj
 0003:00008950       ?szSnapshotPath@@3PADA     66099950     Snapshot.obj
 0003:00008a50       ?szSnapshotNamesPath@@3PADA 66099a50     Snapshot.obj
 0003:00008b50       ?tDoSnapshot@@3UToggleVar@@A 66099b50     Snapshot.obj
 0003:00008b80       ?tSnapshot@@3UToggleVar@@A 66099b80     Snapshot.obj
 0003:00008bb0       ?tSnapshotNewGame@@3UToggleVar@@A 66099bb0     Snapshot.obj
 0003:00008be0       ?tSnapshotEndGame@@3UToggleVar@@A 66099be0     Snapshot.obj
 0003:00008c10       ?tSnapshotLog@@3UToggleVar@@A 66099c10     Snapshot.obj
 0003:00008c40       ?tSnapshotSaveD2s@@3UToggleVar@@A 66099c40     Snapshot.obj
 0003:00009064       ?tAutoTeleportEvade@@3UToggleVar@@A 6609a064     teleport.obj
 0003:00009590       ?tServerTest@@3UToggleVar@@A 6609a590     server.obj
 0003:000095c0       ?tRepeatAdminCmd@@3UToggleVar@@A 6609a5c0     server.obj
 0003:00009614       ?fEnableAdminCmd@@3HA      6609a614     server.obj
 0003:0000961c       ?adminCmdPrefix@@3PADA     6609a61c     server.obj
 0003:000099f4       ?UberMephistoNbMinions@@3HA 6609a9f4     uber.obj
 0003:000099f8       ?UberMephistoMinions@@3PAHA 6609a9f8     uber.obj
 0003:00009a10       ?UberMephistoSpawnPercent@@3HA 6609aa10     uber.obj
 0003:00009a14       ?UberMephistoSpawnRadius@@3HA 6609aa14     uber.obj
 0003:00009a18       ?UberBaalNbMinions@@3HA    6609aa18     uber.obj
 0003:00009a1c       ?UberBaalMinions@@3PAHA    6609aa1c     uber.obj
 0003:00009a24       ?UberBaalSpawnPercent@@3HA 6609aa24     uber.obj
 0003:00009a28       ?UberBaalSpawnRadius@@3HA  6609aa28     uber.obj
 0003:00009a2c       ?UberDiabloNbMinions@@3HA  6609aa2c     uber.obj
 0003:00009a30       ?UberDiabloMinions@@3PAHA  6609aa30     uber.obj
 0003:00009a34       ?UberDiabloSpawnPercent@@3HA 6609aa34     uber.obj
 0003:00009a38       ?UberDiabloSpawnRadius@@3HA 6609aa38     uber.obj
 0003:00009a3c       ?uberBaalChillingArmorTimer@@3HA 6609aa3c     uber.obj
 0003:00009af0       ?szVersion@@3PADA          6609aaf0     version.obj
 0003:00009af4       ?compileTime@@3PADA        6609aaf4     version.obj
 0003:00009af8       ___security_cookie         6609aaf8     LIBCMT:gs_cookie.obj
 0003:00009afc       ___security_cookie_complement 6609aafc     LIBCMT:gs_cookie.obj
 0003:00009b00       __iob                      6609ab00     LIBCMT:_file.obj
 0003:00009d80       __fltused                  6609ad80     LIBCMT:_fpinit_.obj
 0003:00009d84       __ldused                   6609ad84     LIBCMT:_fpinit_.obj
 0003:00009d94       ??_R0?AVbad_alloc@std@@@8  6609ad94     LIBCMT:new.obj
 0003:00009db0       ??_R0?AVexception@std@@@8  6609adb0     LIBCMT:new.obj
 0003:00009df8       ___initialmbcinfo          6609adf8     LIBCMT:mbctype.obj
 0003:0000a018       __mbctype                  6609b018     LIBCMT:mbctype.obj
 0003:0000a120       __mbcasemap                6609b120     LIBCMT:mbctype.obj
 0003:0000a220       ___ptmbcinfo               6609b220     LIBCMT:mbctype.obj
 0003:0000a31c       ___globallocalestatus      6609b31c     LIBCMT:glstatus.obj
 0003:0000a320       ___clocalestr              6609b320     LIBCMT:nlsdata2.obj
 0003:0000a328       ___initiallocinfo          6609b328     LIBCMT:nlsdata2.obj
 0003:0000a400       ___ptlocinfo               6609b400     LIBCMT:nlsdata2.obj
 0003:0000a404       ___lc_clike                6609b404     LIBCMT:nlsdata2.obj
 0003:0000a408       ___initiallocalestructinfo 6609b408     LIBCMT:nlsdata2.obj
 0003:0000a410       ___flsindex                6609b410     LIBCMT:tidtable.obj
 0003:0000a414       ___getvalueindex           6609b414     LIBCMT:tidtable.obj
 0003:0000a6a8       ___nullstring              6609b6a8     LIBCMT:output.obj
 0003:0000a6ac       ___wnullstring             6609b6ac     LIBCMT:output.obj
 0003:0000a6b0       ___badioinfo               6609b6b0     LIBCMT:ioinit.obj
 0003:0000a6f0       __amblksiz                 6609b6f0     LIBCMT:heapinit.obj
 0003:0000a6f4       __aexit_rtn                6609b6f4     LIBCMT:crt0dat.obj
 0003:0000a6f8       __cfltcvt_tab              6609b6f8     LIBCMT:cmiscdat.obj
 0003:0000a7d8       __lookuptrailbytes         6609b7d8     LIBCMT:read.obj
 0003:0000a8e8       ??_R0?AVtype_info@@@8      6609b8e8     LIBCMT:typinfo.obj
 0003:0000a900       __indefinite               6609b900     LIBCMT:_87disp_.obj
 0003:0000a90a       __piby2                    6609b90a     LIBCMT:_87disp_.obj
 0003:0000a930       __First_FPE_Indx           6609b930     LIBCMT:winxfltr.obj
 0003:0000a934       __Num_FPE                  6609b934     LIBCMT:winxfltr.obj
 0003:0000a938       __XcptActTabSize           6609b938     LIBCMT:winxfltr.obj
 0003:0000a93c       __XcptActTabCount          6609b93c     LIBCMT:winxfltr.obj
 0003:0000a940       __pctype                   6609b940     LIBCMT:ctype.obj
 0003:0000a944       __pwctype                  6609b944     LIBCMT:ctype.obj
 0003:0000a948       ___lc_time_c               6609b948     LIBCMT:strftime.obj
 0003:0000aa00       ___lc_time_curr            6609ba00     LIBCMT:strftime.obj
 0003:0000aa04       ___lconv_static_decimal    6609ba04     LIBCMT:lconv.obj
 0003:0000aa08       ___lconv_c                 6609ba08     LIBCMT:lconv.obj
 0003:0000aa38       ___lconv                   6609ba38     LIBCMT:lconv.obj
 0003:0000aa3c       ___mb_cur_max              6609ba3c     LIBCMT:nlsdata1.obj
 0003:0000aa40       ___decimal_point           6609ba40     LIBCMT:nlsdata1.obj
 0003:0000aa44       ___decimal_point_length    6609ba44     LIBCMT:nlsdata1.obj
 0003:0000aa60       __NLG_Destination          6609ba60     LIBCMT:exsup.obj
 0003:0000aa90       __timezone                 6609ba90     LIBCMT:timeset.obj
 0003:0000aa94       __daylight                 6609ba94     LIBCMT:timeset.obj
 0003:0000aa98       __dstbias                  6609ba98     LIBCMT:timeset.obj
 0003:0000ab20       __tzname                   6609bb20     LIBCMT:timeset.obj
 0003:0000ab28       __lpdays                   6609bb28     LIBCMT:days.obj
 0003:0000ab5c       __days                     6609bb5c     LIBCMT:days.obj
 0003:0000ab90       __coninpfh                 6609bb90     LIBCMT:initcon.obj
 0003:0000ab94       __confh                    6609bb94     LIBCMT:initcon.obj
 0003:0000ab98       ___abort_behavior          6609bb98     LIBCMT:abort.obj
 0003:0000acb8       __matherr_flag             6609bcb8     LIBCMT:_matherr_.obj
 0003:0000ace0       __pow10pos                 6609bce0     LIBCMT:_constpow_.obj
 0003:0000ae40       __pow10neg                 6609be40     LIBCMT:_constpow_.obj
 0003:0000afa0       __d_inf                    6609bfa0     LIBCMT:_util_.obj
 0003:0000afa8       __d_ind                    6609bfa8     LIBCMT:_util_.obj
 0003:0000afb0       __d_max                    6609bfb0     LIBCMT:_util_.obj
 0003:0000afb8       __d_min                    6609bfb8     LIBCMT:_util_.obj
 0003:0000afc0       __d_mzero                  6609bfc0     LIBCMT:_util_.obj
 0003:0000afe0       ?tmpSymbols@@3PAUSymbol@@A 6609bfe0     config.obj
 0003:0000b3e4       ?logfp@@3PAU_iobuf@@A      6609c3e4     config.obj
 0003:0000b3e8       ?tKeyEventMap@@3PAPAUToggleVar@@A 6609c3e8     config.obj
 0003:0000d3f0       ?warningMsgs@@3PAUWarningMsg@@A 6609e3f0     config.obj
 0003:0000d3f8       ?pSymbols@@3PAUSymbol@@A   6609e3f8     config.obj
 0003:0000d3fc       ?nSymbols@@3HA             6609e3fc     config.obj
 0003:0000d400       ?capSymbols@@3HA           6609e400     config.obj
 0003:0000d404       ?nTmpSymbols@@3HA          6609e404     config.obj
 0003:0000d408       ?fSymbolSorted@@3HA        6609e408     config.obj
 0003:0000d410       ?configVarCap@@3HA         6609e410     config.obj
 0003:0000d414       ?configVarCount@@3HA       6609e414     config.obj
 0003:0000d418       ?loadingConfigs@@3PAULoadingConfig@@A 6609e418     config.obj
 0003:0000d420       ?hInstDLL@@3PAUHINSTANCE__@@A 6609e420     DllMain.obj
 0003:0000d424       ?dllHeap@@3PAXA            6609e424     DllMain.obj
 0003:0000d428       ?confHeap@@3PAXA           6609e428     DllMain.obj
 0003:0000d42c       ?gameHeap@@3PAXA           6609e42c     DllMain.obj
 0003:0000d430       ?fIsSinglePlayer@@3HA      6609e430     DllMain.obj
 0003:0000d434       ?fIsTcpIp@@3HA             6609e434     DllMain.obj
 0003:0000d438       ?fIsRealmServer@@3HA       6609e438     DllMain.obj
 0003:0000d43c       ?fIsRealmClient@@3HA       6609e43c     DllMain.obj
 0003:0000d440       ?szDllPath@@3PADA          6609e440     DllMain.obj
 0003:0000d548       ?szPluginPath@@3PADA       6609e548     DllMain.obj
 0003:0000d650       ?reloadStorage@@3PADA      6609e650     DllMain.obj
 0003:0000d654       ?reloadStorageSize@@3HA    6609e654     DllMain.obj
 0003:0000d658       ?storm_pmpq_load_flag@@3PAHA 6609e658     install.obj
 0003:0000d65c       ?storm_pmpq_crypt_table@@3PAHA 6609e65c     install.obj
 0003:0000d660       ?storm_regQueryValue@@3P6GHPAD0H0H@ZA 6609e660     install.obj
 0003:0000d664       ?storm_snprintf@@3P6AHPADHHZZA 6609e664     install.obj
 0003:0000d668       ?storm_processWinMessage372@@3P6GHHPAUHWND__@@HPAUD2MSG@@@ZA 6609e668     install.obj
 0003:0000d66c       ?storm_processWinMessage@@3P6GHPAUHWND__@@HHHPAX1@ZA 6609e66c     install.obj
 0003:0000d670       ?storm_openMpq@@3P6GHPBDHHPAX@ZA 6609e670     install.obj
 0003:0000d674       ?storm_mpq_open_block@@3P6GHPADPAUmpq_block@@@ZA 6609e674     install.obj
 0003:0000d678       ?storm_mpq_open_block_from@@3P6GHPAXPADHPAUmpq_block@@@ZA 6609e678     install.obj
 0003:0000d67c       ?storm_mpq_read_block@@3P6GHPAUmpq_block@@HPADH@ZA 6609e67c     install.obj
 0003:0000d680       ?storm_mk_abs_path@@3P6GPADPADPAX@ZA 6609e680     install.obj
 0003:0000d684       ?storm_mpq_hashstring@@3P6GHH@ZA 6609e684     install.obj
 0003:0000d688       ?storm_mpq_uncompress@@3P6GHPAXPAH0H@ZA 6609e688     install.obj
 0003:0000d68c       ?fog_Ord10218@@3P6IHXZA    6609e68c     install.obj
 0003:0000d690       ?fog_getMCPPacket@@3P6GHPAXPADH@ZA 6609e690     install.obj
 0003:0000d694       ?fog_Ord10089@@3P6IHH@ZA   6609e694     install.obj
 0003:0000d698       ?fog_uninit@@3P6GHXZA      6609e698     install.obj
 0003:0000d69c       ?fog_realloc@@3P6IPAXHPAXHPADHH@ZA 6609e69c     install.obj
 0003:0000d6a0       ?fog_allocMemory@@3P6IPAXHHPADHH@ZA 6609e6a0     install.obj
 0003:0000d6a4       ?fog_getCriticalSection@@3P6IPAUCriticalSection@@HPADHH@ZA 6609e6a4     install.obj
 0003:0000d6a8       ?fog_setCriticalSection@@3P6IHPAUCriticalSection@@PADHH@ZA 6609e6a8     install.obj
 0003:0000d6ac       ?fog_freeMemory@@3P6IHHPAXPADHH@ZA 6609e6ac     install.obj
 0003:0000d6b0       ?fog_Ord10101@@3P6IHHH@ZA  6609e6b0     install.obj
 0003:0000d6b4       ?fog_mpq_open_block@@3P6IHPADPAUmpq_block@@@ZA 6609e6b4     install.obj
 0003:0000d6b8       ?fog_initBitStream@@3P6GPAUFogBits@@PAU1@PADH@ZA 6609e6b8     install.obj
 0003:0000d6bc       ?fog_writeBitStream@@3P6GXPAUFogBits@@HH@ZA 6609e6bc     install.obj
 0003:0000d6c0       ?fog_setBit@@3P6GXPAXH@ZA  6609e6c0     install.obj
 0003:0000d6c4       ?fog_clearBit@@3P6GXPAXH@ZA 6609e6c4     install.obj
 0003:0000d6c8       ?fog_getBitStreamBytes@@3P6GHPAUFogBits@@@ZA 6609e6c8     install.obj
 0003:0000d6cc       ?fog_alignBitStreamToByte@@3P6GHPAUFogBits@@@ZA 6609e6cc     install.obj
 0003:0000d6d0       ?fog_Ord10019@@3P6IHPADPAX0H@ZA 6609e6d0     install.obj
 0003:0000d6d4       ?fog_FogValidateCriticalSection@@3P6IHPAUCriticalSection@@H@ZA 6609e6d4     install.obj
 0003:0000d6d8       ?fog_reportError@@3P6AXPAXHH@ZA 6609e6d8     install.obj
 0003:0000d6dc       ?fog_setLogFilePrefix@@3P6IHPAD@ZA 6609e6dc     install.obj
 0003:0000d6e0       ?fog_getEIP@@3P6GHXZA      6609e6e0     install.obj
 0003:0000d6e4       ?fog_getClientID@@3P6GHPAUClientInfos@@H@ZA 6609e6e4     install.obj
 0003:0000d6e8       ?fog_getClientInfo@@3P6GPAUClientInfo@@PAUClientInfos@@H@ZA 6609e6e8     install.obj
 0003:0000d6ec       ?fog_enableNTFeature@@3P6GHPAH@ZA 6609e6ec     install.obj
 0003:0000d6f0       ?fog_exit@@3P6GXH@ZA       6609e6f0     install.obj
 0003:0000d6f4       ?d2win_pDrawHoverY@@3PAHA  6609e6f4     install.obj
 0003:0000d6f8       ?d2win_pmusic_volumn@@3PAHA 6609e6f8     install.obj
 0003:0000d6fc       ?d2win_pRunningFlag@@3PAHA 6609e6fc     install.obj
 0003:0000d700       ?d2win_pclientProcessMessageFunc@@3PAPAXA 6609e700     install.obj
 0003:0000d704       ?d2win_pFocusedControl@@3PAPAUD2EditBox@@A 6609e704     install.obj
 0003:0000d708       ?d2win_pvar_214A0@@3PAPAXA 6609e708     install.obj
 0003:0000d70c       ?d2win_DrawMainMenu@@3P6IPAXXZA 6609e70c     install.obj
 0003:0000d710       ?d2win_CreateTextBox@@3P6GPAXPAK@ZA 6609e710     install.obj
 0003:0000d714       ?d2win_DestroyListBox@@3P6GXPAUD2EditBox@@@ZA 6609e714     install.obj
 0003:0000d718       ?d2win_processMessage@@3P6GHPAUHWND__@@HHH@ZA 6609e718     install.obj
 0003:0000d71c       ?d2win_CreateEditBox@@3P6IPAUD2EditBox@@HHHHHHPAUCellFile@@KKKPAX@ZA 6609e71c     install.obj
 0003:0000d720       ?d2win_DestroyEditBox@@3P6IHPAUD2EditBox@@@ZA 6609e720     install.obj
 0003:0000d724       ?d2win_AddEditBoxChar@@3P6IKPAUD2EditBox@@E@ZA 6609e724     install.obj
 0003:0000d728       ?d2win_SetEditBoxText@@3P6IPAXPAUD2EditBox@@PA_W@ZA 6609e728     install.obj
 0003:0000d72c       ?d2win_SetEditBoxProc@@3P6IXPAUD2EditBox@@P6GH0HPAD@Z@ZA 6609e72c     install.obj
 0003:0000d730       ?d2win_SelectEditBoxText@@3P6IXPAUD2EditBox@@@ZA 6609e730     install.obj
 0003:0000d734       ?d2win_GetEditBoxText@@3P6IPA_WPAUD2EditBox@@@ZA 6609e734     install.obj
 0003:0000d738       ?d2win_DrawHover@@3P6IXXZA 6609e738     install.obj
 0003:0000d73c       ?d2win_SetTextFont@@3P6IHH@ZA 6609e73c     install.obj
 0003:0000d740       ?d2win_DrawText@@3P6IXPA_WJJHH@ZA 6609e740     install.obj
 0003:0000d744       ?d2win_GetTextPixelLen@@3P6IHPA_W@ZA 6609e744     install.obj
 0003:0000d748       ?d2win_DrawUnitLifeBar@@3P6IHPA_WJJHKK@ZA 6609e748     install.obj
 0003:0000d74c       ?d2win_GetTextAreaSize@@3P6IHPA_WPAH1@ZA 6609e74c     install.obj
 0003:0000d750       ?d2win_DrawHoverText@@3P6IXPA_WJJHH@ZA 6609e750     install.obj
 0003:0000d754       ?d2win_initMPQ@@3P6IHXZA   6609e754     install.obj
 0003:0000d758       ?d2win_uninit@@3P6GHXZA    6609e758     install.obj
 0003:0000d75c       ?d2win_addLineToList@@3P6IXPAUD2EditBox@@PAD@ZA 6609e75c     install.obj
 0003:0000d760       ?d2win_PrintLineOnTextBox@@3P6IXPAXPADH@ZA 6609e760     install.obj
 0003:0000d764       ?d2win_setLineEndText@@3P6IXPAUD2EditBox@@PADPAXH@ZA 6609e764     install.obj
 0003:0000d768       ?d2win_ToggleSound@@3P6GXXZA 6609e768     install.obj
 0003:0000d76c       ?d2sound_pmusic_volumn@@3PAHA 6609e76c     install.obj
 0003:0000d770       ?d2sound_get_music_volumn@@3P6AHXZA 6609e770     install.obj
 0003:0000d774       ?d2sound_set_music_volumn@@3P6IHH@ZA 6609e774     install.obj
 0003:0000d778       ?d2net_pclientInfos@@3PAPAUClientInfos@@A 6609e778     install.obj
 0003:0000d77c       ?d2net_pUnkNetFlag@@3PAKA  6609e77c     install.obj
 0003:0000d780       ?d2net_ppacketSizes@@3PAHA 6609e780     install.obj
 0003:0000d784       ?d2net_SendPacket@@3P6GXHHPAE@ZA 6609e784     install.obj
 0003:0000d788       ?d2net_getPacketSize@@3P6IXPADHPAH@ZA 6609e788     install.obj
 0003:0000d78c       ?d2net_initNetwork@@3P6GHHH@ZA 6609e78c     install.obj
 0003:0000d790       ?d2net_SendToClient@@3P6GHHHPAXH@ZA 6609e790     install.obj
 0003:0000d794       ?d2net_uninit@@3P6GHXZA    6609e794     install.obj
 0003:0000d798       ?d2net_getWorldId@@3P6GHH@ZA 6609e798     install.obj
 0003:0000d79c       ?d2multi_plastRefreshMs2@@3PAHA 6609e79c     install.obj
 0003:0000d7a0       ?d2multi_plastRefreshMs1@@3PAHA 6609e7a0     install.obj
 0003:0000d7a4       ?d2multi_pnGames@@3PAHA    6609e7a4     install.obj
 0003:0000d7a8       ?d2multi_pGameDescription@@3PAPAUD2EditBox@@A 6609e7a8     install.obj
 0003:0000d7ac       ?d2multi_pGamePassword@@3PAPAUD2EditBox@@A 6609e7ac     install.obj
 0003:0000d7b0       ?d2multi_pGameName@@3PAPAUD2EditBox@@A 6609e7b0     install.obj
 0003:0000d7b4       ?d2multi_pGameListControl@@3PAPAUD2EditBox@@A 6609e7b4     install.obj
 0003:0000d7b8       ?d2multi_pmcp05_games2@@3PAUMcp05Game@@A 6609e7b8     install.obj
 0003:0000d7bc       ?d2multi_pEditboxPreferences@@3PAPAXA 6609e7bc     install.obj
 0003:0000d7c0       ?d2multi_pmcp05_games@@3PAUMcp05Game@@A 6609e7c0     install.obj
 0003:0000d7c4       ?d2multi_reset_games@@3P6GHXZA 6609e7c4     install.obj
 0003:0000d7c8       ?d2multi_add_game@@3P6GHXZA 6609e7c8     install.obj
 0003:0000d7cc       ?d2multi_show_games@@3P6GHXZA 6609e7cc     install.obj
 0003:0000d7d0       ?d2multi_num2str@@3P6AHHPADH@ZA 6609e7d0     install.obj
 0003:0000d7d4       ?d2multi_num2str1058@@3P6GHHH@ZA 6609e7d4     install.obj
 0003:0000d7d8       ?d2mcpclient_pmcp05_type@@3PAHA 6609e7d8     install.obj
 0003:0000d7dc       ?d2mcpclient_pmcp05_gameName2@@3PADA 6609e7dc     install.obj
 0003:0000d7e0       ?d2mcpclient_pmcp05_gameName@@3PADA 6609e7e0     install.obj
 0003:0000d7e4       ?d2mcpclient_pmcp05_off08@@3PAHA 6609e7e4     install.obj
 0003:0000d7e8       ?d2mcpclient_pmcp05_nPlayers@@3PAHA 6609e7e8     install.obj
 0003:0000d7ec       ?d2mcpclient_pmcp05_idx@@3PAHA 6609e7ec     install.obj
 0003:0000d7f0       ?d2mcpclient_pmcp05_seqId@@3PAHA 6609e7f0     install.obj
 0003:0000d7f4       ?d2mcpclient_pmcp05_buf@@3PAUMcp05Buf@@A 6609e7f4     install.obj
 0003:0000d7f8       ?d2mcpclient_pmcpSrc@@3PAPAXA 6609e7f8     install.obj
 0003:0000d7fc       ?d2mcpclient_pAccountInfo@@3PAUD2AccountInfo@@A 6609e7fc     install.obj
 0003:0000d800       ?d2mcpclient_pmpc05_seqId@@3PAFA 6609e800     install.obj
 0003:0000d804       ?d2mcpclient_processOnePacket@@3P6GHXZA 6609e804     install.obj
 0003:0000d808       ?d2mcpclient_getMcp05Buf@@3P6GPAUMcp05Buf@@XZA 6609e808     install.obj
 0003:0000d80c       ?d2mcpclient_mcpPacket05@@3P6IHPAUMCPPacket05@@H@ZA 6609e80c     install.obj
 0003:0000d810       ?d2launch_pcharCount@@3PAHA 6609e810     install.obj
 0003:0000d814       ?d2launch_pD2Characters@@3PAPAUD2Character@@A 6609e814     install.obj
 0003:0000d818       ?d2launch_plaunchNumChildren@@3PAHA 6609e818     install.obj
 0003:0000d81c       ?d2launch_plaunchChildren@@3PAPAXA 6609e81c     install.obj
 0003:0000d820       ?d2launch_pSelectedCharIndex@@3PAHA 6609e820     install.obj
 0003:0000d824       ?d2launch_pcreateTextBoxParam11F0@@3PAPAKA 6609e824     install.obj
 0003:0000d828       ?d2launch_DeleteCharacter@@3P6IXPAD@ZA 6609e828     install.obj
 0003:0000d82c       ?d2launch_DeleteSelectedCharacter@@3P6GHH@ZA 6609e82c     install.obj
 0003:0000d830       ?d2launch_sprintf@@3P6AHPAD0ZZA 6609e830     install.obj
 0003:0000d834       ?d2lang_plocaleTxtMap20000@@3PAPAUd2lang_map@@A 6609e834     install.obj
 0003:0000d838       ?d2lang_plocaleTxtMap10000@@3PAPAUd2lang_map@@A 6609e838     install.obj
 0003:0000d83c       ?d2lang_plocaleTxt20000@@3PAPAPA_WA 6609e83c     install.obj
 0003:0000d840       ?d2lang_plocaleTxt10000@@3PAPAPA_WA 6609e840     install.obj
 0003:0000d844       ?d2lang_plocaleTxt0@@3PAPAPA_WA 6609e844     install.obj
 0003:0000d848       ?d2lang_plocaleTxtMap0@@3PAPAUd2lang_map@@A 6609e848     install.obj
 0003:0000d84c       ?d2lang_strcat@@3P6IPA_WPA_W0@ZA 6609e84c     install.obj
 0003:0000d850       ?d2lang_initLanguage@@3P6IHHPADH@ZA 6609e850     install.obj
 0003:0000d854       ?d2lang_uninit@@3P6GHXZA   6609e854     install.obj
 0003:0000d858       ?d2lang_GetLocaleText@@3P6IPA_WH@ZA 6609e858     install.obj
 0003:0000d85c       ?d2lang_getLocalText9050@@3P6GPA_WPAPA_W@ZA 6609e85c     install.obj
 0003:0000d860       ?d2gfx_pWinState@@3PAHA    6609e860     install.obj
 0003:0000d864       ?d2gfx_pDrawGoundH1@@3PAHA 6609e864     install.obj
 0003:0000d868       ?d2gfx_pDrawGoundH2@@3PAHA 6609e868     install.obj
 0003:0000d86c       ?d2gfx_pcallbackTable@@3PAPAXA 6609e86c     install.obj
 0003:0000d870       ?d2gfx_pResolutionMode@@3PAHA 6609e870     install.obj
 0003:0000d874       ?d2gfx_DrawRectangle@@3P6GXJJJJHH@ZA 6609e874     install.obj
 0003:0000d878       ?d2gfx_DrawLine@@3P6GXHHHHHH@ZA 6609e878     install.obj
 0003:0000d87c       ?d2gfx_getResolutionMode@@3P6GHXZA 6609e87c     install.obj
 0003:0000d880       ?d2gfx_DrawCellFile@@3P6GHPAUCellContext@@HHKHPAE@ZA 6609e880     install.obj
 0003:0000d884       ?d2gfx_drawSomething@@3P6GXPAXHHHHH@ZA 6609e884     install.obj
 0003:0000d888       ?d2gfx_FillOrb@@3P6GXHHHHHH@ZA 6609e888     install.obj
 0003:0000d88c       ?d2gfx_DrawAutomapNode@@3P6GXPAUCellContext@@HHPAUtagRECT@@K@ZA 6609e88c     install.obj
 0003:0000d890       ?d2gfx_drawShadow@@3P6GXPAXHH@ZA 6609e890     install.obj
 0003:0000d894       ?d2gfx_clearFramebuf@@3P6GXHHHH@ZA 6609e894     install.obj
 0003:0000d898       ?d2gfx_flushFramebuf@@3P6GXXZA 6609e898     install.obj
 0003:0000d89c       ?d2gfx_Ordinal10043@@3P6GXXZA 6609e89c     install.obj
 0003:0000d8a0       ?d2gfx_MinimizeWindows@@3P6GXK@ZA 6609e8a0     install.obj
 0003:0000d8a4       ?d2gfx_GetHwnd@@3P6GPAUHWND__@@XZA 6609e8a4     install.obj
 0003:0000d8a8       ?d2gfx_drawGroundPiece@@3P6GXPAX0HHHHHHH@ZA 6609e8a8     install.obj
 0003:0000d8ac       ?d2gdi_pcriticalSection@@3PAPAUCriticalSection@@A 6609e8ac     install.obj
 0003:0000d8b0       ?d2gdi_pFrameBuf@@3PAPAXA  6609e8b0     install.obj
 0003:0000d8b4       ?d2gdi_pDisplayRight@@3PAHA 6609e8b4     install.obj
 0003:0000d8b8       ?d2gdi_pFrameBufHeight@@3PAHA 6609e8b8     install.obj
 0003:0000d8bc       ?d2gdi_pgdiobj@@3PAPAXA    6609e8bc     install.obj
 0003:0000d8c0       ?d2gdi_ppalette@@3PAPAUHPALETTE__@@A 6609e8c0     install.obj
 0003:0000d8c4       ?d2gdi_pFrameBufWidth@@3PAHA 6609e8c4     install.obj
 0003:0000d8c8       ?d2gdi_phwnd@@3PAPAUHWND__@@A 6609e8c8     install.obj
 0003:0000d8cc       ?d2gdi_pColorMap@@3PAHA    6609e8cc     install.obj
 0003:0000d8d0       ?d2gdi_initCriticalSection@@3P6IHPAX0@ZA 6609e8d0     install.obj
 0003:0000d8d4       ?d2game_pDropChioceProb@@3PAHA 6609e8d4     install.obj
 0003:0000d8d8       ?d2game_pDropChioces@@3PAHA 6609e8d8     install.obj
 0003:0000d8dc       ?d2game_pworldHash@@3PAPAUWorldHash@@A 6609e8dc     install.obj
 0003:0000d8e0       ?d2game_pcriticalSection@@3PAUCriticalSection@@A 6609e8e0     install.obj
 0003:0000d8e4       ?d2game_pSPUnitOffsets@@3PAHA 6609e8e4     install.obj
 0003:0000d8e8       ?d2game_psgptDataTables@@3PAPAUD2DataTables@@A 6609e8e8     install.obj
 0003:0000d8ec       ?d2game_MonsterMove@@3P6IXPAUWorld@@PAUUnitAny@@1HHHHH@ZA 6609e8ec     install.obj
 0003:0000d8f0       ?d2game_MonsterUseSkill@@3P6IXPAUWorld@@PAUUnitAny@@HH1HH@ZA 6609e8f0     install.obj
 0003:0000d8f4       ?d2game_SpawnMonster@@3P6IPAUUnitAny@@HHPAUWorld@@PAUAreaRectData@@HHHH@ZA 6609e8f4     install.obj
 0003:0000d8f8       ?d2game_SpawnMonsterEF10@@3P6IPAUUnitAny@@PAUSpawnMon@@@ZA 6609e8f8     install.obj
 0003:0000d8fc       ?d2game_MakeD2S@@3P6IHPAUUnitAny@@PAUWorld@@PADPAHHHH@ZA 6609e8fc     install.obj
 0003:0000d900       ?d2game_playerUpgrade@@3P6GHPAUWorld@@@ZA 6609e900     install.obj
 0003:0000d904       ?d2game_CreateUnit@@3P6IPAUUnitAny@@HHHHPAUWorld@@PAUAreaRectData@@HHH@ZA 6609e904     install.obj
 0003:0000d908       ?d2game_GetUnit@@3P6IHPAUWorld@@H@ZA 6609e908     install.obj
 0003:0000d90c       ?d2game_isUnitDead@@3P6GHXZA 6609e90c     install.obj
 0003:0000d910       ?d2game_swapWeapon@@3P6GHPAUWorld@@PAH@ZA 6609e910     install.obj
 0003:0000d914       ?d2game_pickupItem@@3P6GHHPAH@ZA 6609e914     install.obj
 0003:0000d918       ?d2game_putItemInSocketD4A70@@3P6GHPAUWorld@@PAUUnitAny@@HPAHHHHH@ZA 6609e918     install.obj
 0003:0000d91c       ?d2game_recv19_invToHand@@3P6IHPAUWorld@@PAUUnitAny@@PADH@ZA 6609e91c     install.obj
 0003:0000d920       ?d2game_recv16_pickup@@3P6IHPAUWorld@@PAUUnitAny@@PADH@ZA 6609e920     install.obj
 0003:0000d924       ?d2game_pickup@@3P6IHPAUWorld@@HPAUUnitAny@@H@ZA 6609e924     install.obj
 0003:0000d928       ?d2game_recv60_swapWeapon@@3P6IHPAUWorld@@PAUUnitAny@@PADH@ZA 6609e928     install.obj
 0003:0000d92c       ?d2game_recv1A_handToBody@@3P6IHPAUWorld@@PAUUnitAny@@PADH@ZA 6609e92c     install.obj
 0003:0000d930       ?d2game_recv28_socket@@3P6IHPAUWorld@@PAUUnitAny@@PADH@ZA 6609e930     install.obj
 0003:0000d934       ?d2game_itemNotInInv@@3P6IHHHPAUUnitAny@@@ZA 6609e934     install.obj
 0003:0000d938       ?d2game_processPacket@@3P6GHPAUWorld@@H@ZA 6609e938     install.obj
 0003:0000d93c       ?d2game_recv40_quest@@3P6IHPAUWorld@@PAUUnitAny@@PADH@ZA 6609e93c     install.obj
 0003:0000d940       ?d2game_passClassicB9F20@@3P6IHPAUWorld@@PAUUnitAny@@H@ZA 6609e940     install.obj
 0003:0000d944       ?d2game_passClassicB9A30@@3P6IHXZA 6609e944     install.obj
 0003:0000d948       ?d2game_BaalAI@@3P6IXPAUWorld@@PAUUnitAny@@PAX@ZA 6609e948     install.obj
 0003:0000d94c       ?d2game_UberBaalAI@@3P6IXPAUWorld@@PAUUnitAny@@PAX@ZA 6609e94c     install.obj
 0003:0000d950       ?d2game_DiabloAI@@3P6IXPAUWorld@@PAUUnitAny@@PAX@ZA 6609e950     install.obj
 0003:0000d954       ?d2game_UberDiabloAI@@3P6IXPAUWorld@@PAUUnitAny@@PAX@ZA 6609e954     install.obj
 0003:0000d958       ?d2game_NecSummon@@3P6IPAUUnitAny@@XZA 6609e958     install.obj
 0003:0000d95c       ?d2game_LinkPortal@@3P6GPAUUnitAny@@PAUWorld@@PAU1@HH@ZA 6609e95c     install.obj
 0003:0000d960       ?d2game_fun_8EBC0@@3P6GHPAUWorld@@PAX@ZA 6609e960     install.obj
 0003:0000d964       ?d2game_SetSkillBaseLevelOnClient@@3P6IXPAXPAUUnitAny@@HHH@ZA 6609e964     install.obj
 0003:0000d968       ?d2game_sendPacket@@3P6GHPADH@ZA 6609e968     install.obj
 0003:0000d96c       ?d2game_MephAI@@3P6IXPAUWorld@@PAUUnitAny@@PAX@ZA 6609e96c     install.obj
 0003:0000d970       ?d2game_UberMephAI@@3P6IXPAUWorld@@PAUUnitAny@@PAX@ZA 6609e970     install.obj
 0003:0000d974       ?d2game_fun_769A0@@3P6GHPAUWorld@@HH@ZA 6609e974     install.obj
 0003:0000d978       ?d2game_OpenPandPortal@@3P6IXPAUWorld@@PAUUnitAny@@@ZA 6609e978     install.obj
 0003:0000d97c       ?d2game_OpenPandFinalPortal@@3P6IXPAUWorld@@PAUUnitAny@@@ZA 6609e97c     install.obj
 0003:0000d980       ?d2game_passExpansion599E0@@3P6IXPAUWorld@@PAUUnitAny@@H@ZA 6609e980     install.obj
 0003:0000d984       ?d2game_passExpansion58BE0@@3P6IXPAUUnitAny@@@ZA 6609e984     install.obj
 0003:0000d988       ?d2game_fun_4E2A0@@3P6IXPAUWorld@@PAUUnitAny@@H@ZA 6609e988     install.obj
 0003:0000d98c       ?d2game_getNetClient@@3P6IPAUNetClient@@H@ZA 6609e98c     install.obj
 0003:0000d990       ?d2game_processClientQuestReq@@3P6GHPAUWorld@@PAUUnitAny@@@ZA 6609e990     install.obj
 0003:0000d994       ?d2game_sendQuestToClient@@3P6GHPAUWorld@@@ZA 6609e994     install.obj
 0003:0000d998       ?d2game_processGame@@3P6GHXZA 6609e998     install.obj
 0003:0000d99c       ?d2game_isBusy@@3P6GHH@ZA  6609e99c     install.obj
 0003:0000d9a0       ?d2game_Ord10024@@3P6GHHH@ZA 6609e9a0     install.obj
 0003:0000d9a4       ?d2game_endAllGames@@3P6AHH@ZA 6609e9a4     install.obj
 0003:0000d9a8       ?d2game_Ord10038@@3P6GHXZA 6609e9a8     install.obj
 0003:0000d9ac       ?d2game_SendDatabaseCharacter@@3P6GHHPAXHHHHPAUPlayerInfo@@H@ZA 6609e9ac     install.obj
 0003:0000d9b0       ?d2game_removeClientFromGame@@3P6GHH@ZA 6609e9b0     install.obj
 0003:0000d9b4       ?d2game_SaveGame@@3P6GXPAUWorld@@@ZA 6609e9b4     install.obj
 0003:0000d9b8       ?d2game_NewEmptyGame@@3P6GHPAD00HDDDPAF@ZA 6609e9b8     install.obj
 0003:0000d9bc       ?d2game_getWorld@@3P6GPAUWorld@@XZA 6609e9bc     install.obj
 0003:0000d9c0       ?d2game_getWorldByID@@3P6GPAUWorld@@H@ZA 6609e9c0     install.obj
 0003:0000d9c4       ?d2game_uninit@@3P6GHXZA   6609e9c4     install.obj
 0003:0000d9c8       ?d2game_setWorldHash@@3P6GHPAUWorldHash@@PAH@ZA 6609e9c8     install.obj
 0003:0000d9cc       ?d2game_initCallbackTable@@3P6GHPAX@ZA 6609e9cc     install.obj
 0003:0000d9d0       ?d2game_SpawnSuperUnique@@3P6IHPAUWorld@@PAUAreaRectData@@HHHHHH@ZA 6609e9d0     install.obj
 0003:0000d9d4       ?d2game_Game235C0@@3P6GXPAUWorld@@PAUAreaRectData@@@ZA 6609e9d4     install.obj
 0003:0000d9d8       ?d2game_DropItem1880@@3P6GXPAUWorld@@HHHH@ZA 6609e9d8     install.obj
 0003:0000d9dc       ?d2game_DropItem1490@@3P6GPAUUnitAny@@PAUWorld@@PAXH@ZA 6609e9dc     install.obj
 0003:0000d9e0       ?d2game_GetFreeXY@@3P6GPAUAreaRectData@@PAU1@PAUtagPOINT@@H@ZA 6609e9e0     install.obj
 0003:0000d9e4       ?d2game_GetUnitLevel@@3P6GHH@ZA 6609e9e4     install.obj
 0003:0000d9e8       ?d2game_hasDroppedUnique@@3P6IHH@ZA 6609e9e8     install.obj
 0003:0000d9ec       ?d2game_exit@@3P6GHH@ZA    6609e9ec     install.obj
 0003:0000d9f0       ?d2game_getWorld_2130@@3P6GPAUWorld@@XZA 6609e9f0     install.obj
 0003:0000d9f4       ?d2game_TestPosition@@3P6IPAUAreaRectData@@XZA 6609e9f4     install.obj
 0003:0000d9f8       ?d2game_random@@3P6IHPAUD2Seed@@@ZA 6609e9f8     install.obj
 0003:0000d9fc       ?d2common_pnCubeMain@@3PAHA 6609e9fc     install.obj
 0003:0000da00       ?d2common_ppCubeMainTxt@@3PAPAXA 6609ea00     install.obj
 0003:0000da04       ?d2common_pnMapCache@@3PAHA 6609ea04     install.obj
 0003:0000da08       ?d2common_ppMapCache@@3PAPAXA 6609ea08     install.obj
 0003:0000da0c       ?d2common_ppLvlSubCache@@3PAPAXA 6609ea0c     install.obj
 0003:0000da10       ?d2common_pnLvlSub@@3PAHA  6609ea10     install.obj
 0003:0000da14       ?d2common_ppLvlSubTxt@@3PAPAXA 6609ea14     install.obj
 0003:0000da18       ?d2common_pnLvlMaze@@3PAHA 6609ea18     install.obj
 0003:0000da1c       ?d2common_ppLvlMazeTxt@@3PAPAXA 6609ea1c     install.obj
 0003:0000da20       ?d2common_pnLvlWarp@@3PAHA 6609ea20     install.obj
 0003:0000da24       ?d2common_ppLvlWarpTxt@@3PAPAXA 6609ea24     install.obj
 0003:0000da28       ?d2common_pnLvlTypes@@3PAHA 6609ea28     install.obj
 0003:0000da2c       ?d2common_pnWaypoints@@3PAHA 6609ea2c     install.obj
 0003:0000da30       ?d2common_ppWaypoints@@3PAPAXA 6609ea30     install.obj
 0003:0000da34       ?d2common_ppLvlTypesTxt@@3PAPAXA 6609ea34     install.obj
 0003:0000da38       ?d2common_ppArenaTxt@@3PAPAXA 6609ea38     install.obj
 0003:0000da3c       ?d2common_pnCharTemplate@@3PAHA 6609ea3c     install.obj
 0003:0000da40       ?d2common_ppCharTemplateTxt@@3PAPAXA 6609ea40     install.obj
 0003:0000da44       ?d2common_pnLvlSubExtraStuff@@3PAHA 6609ea44     install.obj
 0003:0000da48       ?d2common_ppLvlSubExtraStuff@@3PAPAXA 6609ea48     install.obj
 0003:0000da4c       ?d2common_pExpFieldRuntimeData@@3PAPAXA 6609ea4c     install.obj
 0003:0000da50       ?d2common_ppExpFieldD2@@3PAPAXA 6609ea50     install.obj
 0003:0000da54       ?d2common_pnDifficultyLevels@@3PAHA 6609ea54     install.obj
 0003:0000da58       ?d2common_ppDifficultyLevelsTxt@@3PAPAXA 6609ea58     install.obj
 0003:0000da5c       ?d2common_ppExperienceTxt@@3PAPAXA 6609ea5c     install.obj
 0003:0000da60       ?d2common_ppAnimTables@@3PAPAXA 6609ea60     install.obj
 0003:0000da64       ?d2common_pItemStatCostStuff@@3PAPAXA 6609ea64     install.obj
 0003:0000da68       ?d2common_pnLvlPrest@@3PAHA 6609ea68     install.obj
 0003:0000da6c       ?d2common_ppLvlPrestTxt@@3PAPAXA 6609ea6c     install.obj
 0003:0000da70       ?d2common_ppLvlDefsBin@@3PAPAXA 6609ea70     install.obj
 0003:0000da74       ?d2common_pnLevels@@3PAHA  6609ea74     install.obj
 0003:0000da78       ?d2common_ppLevelsTxt@@3PAPAXA 6609ea78     install.obj
 0003:0000da7c       ?d2common_pnMonUMod@@3PAHA 6609ea7c     install.obj
 0003:0000da80       ?d2common_ppMonUModTxt@@3PAPAXA 6609ea80     install.obj
 0003:0000da84       ?d2common_ppMonUModLink@@3PAPAXA 6609ea84     install.obj
 0003:0000da88       ?d2common_pnMonTypeNesting@@3PAHA 6609ea88     install.obj
 0003:0000da8c       ?d2common_ppMonTypeNesting@@3PAPAXA 6609ea8c     install.obj
 0003:0000da90       ?d2common_pnMonType@@3PAHA 6609ea90     install.obj
 0003:0000da94       ?d2common_ppMonTypeTxt@@3PAPAXA 6609ea94     install.obj
 0003:0000da98       ?d2common_ppMonTypeLink@@3PAPAXA 6609ea98     install.obj
 0003:0000da9c       ?d2common_pnMonProp@@3PAHA 6609ea9c     install.obj
 0003:0000daa0       ?d2common_ppMonPropTxt@@3PAPAXA 6609eaa0     install.obj
 0003:0000daa4       ?d2common_ppMonPropLink@@3PAPAXA 6609eaa4     install.obj
 0003:0000daa8       ?d2common_pnUniqueItems@@3PAHA 6609eaa8     install.obj
 0003:0000daac       ?d2common_ppUniqueItemsTxt@@3PAPAXA 6609eaac     install.obj
 0003:0000dab0       ?d2common_ppUniqueItemsLink@@3PAPAXA 6609eab0     install.obj
 0003:0000dab4       ?d2common_pnSetItems@@3PAHA 6609eab4     install.obj
 0003:0000dab8       ?d2common_ppSetItemsTxt@@3PAPAXA 6609eab8     install.obj
 0003:0000dabc       ?d2common_ppSetItemsLink@@3PAPAXA 6609eabc     install.obj
 0003:0000dac0       ?d2common_pnSets@@3PAHA    6609eac0     install.obj
 0003:0000dac4       ?d2common_ppSetsTxt@@3PAPAXA 6609eac4     install.obj
 0003:0000dac8       ?d2common_ppSetsLink@@3PAPAXA 6609eac8     install.obj
 0003:0000dacc       ?d2common_ppItemTypeNesting@@3PAPAXA 6609eacc     install.obj
 0003:0000dad0       ?d2common_pnItemTypeNesting@@3PAHA 6609ead0     install.obj
 0003:0000dad4       ?d2common_pnItemTypes@@3PAHA 6609ead4     install.obj
 0003:0000dad8       ?d2common_ppItemTypesTxt@@3PAPAXA 6609ead8     install.obj
 0003:0000dadc       ?d2common_ppItemTypesLink@@3PAPAXA 6609eadc     install.obj
 0003:0000dae0       ?d2common_pnPetTypes@@3PAHA 6609eae0     install.obj
 0003:0000dae4       ?d2common_ppPetTypesLink@@3PAPAXA 6609eae4     install.obj
 0003:0000dae8       ?d2common_ppPetTypesTxt@@3PAPAXA 6609eae8     install.obj
 0003:0000daec       ?d2common_pnMonEquip@@3PAHA 6609eaec     install.obj
 0003:0000daf0       ?d2common_ppMonEquipTxt@@3PAPAXA 6609eaf0     install.obj
 0003:0000daf4       ?d2common_pnOpStatNesting@@3PAHA 6609eaf4     install.obj
 0003:0000daf8       ?d2common_ppOpStatNesting@@3PAPAXA 6609eaf8     install.obj
 0003:0000dafc       ?d2common_pnItemStatCost@@3PAHA 6609eafc     install.obj
 0003:0000db00       ?d2common_ppItemStatCostLink@@3PAPAXA 6609eb00     install.obj
 0003:0000db04       ?d2common_ppItemStatCostTxt@@3PAPAUItemStatCostTxt@@A 6609eb04     install.obj
 0003:0000db08       ?d2common_pnCharStats@@3PAHA 6609eb08     install.obj
 0003:0000db0c       ?d2common_ppCharStatsTxt@@3PAPAXA 6609eb0c     install.obj
 0003:0000db10       ?d2common_pnOverlay@@3PAHA 6609eb10     install.obj
 0003:0000db14       ?d2common_ppOverlayLink@@3PAPAXA 6609eb14     install.obj
 0003:0000db18       ?d2common_ppOverlayTxt@@3PAPAXA 6609eb18     install.obj
 0003:0000db1c       ?d2common_ppPassiveSkillList@@3PAPAXA 6609eb1c     install.obj
 0003:0000db20       ?d2common_pnPassiveSkillCount@@3PAHA 6609eb20     install.obj
 0003:0000db24       ?d2common_ppPlayerSkillList@@3PAPAXA 6609eb24     install.obj
 0003:0000db28       ?d2common_pnPlayerSkillCount@@3PAHA 6609eb28     install.obj
 0003:0000db2c       ?d2common_ppPlayerSkillCount@@3PAPAXA 6609eb2c     install.obj
 0003:0000db30       ?d2common_pnSkills@@3PAHA  6609eb30     install.obj
 0003:0000db34       ?d2common_ppSkillsLink@@3PAPAXA 6609eb34     install.obj
 0003:0000db38       ?d2common_ppSkillsTxt@@3PAPAXA 6609eb38     install.obj
 0003:0000db3c       ?d2common_pnSkillDesc@@3PAHA 6609eb3c     install.obj
 0003:0000db40       ?d2common_ppSkillDescLink@@3PAPAXA 6609eb40     install.obj
 0003:0000db44       ?d2common_ppSkillDescTxt@@3PAPAXA 6609eb44     install.obj
 0003:0000db48       ?d2common_pnMonSequences@@3PAHA 6609eb48     install.obj
 0003:0000db4c       ?d2common_ppMonSequences@@3PAPAXA 6609eb4c     install.obj
 0003:0000db50       ?d2common_pnMonSeq@@3PAHA  6609eb50     install.obj
 0003:0000db54       ?d2common_ppMonSeqLink@@3PAPAXA 6609eb54     install.obj
 0003:0000db58       ?d2common_ppMonSeqTxt@@3PAPAXA 6609eb58     install.obj
 0003:0000db5c       ?d2common_pnMonLvl@@3PAHA  6609eb5c     install.obj
 0003:0000db60       ?d2common_ppMonLvlTxt@@3PAPAXA 6609eb60     install.obj
 0003:0000db64       ?d2common_pnMissiles@@3PAHA 6609eb64     install.obj
 0003:0000db68       ?d2common_ppMissilesLink@@3PAPAXA 6609eb68     install.obj
 0003:0000db6c       ?d2common_ppMissilesTxt@@3PAPAXA 6609eb6c     install.obj
 0003:0000db70       ?d2common_pSuperUniqueHcIdxList@@3PAPAXA 6609eb70     install.obj
 0003:0000db74       ?d2common_pnSuperUniques@@3PAHA 6609eb74     install.obj
 0003:0000db78       ?d2common_ppSuperUniquesLink@@3PAPAXA 6609eb78     install.obj
 0003:0000db7c       ?d2common_ppSuperUniquesTxt@@3PAPAXA 6609eb7c     install.obj
 0003:0000db80       ?d2common_pnMonPresetEachAct@@3PAHA 6609eb80     install.obj
 0003:0000db84       ?d2common_ppMonPresetActList@@3PAPAXA 6609eb84     install.obj
 0003:0000db88       ?d2common_ppMonPresetTxt@@3PAPAXA 6609eb88     install.obj
 0003:0000db8c       ?d2common_pnMonPlace@@3PAHA 6609eb8c     install.obj
 0003:0000db90       ?d2common_ppMonPlaceLink@@3PAPAXA 6609eb90     install.obj
 0003:0000db94       ?d2common_ppMonPlaceTxt@@3PAPAXA 6609eb94     install.obj
 0003:0000db98       ?d2common_pnMonStats2@@3PAHA 6609eb98     install.obj
 0003:0000db9c       ?d2common_ppMonStats2Link@@3PAPAXA 6609eb9c     install.obj
 0003:0000dba0       ?d2common_ppMonStats2Txt@@3PAPAXA 6609eba0     install.obj
 0003:0000dba4       ?d2common_pnMonSounds@@3PAHA 6609eba4     install.obj
 0003:0000dba8       ?d2common_ppMonSoundsLink@@3PAPAXA 6609eba8     install.obj
 0003:0000dbac       ?d2common_ppMonSoundsTxt@@3PAPAXA 6609ebac     install.obj
 0003:0000dbb0       ?d2common_pnMonStats@@3PAHA 6609ebb0     install.obj
 0003:0000dbb4       ?d2common_ppMonStatsLink@@3PAPAXA 6609ebb4     install.obj
 0003:0000dbb8       ?d2common_ppMonStatsTxt@@3PAPAXA 6609ebb8     install.obj
 0003:0000dbbc       ?d2common_ppChestTreasureClassList@@3PAPAXA 6609ebbc     install.obj
 0003:0000dbc0       ?d2common_pnTreasureClassEx@@3PAHA 6609ebc0     install.obj
 0003:0000dbc4       ?d2common_ppTreasureClassExTxt@@3PAPAXA 6609ebc4     install.obj
 0003:0000dbc8       ?d2common_ppTreasureClassExLink@@3PAPAXA 6609ebc8     install.obj
 0003:0000dbcc       ?d2common_ppColorsLink@@3PAPAXA 6609ebcc     install.obj
 0003:0000dbd0       ?d2common_ppColorsTxt@@3PAPAXA 6609ebd0     install.obj
 0003:0000dbd4       ?d2common_pnNpcs@@3PAHA    6609ebd4     install.obj
 0003:0000dbd8       ?d2common_ppNpcsTxt@@3PAPAXA 6609ebd8     install.obj
 0003:0000dbdc       ?d2common_pHireNameListEnd@@3PAPAXA 6609ebdc     install.obj
 0003:0000dbe0       ?d2common_pHireNameListStart@@3PAPAXA 6609ebe0     install.obj
 0003:0000dbe4       ?d2common_pnHirelings@@3PAHA 6609ebe4     install.obj
 0003:0000dbe8       ?d2common_ppHirelingsTxt@@3PAPAXA 6609ebe8     install.obj
 0003:0000dbec       ?d2common_pnSoundCodes@@3PAHA 6609ebec     install.obj
 0003:0000dbf0       ?d2common_ppSoundCodesLink@@3PAPAXA 6609ebf0     install.obj
 0003:0000dbf4       ?d2common_ppSoundCodesBin@@3PAPAXA 6609ebf4     install.obj
 0003:0000dbf8       ?d2common_pnColorStates@@3PAHA 6609ebf8     install.obj
 0003:0000dbfc       ?d2common_ppColorStates@@3PAPAXA 6609ebfc     install.obj
 0003:0000dc00       ?d2common_pnActionStates@@3PAHA 6609ec00     install.obj
 0003:0000dc04       ?d2common_ppActionStates@@3PAPAXA 6609ec04     install.obj
 0003:0000dc08       ?d2common_pnTransformStates@@3PAHA 6609ec08     install.obj
 0003:0000dc0c       ?d2common_ppTransformStates@@3PAPAXA 6609ec0c     install.obj
 0003:0000dc10       ?d2common_pnCurseStates@@3PAHA 6609ec10     install.obj
 0003:0000dc14       ?d2common_ppCurseStates@@3PAPAXA 6609ec14     install.obj
 0003:0000dc18       ?d2common_pnProgressiveStates@@3PAHA 6609ec18     install.obj
 0003:0000dc1c       ?d2common_ppProgressiveStates@@3PAPAXA 6609ec1c     install.obj
 0003:0000dc20       ?d2common_ppStateMaskArray@@3PAPAXA 6609ec20     install.obj
 0003:0000dc24       ?d2common_ppStateMaskFirst@@3PAPAXA 6609ec24     install.obj
 0003:0000dc28       ?d2common_pnStates@@3PAHA  6609ec28     install.obj
 0003:0000dc2c       ?d2common_ppStatesLink@@3PAPAXA 6609ec2c     install.obj
 0003:0000dc30       ?d2common_ppStatesTxt@@3PAPAXA 6609ec30     install.obj
 0003:0000dc34       ?d2common_ppHireDescLink@@3PAPAXA 6609ec34     install.obj
 0003:0000dc38       ?d2common_ppHireDescTxt@@3PAPAXA 6609ec38     install.obj
 0003:0000dc3c       ?d2common_ppRunesLink@@3PAPAXA 6609ec3c     install.obj
 0003:0000dc40       ?d2common_pnProperties@@3PAHA 6609ec40     install.obj
 0003:0000dc44       ?d2common_ppPropertiesLink@@3PAPAXA 6609ec44     install.obj
 0003:0000dc48       ?d2common_ppPropertiesTxt@@3PAPAXA 6609ec48     install.obj
 0003:0000dc4c       ?d2common_pnItemCalcCacheDelta@@3PAHA 6609ec4c     install.obj
 0003:0000dc50       ?d2common_pnItemCalcCache@@3PAHA 6609ec50     install.obj
 0003:0000dc54       ?d2common_ppItemCalcCache@@3PAPAXA 6609ec54     install.obj
 0003:0000dc58       ?d2common_ppItemLink@@3PAPAXA 6609ec58     install.obj
 0003:0000dc5c       ?d2common_pnMonAi@@3PAHA   6609ec5c     install.obj
 0003:0000dc60       ?d2common_ppMonAiLink@@3PAPAXA 6609ec60     install.obj
 0003:0000dc64       ?d2common_ppMonAiTxt@@3PAPAXA 6609ec64     install.obj
 0003:0000dc68       ?d2common_pnCompCodes@@3PAHA 6609ec68     install.obj
 0003:0000dc6c       ?d2common_ppCompCodesLink@@3PAPAXA 6609ec6c     install.obj
 0003:0000dc70       ?d2common_ppCompCodesTxt@@3PAPAXA 6609ec70     install.obj
 0003:0000dc74       ?d2common_ppEventsLink@@3PAPAXA 6609ec74     install.obj
 0003:0000dc78       ?d2common_ppEventsTxt@@3PAPAXA 6609ec78     install.obj
 0003:0000dc7c       ?d2common_ppSkillCodesLink@@3PAPAXA 6609ec7c     install.obj
 0003:0000dc80       ?d2common_ppSkillCodesBin@@3PAPAXA 6609ec80     install.obj
 0003:0000dc84       ?d2common_pnMissCalcCacheDelta@@3PAHA 6609ec84     install.obj
 0003:0000dc88       ?d2common_pnMissCalcCache@@3PAHA 6609ec88     install.obj
 0003:0000dc8c       ?d2common_ppMissCalcCache@@3PAPAXA 6609ec8c     install.obj
 0003:0000dc90       ?d2common_ppMissCalcLink@@3PAPAXA 6609ec90     install.obj
 0003:0000dc94       ?d2common_ppMissCalcTxt@@3PAPAXA 6609ec94     install.obj
 0003:0000dc98       ?d2common_pnSkillDescCalcCacheDelta@@3PAHA 6609ec98     install.obj
 0003:0000dc9c       ?d2common_pnSkillDescCalcCache@@3PAHA 6609ec9c     install.obj
 0003:0000dca0       ?d2common_ppSkillDescCalcCache@@3PAPAXA 6609eca0     install.obj
 0003:0000dca4       ?d2common_pnSkillCalcCacheDelta@@3PAHA 6609eca4     install.obj
 0003:0000dca8       ?d2common_pnSkillCalcCache@@3PAHA 6609eca8     install.obj
 0003:0000dcac       ?d2common_ppSkillCalcCache@@3PAPAXA 6609ecac     install.obj
 0003:0000dcb0       ?d2common_ppSkillCalcLink@@3PAPAXA 6609ecb0     install.obj
 0003:0000dcb4       ?d2common_ppSkillCalcTxt@@3PAPAXA 6609ecb4     install.obj
 0003:0000dcb8       ?d2common_ppPlrModeLink@@3PAPAXA 6609ecb8     install.obj
 0003:0000dcbc       ?d2common_ppPlrModeTxt@@3PAPAXA 6609ecbc     install.obj
 0003:0000dcc0       ?d2common_ppMonModeLink@@3PAPAXA 6609ecc0     install.obj
 0003:0000dcc4       ?d2common_ppMonModeTxt@@3PAPAXA 6609ecc4     install.obj
 0003:0000dcc8       ?d2common_ppHitClassLink@@3PAPAXA 6609ecc8     install.obj
 0003:0000dccc       ?d2common_ppHitClassTxt@@3PAPAXA 6609eccc     install.obj
 0003:0000dcd0       ?d2common_ppElemTypesLink@@3PAPAXA 6609ecd0     install.obj
 0003:0000dcd4       ?d2common_ppElemTypesTxt@@3PAPAXA 6609ecd4     install.obj
 0003:0000dcd8       ?d2common_ppStorePageLink@@3PAPAXA 6609ecd8     install.obj
 0003:0000dcdc       ?d2common_ppStorePageTxt@@3PAPAXA 6609ecdc     install.obj
 0003:0000dce0       ?d2common_ppBodyLocsLink@@3PAPAXA 6609ece0     install.obj
 0003:0000dce4       ?d2common_ppBodyLocsTxt@@3PAPAXA 6609ece4     install.obj
 0003:0000dce8       ?d2common_ppPlayerClassLink@@3PAPAXA 6609ece8     install.obj
 0003:0000dcec       ?d2common_ppPlayerClassTxt@@3PAPAXA 6609ecec     install.obj
 0003:0000dcf0       ?d2common_pRuneWordTxt@@3PAPAURuneWordTxt@@A 6609ecf0     install.obj
 0003:0000dcf4       ?d2common_pRuneWords@@3PAHA 6609ecf4     install.obj
 0003:0000dcf8       ?d2common_pArmorTxts@@3PAHA 6609ecf8     install.obj
 0003:0000dcfc       ?d2common_pWeaponsTxts@@3PAHA 6609ecfc     install.obj
 0003:0000dd00       ?d2common_pItemTxts@@3PAPAUItemTxt@@A 6609ed00     install.obj
 0003:0000dd04       ?d2common_pItemTxtCount@@3PAHA 6609ed04     install.obj
 0003:0000dd08       ?d2common_pInventoryTxt@@3PAPAUInventoryBIN@@A 6609ed08     install.obj
 0003:0000dd0c       ?d2common_pInventoryTxtCount@@3PAHA 6609ed0c     install.obj
 0003:0000dd10       ?d2common_pDataTables@@3PAPAUD2DataTables@@A 6609ed10     install.obj
 0003:0000dd14       ?d2common_compileInventoryTxt@@3P6GPAUInventoryBIN@@H@ZA 6609ed14     install.obj
 0003:0000dd18       ?d2common_getInventoryPos16@@3P6GXHHPAUEquipmentLayout16@@@ZA 6609ed18     install.obj
 0003:0000dd1c       ?d2common_getInventoryLayout@@3P6GXHHPAUInvLayout@@@ZA 6609ed1c     install.obj
 0003:0000dd20       ?d2common_getEquipmentPos@@3P6GXHHPAUEquipmentLayout20@@H@ZA 6609ed20     install.obj
 0003:0000dd24       ?d2common_revealRect7C300@@3P6IHHPAUDrlgAct@@HH@ZA 6609ed24     install.obj
 0003:0000dd28       ?d2common_compileItemStatCostTxt@@3P6GPAXH@ZA 6609ed28     install.obj
 0003:0000dd2c       ?d2common_compileItemTypeTxt@@3P6GPAXH@ZA 6609ed2c     install.obj
 0003:0000dd30       ?d2common_GetItemTxt@@3P6GPAUItemTxt@@H@ZA 6609ed30     install.obj
 0003:0000dd34       ?d2common_getAreaLevel@@3P6GHHHH@ZA 6609ed34     install.obj
 0003:0000dd38       ?d2common_GetLevelTxt@@3P6GPAULevelTxt@@H@ZA 6609ed38     install.obj
 0003:0000dd3c       ?d2common_GetLevelWeather@@3P6GDH@ZA 6609ed3c     install.obj
 0003:0000dd40       ?d2common_GetLevelTxt07@@3P6GDH@ZA 6609ed40     install.obj
 0003:0000dd44       ?d2common_GetLevelTxt06@@3P6GDH@ZA 6609ed44     install.obj
 0003:0000dd48       ?d2common_GetLevelDefTxt@@3P6IPAULevelDefTxt@@H@ZA 6609ed48     install.obj
 0003:0000dd4c       ?d2common_addToRectData1C@@3P6GHPAUUnitAny@@@ZA 6609ed4c     install.obj
 0003:0000dd50       ?d2common_initGameDataTable@@3P6GHHHH@ZA 6609ed50     install.obj
 0003:0000dd54       ?d2common_getLvlOfExp@@3P6GHHH@ZA 6609ed54     install.obj
 0003:0000dd58       ?d2common_CompileTxtFile@@3P6GPAXHPADPAUTxtField@@PAHH@ZA 6609ed58     install.obj
 0003:0000dd5c       ?d2common_uninit@@3P6GHXZA 6609ed5c     install.obj
 0003:0000dd60       ?d2common_GetMinExpToLevel@@3P6GHHH@ZA 6609ed60     install.obj
 0003:0000dd64       ?d2common_getPlayerMaxLvl@@3P6GHH@ZA 6609ed64     install.obj
 0003:0000dd68       ?d2common_compileMonTypeTxt@@3P6GPAXH@ZA 6609ed68     install.obj
 0003:0000dd6c       ?d2common_GetTreasureClasses@@3P6GPAUTreasureClass@@GH@ZA 6609ed6c     install.obj
 0003:0000dd70       ?d2common_GetSuperUniqueTxt@@3P6GPAUSuperUniqueTxt@@H@ZA 6609ed70     install.obj
 0003:0000dd74       ?d2common_SetSkillBaseLevel@@3P6GXPAUUnitAny@@HHHPADH@ZA 6609ed74     install.obj
 0003:0000dd78       ?d2common_getSkillStatus@@3P6GHPAUUnitAny@@PAUSkill@@@ZA 6609ed78     install.obj
 0003:0000dd7c       ?d2common_getMaxSkeletons@@3P6GHPAUUnitAny@@HHH@ZA 6609ed7c     install.obj
 0003:0000dd80       ?d2common_GetSkillCost@@3P6GHPAUUnitAny@@HHH@ZA 6609ed80     install.obj
 0003:0000dd84       ?d2common_GetSkillLevel@@3P6GHPAUUnitAny@@PAUSkill@@H@ZA 6609ed84     install.obj
 0003:0000dd88       ?d2common_CheckCorpseCanUse@@3P6GHPAUUnitAny@@K@ZA 6609ed88     install.obj
 0003:0000dd8c       ?d2common_getSkillBonus@@3P6IHXZA 6609ed8c     install.obj
 0003:0000dd90       ?d2common_getSkillId@@3P6GHHH@ZA 6609ed90     install.obj
 0003:0000dd94       ?d2common_getPlayerSkillCount@@3P6GHH@ZA 6609ed94     install.obj
 0003:0000dd98       ?d2common_setSkillCount@@3P6GXPAUSkill@@H@ZA 6609ed98     install.obj
 0003:0000dd9c       ?d2common_GetDropPos@@3P6GPAUAreaRectData@@PAU1@PAUtagPOINT@@1HHHH@ZA 6609ed9c     install.obj
 0003:0000dda0       ?d2common_IsLineBlocked@@3P6GHPAUAreaRectData@@PAUtagPOINT@@1H@ZA 6609eda0     install.obj
 0003:0000dda4       ?d2common_setItemEthereal@@3P6GHPAUUnitAny@@@ZA 6609eda4     install.obj
 0003:0000dda8       ?d2common_GetObjectTxt@@3P6GPAUObjectTxt@@H@ZA 6609eda8     install.obj
 0003:0000ddac       ?d2common_revealRect@@3P6GHPAUDrlgAct@@HHHPAUAreaRectData@@@ZA 6609edac     install.obj
 0003:0000ddb0       ?d2common_isInTown@@3P6GHPAUAreaRectData@@@ZA 6609edb0     install.obj
 0003:0000ddb4       ?d2common_GetLevelIdFromRectData@@3P6GHPAUAreaRectData@@@ZA 6609edb4     install.obj
 0003:0000ddb8       ?d2common_Common11084@@3P6GHPAUAreaRectData@@H@ZA 6609edb8     install.obj
 0003:0000ddbc       ?d2common_Ord10196@@3P6GHPAUUnitAny@@@ZA 6609edbc     install.obj
 0003:0000ddc0       ?d2common_stat_10807@@3P6GHPAUUnitAny@@PAUStatList@@H@ZA 6609edc0     install.obj
 0003:0000ddc4       ?d2common_changeUnitStat@@3P6GHPAUUnitAny@@HHH@ZA 6609edc4     install.obj
 0003:0000ddc8       ?d2common_AddPlayerStat@@3P6GXPAUUnitAny@@HHH@ZA 6609edc8     install.obj
 0003:0000ddcc       ?d2common_addStatList@@3P6GHPAUStatList@@HHH@ZA 6609edcc     install.obj
 0003:0000ddd0       ?d2common_changeStatList@@3P6GHPAUStatList@@HHH@ZA 6609edd0     install.obj
 0003:0000ddd4       ?d2common_fun39F70@@3P6GHHPAUUnitAny@@@ZA 6609edd4     install.obj
 0003:0000ddd8       ?d2common_getStatValue39380@@3P6GHH@ZA 6609edd8     install.obj
 0003:0000dddc       ?d2common_getUnitMaxHP@@3P6GHPAUUnitAny@@@ZA 6609eddc     install.obj
 0003:0000dde0       ?d2common_getUnitMaxMana@@3P6GHPAUUnitAny@@@ZA 6609ede0     install.obj
 0003:0000dde4       ?d2common_getUnitMaxStamina@@3P6GHPAUUnitAny@@@ZA 6609ede4     install.obj
 0003:0000dde8       ?d2common_GetUnitBaseStat@@3P6GHPAUUnitAny@@HG@ZA 6609ede8     install.obj
 0003:0000ddec       ?d2common_GetUnitStat@@3P6GHPAUUnitAny@@HG@ZA 6609edec     install.obj
 0003:0000ddf0       ?d2common_getUnitStatValueB00@@3P6GHPAUItemStatCostTxt@@@ZA 6609edf0     install.obj
 0003:0000ddf4       ?d2common_getStatValueWithMinChecked@@3P6GHPAUItemStatCostTxt@@@ZA 6609edf4     install.obj
 0003:0000ddf8       ?d2common_GetStatFromStatList@@3P6GHPAUStatList@@KPAUStatEx@@K@ZA 6609edf8     install.obj
 0003:0000ddfc       ?d2common_bsearchStat@@3P6GHXZA 6609edfc     install.obj
 0003:0000de00       ?d2common_removeStat@@3P6GHH@ZA 6609ee00     install.obj
 0003:0000de04       ?d2common_GetStatListWithFlag@@3P6GPAUStatList@@PAUUnitAny@@HK@ZA 6609ee04     install.obj
 0003:0000de08       ?d2common_GetUnitPosX@@3P6GHPAUDynamicPath@@@ZA 6609ee08     install.obj
 0003:0000de0c       ?d2common_GetUnitPosY@@3P6GHPAUDynamicPath@@@ZA 6609ee0c     install.obj
 0003:0000de10       ?d2common_CheckUnitState@@3P6GHPAUUnitAny@@H@ZA 6609ee10     install.obj
 0003:0000de14       ?d2common_setUnitMode@@3P6GHPAUUnitAny@@H@ZA 6609ee14     install.obj
 0003:0000de18       ?d2common_GetMonsterHpPercent@@3P6GHPAUUnitAny@@@ZA 6609ee18     install.obj
 0003:0000de1c       ?d2common_IsUnitBlocked@@3P6GHPAUUnitAny@@0H@ZA 6609ee1c     install.obj
 0003:0000de20       ?d2common_getUnitSize@@3P6GHPAUUnitAny@@@ZA 6609ee20     install.obj
 0003:0000de24       ?d2common_getLeftSkill@@3P6GPAUSkill@@PAUUnitAny@@@ZA 6609ee24     install.obj
 0003:0000de28       ?d2common_getCurrentSkill@@3P6GPAUSkill@@PAUUnitAny@@@ZA 6609ee28     install.obj
 0003:0000de2c       ?d2common_getUnitPos@@3P6GXPAUUnitAny@@PAUtagPOINT@@@ZA 6609ee2c     install.obj
 0003:0000de30       ?d2common_getRectData@@3P6GPAUAreaRectData@@PAUUnitAny@@@ZA 6609ee30     install.obj
 0003:0000de34       ?d2common_GetBoxType@@3P6GHPAUUnitAny@@EH@ZA 6609ee34     install.obj
 0003:0000de38       ?d2common_allocUnit@@3P6GPAUUnitAny@@HH@ZA 6609ee38     install.obj
 0003:0000de3c       ?d2common_setStaticUnitX@@3P6GXPAUUnitAny@@H@ZA 6609ee3c     install.obj
 0003:0000de40       ?d2common_setStaticUnitY@@3P6GXPAUUnitAny@@H@ZA 6609ee40     install.obj
 0003:0000de44       ?d2common_GetPlayerData@@3P6GPAUPlayerData@@PAUUnitAny@@@ZA 6609ee44     install.obj
 0003:0000de48       ?d2common_getObjectFlags@@3P6GHPAUUnitAny@@@ZA 6609ee48     install.obj
 0003:0000de4c       ?d2common_setObjectFlags@@3P6GHPAUUnitAny@@H@ZA 6609ee4c     install.obj
 0003:0000de50       ?d2common_revealRect2E5C0@@3P6GHHHPAUDrlgMisc@@PAUDrlgLevel@@@ZA 6609ee50     install.obj
 0003:0000de54       ?d2common_InitDrlgLevel@@3P6GXPAUDrlgLevel@@@ZA 6609ee54     install.obj
 0003:0000de58       ?d2common_GetDrlgLevel@@3P6IPAUDrlgLevel@@PAUDrlgMisc@@H@ZA 6609ee58     install.obj
 0003:0000de5c       ?d2common_CheckQuestFlag@@3P6GHPAUQuestInfo@@HH@ZA 6609ee5c     install.obj
 0003:0000de60       ?d2common_setQuestFlag@@3P6GXPAUQuestInfo@@HH@ZA 6609ee60     install.obj
 0003:0000de64       ?d2common_clearQuestFlag@@3P6GXPAUQuestInfo@@HH@ZA 6609ee64     install.obj
 0003:0000de68       ?d2common_copyQuestData@@3P6GPAUQuestInfo@@PAU1@PAFHH@ZA 6609ee68     install.obj
 0003:0000de6c       ?d2common_GetMercInfo@@3P6GHHHHPAX@ZA 6609ee6c     install.obj
 0003:0000de70       ?d2common_setItemSocket@@3P6GHPAUUnitAny@@H@ZA 6609ee70     install.obj
 0003:0000de74       ?d2common_GetItemPrice@@3P6GHPAUUnitAny@@0HPAUQuestInfo@@HK@ZA 6609ee74     install.obj
 0003:0000de78       ?d2common_EncodeItem@@3P6GHPAUUnitAny@@PADHHHH@ZA 6609ee78     install.obj
 0003:0000de7c       ?d2common_EncodeItemBits@@3P6IHPAUUnitAny@@PAUFogBits@@HHH@ZA 6609ee7c     install.obj
 0003:0000de80       ?d2common_EncodeComplexItem@@3P6GHPAUUnitAny@@PAUFogBits@@HH@ZA 6609ee80     install.obj
 0003:0000de84       ?d2common_searchRunewordTxt@@3P6GPAURuneWordTxt@@PAUUnitAny@@@ZA 6609ee84     install.obj
 0003:0000de88       ?d2common_getSocketCount@@3P6GHPAUUnitAny@@@ZA 6609ee88     install.obj
 0003:0000de8c       ?d2common_EncodeCompactItem@@3P6GHPAUUnitAny@@H@ZA 6609ee8c     install.obj
 0003:0000de90       ?d2common_countUsedSocketed@@3P6GHXZA 6609ee90     install.obj
 0003:0000de94       ?d2common_getItemMaxSocket@@3P6GHPAUUnitAny@@@ZA 6609ee94     install.obj
 0003:0000de98       ?d2common_checkItemTypeFlags@@3P6GHPAUUnitAny@@H@ZA 6609ee98     install.obj
 0003:0000de9c       ?d2common_isMagicItem@@3P6GHPAUUnitAny@@@ZA 6609ee9c     install.obj
 0003:0000dea0       ?d2common_writeBitStream@@3P6GXPAUFogBits@@@ZA 6609eea0     install.obj
 0003:0000dea4       ?d2common_getItemSeed@@3P6GPAUD2Seed@@PAUUnitAny@@@ZA 6609eea4     install.obj
 0003:0000dea8       ?d2common_getItemFingerPrint@@3P6GHPAUUnitAny@@@ZA 6609eea8     install.obj
 0003:0000deac       ?d2common_setItemFingerPrint@@3P6GXPAUUnitAny@@H@ZA 6609eeac     install.obj
 0003:0000deb0       ?d2common_getItemQuality@@3P6GHPAUUnitAny@@@ZA 6609eeb0     install.obj
 0003:0000deb4       ?d2common_setItemQuality@@3P6GXPAUUnitAny@@H@ZA 6609eeb4     install.obj
 0003:0000deb8       ?d2common_getItemMagicPrefix@@3P6GHPAUUnitAny@@H@ZA 6609eeb8     install.obj
 0003:0000debc       ?d2common_getItemMagicSuffix@@3P6GHPAUUnitAny@@H@ZA 6609eebc     install.obj
 0003:0000dec0       ?d2common_getRarePrefix@@3P6GFPAUUnitAny@@@ZA 6609eec0     install.obj
 0003:0000dec4       ?d2common_getRareSuffix@@3P6GFPAUUnitAny@@@ZA 6609eec4     install.obj
 0003:0000dec8       ?d2common_CheckItemFlag@@3P6GHPAUUnitAny@@KHPAD@ZA 6609eec8     install.obj
 0003:0000decc       ?d2common_setItemFlag@@3P6GXPAUUnitAny@@HH@ZA 6609eecc     install.obj
 0003:0000ded0       ?d2common_getItemFlag@@3P6GXPAUUnitAny@@@ZA 6609eed0     install.obj
 0003:0000ded4       ?d2common_setItemLevel@@3P6GHPAUUnitAny@@H@ZA 6609eed4     install.obj
 0003:0000ded8       ?d2common_setItemLocation@@3P6GHPAUUnitAny@@D@ZA 6609eed8     install.obj
 0003:0000dedc       ?d2common_getItemTypeB14@@3P6GHPAUUnitAny@@@ZA 6609eedc     install.obj
 0003:0000dee0       ?d2common_getItemCode@@3P6GPADPAUUnitAny@@@ZA 6609eee0     install.obj
 0003:0000dee4       ?d2common_getItemWidthHeight@@3P6GHPAUUnitAny@@PAD1@ZA 6609eee4     install.obj
 0003:0000dee8       ?d2common_getItemType@@3P6GHPAUUnitAny@@@ZA 6609eee8     install.obj
 0003:0000deec       ?d2common_getItemTypeByTxt@@3P6GHH@ZA 6609eeec     install.obj
 0003:0000def0       ?d2common_getItemCode1@@3P6GPADPAUUnitAny@@@ZA 6609eef0     install.obj
 0003:0000def4       ?d2common_isQuestItem@@3P6GHPAUUnitAny@@@ZA 6609eef4     install.obj
 0003:0000def8       ?d2common_GetItemFileIndex@@3P6GHPAUUnitAny@@@ZA 6609eef8     install.obj
 0003:0000defc       ?d2common_setItemFileIndex@@3P6GHPAUUnitAny@@H@ZA 6609eefc     install.obj
 0003:0000df00       ?d2common_getItemData1C_20@@3P6GXPAUUnitAny@@PAX1@ZA 6609ef00     install.obj
 0003:0000df04       ?d2common_setOwnerId@@3P6GXPAUUnitAny@@H@ZA 6609ef04     install.obj
 0003:0000df08       ?d2common_isCompactItem@@3P6IDXZA 6609ef08     install.obj
 0003:0000df0c       ?d2common_getItemFormat@@3P6GHPAUUnitAny@@@ZA 6609ef0c     install.obj
 0003:0000df10       ?d2common_setItemFormat@@3P6GXPAUUnitAny@@F@ZA 6609ef10     install.obj
 0003:0000df14       ?d2common_isBitSet@@3P6GHHH@ZA 6609ef14     install.obj
 0003:0000df18       ?d2common_putItemIntoSocket10405@@3P6GHPAUUnitInventory@@PAUUnitAny@@H@ZA 6609ef18     install.obj
 0003:0000df1c       ?d2common_setCursorItem@@3P6GHPAUUnitInventory@@PAUUnitAny@@@ZA 6609ef1c     install.obj
 0003:0000df20       ?d2common_isItemInside@@3P6GHPAUUnitInventory@@PAUUnitAny@@@ZA 6609ef20     install.obj
 0003:0000df24       ?d2common_CheckInvLocation@@3P6GHPAUUnitInventory@@PAUUnitAny@@HHHPAH2E@ZA 6609ef24     install.obj
 0003:0000df28       ?d2common_GetNextItemInInv@@3P6GPAUUnitAny@@PAU1@@ZA 6609ef28     install.obj
 0003:0000df2c       ?d2common_getOwnerInventory@@3P6GPAUUnitInventory@@XZA 6609ef2c     install.obj
 0003:0000df30       ?d2common_createInventory@@3P6GPAUUnitInventory@@PAXPAUUnitAny@@@ZA 6609ef30     install.obj
 0003:0000df34       ?d2common_getEquippedItemInfo@@3P6GHPAUUnitInventory@@H@ZA 6609ef34     install.obj
 0003:0000df38       ?d2common_createEquippedItem@@3P6GPAUEquippedGears@@XZA 6609ef38     install.obj
 0003:0000df3c       ?d2common_GetFirstItemInInv@@3P6GPAUUnitAny@@PAUUnitInventory@@@ZA 6609ef3c     install.obj
 0003:0000df40       ?d2common_GetCursorItem@@3P6GPAUUnitAny@@PAUUnitInventory@@@ZA 6609ef40     install.obj
 0003:0000df44       ?d2common_getFilledSockets@@3P6GHPAUUnitInventory@@@ZA 6609ef44     install.obj
 0003:0000df48       ?d2common_subEsp@@3P6GHXZA 6609ef48     install.obj
 0003:0000df4c       ?d2common_exit@@3P6GHH@ZA  6609ef4c     install.obj
 0003:0000df50       ?d2common_GetMonStats2@@3P6IPAXXZA 6609ef50     install.obj
 0003:0000df54       ?d2common_GetNearRectDataWithPos@@3P6IPAUAreaRectData@@XZA 6609ef54     install.obj
 0003:0000df58       ?d2common_GetCharStatsTxt@@3P6GPAXXZA 6609ef58     install.obj
 0003:0000df5c       ?d2cmp_mpq_path_3010@@3P6IHPAD@ZA 6609ef5c     install.obj
 0003:0000df60       ?d2cmp_InitCellFile@@3P6GXPAXPAPAUCellFile@@PADHH2@ZA 6609ef60     install.obj
 0003:0000df64       ?d2cmp_DeleteCellFile@@3P6GXPAUCellFile@@@ZA 6609ef64     install.obj
 0003:0000df68       ?d2client_pIsEquipment800x600@@3PAHA 6609ef68     install.obj
 0003:0000df6c       ?d2client_pQuestPage@@3PAHA 6609ef6c     install.obj
 0003:0000df70       ?d2client_plpCritialSection@@3PAPAUCriticalSection@@A 6609ef70     install.obj
 0003:0000df74       ?d2client_pworldHash@@3PAPAUWorldHash@@A 6609ef74     install.obj
 0003:0000df78       ?d2client_pLastChatMessage@@3PA_WA 6609ef78     install.obj
 0003:0000df7c       ?d2client_pPetUnitList@@3PAPAUPetUnit@@A 6609ef7c     install.obj
 0003:0000df80       ?d2client_pShowManaStr@@3PAHA 6609ef80     install.obj
 0003:0000df84       ?d2client_pShowLifeStr@@3PAHA 6609ef84     install.obj
 0003:0000df88       ?d2client_pBeltNotEmpty@@3PADA 6609ef88     install.obj
 0003:0000df8c       ?d2client_pscreenDrawXsub@@3PAHA 6609ef8c     install.obj
 0003:0000df90       ?d2client_pScreenBlocked@@3PAHA 6609ef90     install.obj
 0003:0000df94       ?d2client_pStandStill@@3PAHA 6609ef94     install.obj
 0003:0000df98       ?d2client_pNpcConvData@@3PAPAXA 6609ef98     install.obj
 0003:0000df9c       ?d2client_pDrlgAct@@3PAPAUDrlgAct@@A 6609ef9c     install.obj
 0003:0000dfa0       ?d2client_pnotAcceptKeys@@3PAHA 6609efa0     install.obj
 0003:0000dfa4       ?d2client_pMButton@@3PAHA  6609efa4     install.obj
 0003:0000dfa8       ?d2client_pInGame@@3PAHA   6609efa8     install.obj
 0003:0000dfac       ?d2client_pDifficulty@@3PAEA 6609efac     install.obj
 0003:0000dfb0       ?d2client_pMercData32@@3PAHA 6609efb0     install.obj
 0003:0000dfb4       ?d2client_pFlagUnknownC2F8@@3PAHA 6609efb4     install.obj
 0003:0000dfb8       ?d2client_pHasSelectedObject@@3PAHA 6609efb8     install.obj
 0003:0000dfbc       ?d2client_pFps@@3PAHA      6609efbc     install.obj
 0003:0000dfc0       ?d2client_pAutoMapSize@@3PAUtagPOINT@@A 6609efc0     install.obj
 0003:0000dfc4       ?d2client_pMinimapOffset@@3PAUtagPOINT@@A 6609efc4     install.obj
 0003:0000dfc8       ?d2client_pInfoPositionY@@3PAHA 6609efc8     install.obj
 0003:0000dfcc       ?d2client_pScreenMinimapY@@3PAHA 6609efcc     install.obj
 0003:0000dfd0       ?d2client_pScreenMinimapX@@3PAHA 6609efd0     install.obj
 0003:0000dfd4       ?d2client_pAutomapPos@@3PAUtagPOINT@@A 6609efd4     install.obj
 0003:0000dfd8       ?d2client_pMinimapCellFile@@3PAPAUCellFile@@A 6609efd8     install.obj
 0003:0000dfdc       ?d2client_pAutomapLayer@@3PAPAUAutomapLayer@@A 6609efdc     install.obj
 0003:0000dfe0       ?d2client_pAutomapLayerList@@3PAPAUAutomapLayer@@A 6609efe0     install.obj
 0003:0000dfe4       ?d2client_pMinimapType@@3PAHA 6609efe4     install.obj
 0003:0000dfe8       ?d2client_pChatTextLength@@3PAHA 6609efe8     install.obj
 0003:0000dfec       ?d2client_pMapShakeX@@3PAJA 6609efec     install.obj
 0003:0000dff0       ?d2client_pIsMapShakeOn@@3PAHA 6609eff0     install.obj
 0003:0000dff4       ?d2client_pActiveWeapon@@3PAHA 6609eff4     install.obj
 0003:0000dff8       ?d2client_pStachImage@@3PAPAUCellFile@@A 6609eff8     install.obj
 0003:0000dffc       ?d2client_pPanelTradeStash@@3PAPAUCellFile@@A 6609effc     install.obj
 0003:0000e000       ?d2client_pPanelCube@@3PAPAUCellFile@@A 6609f000     install.obj
 0003:0000e004       ?d2client_pPanelBank@@3PAPAUCellFile@@A 6609f004     install.obj
 0003:0000e008       ?d2client_pNpcTradeCurrentTab@@3PAHA 6609f008     install.obj
 0003:0000e00c       ?d2client_pCurrentViewItem@@3PAPAUUnitAny@@A 6609f00c     install.obj
 0003:0000e010       ?d2client_pRosterUnitList@@3PAPAURosterUnit@@A 6609f010     install.obj
 0003:0000e014       ?d2client_pnpcInteract@@3PAPAXA 6609f014     install.obj
 0003:0000e018       ?d2client_pPlayerUnit@@3PAPAUUnitAny@@A 6609f018     install.obj
 0003:0000e01c       ?d2client_pGoldInTranBox@@3PAHA 6609f01c     install.obj
 0003:0000e020       ?d2client_pDrawOffsetY@@3PAHA 6609f020     install.obj
 0003:0000e024       ?d2client_pDrawOffsetX@@3PAHA 6609f024     install.obj
 0003:0000e028       ?d2client_pDrawOffset@@3PAUtagPOINT@@A 6609f028     install.obj
 0003:0000e02c       ?d2client_pIs800x600@@3PAHA 6609f02c     install.obj
 0003:0000e030       ?d2client_pGameInfo@@3PAPAUGameStructInfo@@A 6609f030     install.obj
 0003:0000e034       ?d2client_pMouseX@@3PAHA   6609f034     install.obj
 0003:0000e038       ?d2client_pMouseY@@3PAHA   6609f038     install.obj
 0003:0000e03c       ?d2client_pPanelBtn@@3PAPAUCellFile@@A 6609f03c     install.obj
 0003:0000e040       ?d2client_pPanelInvChar@@3PAPAUCellFile@@A 6609f040     install.obj
 0003:0000e044       ?d2client_pXButton1@@3PAHA 6609f044     install.obj
 0003:0000e048       ?d2client_pXButton2@@3PAHA 6609f048     install.obj
 0003:0000e04c       ?d2client_pKeyboardSettingEnd@@3PAUKeyboardSetting@@A 6609f04c     install.obj
 0003:0000e050       ?d2client_pKeyboardSettingStart@@3PAUKeyboardSetting@@A 6609f050     install.obj
 0003:0000e054       ?d2client_pSkillHotKeyLeft@@3PAHA 6609f054     install.obj
 0003:0000e058       ?d2client_pSkillHotKeys@@3PAHA 6609f058     install.obj
 0003:0000e05c       ?d2client_pscreenDrawX@@3PAHA 6609f05c     install.obj
 0003:0000e060       ?d2client_pscreenDrawY@@3PAHA 6609f060     install.obj
 0003:0000e064       ?d2client_pCastingDelayEndFrame@@3PAHA 6609f064     install.obj
 0003:0000e068       ?d2client_pExpansion@@3PAHA 6609f068     install.obj
 0003:0000e06c       ?d2client_pPing@@3PAHA     6609f06c     install.obj
 0003:0000e070       ?d2client_pCurFrame@@3PAHA 6609f070     install.obj
 0003:0000e074       ?d2client_pTradeRelated@@3PAPAHA 6609f074     install.obj
 0003:0000e078       ?d2client_pGameQuestData@@3PAPAUQuestInfo@@A 6609f078     install.obj
 0003:0000e07c       ?d2client_pQuestData@@3PAPAUQuestInfo@@A 6609f07c     install.obj
 0003:0000e080       ?d2client_pAutomapNodeListBaseAddr@@3PAPAXA 6609f080     install.obj
 0003:0000e084       ?d2client_pMapShakeY@@3PAJA 6609f084     install.obj
 0003:0000e088       ?d2client_pUnitTable@@3PAPAUUnitAny@@A 6609f088     install.obj
 0003:0000e08c       ?d2client_pWaypointMenuCount@@3PAHA 6609f08c     install.obj
 0003:0000e090       ?d2client_pWaypointMenuCurTab@@3PAHA 6609f090     install.obj
 0003:0000e094       ?d2client_pWaypointMenuItems@@3PAUWaypointMenuItem@@A 6609f094     install.obj
 0003:0000e098       ?d2client_pUiHelpOn@@3PAHA 6609f098     install.obj
 0003:0000e09c       ?d2client_pUiBeltOn@@3PAHA 6609f09c     install.obj
 0003:0000e0a0       ?d2client_pUiCubeOn@@3PAHA 6609f0a0     install.obj
 0003:0000e0a4       ?d2client_pUiStashOn@@3PAHA 6609f0a4     install.obj
 0003:0000e0a8       ?d2client_pUiMessageLogOn@@3PAHA 6609f0a8     install.obj
 0003:0000e0ac       ?d2client_pUiPPLTradeOn@@3PAHA 6609f0ac     install.obj
 0003:0000e0b0       ?d2client_pUiPartyOn@@3PAHA 6609f0b0     install.obj
 0003:0000e0b4       ?d2client_pUiWaypointOn@@3PAHA 6609f0b4     install.obj
 0003:0000e0b8       ?d2client_pUiNewQuestOn@@3PAHA 6609f0b8     install.obj
 0003:0000e0bc       ?d2client_pUiQuestOn@@3PAHA 6609f0bc     install.obj
 0003:0000e0c0       ?d2client_pUiModItemOn@@3PAHA 6609f0c0     install.obj
 0003:0000e0c4       ?d2client_pUiShowItemsOn@@3PAHA 6609f0c4     install.obj
 0003:0000e0c8       ?d2client_pUiNpcTradeOn@@3PAHA 6609f0c8     install.obj
 0003:0000e0cc       ?d2client_pAutomapOn@@3PAHA 6609f0cc     install.obj
 0003:0000e0d0       ?d2client_pUiGameMenuOn@@3PAHA 6609f0d0     install.obj
 0003:0000e0d4       ?d2client_pUiInteractOn@@3PAHA 6609f0d4     install.obj
 0003:0000e0d8       ?d2client_pUiNewSkillOn@@3PAHA 6609f0d8     install.obj
 0003:0000e0dc       ?d2client_pUiNewStatOn@@3PAHA 6609f0dc     install.obj
 0003:0000e0e0       ?d2client_pUiChatOn@@3PAHA 6609f0e0     install.obj
 0003:0000e0e4       ?d2client_pUiSkillTreeOn@@3PAHA 6609f0e4     install.obj
 0003:0000e0e8       ?d2client_pUiSelectSkillOn@@3PAHA 6609f0e8     install.obj
 0003:0000e0ec       ?d2client_pUiCharacterOn@@3PAHA 6609f0ec     install.obj
 0003:0000e0f0       ?d2client_pUiInventoryOn@@3PAHA 6609f0f0     install.obj
 0003:0000e0f4       ?d2client_pUiDropGoldWindow@@3PAPAXA 6609f0f4     install.obj
 0003:0000e0f8       ?d2client_pInfoPositionX@@3PAHA 6609f0f8     install.obj
 0003:0000e0fc       ?d2client_pExitAppFlag@@3PAHA 6609f0fc     install.obj
 0003:0000e100       ?d2client_pGameControlEnd@@3PAHA 6609f100     install.obj
 0003:0000e104       ?d2client_pGameControlStart@@3PAHA 6609f104     install.obj
 0003:0000e108       ?d2client_pMercData16@@3PAHA 6609f108     install.obj
 0003:0000e10c       ?d2client_pMinimapZoom@@3PAHA 6609f10c     install.obj
 0003:0000e110       ?d2client_pCurSkillClass@@3PAHA 6609f110     install.obj
 0003:0000e114       ?d2client_pCursorInvGridY@@3PAHA 6609f114     install.obj
 0003:0000e118       ?d2client_pCursorInvGridX@@3PAHA 6609f118     install.obj
 0003:0000e11c       ?d2client_pLastMousePos@@3PAUtagPOINT@@A 6609f11c     install.obj
 0003:0000e120       ?d2client_pScreenHeight@@3PAHA 6609f120     install.obj
 0003:0000e124       ?d2client_pScreenSize@@3PAUtagPOINT@@A 6609f124     install.obj
 0003:0000e128       ?d2client_pScreenWidth@@3PAHA 6609f128     install.obj
 0003:0000e12c       ?d2client_psgptDataTables@@3PAPAUD2DataTables@@A 6609f12c     install.obj
 0003:0000e130       ?d2client_DrawControls@@3P6GHH@ZA 6609f130     install.obj
 0003:0000e134       ?d2client_SetUiStatus@@3P6IHHHK@ZA 6609f134     install.obj
 0003:0000e138       ?d2client_LoadUiImageSubpath@@3P6IPAUCellFile@@XZA 6609f138     install.obj
 0003:0000e13c       ?d2client_CheckUiStatusStub@@3P6IHH@ZA 6609f13c     install.obj
 0003:0000e140       ?d2client_RecvPacket3F@@3P6IXPAD@ZA 6609f140     install.obj
 0003:0000e144       ?d2client_RecvPacket0E@@3P6IXHPAD@ZA 6609f144     install.obj
 0003:0000e148       ?d2client_RecvPacket9D@@3P6IXPAD@ZA 6609f148     install.obj
 0003:0000e14c       ?d2client_RecvPacket9C@@3P6IXPAD@ZA 6609f14c     install.obj
 0003:0000e150       ?d2client_PacketHandler@@3P6GXH@ZA 6609f150     install.obj
 0003:0000e154       ?d2client_RecvCommand07@@3P6IXPAE@ZA 6609f154     install.obj
 0003:0000e158       ?d2client_RecvCommand08@@3P6IXPAE@ZA 6609f158     install.obj
 0003:0000e15c       ?d2client_removeUnitFromHash@@3P6IHPAPAUUnitAny@@HHH@ZA 6609f15c     install.obj
 0003:0000e160       ?d2client_addUnitToHash@@3P6GHXZA 6609f160     install.obj
 0003:0000e164       ?d2client_GetUnitFromId@@3P6IPAUUnitAny@@HH@ZA 6609f164     install.obj
 0003:0000e168       ?d2client_CanUseSkillNow@@3P6GHH@ZA 6609f168     install.obj
 0003:0000e16c       ?d2client_processMessageA3C10@@3P6GHPAUD2MSG@@@ZA 6609f16c     install.obj
 0003:0000e170       ?d2client_drawFloatingWindow@@3P6GHXZA 6609f170     install.obj
 0003:0000e174       ?d2client_drawUnits9EE90@@3P6GHPAX@ZA 6609f174     install.obj
 0003:0000e178       ?d2client_drawInventory@@3P6GHXZA 6609f178     install.obj
 0003:0000e17c       ?d2client_func_958A0@@3P6GHPAUUnitAny@@@ZA 6609f17c     install.obj
 0003:0000e180       ?d2client_DrawAllUnits@@3P6GHXZA 6609f180     install.obj
 0003:0000e184       ?d2client_CalcShake@@3P6GXPAH0@ZA 6609f184     install.obj
 0003:0000e188       ?d2client_useStackableItem@@3P6GXPAD@ZA 6609f188     install.obj
 0003:0000e18c       ?d2client_packet9C_4@@3P6IXXZA 6609f18c     install.obj
 0003:0000e190       ?d2client_drawEnvironment@@3P6GXPAX0@ZA 6609f190     install.obj
 0003:0000e194       ?d2client_drawNpcConversition@@3P6IHXZA 6609f194     install.obj
 0003:0000e198       ?d2client_isNpcConversitionEnd@@3P6IHPAX@ZA 6609f198     install.obj
 0003:0000e19c       ?d2client_ShowGameMessage@@3P6GXPA_WH@ZA 6609f19c     install.obj
 0003:0000e1a0       ?d2client_ShowPartyMessage@@3P6GXPA_WH@ZA 6609f1a0     install.obj
 0003:0000e1a4       ?d2client_getSkillTreeButtonY@@3P6IHXZA 6609f1a4     install.obj
 0003:0000e1a8       ?d2client_getSkillTreeButtonX@@3P6IHXZA 6609f1a8     install.obj
 0003:0000e1ac       ?d2client_ChatInputStub@@3P6GXPAUD2MSG@@@ZA 6609f1ac     install.obj
 0003:0000e1b0       ?d2client_drawInvItem@@3P6GHHH@ZA 6609f1b0     install.obj
 0003:0000e1b4       ?d2client_drawUnit@@3P6GHPAX@ZA 6609f1b4     install.obj
 0003:0000e1b8       ?d2client_shouldDrawUnit@@3P6GHXZA 6609f1b8     install.obj
 0003:0000e1bc       ?d2client_InitAutomapLayerStub@@3P6IPAUAutomapLayer@@K@ZA 6609f1bc     install.obj
 0003:0000e1c0       ?d2client_AddAreaRectToMinimap@@3P6GXPAUAreaRectData@@KPAUAutomapLayer@@@ZA 6609f1c0     install.obj
 0003:0000e1c4       ?d2client_AddAutomapNode@@3P6IXPAUAutomapNode@@PAPAU1@@ZA 6609f1c4     install.obj
 0003:0000e1c8       ?d2client_SetAutomapPartyStub@@3P6IXK@ZA 6609f1c8     install.obj
 0003:0000e1cc       ?d2client_SetAutomapNamesStub@@3P6IXK@ZA 6609f1cc     install.obj
 0003:0000e1d0       ?d2client_NewAutomapNode@@3P6IPAUAutomapNode@@XZA 6609f1d0     install.obj
 0003:0000e1d4       ?d2client_drawAllHeads@@3P6GHXZA 6609f1d4     install.obj
 0003:0000e1d8       ?d2client_recvCmd77ButtonAction@@3P6GXXZA 6609f1d8     install.obj
 0003:0000e1dc       ?d2client_clickAcceptTradeMenuItem@@3P6GHXZA 6609f1dc     install.obj
 0003:0000e1e0       ?d2client_GetSelectedUnit@@3P6GPAUUnitAny@@XZA 6609f1e0     install.obj
 0003:0000e1e4       ?d2client_fun_4B8A0@@3P6GHHPAFD@ZA 6609f1e4     install.obj
 0003:0000e1e8       ?d2client_clickHireMercMenu@@3P6GHXZA 6609f1e8     install.obj
 0003:0000e1ec       ?d2client_clickGotoAct2MenuItem@@3P6GHXZA 6609f1ec     install.obj
 0003:0000e1f0       ?d2client_clickGotoAct3MenuItem@@3P6GHXZA 6609f1f0     install.obj
 0003:0000e1f4       ?d2client_drawNpcInteractMenu@@3P6GHXZA 6609f1f4     install.obj
 0003:0000e1f8       ?d2client_Unknown6150@@3P6GHXZA 6609f1f8     install.obj
 0003:0000e1fc       ?d2client_GetScreenDrawY@@3P6GJXZA 6609f1fc     install.obj
 0003:0000e200       ?d2client_GetScreenDrawX@@3P6GJXZA 6609f200     install.obj
 0003:0000e204       ?d2client_DrawSkillButtonE5E0@@3P6GXHHHHHH@ZA 6609f204     install.obj
 0003:0000e208       ?d2client_SkillUnusable@@3P6IXXZA 6609f208     install.obj
 0003:0000e20c       ?d2client_processWinMessage@@3P6GHPAUHWND__@@HHH@ZA 6609f20c     install.obj
 0003:0000e210       ?d2client_processMessages@@3P6IXXZA 6609f210     install.obj
 0003:0000e214       ?d2client_ShowMap@@3P6IXXZA 6609f214     install.obj
 0003:0000e218       ?d2client_LoadUiImageFunc@@3P6GPAUCellFile@@H@ZA 6609f218     install.obj
 0003:0000e21c       ?d2client_setState_2A750@@3P6IXHHHH@ZA 6609f21c     install.obj
 0003:0000e220       ?d2client_UseBelt@@3P6IXPAUUnitInventory@@PAUUnitAny@@H@ZA 6609f220     install.obj
 0003:0000e224       ?d2client_DrawClient@@3P6IXXZA 6609f224     install.obj
 0003:0000e228       ?d2client_DrawSkillButton@@3P6GXPAUSkill@@HHH@ZA 6609f228     install.obj
 0003:0000e22c       ?d2client_drawHpManaText@@3P6GHXZA 6609f22c     install.obj
 0003:0000e230       ?d2client_PlaySound@@3P6IHHHH@ZA 6609f230     install.obj
 0003:0000e234       ?d2client_ItemProtect@@3P6GXPAUUnitAny@@K@ZA 6609f234     install.obj
 0003:0000e238       ?d2client_GetMonsterOwner@@3P6IHH@ZA 6609f238     install.obj
 0003:0000e23c       ?d2client_LeftClickBDE0@@3P6GHXZA 6609f23c     install.obj
 0003:0000e240       ?d2client_RightClickBC40@@3P6GHXZA 6609f240     install.obj
 0003:0000e244       ?d2client_ShouldClick85E0@@3P6GHXZA 6609f244     install.obj
 0003:0000e248       ?d2client_SendPacket3@@3P6IXF@ZA 6609f248     install.obj
 0003:0000e24c       ?d2client_sendPacketLen13@@3P6IXHHH@ZA 6609f24c     install.obj
 0003:0000e250       ?d2client_SendPacket43E0@@3P6GXPAD@ZA 6609f250     install.obj
 0003:0000e254       ?d2client_drawGround@@3P6GHPAX@ZA 6609f254     install.obj
 0003:0000e258       ?d2client_drawGroundPiece@@3P6GXHHHHHH@ZA 6609f258     install.obj
 0003:0000e25c       ?d2client_SetResolutionMode@@3P6GXXZA 6609f25c     install.obj
 0003:0000e260       ?d2client_getNearbyRectData@@3P6GXPAUAreaRectData@@PAPAPAU1@PAH@ZA 6609f260     install.obj
 0003:0000e264       ?d2client_Storm511@@3P6GXPAUD2MSG@@@ZA 6609f264     install.obj
 0003:0000e268       ?d2client_subEsp@@3P6GHXZA 6609f268     install.obj
 0003:0000e26c       ?d2client_getSkillDescTxt@@3P6IPAXXZA 6609f26c     install.obj
 0003:0000e270       ?bnclient_pBnChatMessage@@3PAPAKA 6609f270     install.obj
 0003:0000e278       ?bnetIp@@3PADA             6609f278     install.obj
 0003:0000e280       ?load_dll_error@@3HA       6609f280     install.obj
 0003:0000e284       ?fLocalizationSupport@@3HA 6609f284     install.obj
 0003:0000e288       ?addr_storm@@3PAUHINSTANCE__@@A 6609f288     install.obj
 0003:0000e28c       ?addr_d2client@@3PAUHINSTANCE__@@A 6609f28c     install.obj
 0003:0000e290       ?addr_d2common@@3PAUHINSTANCE__@@A 6609f290     install.obj
 0003:0000e294       ?addr_d2gfx@@3PAUHINSTANCE__@@A 6609f294     install.obj
 0003:0000e298       ?addr_d2win@@3PAUHINSTANCE__@@A 6609f298     install.obj
 0003:0000e29c       ?addr_d2lang@@3PAUHINSTANCE__@@A 6609f29c     install.obj
 0003:0000e2a0       ?addr_d2cmp@@3PAUHINSTANCE__@@A 6609f2a0     install.obj
 0003:0000e2a4       ?addr_bnclient@@3PAUHINSTANCE__@@A 6609f2a4     install.obj
 0003:0000e2a8       ?addr_d2net@@3PAUHINSTANCE__@@A 6609f2a8     install.obj
 0003:0000e2ac       ?addr_fog@@3PAUHINSTANCE__@@A 6609f2ac     install.obj
 0003:0000e2b0       ?addr_d2game@@3PAUHINSTANCE__@@A 6609f2b0     install.obj
 0003:0000e2b4       ?addr_d2launch@@3PAUHINSTANCE__@@A 6609f2b4     install.obj
 0003:0000e2b8       ?addr_d2gdi@@3PAUHINSTANCE__@@A 6609f2b8     install.obj
 0003:0000e2bc       ?addr_d2sound@@3PAUHINSTANCE__@@A 6609f2bc     install.obj
 0003:0000e2c0       ?addr_d2multi@@3PAUHINSTANCE__@@A 6609f2c0     install.obj
 0003:0000e2c4       ?addr_d2mcpclient@@3PAUHINSTANCE__@@A 6609f2c4     install.obj
 0003:0000e2c8       ?fGameFilter@@3HA          6609f2c8     install.obj
 0003:0000e2cc       ?hasPlugY@@3HA             6609f2cc     install.obj
 0003:0000e2d0       ?pPatchList@@3PAPAUInstalledPatch@@A 6609f2d0     install.obj
 0003:0000e2e0       ?networkPatch@@3PAUInstalledPatch@@A 6609f2e0     install.obj
 0003:0000f6f0       ?dwDumpMpqPath@@3HA        660a06f0     mpq.obj
 0003:0000f788       ?singlePlayerWorld@@3PAUWorld@@A 660a0788     common.obj
 0003:0000f78c       ?forceStandStill@@3HA      660a078c     common.obj
 0003:00011078       ?nPet@@3HA                 660a2078     common.obj
 0003:0001107c       ?petCap@@3HA               660a207c     common.obj
 0003:00011080       ?dwPetListChangeVerify@@3HA 660a2080     common.obj
 0003:00011088       ?fPartyListValid@@3HA      660a2088     common.obj
 0003:000110c4       ?autoTerminateNpcInteractMs@@3HA 660a20c4     loop.obj
 0003:000110c8       ?screenDrawY@@3HA          660a20c8     loop.obj
 0003:000110cc       ?screenDrawX@@3HA          660a20cc     loop.obj
 0003:000110d0       ?exitGameMs@@3HA           660a20d0     loop.obj
 0003:000110d4       ?dwChangeLeftSkill@@3HA    660a20d4     loop.obj
 0003:000110d8       ?dwLoopCount@@3HA          660a20d8     loop.obj
 0003:000110dc       ?fDebugMs@@3HA             660a20dc     loop.obj
 0003:000110e0       ?dwLevelChangeMs@@3HA      660a20e0     loop.obj
 0003:000110e4       ?dwCpuUser@@3HA            660a20e4     loop.obj
 0003:000110e8       ?dwCpuKernel@@3HA          660a20e8     loop.obj
 0003:000110ec       ?dwLoopFPS@@3HA            660a20ec     loop.obj
 0003:000110f0       ?dwDrawFPS@@3HA            660a20f0     loop.obj
 0003:000110f4       ?dwCurMs@@3HC              660a20f4     loop.obj
 0003:000110f8       ?dwEnterGameMs@@3HA        660a20f8     loop.obj
 0003:000110fc       ?fStartingGame@@3HA        660a20fc     loop.obj
 0003:00011100       ?fInGame@@3HA              660a2100     loop.obj
 0003:00011104       ?dwEnterGameShowDifficultyMs@@3HA 660a2104     loop.obj
 0003:00011108       ?dwCurrentAct@@3HA         660a2108     loop.obj
 0003:0001110c       ?dwPlayerX@@3HA            660a210c     loop.obj
 0003:00011110       ?dwPlayerY@@3HA            660a2110     loop.obj
 0003:00011114       ?dwPlayerId@@3HA           660a2114     loop.obj
 0003:00011118       ?dwPlayerPartyId@@3HA      660a2118     loop.obj
 0003:0001111c       ?dwPlayerClass@@3HA        660a211c     loop.obj
 0003:00011120       ?pLeftSkill@@3PAUSkill@@A  660a2120     loop.obj
 0003:00011124       ?pRightSkill@@3PAUSkill@@A 660a2124     loop.obj
 0003:00011128       ?dwLeftSkillStatus@@3HA    660a2128     loop.obj
 0003:0001112c       ?dwRightSkillStatus@@3HA   660a212c     loop.obj
 0003:00011130       ?dwPlayerLevel@@3HA        660a2130     loop.obj
 0003:00011134       ?dwPlayerHP@@3HA           660a2134     loop.obj
 0003:00011138       ?dwPlayerMaxHP@@3HA        660a2138     loop.obj
 0003:0001113c       ?dwPlayerMana@@3HA         660a213c     loop.obj
 0003:00011140       ?dwPlayerMaxMana@@3HA      660a2140     loop.obj
 0003:00011144       ?dwPlayerFcrFrame@@3HA     660a2144     loop.obj
 0003:00011148       ?dwPlayerFcrMs@@3HA        660a2148     loop.obj
 0003:0001114c       ?dwSlowRestoreMs@@3HA      660a214c     loop.obj
 0003:00011160       ?dwBugFlag@@3HA            660a2160     loop.obj
 0003:00011164       ?fIsHardCoreSafe@@3HA      660a2164     loop.obj
 0003:00011168       ?fUsingHardCoreConfig@@3HA 660a2168     loop.obj
 0003:0001116c       ?fIsHardCoreGame@@3HA      660a216c     loop.obj
 0003:00011170       ?fHasHardCoreConfig@@3HA   660a2170     loop.obj
 0003:00011174       ?needReloadConfig@@3HA     660a2174     loop.obj
 0003:000111a0       ?wcsLevelTargetName@@3PA_WA 660a21a0     map.obj
 0003:000112d0       ?minimapLevels@@3PAUMinimapLevel@@A 660a22d0     map.obj
 0003:000128b0       ?pCurMapLevel@@3PAUMinimapLevel@@A 660a38b0     map.obj
 0003:0001299c       ?pMinimapObjectCell@@3PAUCellFile@@A 660a399c     map.obj
 0003:000129a0       ?dwRevealMapMs@@3HA        660a39a0     map.obj
 0003:000129a4       ?dwAutoRevealCLevel@@3HA   660a39a4     map.obj
 0003:000129a8       ?anMonsterColours@@3PAEA   660a39a8     map.obj
 0003:00012d90       ?wszStaffTombLvlDesc@@3PA_WA 660a3d90     map.obj
 0003:00012df4       ?nCaveNameTextCol@@3EA     660a3df4     map.obj
 0003:00012df5       ?nSuperUniqueDescFont@@3EA 660a3df5     map.obj
 0003:00012df8       ?aszUnitBlobFiles@@3PAY0DC@DA 660a3df8     map.obj
 0003:00013020       ?awszEnchantDescs@@3PAY0BE@_WA 660a4020     map.obj
 0003:000137f0       ?awszAuraDescs@@3PAY0BE@_WA 660a47f0     map.obj
 0003:00013908       ?awszImmuneDescs@@3PAY0BE@_WA 660a4908     map.obj
 0003:000139f8       ?anMonsterCorpseColors@@3PAEA 660a49f8     map.obj
 0003:00013de0       ?anMissileColours@@3PAEA   660a4de0     map.obj
 0003:000141c8       ?dwScreenScrollCount@@3HA  660a51c8     map.obj
 0003:000141cc       ?dwMinimapScrollCount@@3HA 660a51cc     map.obj
 0003:000141d0       ?tScreenScrollKeys@@3PAUToggleVar@@A 660a51d0     map.obj
 0003:000144d0       ?dwScreenScrollOffset@@3PAY01HA 660a54d0     map.obj
 0003:00014550       ?tMiniMapScrollKeys@@3PAUToggleVar@@A 660a5550     map.obj
 0003:00014850       ?dwMiniMapScrollOffset@@3PAY01HA 660a5850     map.obj
 0003:00014adc       ?npcChatTxt@@3HA           660a5adc     packet.obj
 0003:00014ae0       ?dwSendPacketCount@@3HA    660a5ae0     packet.obj
 0003:00014ae4       ?dwInteractEntityCount@@3HA 660a5ae4     packet.obj
 0003:00014ae8       ?fMonitorSendCmd@@3PADA    660a5ae8     packet.obj
 0003:00014be8       ?fMonitorRecvCmd@@3PADA    660a5be8     packet.obj
 0003:00014df0       ?dwTargetDistanceMs@@3HA   660a5df0     route.obj
 0003:00014df4       ?dwTargetDistance@@3HA     660a5df4     route.obj
 0003:00014e20       ?pSrcRect@@3PAURouteRect@@A 660a5e20     route.obj
 0003:00014e28       ?dwTakeWaypointToLevel@@3HA 660a5e28     waypoint.obj
 0003:00014e2c       ?waypointBits@@3PADA       660a5e2c     waypoint.obj
 0003:00014e38       ?waypointMap@@3PAHA        660a5e38     waypoint.obj
 0003:00015068       ?mainMenuLoopCount@@3HA    660a6068     winmsg.obj
 0003:0001506c       ?mouseL@@3HA               660a606c     winmsg.obj
 0003:00015070       ?mouseW@@3HA               660a6070     winmsg.obj
 0003:00017478       ?fSkipPainting@@3HA        660a8478     winmsg.obj
 0003:0001747c       ?fSkipPaintingMenu@@3HA    660a847c     winmsg.obj
 0003:00017480       ?dwQuickSwapItemMs@@3HA    660a8480     winmsg.obj
 0003:00017484       ?dwScreenBlockMask@@3HA    660a8484     winmsg.obj
 0003:00017488       ?dwDrawCount@@3HA          660a8488     winmsg.obj
 0003:0001748c       ?fInMainMenu@@3HA          660a848c     winmsg.obj
 0003:00017490       ?fLeftBtnDown@@3HA         660a8490     winmsg.obj
 0003:00017494       ?fRightBtnDown@@3HA        660a8494     winmsg.obj
 0003:00017498       ?dwBtnReleaseMs@@3HA       660a8498     winmsg.obj
 0003:0001749c       ?fUserOperating@@3HA       660a849c     winmsg.obj
 0003:000174a0       ?need_paint@@3HA           660a84a0     winmsg.obj
 0003:000174a4       ?altDown@@3HA              660a84a4     winmsg.obj
 0003:000174a8       ?ctrlDown@@3HA             660a84a8     winmsg.obj
 0003:000174ac       ?shiftDown@@3HA            660a84ac     winmsg.obj
 0003:000174c8       ?fNoBackgroundImage@@3HA   660a84c8     winmsg.obj
 0003:000174cc       ?dwAutoHideMinimapKey@@3HA 660a84cc     winmsg.obj
 0003:000174d0       ?dwGameControlKeys@@3PAY03HA 660a84d0     winmsg.obj
 0003:000178d0       ?dwGameSoundKeys@@3PAHA    660a88d0     winmsg.obj
 0003:00017ad0       ?tSwitchWindowKeys@@3PAY01UToggleVar@@A 660a8ad0     winmsg.obj
 0003:000180d0       ?dwSwitchSkillKeyCount@@3HA 660a90d0     winmsg.obj
 0003:000180d4       ?fFullWindows@@3HA         660a90d4     winmsg.obj
 0003:000180d8       ?dwSwitchSkillKeys@@3PAHA  660a90d8     winmsg.obj
 0003:00018158       ?dwSwitchSkillLeft@@3PAY173HA 660a9158     winmsg.obj
 0003:00019158       ?dwSwitchSkillRight@@3PAY173HA 660aa158     winmsg.obj
 0003:0001a158       ?dwSwitchSkillLeftUp@@3PAY07HA 660ab158     winmsg.obj
 0003:0001a558       ?dwSwitchSkillRightUp@@3PAY07HA 660ab558     winmsg.obj
 0003:0001a958       ?dwSwitchSkillStandStill@@3PAHA 660ab958     winmsg.obj
 0003:0001a9d8       ?dwSwitchSkillLeftOrg@@3PAHA 660ab9d8     winmsg.obj
 0003:0001aa58       ?dwSwitchSkillRightOrg@@3PAHA 660aba58     winmsg.obj
 0003:0001aad8       ?dwTpSwitchBackground@@3PAHA 660abad8     winmsg.obj
 0003:0001aaf8       ?dwEnterDoorInBackgroundSkill@@3PAY0MI@HA 660abaf8     winmsg.obj
 0003:0001c0d8       ?dwDrawUnitCount@@3HA      660ad0d8     winmsg.obj
 0003:0001c110       ?skipMonsters@@3PADA       660ad110     env.obj
 0003:0001c510       ?dwVisualEffectMode@@3HA   660ad510     env.obj
 0003:0001c518       ?afMonsterCorpses@@3PAEA   660ad518     env.obj
 0003:0001c900       ?afMissileCorpses@@3PAEA   660ad900     env.obj
 0003:0001cfa8       ?dwNextStackLoc@@3HA       660adfa8     GameMonitor.obj
 0003:0001cfac       ?dwNextStackY@@3HA         660adfac     GameMonitor.obj
 0003:0001cfb0       ?dwNextStackX@@3HA         660adfb0     GameMonitor.obj
 0003:0001cfb4       ?dwNextStackingId@@3HA     660adfb4     GameMonitor.obj
 0003:0001cfb8       ?dwThrowWeaponId@@3HA      660adfb8     GameMonitor.obj
 0003:0001cfc8       ?dwNextMPotionId@@3HA      660adfc8     GameMonitor.obj
 0003:0001cfcc       ?dwNextHPotionId@@3HA      660adfcc     GameMonitor.obj
 0003:0001cfd0       ?beltLayers@@3HA           660adfd0     GameMonitor.obj
 0003:0001cfd4       ?dwNeedPotionType@@3HA     660adfd4     GameMonitor.obj
 0003:0001cfd8       ?beltType@@3PAEA           660adfd8     GameMonitor.obj
 0003:0001cfdc       ?beltCount@@3PAEA          660adfdc     GameMonitor.obj
 0003:0001cfe0       ?fWerebear@@3HA            660adfe0     GameMonitor.obj
 0003:0001cfe4       ?fWerewolf@@3HA            660adfe4     GameMonitor.obj
 0003:0001cfe8       ?dwOakSageLvl@@3HA         660adfe8     GameMonitor.obj
 0003:0001d00c       ?bossHps@@3PAHA            660ae00c     GameMonitor.obj
 0003:0001d018       ?dwRecheckSelfItemMs@@3HA  660ae018     GameMonitor.obj
 0003:0001d01c       ?leftWeapon@@3PAUUnitAny@@A 660ae01c     GameMonitor.obj
 0003:0001d020       ?rightWeapon@@3PAUUnitAny@@A 660ae020     GameMonitor.obj
 0003:0001d024       ?dwTownPortalCount@@3HA    660ae024     GameMonitor.obj
 0003:0001d028       ?dwIdentifyPortalCount@@3HA 660ae028     GameMonitor.obj
 0003:0001d02c       ?fUsingBow@@3HA            660ae02c     GameMonitor.obj
 0003:0001d030       ?fUsingCrossBow@@3HA       660ae030     GameMonitor.obj
 0003:0001d034       ?fUsingThrow@@3HA          660ae034     GameMonitor.obj
 0003:0001d038       ?dwHPotionCount@@3HA       660ae038     GameMonitor.obj
 0003:0001d03c       ?dwMPotionCount@@3HA       660ae03c     GameMonitor.obj
 0003:0001d040       ?dwRPotionCount@@3HA       660ae040     GameMonitor.obj
 0003:0001d044       ?dwArrowCount@@3HA         660ae044     GameMonitor.obj
 0003:0001d048       ?dwCArrowCount@@3HA        660ae048     GameMonitor.obj
 0003:0001d04c       ?dwThrowCount@@3HA         660ae04c     GameMonitor.obj
 0003:0001d050       ?curStashPage@@3HA         660ae050     GameMonitor.obj
 0003:0001d054       ?nStashPages@@3HA          660ae054     GameMonitor.obj
 0003:0001d058       ?stashPages@@3PAPAUStashPage@@A 660ae058     GameMonitor.obj
 0003:0001d258       ?bossX@@3HA                660ae258     GameMonitor.obj
 0003:0001d25c       ?bossY@@3HA                660ae25c     GameMonitor.obj
 0003:0001d260       ?bossId@@3HA               660ae260     GameMonitor.obj
 0003:0001d264       ?nBoss@@3HA                660ae264     GameMonitor.obj
 0003:0001d270       ?fMonitorQuantity@@3HA     660ae270     GameMonitor.obj
 0003:0001d274       ?fMonitorDurability@@3HA   660ae274     GameMonitor.obj
 0003:0001d278       ?dwKillSum@@3HA            660ae278     GameMonitor.obj
 0003:0001d27c       ?dwGameKills@@3HA          660ae27c     GameMonitor.obj
 0003:0001d280       ?dwLastKills@@3HA          660ae280     GameMonitor.obj
 0003:0001d284       ?dwGetHitSum@@3HA          660ae284     GameMonitor.obj
 0003:0001d288       ?dwGetHits@@3HA            660ae288     GameMonitor.obj
 0003:0001d28c       ?dwOrgMode@@3HA            660ae28c     GameMonitor.obj
 0003:0001d290       ?targetNameColor@@3DA      660ae290     GameMonitor.obj
 0003:0001d294       ?fState100HP@@3HA          660ae294     GameMonitor.obj
 0003:0001d298       ?fState106ManaMs@@3HA      660ae298     GameMonitor.obj
 0003:0001d2a0       ?dwGuessBOMs@@3HA          660ae2a0     GameMonitor.obj
 0003:0001d2a4       ?dwGuessEnchantMs@@3HA     660ae2a4     GameMonitor.obj
 0003:0001d2ac       ?nPlayerCast@@3HA          660ae2ac     GameMonitor.obj
 0003:0001fbd8       ?fViewingTargetUnit@@3HA   660b0bd8     info.obj
 0003:0001fbdc       ?currentgameexp@@3HA       660b0bdc     info.obj
 0003:00094f38       ?dwGoldGoodNum@@3HA        66125f38     item.obj
 0003:00094f3c       ?fSimplifiedPotionName@@3HA 66125f3c     item.obj
 0003:00094f40       ?anRuneColours@@3PAY03DA   66125f40     item.obj
 0003:000950d0       ?anItemColours@@3PAY37163DA 661260d0     item.obj
 0003:001dd2d0       ?anItemHideLevel@@3PAY07DA 6626e2d0     item.obj
 0003:001e3090       ?anItemShowCLevel@@3PAY01DA 66274090     item.obj
 0003:001e4800       ?wszEtherealItemPrefix@@3PA_WA 66275800     item.obj
 0003:001e483c       ?wszEtherealItemPostfix@@3PA_WA 6627583c     item.obj
 0003:001e4878       ?dwShowValuableItem@@3HA   66275878     item.obj
 0003:001e4880       ?szItemExtInfoCfgName@@3PAY0BAA@DA 66275880     item.obj
 0003:001e4a80       ?fViewSockFlag@@3HA        66275a80     item.obj
 0003:001e4a84       ?fViewSocketableOn@@3HA    66275a84     item.obj
 0003:001e4a88       ?wszDescText@@3PA_WA       66275a88     item.obj
 0003:001e5288       ?pViewingItem@@3PAUUnitAny@@A 66276288     item.obj
 0003:001e5290       ?marketItemCount@@3HA      66276290     item.obj
 0003:001e5294       ?marketItemCount1@@3HA     66276294     item.obj
 0003:001f4bb8       ?dwCheckMercMs@@3HA        66285bb8     dangerous.obj
 0003:001f4bd4       ?dwIronGolemLifeAlertPercent@@3HA 66285bd4     dangerous.obj
 0003:001f4bd8       ?dwIronGolemLifeTownPercent@@3HA 66285bd8     dangerous.obj
 0003:001f4bdc       ?dwIronGolemLifeExitPercent@@3HA 66285bdc     dangerous.obj
 0003:001f4be0       ?dwIronGolemTownLifePercent@@3HA 66285be0     dangerous.obj
 0003:001f4be4       ?dwHirePotionMinCLevel@@3HA 66285be4     dangerous.obj
 0003:001f4be8       ?dwHirePotionLifePercent@@3HA 66285be8     dangerous.obj
 0003:001f4bec       ?dwHirePotionColumn@@3HA   66285bec     dangerous.obj
 0003:001f4bf0       ?dwHealingPotionLifePercent@@3HA 66285bf0     dangerous.obj
 0003:001f4bf4       ?dwHealingPotionDelayMs@@3HA 66285bf4     dangerous.obj
 0003:001f4bf8       ?dwManaPotionMax@@3HA      66285bf8     dangerous.obj
 0003:001f4bfc       ?dwManaPotionValue@@3HA    66285bfc     dangerous.obj
 0003:001f4c00       ?dwManaPotionNTValue@@3HA  66285c00     dangerous.obj
 0003:001f4c04       ?dwChickenLife@@3HA        66285c04     dangerous.obj
 0003:001f4c08       ?dwChickenLifeCondition@@3HA 66285c08     dangerous.obj
 0003:001f4c0c       ?dwChickenHostileLife@@3HA 66285c0c     dangerous.obj
 0003:001f4c10       ?dwChickenHostileNearbyLife@@3HA 66285c10     dangerous.obj
 0003:001f4c14       ?dwChickenLifePercent@@3HA 66285c14     dangerous.obj
 0003:001f4c18       ?dwHCChickenLifePercent@@3HA 66285c18     dangerous.obj
 0003:001f4c1c       ?dwChickenHostileLifePercent@@3HA 66285c1c     dangerous.obj
 0003:001f4c20       ?dwChickenHostileNearbyLifePercent@@3HA 66285c20     dangerous.obj
 0003:001f4c24       ?dwChickenLifeMinClevel@@3HA 66285c24     dangerous.obj
 0003:001f4c28       ?fLifeProtectOn@@3HA       66285c28     dangerous.obj
 0003:001f4c2c       ?fDangerousMonsterActive@@3HA 66285c2c     dangerous.obj
 0003:001f4c30       ?anDangerousMonster@@3PAY01DA 66285c30     dangerous.obj
 0003:001f5400       ?dwHardCoreFEHpProtect@@3HA 66286400     dangerous.obj
 0003:001f5490       ?dwUpdateQuestMs@@3HA      66286490     quest.obj
 0003:001f5494       ?dwQuestAlertMs@@3HA       66286494     quest.obj
 0003:001f5498       ?hasRune789@@3HA           66286498     quest.obj
 0003:001f54a0       ?wszBugKBAlertMessage@@3PA_WA 662864a0     quest.obj
 0003:001f56a0       ?dwKBSkillSwitch@@3PAY05HA 662866a0     quest.obj
 0003:001f96b0       ?afMonsterDeathAnims@@3PAEA 6628a6b0     lifebar.obj
 0003:001f9ad0       ?aDropProtectRune@@3PADA   6628aad0     DropProtection.obj
 0003:001f9af8       ?aDropProtectRuneword@@3PADA 6628aaf8     DropProtection.obj
 0003:001f9bf8       ?aDropProtectUnique@@3PADA 6628abf8     DropProtection.obj
 0003:001f9df8       ?aDropProtectSet@@3PADA    6628adf8     DropProtection.obj
 0003:001f9ef8       ?dwSimpleItemProtectionCount@@3HA 6628aef8     DropProtection.obj
 0003:001fe318       ?fAutoEnchantCheckUnit@@3HA 6628f318     enchant.obj
 0003:001fe320       ?pD2WinEditBox@@3PAUD2EditBox@@A 6628f320     chat.obj
 0003:001fe328       ?chatPasteMs@@3HA          6628f328     chat.obj
 0003:001fe330       ?fMyChatOn@@3HA            6628f330     chat.obj
 0003:001fe3f8       ?dwAutoLoginMs@@3HA        6628f3f8     login.obj
 0003:001fe400       ?dwAutoSelectCharMs@@3HA   6628f400     login.obj
 0003:001fe410       ?nCurCharTags@@3HA         6628f410     login.obj
 0003:001fe428       ?mSkipQuestMessage@@3HA    6628f428     misc.obj
 0003:001fe43c       ?dwWaitTeamEnterPortalId@@3HA 6628f43c     multi.obj
 0003:001fe440       ?dwWaitTeamEnterPortalMs@@3HA 6628f440     multi.obj
 0003:001fe48c       ?hydraY@@3HA               6628f48c     multi.obj
 0003:001fe490       ?hydraX@@3HA               6628f490     multi.obj
 0003:001fe494       ?clickAcceptTradeMs@@3HA   6628f494     multi.obj
 0003:001fe498       ?autoNpcTxt@@3HA           6628f498     multi.obj
 0003:001fe49c       ?dwMultiClientMaxWindowId@@3HA 6628f49c     multi.obj
 0003:001fe4a0       ?d2winLastId@@3HA          6628f4a0     multi.obj
 0003:001fe4a4       ?fAutoFollowMoving@@3HA    6628f4a4     multi.obj
 0003:001fe4a8       ?wszTransferClick@@3PA_WA  6628f4a8     multi.obj
 0003:001fe528       ?acceptTradeFromGid@@3HA   6628f528     multi.obj
 0003:001fe52c       ?acceptTradeFromUid@@3HA   6628f52c     multi.obj
 0003:001fe530       ?acceptTradeMs@@3HA        6628f530     multi.obj
 0003:001fe54c       ?hydraLock@@3HA            6628f54c     multi.obj
 0003:001fe550       ?hydraUid@@3HA             6628f550     multi.obj
 0003:001fe554       ?tpMs@@3HA                 6628f554     multi.obj
 0003:001fe558       ?tMCFormationKeys@@3PAUToggleVar@@A 6628f558     multi.obj
 0003:001feb58       ?aMCFormation@@3PAY0BA@CA  6628fb58     multi.obj
 0003:001fed58       ?fTransferClick@@3HA       6628fd58     multi.obj
 0003:001fed5c       ?dwTeamMemberCount@@3HA    6628fd5c     multi.obj
 0003:001fed60       ?aAutoFollowClickObject@@3PADA 6628fd60     multi.obj
 0003:001ff160       ?dwLeaderId@@3HA           66290160     multi.obj
 0003:001ff168       ?d2wins@@3PAUD2Window@@A   66290168     multi.obj
 0003:00201300       ?wszNpcTradeInfo@@3PA_WA   66292300     NpcTrade.obj
 0003:00201e64       ?dwNpcTradeCheckMs@@3HA    66292e64     NpcTrade.obj
 0003:00201e68       ?dwPartyInvideMs@@3HA      66292e68     party.obj
 0003:00201e6c       ?dwCheckRelationMs@@3HA    66292e6c     party.obj
 0003:00201e70       ?hasHostilePlayer@@3HA     66292e70     party.obj
 0003:00201e74       ?fCanInvite@@3HA           66292e74     party.obj
 0003:00201e78       ?dwPartyResponseMs@@3HA    66292e78     party.obj
 0003:00201e90       ?fCanExitGame@@3HA         66292e90     quick.obj
 0003:00201e94       ?dwBackToTownTimeout@@3HA  66292e94     quick.obj
 0003:00201ea0       ?fAutoNextGameName@@3HA    66292ea0     quick.obj
 0003:00201ea4       ?fAutoNextGamePassword@@3HA 66292ea4     quick.obj
 0003:00201ea8       ?fAutoNextGameDescription@@3HA 66292ea8     quick.obj
 0003:00201eb0       ?wszGameName@@3PA_WA       66292eb0     quick.obj
 0003:00201ef0       ?wszGamePassword@@3PA_WA   66292ef0     quick.obj
 0003:00201f30       ?wszGameDescription@@3PA_WA 66292f30     quick.obj
 0003:00201f74       ?autoJoinGameMs@@3HA       66292f74     quick.obj
 0003:00202500       ?fHighRes@@3HA             66293500     resolution.obj
 0003:002065d4       ?dwAutoSkillReloading@@3HA 662975d4     skill.obj
 0003:002065d8       ?dwRescueBarSafeDistance@@3HA 662975d8     skill.obj
 0003:002065dc       ?fAutoEnchant@@3HA         662975dc     skill.obj
 0003:002065e0       ?aAutoPickupItem@@3PADA    662975e0     skill.obj
 0003:00207198       ?fAutoEnchantUseLeftSkill@@3HA 66298198     skill.obj
 0003:0020719c       ?fAutoWarCry@@3HA          6629819c     skill.obj
 0003:002071a0       ?dwAutoEnchantMonster@@3PADA 662981a0     skill.obj
 0003:002075a0       ?fAutoWarCryUseLeftSkill@@3HA 662985a0     skill.obj
 0003:002075a4       ?dwAutoWarCryRenewPercent@@3HA 662985a4     skill.obj
 0003:002075a8       ?dwUseLeftSkillFirst@@3HA  662985a8     skill.obj
 0003:002075ac       ?dwAutoReloadThrowing@@3HA 662985ac     skill.obj
 0003:002075b0       ?dwAutoSkillCheckMs@@3HA   662985b0     skill.obj
 0003:002075b4       ?dwAutoSkillMode@@3HA      662985b4     skill.obj
 0003:002075b8       ?fAutoSkillNow@@3HA        662985b8     skill.obj
 0003:002075bc       ?fAutoSkill@@3HA           662985bc     skill.obj
 0003:002075c0       ?aAutoDimVisionMonster@@3PADA 662985c0     skill.obj
 0003:002079c0       ?aAutoSkillMonsterType@@3PADA 662989c0     skill.obj
 0003:00207dc0       ?aAutoSkillDistance@@3PAY01DA 66298dc0     skill.obj
 0003:002081c0       ?fAutoSummon@@3HA          662991c0     skill.obj
 0003:002081c4       ?fAutoSummonUseLeftSkill@@3HA 662991c4     skill.obj
 0003:002081c8       ?dwAutoSummonStartMs@@3HA  662991c8     skill.obj
 0003:002081cc       ?dwAutoSummonCheckEnchantMs@@3HA 662991cc     skill.obj
 0003:002081d0       ?aAutoReviveMonster@@3PADA 662991d0     skill.obj
 0003:002085d0       ?dwSkeletonCount@@3HA      662995d0     skill.obj
 0003:002085d4       ?dwEnchantSkeletonCount@@3HA 662995d4     skill.obj
 0003:002085d8       ?dwSkeletonMaxCount@@3HA   662995d8     skill.obj
 0003:002085dc       ?dwSkeletonMageCount@@3HA  662995dc     skill.obj
 0003:002085e0       ?dwSkeletonMageMaxCount@@3HA 662995e0     skill.obj
 0003:002085e4       ?dwReviveCount@@3HA        662995e4     skill.obj
 0003:002085e8       ?dwReviveMaxCount@@3HA     662995e8     skill.obj
 0003:002085ec       ?dwSkeletonHPPercent@@3HA  662995ec     skill.obj
 0003:002085f0       ?dwSkeletonMageHPPercent@@3HA 662995f0     skill.obj
 0003:0020afc0       ?questNames@@3PAPADA       6629bfc0     Snapshot.obj
 0003:0020b080       ?dwMercNameId@@3HA         6629c080     Snapshot.obj
 0003:0020b08c       ?dwMercSeed@@3HA           6629c08c     Snapshot.obj
 0003:0020b200       ?dwCheckSkeletonCountMs@@3HA 6629c200     summon.obj
 0003:0020f228       ?fAutoSummonSwitchSkillTmp@@3HA 662a0228     summon.obj
 0003:0020f22c       ?fAutoSummonSwitchSkill@@3HA 662a022c     summon.obj
 0003:0020f230       ?fAutoSummonNeedCorpse@@3HA 662a0230     summon.obj
 0003:0020f234       ?dwNecInfoExpireMs@@3HA    662a0234     summon.obj
 0003:0020f238       ?dwNecMana@@3HA            662a0238     summon.obj
 0003:0020f23c       ?dwTotalMonsterCount@@3HA  662a023c     summon.obj
 0003:0020f240       ?dwSkillChangeCount@@3HA   662a0240     summon.obj
 0003:0020f6b0       ?maxTpDisRaw@@3HA          662a06b0     teleport.obj
 0003:0020f72c       ?dwTpDoneMs@@3HA           662a072c     teleport.obj
 0003:0020f730       ?dwTpMs@@3HA               662a0730     teleport.obj
 0003:0020f734       ?TPfailedRect@@3PAUAreaRectData@@A 662a0734     teleport.obj
 0003:0020f738       ?TPtargetRect@@3PAUAreaRectData@@A 662a0738     teleport.obj
 0003:0020f73c       ?TPtarget@@3UtagPOINT@@A   662a073c     teleport.obj
 0003:0020f770       ?isAutoTeleporting@@3HA    662a0770     teleport.obj
 0003:0020f774       ?fAutoTeleporting@@3HA     662a0774     teleport.obj
 0003:0020f778       ?unexpectedMonCount@@3HA   662a0778     teleport.obj
 0003:0020f77c       ?unexpectedMonTotalMs@@3HA 662a077c     teleport.obj
 0003:0020f794       ?fEnableHighResolutionPatch@@3HA 662a0794     panel.obj
 0003:0020f798       ?serverCubeType@@3HA       662a0798     panel.obj
 0003:0020f79c       ?clientCubeType@@3HA       662a079c     panel.obj
 0003:0020f7a0       ?serverStashType@@3HA      662a07a0     panel.obj
 0003:0020f7a4       ?clientStashType@@3HA      662a07a4     panel.obj
 0003:0020f7a8       ?serverInvType@@3HA        662a07a8     panel.obj
 0003:0020f7ac       ?clientInvType@@3HA        662a07ac     panel.obj
 0003:0020f7b8       ?fEnableBigStash@@3HA      662a07b8     panel.obj
 0003:0020f7bc       ?dwInvType@@3HA            662a07bc     panel.obj
 0003:0020f7c0       ?dwStashType@@3HA          662a07c0     panel.obj
 0003:0020f7c4       ?dwCubeType@@3HA           662a07c4     panel.obj
 0003:0020fa1c       ?active_UberDiabloRushTweekAI@@3_NA 662a0a1c     uber.obj
 0003:0020fa1d       ?active_UberBaalTeleportTweekAI@@3_NA 662a0a1d     uber.obj
 0003:0020fa1e       ?active_UberBaalChillingArmorTweekAI@@3_NA 662a0a1e     uber.obj
 0003:0020fa20       ?uberBaalChillingArmorLastFrame@@3HA 662a0a20     uber.obj
 0003:0020fa24       __cflush                   662a0a24     LIBCMT:_file.obj
 0003:0020fa28       ___fastflag                662a0a28     LIBCMT:_fpinit_.obj
 0003:0020fa2c       __adjust_fdiv              662a0a2c     LIBCMT:_fpinit_.obj
 0003:0020fa48       __aenvptr                  662a0a48     LIBCMT:dllcrt0.obj
 0003:0020fa4c       __wenvptr                  662a0a4c     LIBCMT:dllcrt0.obj
 0003:0020fa50       ___error_mode              662a0a50     LIBCMT:dllcrt0.obj
 0003:0020fa54       ___app_type                662a0a54     LIBCMT:dllcrt0.obj
 0003:0020fa5c       ___mbulinfo                662a0a5c     LIBCMT:mbctype.obj
 0003:0020fa68       ___mbcodepage              662a0a68     LIBCMT:mbctype.obj
 0003:0020fa6c       ___ismbcodepage            662a0a6c     LIBCMT:mbctype.obj
 0003:0020fa70       ___mblcid                  662a0a70     LIBCMT:mbctype.obj
 0003:0020fa74       ___locale_changed          662a0a74     LIBCMT:setlocal.obj
 0003:0020fa78       ___lc_handle               662a0a78     LIBCMT:nlsdata2.obj
 0003:0020fa90       ___lc_codepage             662a0a90     LIBCMT:nlsdata2.obj
 0003:0020fa94       ___lc_collate_cp           662a0a94     LIBCMT:nlsdata2.obj
 0003:0020fa98       _gpFlsAlloc                662a0a98     LIBCMT:tidtable.obj
 0003:0020fa9c       _gpFlsGetValue             662a0a9c     LIBCMT:tidtable.obj
 0003:0020faa0       _gpFlsSetValue             662a0aa0     LIBCMT:tidtable.obj
 0003:0020faa4       _gpFlsFree                 662a0aa4     LIBCMT:tidtable.obj
 0003:0020faa8       ___pInvalidArgHandler      662a0aa8     LIBCMT:invarg.obj
 0003:0020fc00       __stdbuf                   662a0c00     LIBCMT:_sftbuf.obj
 0003:0020ff2c       ?_pnhHeap@@3P6AHI@ZA       662a0f2c     LIBCMT:handler.obj
 0003:0020ff30       __newmode                  662a0f30     LIBCMT:_newmode.obj
 0003:0020ff34       __crtheap                  662a0f34     LIBCMT:heapinit.obj
 0003:0020ff38       ___sbh_pHeaderDefer        662a0f38     LIBCMT:sbheap.obj
 0003:0020ff40       __maxwait                  662a0f40     LIBCMT:crtheap.obj
 0003:0020ff44       __umaskval                 662a0f44     LIBCMT:crt0dat.obj
 0003:0020ff48       ___argc                    662a0f48     LIBCMT:crt0dat.obj
 0003:0020ff4c       ___argv                    662a0f4c     LIBCMT:crt0dat.obj
 0003:0020ff50       ___wargv                   662a0f50     LIBCMT:crt0dat.obj
 0003:0020ff54       __environ                  662a0f54     LIBCMT:crt0dat.obj
 0003:0020ff58       ___initenv                 662a0f58     LIBCMT:crt0dat.obj
 0003:0020ff5c       __wenviron                 662a0f5c     LIBCMT:crt0dat.obj
 0003:0020ff60       ___winitenv                662a0f60     LIBCMT:crt0dat.obj
 0003:0020ff64       __pgmptr                   662a0f64     LIBCMT:crt0dat.obj
 0003:0020ff68       __wpgmptr                  662a0f68     LIBCMT:crt0dat.obj
 0003:0020ff6c       __exitflag                 662a0f6c     LIBCMT:crt0dat.obj
 0003:0020ff70       __C_Termination_Done       662a0f70     LIBCMT:crt0dat.obj
 0003:0020ff74       __C_Exit_Done              662a0f74     LIBCMT:crt0dat.obj
 0003:002103a0       ___lconv_static_null       662a13a0     LIBCMT:lconv.obj
 0003:002103a8       ?__pInconsistency@@3P6AXXZA 662a13a8     LIBCMT:hooks.obj
 0003:002103cc       ___pPurecall               662a13cc     LIBCMT:inithelp.obj
 0003:002103d0       __outputformat             662a13d0     LIBCMT:outputformat.obj
 0003:002104a8       __commode                  662a14a8     LIBCMT:ncommode.obj
 0003:002104c0       ?pArgList@UnDecorator@@0PAVReplicator@@A 662a14c0     LIBCMT:undname.obj
 0003:002104c4       ?pZNameList@UnDecorator@@0PAVReplicator@@A 662a14c4     LIBCMT:undname.obj
 0003:002104c8       ?pTemplateArgList@UnDecorator@@0PAVReplicator@@A 662a14c8     LIBCMT:undname.obj
 0003:002104cc       ?gName@UnDecorator@@0PBDB  662a14cc     LIBCMT:undname.obj
 0003:002104d0       ?name@UnDecorator@@0PBDB   662a14d0     LIBCMT:undname.obj
 0003:002104d4       ?outputString@UnDecorator@@0PADA 662a14d4     LIBCMT:undname.obj
 0003:002104d8       ?maxStringLength@UnDecorator@@0HA 662a14d8     LIBCMT:undname.obj
 0003:002104dc       ?disableFlags@UnDecorator@@0KA 662a14dc     LIBCMT:undname.obj
 0003:002104e0       ?m_pGetParameter@UnDecorator@@0P6APADJ@ZA 662a14e0     LIBCMT:undname.obj
 0003:002104e4       ?fExplicitTemplateParams@UnDecorator@@0_NA 662a14e4     LIBCMT:undname.obj
 0003:002104e5       ?fGetTemplateArgumentList@UnDecorator@@0_NA 662a14e5     LIBCMT:undname.obj
 0003:002104e8       __fmode                    662a14e8     LIBCMT:txtmode.obj
 0003:002104f0       __debugger_hook_dummy      662a14f0     <common>
 0003:002104f4       ___use_sse2_mathfcns       662a14f4     <common>
 0003:002104f8       ___env_initialized         662a14f8     <common>
 0003:002104fc       ___onexitend               662a14fc     <common>
 0003:00210500       ___onexitbegin             662a1500     <common>
 0003:00210504       ___mbctype_initialized     662a1504     <common>
 0003:00210508       ___dyn_tls_init_callback   662a1508     <common>
 0003:0021050c       ___sbh_cntHeaderList       662a150c     <common>
 0003:00210510       ___sbh_pHeaderList         662a1510     <common>
 0003:00210514       ___sbh_threshold           662a1514     <common>
 0003:00210518       ___sbh_pHeaderScan         662a1518     <common>
 0003:0021051c       ___sbh_sizeHeaderList      662a151c     <common>
 0003:00210520       ___sbh_indGroupDefer       662a1520     <common>
 0003:00210524       ___active_heap             662a1524     <common>
 0003:00210528       ___sse2_available          662a1528     <common>
 0003:0021052c       __nhandle                  662a152c     <common>
 0003:00210540       ___pioinfo                 662a1540     <common>
 0003:00210640       __acmdln                   662a1640     <common>
 0003:00210644       __pDestructExceptionObject 662a1644     <common>
 0003:00210648       ___piob                    662a1648     <common>
 0003:00210660       __bufin                    662a1660     <common>
 0003:00211660       __nstream                  662a2660     <common>

 entry point at        0001:000653d4

 Static symbols

 0001:00000a30       ?initKeyArray@@YAXPAUConfigVar@@HH@Z 66001a30 f   config.obj
 0001:00002090       ?InitValues@@YAXXZ         66003090 f   config.obj
 0001:00002380       ?changeLogPath@@YAHPAD@Z   66003380 f   config.obj
 0001:00002520       ?loadConfig@@YAXPAD@Z      66003520 f   config.obj
 0001:00002c30       ?StoreConfig@@YAHPAUConfigVar@@PAD1@Z 66003c30 f   config.obj
 0001:000041d0       ?parseInt@@YAHPADPAPAD@Z   660051d0 f   config.obj
 0001:00004270       ?parseValues8@@YAXPAD0H@Z  66005270 f   config.obj
 0001:00004340       ?parseValues32@@YAXPAHPADH@Z 66005340 f   config.obj
 0001:00004410       ?parseStringConfig@@YAHPAUConfigVar@@PAD1@Z 66005410 f   config.obj
 0001:00004590       ?loadTagFile@@YAXPAD@Z     66005590 f   config.obj
 0001:00004830       ?loadSymbolFile@@YAXPAD@Z  66005830 f   config.obj
 0001:00004a30       ?isNumber@@YAHPAD@Z        66005a30 f   config.obj
 0001:00005960       ?doPatchCALL@@YAXHHH@Z     66006960 f   install.obj
 0001:000059b0       ?doPatchJMP@@YAXHHH@Z      660069b0 f   install.obj
 0001:00005a00       ?doPatchFILL@@YAXHHH@Z     66006a00 f   install.obj
 0001:00005a50       ?doPatchVALUE@@YAXHHH@Z    66006a50 f   install.obj
 0001:00005c70       ?parseOriginalCode@@YAHPADH0HPAH@Z 66006c70 f   install.obj
 0001:00009980       ?InstallPatchAfterLoad@@YAXXZ 6600a980 f   install.obj
 0001:000099b0       ?installD2PatchesAfterLoad@@YAHXZ 6600a9b0 f   install.obj
 0001:00009d10       ?installNetworkRecvPatch@@YAHXZ 6600ad10 f   install.obj
 0001:00009d60       ?installPatchToggle@@YAHXZ 6600ad60 f   install.obj
 0001:00009e20       ?installD2Patches@@YAHXZ   6600ae20 f   install.obj
 0001:00013c20       ?dumpPtr@@YAXPAU_iobuf@@PADHH1H@Z 66014c20 f   install.obj
 0001:00013ec0       ?dump@@YAXXZ               66014ec0 f   install.obj
 0001:00014400       ?ReloadDll@@YAHXZ          66015400 f   install.obj
 0001:00014db0       _stat                      66015db0 f   common.obj
 0001:00014db0       _stat                      66015db0 f   common.obj
 0001:00015250       ?d2msg@@YAXHPA_WH@Z        66016250 f   common.obj
 0001:00017890       ?comparePet@@YAHPBX0@Z     66018890 f   common.obj
 0001:00017890       ?comparePvp@@YAHPBX0@Z     66018890 f   common.obj
 0001:00017890       ?compareItem@@YAHPBX0@Z    66018890 f   common.obj
 0001:00018590       ?sendPacket43E0Patch_ASM@@YAXXZ 66019590 f   dbg.obj
 0001:000185b0       ?sendPacket43E0@@YIXPADHH@Z 660195b0 f   dbg.obj
 0001:00018600       ?sendPacket3Patch_ASM@@YAXXZ 66019600 f   dbg.obj
 0001:00018620       ?sendPacket3@@YIXDFH@Z     66019620 f   dbg.obj
 0001:00018670       ?clickMenuItemPatch_ASM@@YAXXZ 66019670 f   dbg.obj
 0001:00018690       ?clickMenuItem@@YIXH@Z     66019690 f   dbg.obj
 0001:000192f0       ?gameStart@@YAXXZ          6601a2f0 f   loop.obj
 0001:000197c0       ?checkTag@@YAXPAD@Z        6601a7c0 f   loop.obj
 0001:0001a290       ?updateTargetName@@YAXXZ   6601b290 f   map.obj
 0001:0001a650       ?selectWaypointTarget@@YAXXZ 6601b650 f   map.obj
 0001:0001ac20       ?LoadBmpCellFile@@YAPAUCellFile@@PAD@Z 6601bc20 f   map.obj
 0001:0001acd0       ?InitCellFile@@YAPAUCellFile@@PAU1@@Z 6601bcd0 f   map.obj
 0001:0001ade0       ?DeleteCellFile@@YAXPAUCellFile@@@Z 6601bde0 f   map.obj
 0001:0001b040       ?addCorner@@YAXPAUSC@@HH@Z 6601c040 f   map.obj
 0001:0001b380       ?modifyRescueBarTarget@@YAXXZ 6601c380 f   map.obj
 0001:0001b510       ?target_sort@@YAXPAPAUMinimapLevelTarget@@@Z 6601c510 f   map.obj
 0001:0001b5e0       ?modifySealTarget@@YAXXZ   6601c5e0 f   map.obj
 0001:0001ba40       ?modifyTempleTarget@@YAXXZ 6601ca40 f   map.obj
 0001:0001baf0       ?modifyTeleportTarget@@YAXXZ 6601caf0 f   map.obj
 0001:0001be60       ?ResetAutomapNodeCellNo@@YAXPAUAutomapNode@@@Z 6601ce60 f   map.obj
 0001:0001dad0       ?isConnected@@YAHPAUAreaRectInfo@@0PAUtagPOINT@@@Z 6601ead0 f   map.obj
 0001:0001de30       ?drawAreaRectOnMap@@YAXPAUAreaRectInfo@@H@Z 6601ee30 f   map.obj
 0001:0001dfb0       ?drawAreaRectOnScreen@@YAXPAUAreaRectInfo@@H@Z 6601efb0 f   map.obj
 0001:0001e330       ?DrawMinimapPoint@@YAXXZ   6601f330 f   map.obj
 0001:0001f5a0       ?hex@@YAXPAU_iobuf@@HPAXH@Z 660205a0 f   packet.obj
 0001:00021700       ?drawAARect@@YAXPAURouteRect@@@Z 66022700 f   route.obj
 0001:00021ab0       ?initRectRoute@@YAHPAUMinimapLevelTarget@@@Z 66022ab0 f   route.obj
 0001:00021f00       ?canTeleport@@YAHPAUAreaRectData@@PAURouteRect@@@Z 66022f00 f   route.obj
 0001:00022060       ?recycleRouteInfo@@YAXPAUMinimapLevelTarget@@@Z 66023060 f   route.obj
 0001:000221c0       ?performRectRoute@@YAXPAUMinimapLevelTarget@@@Z 660231c0 f   route.obj
 0001:00022ce0       ?recvWaypointMenu@@YIHPADH@Z 66023ce0 f   waypoint.obj
 0001:00023bb0       ?setWinTitle@@YAXPAUHWND__@@H@Z 66024bb0 f   winmsg.obj
 0001:00024e90       ?keyDown@@YIHHH@Z          66025e90 f   winmsg.obj
 0001:000251d0       ?shouldProcessKey@@YAHHH@Z 660261d0 f   winmsg.obj
 0001:000252d0       ?keyUp@@YIHHH@Z            660262d0 f   winmsg.obj
 0001:00025500       ?createVersionTextBox@@YAXXZ 66026500 f   winmsg.obj
 0001:00025610       ?debugMsDrawUnitStart@@YAXXZ 66026610 f   winmsg.obj
 0001:00025690       ?beforeDrawControl@@YAXXZ  66026690 f   winmsg.obj
 0001:000256d0       ?debugMsDrawControlStart@@YAXXZ 660266d0 f   winmsg.obj
 0001:00025710       ?debugMsDrawControlEnd@@YAXXZ 66026710 f   winmsg.obj
 0001:00025770       ?shouldSkipDrawUnitAndControl@@YAHXZ 66026770 f   winmsg.obj
 0001:00025810       ?shouldSkipAllDrawing@@YAHXZ 66026810 f   winmsg.obj
 0001:000258c0       ?skipDrawMenu2@@YAHXZ      660268c0 f   winmsg.obj
 0001:00025950       ?mainMenuSkip@@YAHXZ       66026950 f   winmsg.obj
 0001:00026230       ?drawGroundRect@@YAXPAUAreaRectData@@@Z 66027230 f   env.obj
 0001:000269d0       ?checkWeapon@@YAXPAUUnitAny@@@Z 660279d0 f   GameMonitor.obj
 0001:00026ad0       ?checkItem@@YAXPAUUnitAny@@H@Z 66027ad0 f   GameMonitor.obj
 0001:000296e0       ?recvState@@YIXPAE@Z       6602a6e0 f   GameMonitor.obj
 0001:00029f50       ?drawUnitsInfoInRect@@YAXPAUAreaRectData@@@Z 6602af50 f   GameMonitor.obj
 0001:0002a500       ?drawPlayerName@@YAXPAUUnitAny@@@Z 6602b500 f   GameMonitor.obj
 0001:0002aca0       ?drawCircle@@YAXPAUUnitAny@@HH@Z 6602bca0 f   GameMonitor.obj
 0001:0002ae30       ?drawBossHp@@YAXPAUUnitAny@@HHH@Z 6602be30 f   GameMonitor.obj
 0001:0002bab0       ?drawEmit@@YAXPAUUnitAny@@HH@Z 6602cab0 f   GameMonitor.obj
 0001:0002bcb0       ?playerSkillOnTarget@@YIXPAD@Z 6602ccb0 f   GameMonitor.obj
 0001:0002dc30       ?LogMessage@@YIXPA_W@Z     6602ec30 f   MessageLog.obj
 0001:0002f780       ?wscolorcpy@@YAPA_WPA_W0E@Z 66030780 f   item.obj
 0001:0002f780       ?wscolorcpy@@YAPA_WPA_W0E@Z 66030780 f   item.obj
 0001:00034560       ?rescanMercPointers@@YAXXZ 66035560 f   dangerous.obj
 0001:00035fc0       ?checkQuest@@YAXHHHPAD@Z   66036fc0 f   quest.obj
 0001:000363f0       ?questAlert@@YAXXZ         660373f0 f   quest.obj
 0001:00037720       ?drawQuestState@@YAXPAG0HHH@Z 66038720 f   quest.obj
 0001:00037a80       ?recv28_quest@@YIXPAD@Z    66038a80 f   quest.obj
 0001:00039c60       ?switchTo@@YAXH@Z          6603ac60 f   bo.obj
 0001:00039d60       ?useSkill@@YAHH@Z          6603ad60 f   bo.obj
 0001:0003a0d0       _time                      6603b0d0 f   d2s.obj
 0001:0003b280       ?hasProp@@YAHPAUUnitAny@@HH@Z 6603c280 f   DropProtection.obj
 0001:0003b700       ?deleteCharacterCallback@@YIXPAD0@Z 6603c700 f   DropProtection.obj
 0001:0003b790       ?canDeleteCharacter@@YIHPAUD2Character@@@Z 6603c790 f   DropProtection.obj
 0001:0003bfe0       ?skipMenuItem@@YIHPAUMenuItem@@@Z 6603cfe0 f   DropProtection.obj
 0001:0003c9e0       ?findTargetItem@@YAPAUUnitAny@@H@Z 6603d9e0 f   DropProtection.obj
 0001:0003d090       ?doEnchant@@YAHPAUUnitAny@@@Z 6603e090 f   enchant.obj
 0001:0003e550       ?sortGameList@@YAXXZ       6603f550 f   mcp.obj
 0001:0003e590       ?compareMcp05Game@@YAHPBX0@Z 6603f590 f   mcp.obj
 0001:0003e5e0       ?showGameListDifficulty@@YIXPAXPAD@Z 6603f5e0 f   mcp.obj
 0001:0003e870       ?compareCharTag@@YAHPBX0@Z 6603f870 f   login.obj
 0001:0003ef10       ?c2w@@YAXPADPA_W@Z         6603ff10 f   login.obj
 0001:0003f090       ?selectChar@@YIXH@Z        66040090 f   login.obj
 0001:00042030       ?teamMemberInArea@@YAHH@Z  66043030 f   multi.obj
 0001:000420d0       ?interactObject@@YAXXZ     660430d0 f   multi.obj
 0001:00042710       ?sendStartFollowCmd@@YAHPAUD2Window@@@Z 66043710 f   multi.obj
 0001:00042740       ?sendStopFollowCmd@@YAHPAUD2Window@@@Z 66043740 f   multi.obj
 0001:000439b0       ?doTransferClick@@YAHHPAUUnitAny@@HH@Z 660449b0 f   multi.obj
 0001:00043fb0       ?protect3BB@@YAHXZ         66044fb0 f   multi.obj
 0001:00044280       ?recvCommand77@@YIXPAD@Z   66045280 f   multi.obj
 0001:00044490       ?recvCommand78@@YIXPAD@Z   66045490 f   multi.obj
 0001:00044740       ?checkItems@@YAXHH@Z       66045740 f   NpcTrade.obj
 0001:00044880       ?checkItem@@YAXPAUUnitAny@@H@Z 66045880 f   NpcTrade.obj
 0001:00045420       ?CheckInvite@@YAHXZ        66046420 f   party.obj
 0001:00045470       ?invitePlayerLater@@YAXHPADH@Z 66046470 f   party.obj
 0001:00045770       ?autoPartyBugMF@@YAHXZ     66046770 f   party.obj
 0001:00045860       ?recv5A@@YGXPAD@Z          66046860 f   party.obj
 0001:00045d50       ?setLootPermit@@YAXHPAD@Z  66046d50 f   party.obj
 0001:00045ee0       ?recvCommand5B@@YIXPAE@Z   66046ee0 f   party.obj
 0001:00045fb0       ?assignPlayer@@YIXPAD@Z    66046fb0 f   party.obj
 0001:000460f0       ?recv8C@@YIXPAD@Z          660470f0 f   party.obj
 0001:000474d0       ?canPutIn@@YAHPADHHHH@Z    660484d0 f   QuickSwapItem.obj
 0001:00047d50       ?updateCubeInvMap@@YAXXZ   66048d50 f   QuickSwapItem.obj
 0001:000482a0       ?dropItemToGound@@YAHXZ    660492a0 f   QuickSwapItem.obj
 0001:00048310       ?updateInv@@YAXPAUInventoryType@@H@Z 66049310 f   QuickSwapItem.obj
 0001:000483c0       ?putIntoSimpleItemStack@@YAHXZ 660493c0 f   QuickSwapItem.obj
 0001:00048480       ?findSimpleItemStack@@YAPAUUnitAny@@H@Z 66049480 f   QuickSwapItem.obj
 0001:00048a60       ?pickupItem@@YAHPAUUnitAny@@@Z 66049a60 f   QuickSwapItem.obj
 0001:00048af0       ?findGemInv@@YAPAUUnitAny@@HH@Z 66049af0 f   QuickSwapItem.obj
 0001:00049630       ?getGlobalBeltSlotPosition@@YIXPAH0@Z 6604a630 f   resolution.obj
 0001:000496e0       ?getGlobalBeltRecord@@YIXPAH@Z 6604a6e0 f   resolution.obj
 0001:000497a0       ?adjWinRectEx@@YGHHPAUtagRECT@@HHH@Z 6604a7a0 f   resolution.obj
 0001:0004a250       ?isAutoSkill@@YAHPAUSkill@@@Z 6604b250 f   skill.obj
 0001:0004a3b0       ?checkAutoSkill1@@YAXHH@Z  6604b3b0 f   skill.obj
 0001:0004ac80       ?updateSkill@@YAXPAUAutoSkillInfo@@H@Z 6604bc80 f   skill.obj
 0001:0004b300       ?processStacking@@YAXXZ    6604c300 f   skill.obj
 0001:0004b440       ?canUse@@YAHPAUAutoSkillInfo@@@Z 6604c440 f   skill.obj
 0001:0004b520       ?checkUnit@@YAXPAUUnitAny@@@Z 6604c520 f   skill.obj
 0001:0004cfc0       ?getLvPercent@@YAHPAUUnitAny@@@Z 6604dfc0 f   Snapshot.obj
 0001:0004dac0       ?countGemRunes@@YAXPAUUnitAny@@@Z 6604eac0 f   Snapshot.obj
 0001:0004deb0       ?isStartEq@@YAHPAUUnitAny@@@Z 6604eeb0 f   Snapshot.obj
 0001:0004e1a0       ?dumpStats@@YAHPAU_iobuf@@PAUStat@@@Z 6604f1a0 f   Snapshot.obj
 0001:0004e590       ?dumpInventory@@YAXXZ      6604f590 f   Snapshot.obj
 0001:0004ec90       ?dumpUnit@@YAXPAU_iobuf@@PAUUnitAny@@@Z 6604fc90 f   Snapshot.obj
 0001:0004f700       ?outputGemRune@@YAXPAU_iobuf@@@Z 66050700 f   Snapshot.obj
 0001:0004f990       ?dumpItem@@YAXPAU_iobuf@@PAUUnitAny@@HH@Z 66050990 f   Snapshot.obj
 0001:00050a30       ?addItem@@YAXPAUUnitAny@@H@Z 66051a30 f   Snapshot.obj
 0001:00050dc0       ?dumpItems@@YAXPAU_iobuf@@PAUUnitAny@@H@Z 66051dc0 f   Snapshot.obj
 0001:00050ea0       ?dumpQuests@@YAXPAU_iobuf@@@Z 66051ea0 f   Snapshot.obj
 0001:00051610       ?dumpTodo@@YAXPAU_iobuf@@HPADPAUQ@@@Z 66052610 f   Snapshot.obj
 0001:00051730       ?loadQuests@@YAXXZ         66052730 f   Snapshot.obj
 0001:00051800       ?dumpWaypoints@@YAXPAU_iobuf@@@Z 66052800 f   Snapshot.obj
 0001:000519a0       ?dumpSkills@@YAXPAU_iobuf@@PAUUnitAny@@@Z 660529a0 f   Snapshot.obj
 0001:00051ab0       ?dumpSkill@@YAXPAU_iobuf@@PAUSkill@@@Z 66052ab0 f   Snapshot.obj
 0001:00051bc0       ?dumpObject@@YAXPAU_iobuf@@PAUUnitAny@@@Z 66052bc0 f   Snapshot.obj
 0001:00051d20       ?dumpAreatile@@YAXPAU_iobuf@@PAUUnitAny@@@Z 66052d20 f   Snapshot.obj
 0001:00052820       ?doDeleteSnapshotFile@@YAXPAD@Z 66053820 f   Snapshot.obj
 0001:00053330       ?saveItem@@YAXPAU_iobuf@@PAUUnitAny@@@Z 66054330 f   snap.obj
 0001:00053780       ?formatItems2@@YAHPAU_iobuf@@0H@Z 66054780 f   snap.obj
 0001:00053970       ?formatItem@@YAXPAU_iobuf@@0HH@Z 66054970 f   snap.obj
 0001:00054670       ?isAllAttr@@YAHPAUStatEx@@@Z 66055670 f   snap.obj
 0001:000546e0       ?isAllResist@@YAHPAUStatEx@@@Z 660556e0 f   snap.obj
 0001:00054750       ?isSocketable@@YAHH@Z      66055750 f   snap.obj
 0001:00055820       ?checkSummonSkillLevel@@YAXXZ 66056820 f   summon.obj
 0001:00055980       ?getSummonCount@@YAHH@Z    66056980 f   summon.obj
 0001:000559b0       ?needSummon@@YAHXZ         660569b0 f   summon.obj
 0001:00055bc0       ?switchSummonSkill@@YAXH@Z 66056bc0 f   summon.obj
 0001:00055bf0       ?checkUnit@@YAXPAUUnitAny@@@Z 66056bf0 f   summon.obj
 0001:00055f10       ?dumpMonsterInfo@@YIXH@Z   66056f10 f   summon.obj
 0001:00056700       ?isMonster@@YAHPAUUnitAny@@@Z 66057700 f   teleport.obj
 0001:00056780       ?findMonsters@@YAXH@Z      66057780 f   teleport.obj
 0001:00056b50       ?addMonMap@@YAXHH@Z        66057b50 f   teleport.obj
 0001:00056bb0       ?resetMonsters@@YAXXZ      66057bb0 f   teleport.obj
 0001:00056c30       ?calBoundingBox@@YAXXZ     66057c30 f   teleport.obj
 0001:00056d70       ?addPossiblePostions@@YAXPAUAreaRectData@@0PAUtagPOINT@@H@Z 66057d70 f   teleport.obj
 0001:00057190       ?disM256@@YAHPAUtagPOINT@@0@Z 66058190 f   teleport.obj
 0001:000571c0       ?hasMon@@YAHHH@Z           660581c0 f   teleport.obj
 0001:00057220       ?findValidPosition@@YAHXZ  66058220 f   teleport.obj
 0001:00057300       ?comparePos@@YAHPBX0@Z     66058300 f   teleport.obj
 0001:00057320       ?dis@@YAHPAUtagPOINT@@0@Z  66058320 f   teleport.obj
 0001:00057ab0       ?findBoss@@YAHHH@Z         66058ab0 f   teleport.obj
 0001:00057b80       ?getMonDis@@YAHPAUtagPOINT@@@Z 66058b80 f   teleport.obj
 0001:00057be0       ?interact@@YAXPAUtagPOINT@@HH@Z 66058be0 f   teleport.obj
 0001:00057cc0       ?interactObj@@YAXPAUUnitAny@@@Z 66058cc0 f   teleport.obj
 0001:00057e80       ?teleportForward@@YAHXZ    66058e80 f   teleport.obj
 0001:000582b0       ?teleportToSafety@@YAHXZ   660592b0 f   teleport.obj
 0001:00058570       ?savePrevMonsters@@YAXXZ   66059570 f   teleport.obj
 0001:00058640       ?findSafestPosition@@YAHXZ 66059640 f   teleport.obj
 0001:000586d0       ?tpToBoss@@YAHXZ           660596d0 f   teleport.obj
 0001:00058890       ?autoTarget@@YAHXZ         66059890 f   teleport.obj
 0001:00058a90       ?telekinesisTarget@@YAHPAUUnitAny@@@Z 66059a90 f   teleport.obj
 0001:00058da0       ?findTelekinesisPosition@@YAHXZ 66059da0 f   teleport.obj
 0001:00058e90       ?autoDuranceofHateLevel3@@YAHXZ 66059e90 f   teleport.obj
 0001:00059110       ?dumpProp@@YAXPAU_iobuf@@PAUItemProp@@@Z 6605a110 f   txt.obj
 0001:00059290       ?dumpItemTxt@@YAXXZ        6605a290 f   txt.obj
 0001:00059400       ?dumpUniqueTxt@@YAXXZ      6605a400 f   txt.obj
 0001:00059610       ?dumpSetTxt@@YAXXZ         6605a610 f   txt.obj
 0001:00059cd0       ?setStash@@YAXHH@Z         6605acd0 f   panel.obj
 0001:00059e30       ?setCube@@YAXH@Z           6605ae30 f   panel.obj
 0001:00059fb0       ?setCharInv@@YAXHH@Z       6605afb0 f   panel.obj
 0001:0005a1d0       ?loadInvChar8x10@@YAXXZ    6605b1d0 f   panel.obj
 0001:0005a230       ?calDrawOffset@@YAXXZ      6605b230 f   panel.obj
 0001:0005a2c0       ?getEquipmentSlotLayout@@YIXPAH0@Z 6605b2c0 f   panel.obj
 0001:0005a360       ?getEquipInvDrawOffset@@YAXPAH0PAX@Z 6605b360 f   panel.obj
 0001:0005a460       ?getInventoryGridLayout@@YIXPAH0@Z 6605b460 f   panel.obj
 0001:0005a510       ?getInventoryPosition@@YIXPAH0@Z 6605b510 f   panel.obj
 0001:0005a5c0       ?addSkillPatch@@YIXH@Z     6605b5c0 f   panel.obj
 0001:0005a640       ?recvCommand26@@YIXPAD@Z   6605b640 f   panel.obj
 0001:0005a9c0       ?guessInvType@@YAHHH@Z     6605b9c0 f   panel.obj
 0001:0005a9e0       ?guessStashType@@YAHHH@Z   6605b9e0 f   panel.obj
 0001:0005aa00       ?guessCubeType@@YAHHH@Z    6605ba00 f   panel.obj
 0001:0005b9e0       ?SetSkillBaseLevelOnClient@@YAXPAXPAUUnitAny@@HHH@Z 6605c9e0 f   server.obj
 0001:0005bf50       ?resetQuest@@YAXPAUWorld@@PAUUnitAny@@H@Z 6605cf50 f   server.obj
 0001:0005c1b0       ?gameStart@@YIXPAUNetClient@@@Z 6605d1b0 f   server.obj
 0001:0005c200       ?createHackmapMsg@@YAXXZ   6605d200 f   server.obj
 0001:0005c350       ?serverRecvTest@@YAXPAUWorld@@PAUUnitAny@@H@Z 6605d350 f   server.obj
 0001:0005c410       ?necSummon@@YAPAUUnitAny@@PAUNecSummon@@@Z 6605d410 f   server.obj
 0001:0005c9d0       ?clientChat@@YIXPAD@Z      6605d9d0 f   admin.obj
 0001:0005cf30       ?selectUnique@@YIHHH@Z     6605df30 f   admin.obj
 0001:0005d010       ?selectSet@@YIHPAHH@Z      6605e010 f   admin.obj
 0001:0005e3a0       ?dropItem@@YAPAUUnitAny@@PAUWorld@@PAU1@HHHH@Z 6605f3a0 f   admin.obj
 0001:0005e540       ?getFreePos@@YAPAUAreaRectData@@PAU1@PAUtagPOINT@@1H@Z 6605f540 f   admin.obj
 0001:0005e560       ?dropRuneword@@YAPAUUnitAny@@PAUWorld@@PAU1@HHH@Z 6605f560 f   admin.obj
 0001:0005e7b0       ?dropUnique@@YAPAUUnitAny@@PAUWorld@@PAU1@HHH@Z 6605f7b0 f   admin.obj
 0001:0005e8d0       ?dropSet@@YAPAUUnitAny@@PAUWorld@@PAU1@HHH@Z 6605f8d0 f   admin.obj
 0001:0005e9a0       ?setItemStats@@YAXPAUUnitAny@@PAUd2stats@@@Z 6605f9a0 f   admin.obj
 0001:0005eab0       ?parseStats@@YAPADPADPAUd2stats@@@Z 6605fab0 f   admin.obj
 0001:000602c0       ?setStat@@YAHPAUd2stats@@HHH@Z 660612c0 f   admin.obj
 0001:00060350       ?pickupItemTo@@YAXPAUWorld@@PAUUnitAny@@1H@Z 66061350 f   admin.obj
 0001:000612fd       _flsall                    660622fd f   LIBCMT:fflush.obj
 0001:00061b50       _swap                      66062b50 f   LIBCMT:qsort.obj
 0001:00061b80       _shortsort                 66062b80 f   LIBCMT:qsort.obj
 0001:000625ef       ?strtoxl@@YAKPAUlocaleinfo_struct@@PBDPAPBDHH@Z 660635ef f   LIBCMT:strtol.obj
 0001:00063843       _IsRootUNCName             66064843 f   LIBCMT:stati32.obj
 0001:000638bd       __fullpath_helper          660648bd f   LIBCMT:stati32.obj
 0001:00064ad9       ?_strupr_s_l_stat@@YAHPADIPAUlocaleinfo_struct@@@Z 66065ad9 f   LIBCMT:strupr.obj
 0001:00064cf1       ?wcstoxl@@YAKPAUlocaleinfo_struct@@PB_WPAPB_WHH@Z 66065cf1 f   LIBCMT:wcstol.obj
 0001:000652de       ___DllMainCRTStartup       660662de f   LIBCMT:dllcrt0.obj
 0001:000653f7       ?CPtoLCID@@YAHH@Z          660663f7 f   LIBCMT:mbctype.obj
 0001:00065426       ?setSBCS@@YAXPAUthreadmbcinfostruct@@@Z 66066426 f   LIBCMT:mbctype.obj
 0001:0006548a       ?setSBUpLow@@YAXPAUthreadmbcinfostruct@@@Z 6606648a f   LIBCMT:mbctype.obj
 0001:000656c1       ?getSystemCP@@YAHH@Z       660666c1 f   LIBCMT:mbctype.obj
 0001:00065d4b       __updatetlocinfoEx_nolock  66066d4b f   LIBCMT:setlocal.obj
 0001:0006732d       _write_char                6606832d f   LIBCMT:output.obj
 0001:00067360       _write_multi_char          66068360 f   LIBCMT:output.obj
 0001:00067386       _write_string              66068386 f   LIBCMT:output.obj
 0001:00068477       _fastzero_I                66069477 f   LIBCMT:p4_memset.obj
 0001:0006855d       _has_osfxsr_set            6606955d f   LIBCMT:cpu_disp.obj
 0001:000693ea       _fastcopy_I                6606a3ea f   LIBCMT:p4_memcpy.obj
 0001:0006960c       ?__crtLCMapStringA_stat@@YAHPAUlocaleinfo_struct@@KKPBDHPADHHH@Z 6606a60c f   LIBCMT:a_map.obj
 0001:00069c74       __initterm                 6606ac74 f   LIBCMT:crt0dat.obj
 0001:00069d3a       _doexit                    6606ad3a f   LIBCMT:crt0dat.obj
 0001:0006a046       __shift                    6606b046 f   LIBCMT:cvt.obj
 0001:0006a08b       __cftoe2_l                 6606b08b f   LIBCMT:cvt.obj
 0001:0006a65d       __cftof2_l                 6606b65d f   LIBCMT:cvt.obj
 0001:0006aaf8       __unwind_handler4          6606baf8 f   LIBCMT:exsup4.obj
 0001:0006b9f8       __onexit_nolock            6606c9f8 f   LIBCMT:onexit.obj
 0001:0006d25a       _parse_cmdline             6606e25a f   LIBCMT:stdargv.obj
 0001:0006d848       ?__crtGetStringTypeA_stat@@YAHPAUlocaleinfo_struct@@KPBDHPAGHHH@Z 6606e848 f   LIBCMT:a_str.obj
 0001:0006ee9c       _siglookup                 6606fe9c f   LIBCMT:winsig.obj
 0001:0006f5a4       __unwind_handler           660705a4 f   LIBCMT:exsup.obj
 0001:0006febe       __tzset_nolock             66070ebe f   LIBCMT:tzset.obj
 0001:00070204       _cvtdate                   66071204 f   LIBCMT:tzset.obj
 0001:000703fb       __isindst_nolock           660713fb f   LIBCMT:tzset.obj
 0001:00070764       __tsopen_nolock            66071764 f   LIBCMT:open.obj
 0001:000714b5       ?x_ismbbtype_l@@YAHPAUlocaleinfo_struct@@IHH@Z 660724b5 f   LIBCMT:ismbbyte.obj
 0001:0007328d       __hw_cw                    6607428d f   LIBCMT:_ieee87_.obj
 0001:0007331b       ___hw_cw_sse2              6607431b f   LIBCMT:_ieee87_.obj
 0001:000744e3       ?strncnt@@YAHPBDH@Z        660754e3 f   LIBCMT:a_cmp.obj
 0001:00074501       ?__crtCompareStringA_stat@@YAHPAUlocaleinfo_struct@@KKPBDH1HH@Z 66075501 f   LIBCMT:a_cmp.obj
 0001:000749ad       _findenv                   660759ad f   LIBCMT:setenv.obj
 0001:000749ff       _copy_environ              660759ff f   LIBCMT:setenv.obj
 0001:00074d84       ??__Fnomem@?5???2@YAPAXI@Z@YAXXZ 66075d84 f   LIBCMT:new.obj
