 d2hackmap

 Timestamp is 686a2a9d (Sun Jul 06 15:49:49 2025)

 Preferred load address is 66000000

 Start         Length     Name                   Class
 0001:00000000 00074774H .text                   CODE
 0001:00074774 00000014H .text$yd                CODE
 0002:00000000 0000021cH .idata$5                DATA
 0002:0000021c 00000004H .CRT$XCA                DATA
 0002:00000220 00000004H .CRT$XCZ                DATA
 0002:00000224 00000004H .CRT$XIA                DATA
 0002:00000228 00000014H .CRT$XIC                DATA
 0002:0000023c 00000004H .CRT$XIZ                DATA
 0002:00000240 00000004H .CRT$XPA                DATA
 0002:00000244 00000004H .CRT$XPX                DATA
 0002:00000248 00000004H .CRT$XPXA               DATA
 0002:0000024c 00000004H .CRT$XPZ                DATA
 0002:00000250 00000004H .CRT$XTA                DATA
 0002:00000254 00000004H .CRT$XTZ                DATA
 0002:00000260 000192c0H .rdata                  DATA
 0002:00019520 000000dcH .rdata$r                DATA
 0002:00019600 0000000cH .rdata$sxdata           DATA
 0002:0001960c 00000004H .rtc$IAA                DATA
 0002:00019610 00000004H .rtc$IZZ                DATA
 0002:00019614 00000004H .rtc$TAA                DATA
 0002:00019618 00000004H .rtc$TZZ                DATA
 0002:00019620 00000754H .xdata$x                DATA
 0002:00019d74 0000003cH .idata$2                DATA
 0002:00019db0 00000014H .idata$3                DATA
 0002:00019dc4 0000021cH .idata$4                DATA
 0002:00019fe0 0000096eH .idata$6                DATA
 0002:0001a950 000000c7H .edata                  DATA
 0003:00000000 0000afa8H .data                   DATA
 0003:0000afc0 00206444H .bss                    DATA

  Address         Publics by Value              Rva+Base       Lib:Object

 0000:00000000       __except_list              00000000     <absolute>
 0000:00000003       ___safe_se_handler_count   00000003     <absolute>
 0000:00000000       ___ImageBase               66000000     <linker-defined>
 0001:00000000       ?bitstream_init@@YAXPAUbitstream@@PAX1@Z 66001000 f   bitstream.obj
 0001:00000040       ?bitstream_seek@@YAXPAUbitstream@@H@Z 66001040 f   bitstream.obj
 0001:00000080       ?bitstream_rbit@@YAHPAUbitstream@@H@Z 66001080 f   bitstream.obj
 0001:00000170       ?bitstream_wbit@@YAHPAUbitstream@@IH@Z 66001170 f   bitstream.obj
 0001:00000250       ?bitstream_wbit_done@@YAXPAUbitstream@@@Z 66001250 f   bitstream.obj
 0001:000002d0       ?compareConfigVar@@YAHPBX0@Z 660012d0 f   config.obj
 0001:000002f0       ?compareSymbol@@YAHPBX0@Z  660012f0 f   config.obj
 0001:00000310       ?findConfigVar@@YAPAUConfigVar@@PAD@Z 66001310 f   config.obj
 0001:00000400       ?addConfigVar@@YAXPAUConfigVar@@@Z 66001400 f   config.obj
 0001:00000470       ?FixValues@@YAXXZ          66001470 f   config.obj
 0001:000004b0       ?formatKey@@YAXPADH@Z      660014b0 f   config.obj
 0001:00000560       ?formatKeyW@@YAXPA_WH@Z    66001560 f   config.obj
 0001:00000690       ?setupKey@@YAXPAUToggleVar@@@Z 66001690 f   config.obj
 0001:000006e0       ?addExtraKey@@YAPAUToggleVar@@H@Z 660016e0 f   config.obj
 0001:00000740       ?InitKeyEvent@@YAXXZ       66001740 f   config.obj
 0001:00000af0       ?AddWarningMessage@@YAXPADH@Z 66001af0 f   config.obj
 0001:00000c30       ?ShowWarningMessage@@YAXXZ 66001c30 f   config.obj
 0001:00000c90       ?isquote@@YADD@Z           66001c90 f   config.obj
 0001:00000cc0       ?filterSpace@@YAXPAD@Z     66001cc0 f   config.obj
 0001:00000d80       ?splitLine@@YAXPADPAPAD1@Z 66001d80 f   config.obj
 0001:00000e50       ?strchr@@YAPADPADH@Z       66001e50 f i config.obj
 0001:00000e70       ?strrchr@@YAPADPADH@Z      66001e70 f i config.obj
 0001:00000e90       ?findSymbol@@YAPAUSymbol@@PAD@Z 66001e90 f   config.obj
 0001:00000f50       ?doneNameValues@@YAXXZ     66001f50 f   config.obj
 0001:00000ff0       ?addNameValue@@YAXPAD0@Z   66001ff0 f   config.obj
 0001:00001080       ?replaceSymbols@@YAPADPAD@Z 66002080 f   config.obj
 0001:00001420       ?ConvertToWString@@YAHPA_WPADH@Z 66002420 f   config.obj
 0001:00001450       ?ConvertToD2String@@YAXPA_WPADH@Z 66002450 f   config.obj
 0001:000015a0       ?StoreArrayConfig@@YAHPAUConfigVar@@HHPAD1HH@Z 660025a0 f   config.obj
 0001:00001ac0       ?LoadConfigFile@@YAHPADH@Z 66002ac0 f   config.obj
 0001:00002360       ?strstr@@YAPADPADPBD@Z     66003360 f i config.obj
 0001:00004b10       ?ReleaseMem@@YAXXZ         66005b10 f   DllMain.obj
 0001:00004b30       _DllMain@12                66005b30 f   DllMain.obj
 0001:00004d00       _QueryInterface@0          66005d00 f   DllMain.obj
 0001:00004d20       _PatchClient               66005d20 f   DllMain.obj
 0001:00004d70       _MainMenuFlushFramebuf@0   66005d70 f   DllMain.obj
 0001:00004d90       _PatchServer@4             66005d90 f   DllMain.obj
 0001:00004dd0       ?guessEnchantLevel@@YAHXZ  66005dd0 f   guess.obj
 0001:00004e80       ?guessBOLevel@@YAHH@Z      66005e80 f   guess.obj
 0001:000056b0       ?Install_AddConfigVars@@YAXXZ 660066b0 f   install.obj
 0001:000056f0       ?Install_FixValues@@YAXXZ  660066f0 f   install.obj
 0001:00005710       ?get_dll_addr@@YAPAUHINSTANCE__@@PAD@Z 66006710 f   install.obj
 0001:000057a0       ?VirtualProtect@@YAKKKK@Z  660067a0 f   install.obj
 0001:000057d0       ?WriteLocalBYTES@@YAXKPAXH@Z 660067d0 f   install.obj
 0001:00005820       ?FillLocalBYTES@@YAXKEH@Z  66006820 f   install.obj
 0001:00005880       ?InterceptLocalCode2@@YAXEKKH@Z 66006880 f   install.obj
 0001:00005900       ?InterceptLocalCode@@YAXEKKH@Z 66006900 f   install.obj
 0001:00005930       ?patchCall@@YAHPAD0HHHH0@Z 66006930 f   install.obj
 0001:00005980       ?patchJmp@@YAHPAD0HHHH0@Z  66006980 f   install.obj
 0001:000059d0       ?patchFill@@YAHPAD0HHHH0@Z 660069d0 f   install.obj
 0001:00005a20       ?patchValue@@YAHPAD0HHHH0@Z 66006a20 f   install.obj
 0001:00005a70       ?installPatch@@YAHP6AXHHH@ZPAD1HHHH1@Z 66006a70 f   install.obj
 0001:00005e00       ?removePatches@@YAHPAPAUInstalledPatch@@@Z 66006e00 f   install.obj
 0001:00005e80       ?init_d2_ptrs@@YAHH@Z      66006e80 f   install.obj
 0001:000098c0       ?init_d2_ptrs2@@YAHXZ      6600a8c0 f   install.obj
 0001:00009930       ?InstallPatchAfterLoad_ASM@@YAXXZ 6600a930 f   install.obj
 0001:00009c20       ?setResolutionPatch@@YAXH@Z 6600ac20 f   install.obj
 0001:00009c70       ?MonitorPacket@@YAXXZ      6600ac70 f   install.obj
 0001:0000bfe0       ?check_d2ptrs@@YAXXZ       6600cfe0 f   install.obj
 0001:00013c00       ?Install@@YAHXZ            66014c00 f   install.obj
 0001:000141b0       ?patchServer@@YAXXZ        660151b0 f   install.obj
 0001:00014210       @SetReloadFlag@8           66015210 f   install.obj
 0001:00014240       @SetBnetIp@4               66015240 f   install.obj
 0001:00014260       ?unpatchServer@@YAXXZ      66015260 f   install.obj
 0001:000142b0       ?Uninstall@@YAXXZ          660152b0 f   install.obj
 0001:000143d0       ?ReloadConfig@@YAHXZ       660153d0 f   install.obj
 0001:00014530       ?init_crypt_table@@YAXXZ   66015530 f   mpq.obj
 0001:000145d0       ?mpq_hashstring@@YAIPBDI@Z 660155d0 f   mpq.obj
 0001:00014650       ?saveMpqTable@@YAXXZ       66015650 f   mpq.obj
 0001:00014700       ?add_mpq_path@@YIHPAD@Z    66015700 f   mpq.obj
 0001:00014830       ?dump_mpq_path@@YIXH@Z     66015830 f   mpq.obj
 0001:000149d0       ?storm268_patch_ASM@@YAXXZ 660159d0 f   mpq.obj
 0001:00014a00       ?common_addConfigVars@@YAXXZ 66015a00 f   common.obj
 0001:00014a40       ?UnicodeFix2@@YAXPA_W@Z    66015a40 f   common.obj
 0001:00014ad0       ?MyMultiByteToWideChar@@YAHIKPBDHPA_WH@Z 66015ad0 f   common.obj
 0001:00014b10       ?GB2GBK@@YAXPAD@Z          66015b10 f   common.obj
 0001:00014c90       ?readFully@@YAHPAU_iobuf@@PADH@Z 66015c90 f   common.obj
 0001:00014cf0       ?getFileSize@@YAHPBD@Z     66015cf0 f   common.obj
 0001:00014d40       ?fileExist@@YAHPBD@Z       66015d40 f   common.obj
 0001:00014d60       ?openFile@@YAPAU_iobuf@@PAD0@Z 66015d60 f   common.obj
 0001:00014e70       ?heap_strdup@@YAPADPAXPAD@Z 66015e70 f   common.obj
 0001:00014ef0       ?loadFile@@YAPADPAXPAU_iobuf@@PAH@Z 66015ef0 f   common.obj
 0001:00015040       ?mainMenuMsg@@YAXPA_WH@Z   66016040 f   common.obj
 0001:00015100       ?gameMessage@@YAXPADZZ     66016100 f   common.obj
 0001:00015210       ?partyMessage@@YAXPADZZ    66016210 f   common.obj
 0001:000152d0       ?gameMessageW@@YAXPA_WZZ   660162d0 f   common.obj
 0001:00015320       ?gameMessageWColor@@YAXHPA_WZZ 66016320 f   common.obj
 0001:00015380       ?partyMessageW@@YAXPA_WZZ  66016380 f   common.obj
 0001:000153d0       ?partyMessageWColor@@YAXHPA_WZZ 660163d0 f   common.obj
 0001:00015430       ?get_cpu_usage@@YAHPAH0@Z  66016430 f   common.obj
 0001:00015510       ?getSkillClass@@YAHH@Z     66016510 f   common.obj
 0001:00015560       ?getSkillType@@YAHHH@Z     66016560 f   common.obj
 0001:000155b0       ?getSkillLevel@@YAHPAUUnitAny@@H@Z 660165b0 f   common.obj
 0001:00015710       ?getUnitRawDistance2@@YAHPAUUnitAny@@0@Z 66016710 f   common.obj
 0001:00015820       ?getUnitYardDistance2@@YAMPAUUnitAny@@0@Z 66016820 f   common.obj
 0001:00015860       ?saveDistanceMap@@YAXXZ    66016860 f   common.obj
 0001:000158c0       ?getDistanceM256@@YAHHH@Z  660168c0 f   common.obj
 0001:000159f0       ?getPlayerDistanceM256@@YAHPAUUnitAny@@@Z 660169f0 f   common.obj
 0001:00015a80       ?getPlayerDistanceRaw@@YAMPAUUnitAny@@@Z 66016a80 f   common.obj
 0001:00015b20       ?getPlayerDistanceYard@@YAMPAUUnitAny@@@Z 66016b20 f   common.obj
 0001:00015b50       ?getRosterUnit@@YAPAURosterUnit@@H@Z 66016b50 f   common.obj
 0001:00015b90       ?getAreatileByTxt@@YAPAUUnitAny@@H@Z 66016b90 f   common.obj
 0001:00015bf0       ?findObjectByTxt@@YAPAUUnitAny@@HHH@Z 66016bf0 f   common.obj
 0001:00015ca0       ?getPortalToArea@@YAPAUUnitAny@@HPAD@Z 66016ca0 f   common.obj
 0001:00015de0       ?getAreatileTxtToLevel@@YAHH@Z 66016de0 f   common.obj
 0001:00015e40       ?getSinglePlayerWorld@@YAPAUWorld@@XZ 66016e40 f   common.obj
 0001:00015e70       ?encodeItem@@YAHPAUUnitAny@@PADH@Z 66016e70 f   common.obj
 0001:00015eb0       ?hasSkill@@YAHH@Z          66016eb0 f   common.obj
 0001:00015f30       ?selectSkill@@YAXHH@Z      66016f30 f   common.obj
 0001:00015f80       ?switchLeftSkill@@YAXH@Z   66016f80 f   common.obj
 0001:00015fa0       ?switchRightSkill@@YAXH@Z  66016fa0 f   common.obj
 0001:00015fd0       ?getSinglePlayerUnit@@YAPAUUnitAny@@HH@Z 66016fd0 f   common.obj
 0001:000160a0       ?SendPacket@@YAXPAEH@Z     660170a0 f   common.obj
 0001:00016130       ?LeftClickType@@YAHHPAUUnitAny@@HH@Z 66017130 f   common.obj
 0001:00016210       ?LeftClickPos@@YAHHH@Z     66017210 f   common.obj
 0001:00016230       ?LeftClickUnit@@YAHPAUUnitAny@@@Z 66017230 f   common.obj
 0001:00016250       ?ShiftLeftClickUnit@@YAHPAUUnitAny@@@Z 66017250 f   common.obj
 0001:000162a0       ?ShiftLeftClickPos@@YAHHH@Z 660172a0 f   common.obj
 0001:000162f0       ?RightSkill@@YAHPAUUnitAny@@HH@Z 660172f0 f   common.obj
 0001:00016340       ?RightSkillPos@@YAHHH@Z    66017340 f   common.obj
 0001:00016360       ?RightSkillUnit@@YAHPAUUnitAny@@@Z 66017360 f   common.obj
 0001:00016390       ?canUseSkillNow@@YAHPAUUnitAny@@H@Z 66017390 f   common.obj
 0001:000163b0       ?skillUnusableAsm@@YAHPAUUnitAny@@PAUSkill@@@Z 660173b0 f   common.obj
 0001:000163d0       ?skillUnusable@@YAHPAUUnitAny@@PAUSkill@@@Z 660173d0 f   common.obj
 0001:00016410       ?useBelt@@YAXHH@Z          66017410 f   common.obj
 0001:00016490       ?GameControlStart@@YAHH@Z  66017490 f   common.obj
 0001:00016520       ?GameControlEnd@@YAHH@Z    66017520 f   common.obj
 0001:000165a0       ?GameControl@@YAXH@Z       660175a0 f   common.obj
 0001:000165c0       ?getGameControlKey@@YAHH@Z 660175c0 f   common.obj
 0001:00016610       ?sqrt@@YAMM@Z              66017610 f i common.obj
 0001:00016630       _sqrtf                     66017630 f i common.obj
 0001:00016650       ?StandStillPatch_ASM@@YAXXZ 66017650 f   common.obj
 0001:00016670       ?setBottomAlertMsg@@YAXHPA_WHHHH@Z 66017670 f   common.obj
 0001:00016750       ?setBottomAlertBg@@YAXHHH@Z 66017750 f   common.obj
 0001:000167a0       ?DrawCenterAlertMsg@@YAXXZ 660177a0 f   common.obj
 0001:00016920       ?GetAreaLevel@@YAHXZ       66017920 f   common.obj
 0001:00016980       ?GetPetByType@@YAPAUPetUnit@@PAUUnitAny@@H@Z 66017980 f   common.obj
 0001:000169d0       ?GetUnitFromIdSafe@@YAPAUUnitAny@@KK@Z 660179d0 f   common.obj
 0001:00016a40       ?GetUnitPet@@YAPAUUnitAny@@PAU1@@Z 66017a40 f   common.obj
 0001:00016a80       ?getPlayerClass@@YAHH@Z    66017a80 f   common.obj
 0001:00016ac0       ?GetUnitMagicStat@@YAKPAUUnitAny@@K@Z 66017ac0 f   common.obj
 0001:00016b10       ?GetUnitResist@@YAHPAUUnitAny@@K@Z 66017b10 f   common.obj
 0001:00016b60       ?CheckUnitSelect@@YAHPAUUnitAny@@@Z 66017b60 f   common.obj
 0001:00016c90       ?GetItemILvlAfterCube@@YAHHHH@Z 66017c90 f   common.obj
 0001:00016d40       ?GetItemAlvl@@YAHHHH@Z     66017d40 f   common.obj
 0001:00016dc0       ?GetTextWidth@@YAKPA_W@Z   66017dc0 f   common.obj
 0001:00016de0       ?DrawD2Text@@YAXKPA_WHHKK@Z 66017de0 f   common.obj
 0001:00016e20       ?DrawCenterText@@YAXKPA_WHHKHK@Z 66017e20 f   common.obj
 0001:00016e70       ?drawBgText@@YAHPA_WHHHH@Z 66017e70 f   common.obj
 0001:00016ef0       ?drawBgTextMiddle@@YAHPA_WHHHH@Z 66017ef0 f   common.obj
 0001:00016f60       ?drawBgTextLeft@@YAHPA_WHHHH@Z 66017f60 f   common.obj
 0001:00016fc0       ?ExitGame@@YAXXZ           66017fc0 f   common.obj
 0001:00017000       ?GetGameLanguage@@YAHXZ    66018000 f   common.obj
 0001:000170c0       ?getFcrFrame@@YAHHPAUUnitAny@@@Z 660180c0 f   common.obj
 0001:00017380       ?IsFullWindow@@YAHXZ       66018380 f   common.obj
 0001:00017440       ?getUnitOwnerId@@YAHPAUUnitAny@@@Z 66018440 f   common.obj
 0001:00017610       ?testPvpFlag@@YAHH@Z       66018610 f   common.obj
 0001:00017820       ?sameParty@@YAHH@Z         66018820 f   common.obj
 0001:00017840       ?isInRect@@YA_NPAUAreaRectData@@HH@Z 66018840 f   common.obj
 0001:000178b0       ?testPosition@@YAPAUAreaRectData@@PAU1@HH@Z 660188b0 f   common.obj
 0001:000178d0       ?portalToLevel@@YAHPAUWorld@@PAUUnitAny@@H@Z 660188d0 f   common.obj
 0001:00017ac0       ?hasPortalInRect@@YAHPAUAreaRectData@@H@Z 66018ac0 f   common.obj
 0001:00017b30       ?hasPortalNearby@@YAHPAUAreaRectData@@H@Z 66018b30 f   common.obj
 0001:00017ba0       ?hasPortalInLevel@@YAHPAUDrlgLevel@@H@Z 66018ba0 f   common.obj
 0001:00017c00       ?unitHasItem@@YAHPAUUnitAny@@H@Z 66018c00 f   common.obj
 0001:00017c70       ?sendPacketToClient@@YAXPAUNetClient@@PADH@Z 66018c70 f   common.obj
 0001:00017c90       ?sendChatMessageToServer@@YAXPADZZ 66018c90 f   common.obj
 0001:00017d50       ?sendMessageToClient@@YAXPAUNetClient@@HHPAD1@Z 66018d50 f   common.obj
 0001:00017ef0       ?getCharStatsTxt@@YAPAUCharStatsTxt@@H@Z 66018ef0 f   common.obj
 0001:00017f00       ?getStatMaxValue@@YAHH@Z   66018f00 f   common.obj
 0001:00017f60       ?cpLocaleName@@YAHPA_W0H@Z 66018f60 f   common.obj
 0001:00018000       ?acpLocaleName@@YAHPADPA_WH@Z 66019000 f   common.obj
 0001:000180f0       ?getSimpleItemStackContent@@YAHPAUUnitAny@@PAH@Z 660190f0 f   common.obj
 0001:000181d0       ?d2client_SetAutomapParty@@YIXK@Z 660191d0 f   d2callstub.obj
 0001:000181e0       ?d2client_SetAutomapNames@@YIXK@Z 660191e0 f   d2callstub.obj
 0001:000181f0       ?d2client_ChatInput@@YIKPAUD2MSG@@@Z 660191f0 f   d2callstub.obj
 0001:00018200       ?d2client_CheckUiStatus@@YIHH@Z 66019200 f   d2callstub.obj
 0001:00018210       ?d2client_InitAutomapLayer@@YIPAUAutomapLayer@@H@Z 66019210 f   d2callstub.obj
 0001:00018220       ?d2common_GetUniqueItemTxt@@YIPAUUniqueItemTxt@@H@Z 66019220 f   d2callstub.obj
 0001:00018250       ?d2common_GetItemStatCostTxt@@YIPAUItemStatCostTxt@@H@Z 66019250 f   d2callstub.obj
 0001:00018280       ?d2common_GetPropertiesTxt@@YIPAUPropertiesTxt@@H@Z 66019280 f   d2callstub.obj
 0001:000182b0       ?d2common_GetSetItemTxt@@YIPAUSetItemTxt@@H@Z 660192b0 f   d2callstub.obj
 0001:000182e0       ?d2common_GetItemTypeTxt@@YIPAUItemTypeTxt@@H@Z 660192e0 f   d2callstub.obj
 0001:00018310       ?d2common_GetRuneWordTxt@@YIPAURuneWordTxt@@H@Z 66019310 f   d2callstub.obj
 0001:00018340       ?d2common_GetRuneWordTxtIndex@@YIHH@Z 66019340 f   d2callstub.obj
 0001:00018380       ?d2client_LoadUiImage@@YIPAUCellFile@@PAD@Z 66019380 f   d2callstub.obj
 0001:00018390       ?SaveGame@@YAHXZ           66019390 f   dbg.obj
 0001:000183e0       ?DoTest@@YAHXZ             660193e0 f   dbg.obj
 0001:00018450       ?installAlwaysDebugPatches@@YAHXZ 66019450 f   dbg.obj
 0001:00018460       ?installDebugPatches@@YAHXZ 66019460 f   dbg.obj
 0001:00018650       ?loop_addConfigVars@@YAXXZ 66019650 f   loop.obj
 0001:00018690       ?ToggleIMEInput@@YAXH@Z    66019690 f   loop.obj
 0001:000186f0       ?GameLoopPatch@@YAXXZ      660196f0 f   loop.obj
 0001:00019830       ?GameEndPatch@@YAXXZ       6601a830 f   loop.obj
 0001:00019a50       ?GameLoopPatch_ASM@@YAXXZ  6601aa50 f   loop.obj
 0001:00019a60       ?GameEndPatch_ASM@@YAXXZ   6601aa60 f   loop.obj
 0001:00019a70       ?automap_addConfigVars@@YAXXZ 6601aa70 f   map.obj
 0001:00019ab0       ?automap_initConfigVars@@YAXXZ 6601aab0 f   map.obj
 0001:00019dc0       ?automap_initKeyEvent@@YAXXZ 6601adc0 f   map.obj
 0001:00019e40       ?draw2map@@YAXPAUtagPOINT@@HH@Z 6601ae40 f   map.obj
 0001:00019eb0       ?tile2draw@@YAXPAUtagPOINT@@HH@Z 6601aeb0 f   map.obj
 0001:00019ee0       ?tile2map@@YAXPAUtagPOINT@@HH@Z 6601aee0 f   map.obj
 0001:00019f30       ?addMapTarget@@YAXHHHPA_W0@Z 6601af30 f   map.obj
 0001:0001a010       ?automap_fixValues@@YAXXZ  6601b010 f   map.obj
 0001:0001a070       ?AutoMapNewGame@@YAXXZ     6601b070 f   map.obj
 0001:0001a160       ?PrevMapTarget@@YAHXZ      6601b160 f   map.obj
 0001:0001a3a0       ?NextMapTarget@@YAHXZ      6601b3a0 f   map.obj
 0001:0001a440       ?incMapTargetIf@@YAXH@Z    6601b440 f   map.obj
 0001:0001a470       ?AutoMapNewLevel@@YAXXZ    6601b470 f   map.obj
 0001:0001a650       ?addMinimapTarget@@YAXPAUAreaRectInfo@@HHHHHH@Z 6601b650 f   map.obj
 0001:0001a750       ?bitmap2dc6@@YAPAUCellFile@@PAEHH@Z 6601b750 f   map.obj
 0001:0001a980       ?InitCellFiles@@YAXXZ      6601b980 f   map.obj
 0001:0001ac80       ?DeleteCellFiles@@YAXXZ    6601bc80 f   map.obj
 0001:0001ad90       ?InitAutomapLayer@@YAXH@Z  6601bd90 f   map.obj
 0001:0001adb0       ?mapReveal@@YAXPAUAreaRectInfo@@@Z 6601bdb0 f   map.obj
 0001:0001ae00       ?mapHide@@YAXPAUAreaRectInfo@@@Z 6601be00 f   map.obj
 0001:0001ae50       ?addSecretCowLevelCorners@@YAXPAUDrlgLevel@@@Z 6601be50 f   map.obj
 0001:0001b000       ?RevealAutomapLevel@@YAXPAUDrlgLevel@@H@Z 6601c000 f   map.obj
 0001:0001bb90       ?RevealLevelPlayerIn@@YAHXZ 6601cb90 f   map.obj
 0001:0001bbd0       ?RevealCurAct@@YAHXZ       6601cbd0 f   map.obj
 0001:0001bd80       ?RemoveMyAutomapNodes@@YAXXZ 6601cd80 f   map.obj
 0001:0001be50       ?DrawAutomapNodePatch@@YGXPAUCellContext@@HHPAUtagRECT@@H@Z 6601ce50 f   map.obj
 0001:0001c2a0       ?AddShrinePatch_ASM@@YAXXZ 6601d2a0 f   map.obj
 0001:0001c2d0       ?OverrideShrinePatch@@YIXPAUAutomapNode@@0@Z 6601d2d0 f   map.obj
 0001:0001c330       ?OverrideShrinePatch_ASM@@YAXXZ 6601d330 f   map.obj
 0001:0001c350       ?DrawAutomapNode@@YAXPAUCellFile@@HHD@Z 6601d350 f   map.obj
 0001:0001c4d0       ?DrawAutomapBlob@@YIXHHHPAUUnitAny@@@Z 6601d4d0 f   map.obj
 0001:0001c650       ?ForceDrawBlob_ASM@@YAXXZ  6601d650 f   map.obj
 0001:0001c660       ?DrawBlobPath_ASM@@YAXXZ   6601d660 f   map.obj
 0001:0001c670       ?DrawPartyPlayerBlobPatch_ASM@@YAXXZ 6601d670 f   map.obj
 0001:0001c680       ?HostilePlayerPatch@@YIEPAUUnitAny@@@Z 6601d680 f   map.obj
 0001:0001c6c0       ?HostilePlayerColor_ASM@@YAXXZ 6601d6c0 f   map.obj
 0001:0001c6d0       ?DrawPlayerTextPatch@@YIEPAUUnitAny@@@Z 6601d6d0 f   map.obj
 0001:0001c730       ?DrawPlayerTextPatch_ASM@@YAXXZ 6601d730 f   map.obj
 0001:0001c750       ?MonsterBlobDesc@@YIXPAUUnitAny@@@Z 6601d750 f   map.obj
 0001:0001cc40       ?MonsterBlobDescPatch_ASM@@YAXXZ 6601dc40 f   map.obj
 0001:0001cc60       ?MonsterBlobCol@@YIEPAUUnitAny@@@Z 6601dc60 f   map.obj
 0001:0001cd90       ?CorpseBlobCol@@YIEPAUUnitAny@@@Z 6601dd90 f   map.obj
 0001:0001ce40       ?ObjectBlobCol@@YIEPAUUnitAny@@@Z 6601de40 f   map.obj
 0001:0001d000       ?MissileBlobCol@@YIEPAUUnitAny@@@Z 6601e000 f   map.obj
 0001:0001d100       ?MixedBlobColPatch@@YIEPAUUnitAny@@@Z 6601e100 f   map.obj
 0001:0001d1b0       ?MixedBlobColPatch_ASM@@YAXXZ 6601e1b0 f   map.obj
 0001:0001d1d0       ?AddRectToMinimap@@YAHPAUAreaRectInfo@@H@Z 6601e1d0 f   map.obj
 0001:0001de20       ?drawActiveRectAreaOnMinimap@@YAXXZ 6601ee20 f   map.obj
 0001:0001df80       ?drawActiveRectAreaOnScreen@@YAXXZ 6601ef80 f   map.obj
 0001:0001e160       ?drawScreenAreaOnMinimap@@YAXXZ 6601f160 f   map.obj
 0001:0001e280       ?MinimapPatch@@YAXXZ       6601f280 f   map.obj
 0001:0001e560       ?MinimapPatch_ASM@@YAXXZ   6601f560 f   map.obj
 0001:0001e570       ?InitScrollLock@@YAXH@Z    6601f570 f   map.obj
 0001:0001e5a0       ?SetScrollMapPos@@YAXHH@Z  6601f5a0 f   map.obj
 0001:0001e600       ?MiniMapScroll@@YAHH@Z     6601f600 f   map.obj
 0001:0001e630       ?CenterMap@@YAHXZ          6601f630 f   map.obj
 0001:0001e650       ?ShakeScreenPatch@@YGXPAH0@Z 6601f650 f   map.obj
 0001:0001e6f0       ?ScrollScreenEnd@@YAHH@Z   6601f6f0 f   map.obj
 0001:0001e730       ?ScrollScreenStart@@YAHH@Z 6601f730 f   map.obj
 0001:0001e800       ?DrawScrollOffset@@YAXPA_WH@Z 6601f800 f   map.obj
 0001:0001e850       ?recvObjectState@@YIXPAD@Z 6601f850 f   map.obj
 0001:0001e8e0       ?RecvPacket0EPatch_ASM@@YAXXZ 6601f8e0 f   map.obj
 0001:0001e8f0       ?packet_addConfigVars@@YAXXZ 6601f8f0 f   packet.obj
 0001:0001e930       ?packet_initConfigVars@@YAXXZ 6601f930 f   packet.obj
 0001:0001e960       ?packet_FixValues@@YAXXZ   6601f960 f   packet.obj
 0001:0001e9a0       ?ResetPacketHandlerTimer@@YAXXZ 6601f9a0 f   packet.obj
 0001:0001e9b0       ?PacketNewGame@@YAXXZ      6601f9b0 f   packet.obj
 0001:0001e9d0       ?FixSocketTimeOut_ASM@@YAXXZ 6601f9d0 f   packet.obj
 0001:0001e9e0       ?FixSocketErrRet_ASM@@YAXXZ 6601f9e0 f   packet.obj
 0001:0001ea00       ?dump9c@@YAXPAEH@Z         6601fa00 f   packet.obj
 0001:0001eb60       ?GamePacketReceivedInterceptPatch_ASM@@YAXXZ 6601fb60 f   packet.obj
 0001:0001eb90       ?dumpRecvPacket@@YIXPAEH@Z 6601fb90 f   packet.obj
 0001:0001f760       ?GamePacketSendInterceptPatch_ASM@@YAXXZ 66020760 f   packet.obj
 0001:0001f7c0       ?dumpSendPacket@@YIXPAH@Z  660207c0 f   packet.obj
 0001:0001fe70       ?showResetProtectMsg@@YAXXZ 66020e70 f   packet.obj
 0001:0001fee0       ?activeBufferItem@@YAHHHH@Z 66020ee0 f   packet.obj
 0001:0001ff50       ?ResetSkillPatch_ASM@@YAXXZ 66020f50 f   packet.obj
 0001:0001ff70       ?blockSendPacket@@YIHPAH@Z 66020f70 f   packet.obj
 0001:00020ad0       ?initSendPacketCheckTable@@YAXXZ 66021ad0 f   packet.obj
 0001:00020b70       ?autoroute_addConfigVars@@YAXXZ 66021b70 f   route.obj
 0001:00020bb0       ?autoroute_fixValues@@YAXXZ 66021bb0 f   route.obj
 0001:00020bd0       ?AutoRouteNewGame@@YAXXZ   66021bd0 f   route.obj
 0001:00020c00       ?AutoRouteLocateSource@@YAHH@Z 66021c00 f   route.obj
 0001:00020da0       ?minimapDebug@@YAXXZ       66021da0 f   route.obj
 0001:00020ef0       ?AutoRouteDrawScreenPath@@YAXXZ 66021ef0 f   route.obj
 0001:000211b0       ?AutoRouteDrawMinimapPath@@YAXXZ 660221b0 f   route.obj
 0001:00021850       ?markNextPathInvalid@@YAXH@Z 66022850 f   route.obj
 0001:000218c0       ?AutoTeleportGetTarget@@YAHPAUtagPOINT@@PAH11@Z 660228c0 f   route.obj
 0001:00021a20       ?RerouteRectPath@@YAHXZ    66022a20 f   route.obj
 0001:00022620       ?AutoMapRoute@@YAXXZ       66023620 f   route.obj
 0001:00022710       ?waypoint_initConfigVars@@YAXXZ 66023710 f   waypoint.obj
 0001:00022790       ?waypointExist@@YAHH@Z     66023790 f   waypoint.obj
 0001:000227d0       ?hasWaypoint@@YAHH@Z       660237d0 f   waypoint.obj
 0001:00022830       ?WaypointNewGame@@YAXXZ    66023830 f   waypoint.obj
 0001:00022850       ?isWaypointTxt@@YAHH@Z     66023850 f   waypoint.obj
 0001:00022a10       ?findWaypoint@@YAPAUUnitAny@@H@Z 66023a10 f   waypoint.obj
 0001:00022c50       ?takeWaypointToLevel@@YAHPAUUnitAny@@H@Z 66023c50 f   waypoint.obj
 0001:00022cc0       ?takeWaypointToLvl@@YAHHH@Z 66023cc0 f   waypoint.obj
 0001:00022d00       ?RecvCommand_63_Patch_ASM@@YAXXZ 66023d00 f   waypoint.obj
 0001:00022df0       ?winmsg_addConfigVars@@YAXXZ 66023df0 f   winmsg.obj
 0001:00022e30       ?winmsg_initConfigVars@@YAXXZ 66023e30 f   winmsg.obj
 0001:00022f40       ?WinMessageFixValues@@YAXXZ 66023f40 f   winmsg.obj
 0001:00022fd0       ?WinMessage_initKeyEvent@@YAXXZ 66023fd0 f   winmsg.obj
 0001:00023410       ?IsKeyDown@@YAHH@Z         66024410 f   winmsg.obj
 0001:00023430       ?LockMouse@@YAHXZ          66024430 f   winmsg.obj
 0001:000235f0       ?switchSkillStart@@YAHH@Z  660245f0 f   winmsg.obj
 0001:00023770       ?switchSkillEnd@@YAHH@Z    66024770 f   winmsg.obj
 0001:000238f0       ?GameSound@@YAHH@Z         660248f0 f   winmsg.obj
 0001:00023930       ?FullScreen@@YAHXZ         66024930 f   winmsg.obj
 0001:00023a20       ?AttractNPC@@YAHXZ         66024a20 f   winmsg.obj
 0001:00023ac0       ?SwitchWindow@@YAHH@Z      66024ac0 f   winmsg.obj
 0001:00023b20       ?WinMessageNewGame@@YAXXZ  66024b20 f   winmsg.obj
 0001:00023d70       ?WinMessageEndGame@@YAXXZ  66024d70 f   winmsg.obj
 0001:00023da0       ?refreshScreenSaver@@YAXXZ 66024da0 f   winmsg.obj
 0001:00023de0       ?refreshMenuScreenSaver@@YAXXZ 66024de0 f   winmsg.obj
 0001:00023e20       ?winActiveMsg@@YAXH@Z      66024e20 f   winmsg.obj
 0001:00023f60       ?hasCTA@@YAHXZ             66024f60 f   winmsg.obj
 0001:00024000       ?WinMessageRunLoop@@YAXXZ  66025000 f   winmsg.obj
 0001:000242d0       ?canExitGame@@YAHXZ        660252d0 f   winmsg.obj
 0001:00024480       ?WinMessage@@YAHHHPAUHWND__@@HHH@Z 66025480 f   winmsg.obj
 0001:00025400       ?WinMessagePatch_ASM@@YAXXZ 66026400 f   winmsg.obj
 0001:00025410       ?KeydownPatch_ASM@@YAXXZ   66026410 f   winmsg.obj
 0001:00025430       ?KeyupPatch_ASM@@YAXXZ     66026430 f   winmsg.obj
 0001:00025450       ?ReceiveSwapWeapon_ASM@@YAXXZ 66026450 f   winmsg.obj
 0001:00025490       ?ShowVersion_Patch_ASM@@YAXXZ 66026490 f   winmsg.obj
 0001:00025530       ?SetCursorPosPatch_ASM@@YAXXZ 66026530 f   winmsg.obj
 0001:00025550       ?DrawLeftBackImagePatch_ASM@@YAXXZ 66026550 f   winmsg.obj
 0001:00025570       ?DrawRightBackImagePatch_ASM@@YAXXZ 66026570 f   winmsg.obj
 0001:00025590       ?DrawGroundAndUnitPatch_ASM@@YAXXZ 66026590 f   winmsg.obj
 0001:000255f0       ?DrawControlsPatch_ASM@@YAXXZ 660265f0 f   winmsg.obj
 0001:000256f0       ?SkipDrawUnitAndControlPatch_ASM@@YAXXZ 660266f0 f   winmsg.obj
 0001:00025790       ?SkipAllDrawingPatch_ASM@@YAXXZ 66026790 f   winmsg.obj
 0001:00025840       ?SkipDrawMenuPatch2_ASM@@YAXXZ 66026840 f   winmsg.obj
 0001:000258d0       ?SkipDrawMenuPatch_ASM@@YAXXZ 660268d0 f   winmsg.obj
 0001:000259e0       ?NoHidePatch_ASM@@YAXXZ    660269e0 f   winmsg.obj
 0001:00025a10       ?env_addConfigVars@@YAXXZ  66026a10 f   env.obj
 0001:00025a50       ?env_initConfigVars@@YAXXZ 66026a50 f   env.obj
 0001:00025aa0       ?ChangeVisualEffect@@YAHXZ 66026aa0 f   env.obj
 0001:00025b20       ?WeatherPatch_ASM@@YAXXZ   66026b20 f   env.obj
 0001:00025b30       ?LightingPatch_ASM@@YAXXZ  66026b30 f   env.obj
 0001:00025b70       ?InfravisionPatch@@YIKPAUUnitAny@@@Z 66026b70 f   env.obj
 0001:00026150       ?InfravisionPatch_ASM@@YAXXZ 66027150 f   env.obj
 0001:00026170       ?drawMyGround@@YAXXZ       66027170 f   env.obj
 0001:00026310       ?SkipDrawGroundPatch_ASM@@YAXXZ 66027310 f   env.obj
 0001:00026330       ?playerAddExp@@YAXH@Z      66027330 f   GameMonitor.obj
 0001:000263b0       ?gamemonitor_addConfigVars@@YAXXZ 660273b0 f   GameMonitor.obj
 0001:000263f0       ?gamemonitor_initConfigVars@@YAXXZ 660273f0 f   GameMonitor.obj
 0001:00026430       ?usePotion@@YAXH@Z         66027430 f   GameMonitor.obj
 0001:00026510       ?updateCurStashPage@@YAXXZ 66027510 f   GameMonitor.obj
 0001:00026650       ?recheckSelfItems@@YAXXZ   66027650 f   GameMonitor.obj
 0001:00026d70       ?setKDCountDown@@YAXH@Z    66027d70 f   GameMonitor.obj
 0001:00026d90       ?setKBCountDown@@YAXHH@Z   66027d90 f   GameMonitor.obj
 0001:00026e30       ?setCountDownEndTime@@YAXPAUCountDown@@@Z 66027e30 f   GameMonitor.obj
 0001:00026f10       ?setupCountdown@@YAXPAUCountDown@@@Z 66027f10 f   GameMonitor.obj
 0001:00026f90       ?onRightSkillMap@@YAXHH@Z  66027f90 f   GameMonitor.obj
 0001:00027140       ?onRightSkillUnit@@YAXHH@Z 66028140 f   GameMonitor.obj
 0001:000272a0       ?GameMonitorNewGame@@YAXXZ 660282a0 f   GameMonitor.obj
 0001:00027360       ?GameMonitorEndGame@@YAXXZ 66028360 f   GameMonitor.obj
 0001:00027380       ?ShowGameCount@@YAXXZ      66028380 f   GameMonitor.obj
 0001:00027610       ?SetKills@@YIXK@Z          66028610 f   GameMonitor.obj
 0001:00027660       ?KillCountPatch_ASM@@YAXXZ 66028660 f   GameMonitor.obj
 0001:00027680       ?UnitModeChangePatch_ASM@@YAXXZ 66028680 f   GameMonitor.obj
 0001:000276c0       ?drawSimpleItemStackInfo@@YAXPAUUnitAny@@HH@Z 660286c0 f   GameMonitor.obj
 0001:00027920       ?DrawMonitorInfo@@YAXXZ    66028920 f   GameMonitor.obj
 0001:00029210       ?SetState@@YGXKH@Z         6602a210 f   GameMonitor.obj
 0001:00029540       ?RecvCommand_A7_Patch_ASM@@YAXXZ 6602a540 f   GameMonitor.obj
 0001:000296c0       ?RecvCommand_A8_Patch_ASM@@YAXXZ 6602a6c0 f   GameMonitor.obj
 0001:00029710       ?RecvCommand_A9_Patch_ASM@@YAXXZ 6602a710 f   GameMonitor.obj
 0001:00029760       ?itemAction@@YAXPAUbitstream@@PAD@Z 6602a760 f   GameMonitor.obj
 0001:000298d0       ?changeStashPage@@YAXH@Z   6602a8d0 f   GameMonitor.obj
 0001:000299a0       ?itemAction9C@@YIXPAD@Z    6602a9a0 f   GameMonitor.obj
 0001:00029a20       ?itemAction9D@@YIXPAD@Z    6602aa20 f   GameMonitor.obj
 0001:00029aa0       ?updateItemSkill@@YIXPAD@Z 6602aaa0 f   GameMonitor.obj
 0001:00029b30       ?RecvCommand_9C_Patch_ASM@@YAXXZ 6602ab30 f   GameMonitor.obj
 0001:00029b40       ?RecvCommand_9D_Patch_ASM@@YAXXZ 6602ab40 f   GameMonitor.obj
 0001:00029b50       ?RecvCommand_22_Patch_ASM@@YAXXZ 6602ab50 f   GameMonitor.obj
 0001:00029b60       ?getTowerValue@@YAHHH@Z    6602ab60 f   GameMonitor.obj
 0001:00029bf0       ?drawUnitsInfo@@YAXXZ      6602abf0 f   GameMonitor.obj
 0001:0002b840       ?playerSkillOnMap@@YIXPAD@Z 6602c840 f   GameMonitor.obj
 0001:0002b8f0       ?RecvCommand_4C_Patch_ASM@@YAXXZ 6602c8f0 f   GameMonitor.obj
 0001:0002b9f0       ?info_AddConfigVars@@YAXXZ 6602c9f0 f   info.obj
 0001:0002ba30       ?infoNewGame@@YAXXZ        6602ca30 f   info.obj
 0001:0002ba50       ?wsprintfW2@@YAPA_WPA_WPADZZ 6602ca50 f   info.obj
 0001:0002bab0       ?DrawGameInfoPatch@@YIXH@Z 6602cab0 f   info.obj
 0001:0002bd70       ?DrawPetHeadPatch@@YIXHPAUUnitAny@@@Z 6602cd70 f   info.obj
 0001:0002bdf0       ?DrawPetHeadPatch_ASM@@YAXXZ 6602cdf0 f   info.obj
 0001:0002be00       ?getGameWinId@@YAHH@Z      6602ce00 f   info.obj
 0001:0002be60       ?DrawPartyHeadPatch@@YIXHPAURosterUnit@@@Z 6602ce60 f   info.obj
 0001:0002c360       ?StartDrawPartyHeadPatch_ASM@@YAXXZ 6602d360 f   info.obj
 0001:0002c380       ?DrawPartyHeadPatch_ASM@@YAXXZ 6602d380 f   info.obj
 0001:0002c3a0       ?DrawSkeletonHeadPatch@@YIXHH@Z 6602d3a0 f   info.obj
 0001:0002c4c0       ?DrawSkeletonHeadPatch_ASM@@YAXXZ 6602d4c0 f   info.obj
 0001:0002c4d0       ?UpdateExp@@YAXXZ          6602d4d0 f   info.obj
 0001:0002c6f0       ?InitExp@@YAXXZ            6602d6f0 f   info.obj
 0001:0002c720       ?UpdateExp_ASM@@YAXXZ      6602d720 f   info.obj
 0001:0002c740       ?info_FixValues@@YAXXZ     6602d740 f   info.obj
 0001:0002c820       ?DrawClientPatch@@YAXXZ    6602d820 f   info.obj
 0001:0002c9a0       ?DrawClientPatch_ASM@@YAXXZ 6602d9a0 f   info.obj
 0001:0002c9c0       ?ShowLifeWithMyPattern@@YGKKHH@Z 6602d9c0 f   info.obj
 0001:0002ca40       ?ShowManaWithMyPattern@@YGKKHH@Z 6602da40 f   info.obj
 0001:0002cac0       ?ShowLifePatch_ASM@@YAXXZ  6602dac0 f   info.obj
 0001:0002cae0       ?ShowManaPatch_ASM@@YAXXZ  6602dae0 f   info.obj
 0001:0002cb00       ?SetLifeManaShow@@YAHXZ    6602db00 f   info.obj
 0001:0002cb40       ?GetViewEquUnit@@YAPAUUnitAny@@XZ 6602db40 f   info.obj
 0001:0002cb70       ?GetViewStatUnit@@YAPAUUnitAny@@XZ 6602db70 f   info.obj
 0001:0002cba0       ?SetViewUnit@@YAXXZ        6602dba0 f   info.obj
 0001:0002cc90       ?ViewUnit@@YAHH@Z          6602dc90 f   info.obj
 0001:0002cd30       ?GetViewingStatsPlayerPatch1_ASM@@YAXXZ 6602dd30 f   info.obj
 0001:0002cd40       ?GetViewingStatsPlayerPatch2_ASM@@YAXXZ 6602dd40 f   info.obj
 0001:0002cd50       ?GetUnitDrawEquipItemPatch_ASM@@YAXXZ 6602dd50 f   info.obj
 0001:0002cd60       ?GetUnitDrawItemDescPath_ASM@@YAXXZ 6602dd60 f   info.obj
 0001:0002cd70       ?GetUnitTestHasItem_ASM@@YAXXZ 6602dd70 f   info.obj
 0001:0002cd90       ?GetUnitText@@YIPA_WPA_WPAUUnitAny@@@Z 6602dd90 f   info.obj
 0001:0002ce30       ?ViewDrawInvItemPatch@@YAPAUUnitAny@@XZ 6602de30 f   info.obj
 0001:0002ceb0       ?GetUnitDrawInvItemPatch_ASM@@YAXXZ 6602deb0 f   info.obj
 0001:0002cec0       ?GetUnitProtectClickEquipPatch_ASM@@YAXXZ 6602dec0 f   info.obj
 0001:0002cf00       ?GetUnitProtectClickInvPatch_ASM@@YAXXZ 6602df00 f   info.obj
 0001:0002cf30       ?DrawDefaultFontText@@YAXPA_WHHKHK@Z 6602df30 f   info.obj
 0001:0002cf60       ?SwitchStatPage@@YAHH@Z    6602df60 f   info.obj
 0001:0002cfb0       ?DrawUnitStat@@YAXHHHHPAD00KHH@Z 6602dfb0 f   info.obj
 0001:0002d090       ?ViewUnitStatPatch@@YIXPAUUnitAny@@@Z 6602e090 f   info.obj
 0001:0002d490       ?ViewUnitStatPatch_ASM@@YAXXZ 6602e490 f   info.obj
 0001:0002d4b0       ?ViewPetStatPatch@@YIXPAUUnitAny@@@Z 6602e4b0 f   info.obj
 0001:0002d720       ?ViewPetStatPatch_ASM@@YAXXZ 6602e720 f   info.obj
 0001:0002d740       ?messagelog_AddConfigVars@@YAXXZ 6602e740 f   MessageLog.obj
 0001:0002d780       ?OpenFileNew@@YAPAXPAD@Z   6602e780 f   MessageLog.obj
 0001:0002d7b0       ?OpenFileWrite@@YAPAXPAD@Z 6602e7b0 f   MessageLog.obj
 0001:0002d7e0       ?WriteFile@@YAKPAX0K@Z     6602e7e0 f   MessageLog.obj
 0001:0002d810       ?MessageLogPatch1_ASM@@YAXXZ 6602e810 f   MessageLog.obj
 0001:0002dcf0       ?MessageLogPatch2_ASM@@YAXXZ 6602ecf0 f   MessageLog.obj
 0001:0002dd00       ?MessageLogExitGame@@YAXXZ 6602ed00 f   MessageLog.obj
 0001:0002dff0       ?item_addConfigVars@@YAXXZ 6602eff0 f   item.obj
 0001:0002e030       ?item_initConfigVars@@YAXXZ 6602f030 f   item.obj
 0001:0002e0c0       ?item_NewGame@@YAXXZ       6602f0c0 f   item.obj
 0001:0002e0e0       ?wcs_insert@@YAPA_WPA_W0@Z 6602f0e0 f   item.obj
 0001:0002e1b0       ?GetItemIndex@@YAHH@Z      6602f1b0 f   item.obj
 0001:0002e200       ?CheckItemVisible@@YAHPAUUnitAny@@@Z 6602f200 f   item.obj
 0001:0002e300       ?GetItemColour@@YAEPAUUnitAny@@H@Z 6602f300 f   item.obj
 0001:0002e5a0       ?SwitchItemMode@@YAHXZ     6602f5a0 f   item.obj
 0001:0002e650       ?trimspaces@@YAXPA_W@Z     6602f650 f   item.obj
 0001:0002e710       ?ColourD2String@@YIPA_WPA_WK@Z 6602f710 f   item.obj
 0001:0002e7a0       ?ItemHaveLevel@@YAHE@Z     6602f7a0 f   item.obj
 0001:0002e800       ?ItemNamePatch@@YIXPA_WPAUUnitAny@@PAUItemTxt@@@Z 6602f800 f   item.obj
 0001:0002f380       ?ItemNamePatch_ASM@@YAXXZ  66030380 f   item.obj
 0001:0002f3a0       ?OpenCubeStringPatch@@YIPA_WPA_WK@Z 660303a0 f   item.obj
 0001:0002f400       ?OpenCubeStringPatch_ASM@@YAXXZ 66030400 f   item.obj
 0001:0002f410       ?PermShowItemsPatch1@@YAHXZ 66030410 f   item.obj
 0001:0002f440       ?PermShowItemsPatch2@@YAHXZ 66030440 f   item.obj
 0001:0002f490       ?PermShowItemsPatch3@@YAHXZ 66030490 f   item.obj
 0001:0002f500       ?PermShowItemsPatch1_ASM@@YAXXZ 66030500 f   item.obj
 0001:0002f510       ?PermShowItemsPatch2_ASM@@YAXXZ 66030510 f   item.obj
 0001:0002f530       ?PermShowItemsPatch3_ASM@@YAXXZ 66030530 f   item.obj
 0001:0002f550       ?PermShowItemsPatch4_ASM@@YAXXZ 66030550 f   item.obj
 0001:0002f560       ?ItemDescPath@@YIXPA_WHHHH@Z 66030560 f   item.obj
 0001:0002f660       ?SocketViewCallRoutine@@YIXPAUUnitAny@@KP6GX0K@Z@Z 66030660 f   item.obj
 0001:0002f670       ?ItemSocketViewPatch@@YGXP6GXPAUUnitAny@@K@Z0K@Z 66030670 f   item.obj
 0001:0002f740       ?ItemSocketViewPatch_ASM@@YAXXZ 66030740 f   item.obj
 0001:0002f750       ?SocketItemStatViewPatch_ASM@@YAXXZ 66030750 f   item.obj
 0001:0002f770       ?GetItemExtStatListPatch@@YGPAUStatList@@PAUUnitAny@@KK@Z 66030770 f   item.obj
 0001:0002f7a0       ?ItemBasicStatPatch_ASM@@YAXXZ 660307a0 f   item.obj
 0001:0002f7d0       ?SetPropInfo@@YAXHHHPAUItemProp@@@Z 660307d0 f   item.obj
 0001:0002fc50       ?GetStatRange@@YAPA_WPA_WKK@Z 66030c50 f   item.obj
 0001:00030040       ?GetItemPropStringPatch@@YIKPA_WPAUStatEx@@K@Z 66031040 f   item.obj
 0001:00030110       ?GetItemPropStringPatch_ASM@@YAXXZ 66031110 f   item.obj
 0001:00030130       ?StrcatItemPropStringPatch@@YIXPA_W0K@Z 66031130 f   item.obj
 0001:00030250       ?StrcatItemPropStringPatch_ASM@@YAXXZ 66031250 f   item.obj
 0001:00030260       ?StrcatSocketStringPatch@@YIPA_WPA_W@Z 66031260 f   item.obj
 0001:00030290       ?StrcatSocketStringPatch_ASM@@YAXXZ 66031290 f   item.obj
 0001:000302a0       ?StrcatDefenseStringPatch@@YIPA_WPA_W@Z 660312a0 f   item.obj
 0001:00030540       ?StrcatDefenseStringPatch_ASM@@YAXXZ 66031540 f   item.obj
 0001:00030550       ?StrcatDamageStringPatch@@YIPA_WPA_W@Z 66031550 f   item.obj
 0001:00030770       ?StrcatDamageStringPatch_ASM1@@YAXXZ 66031770 f   item.obj
 0001:00030780       ?StrcatDamageStringPatch_ASM2@@YAXXZ 66031780 f   item.obj
 0001:000307a0       ?ShowSocketProtectInfo@@YAXXZ 660317a0 f   item.obj
 0001:00030810       ?SocketProtectPatch_ASM@@YAXXZ 66031810 f   item.obj
 0001:00030830       ?SocketProtectPatch1_ASM@@YAXXZ 66031830 f   item.obj
 0001:00030870       ?SocketProtectPatch2_ASM@@YAXXZ 66031870 f   item.obj
 0001:000308b0       ?searchStat@@YAHPAUUnitAny@@HPAH@Z 660318b0 f   item.obj
 0001:00030980       ?drawInvItemInfo@@YAXPAUUnitAny@@HH@Z 66031980 f   item.obj
 0001:00032290       ?drawInvItemPatch@@YIHPAUDrawCellFileArgs@@PAUUnitAny@@@Z 66033290 f   item.obj
 0001:000322f0       ?DrawInvItemPatch_ASM@@YAXXZ 660332f0 f   item.obj
 0001:00032310       ?activeBufferItem@@YIXHHH@Z 66033310 f   item.obj
 0001:00032420       ?ActiveBufferItemPatch_ASM@@YAXXZ 66033420 f   item.obj
 0001:00032440       ?ItemExtInfoNewGame@@YAXXZ 66033440 f   ItemExtInfo.obj
 0001:00032450       ?ConvertToColorString@@YAXPAEPADH@Z 66033450 f   ItemExtInfo.obj
 0001:000325f0       ?LoadExtInfo@@YAHXZ        660335f0 f   ItemExtInfo.obj
 0001:000335f0       ?UnLoadExtInfo@@YAXXZ      660345f0 f   ItemExtInfo.obj
 0001:000337d0       ?SetExtInfoPos@@YAXHHHH@Z  660347d0 f   ItemExtInfo.obj
 0001:000338c0       ?ShowItemExtInfo@@YAXXZ    660348c0 f   ItemExtInfo.obj
 0001:00033be0       ?DrawHoverPatch_ASM@@YAXXZ 66034be0 f   ItemExtInfo.obj
 0001:00033bf0       ?dangerous_addConfigVars@@YAXXZ 66034bf0 f   dangerous.obj
 0001:00033c30       ?dangerous_initConfigVars@@YAXXZ 66034c30 f   dangerous.obj
 0001:00033c50       ?protectExitGame@@YAHXZ    66034c50 f   dangerous.obj
 0001:00033c80       ?ProtectAction@@YAHPA_WHE@Z 66034c80 f   dangerous.obj
 0001:00033f20       ?ChickenLifeNewGame@@YAXXZ 66034f20 f   dangerous.obj
 0001:00034230       ?ChickenLifeLoop@@YAXXZ    66035230 f   dangerous.obj
 0001:00034b40       ?isCowKing@@YAHPAUMonsterData@@@Z 66035b40 f   dangerous.obj
 0001:00034c00       ?checkBossMonster@@YAXPAUUnitAny@@@Z 66035c00 f   dangerous.obj
 0001:00034d00       ?CheckDangerousPlayer@@YAXPAUUnitAny@@@Z 66035d00 f   dangerous.obj
 0001:00034db0       ?TestMonsterOnScreen@@YAHPAUUnitAny@@0@Z 66035db0 f   dangerous.obj
 0001:00034e30       ?CheckDangerousMonster@@YAXPAUUnitAny@@@Z 66035e30 f   dangerous.obj
 0001:00034f30       ?canLeaveTown@@YAHXZ       66035f30 f   dangerous.obj
 0001:00035420       ?quest_initConfigVars@@YAXXZ 66036420 f   quest.obj
 0001:00035440       ?quest_addConfigVars@@YAXXZ 66036440 f   quest.obj
 0001:00035480       ?ReSetTimer@@YAHXZ         66036480 f   quest.obj
 0001:000354a0       ?QuestNewAct@@YAXXZ        660364a0 f   quest.obj
 0001:000354b0       ?QuestNewLevel@@YAXXZ      660364b0 f   quest.obj
 0001:00035c80       ?quest_FixValues@@YAXXZ    66036c80 f   quest.obj
 0001:00035d50       ?QuestNewGame@@YAXXZ       66036d50 f   quest.obj
 0001:00035eb0       ?QuestRunLoop@@YAXXZ       66036eb0 f   quest.obj
 0001:00036220       ?BugKDProtect@@YIXK@Z      66037220 f   quest.obj
 0001:000364a0       ?BugKBProtect@@YIXPAE@Z    660374a0 f   quest.obj
 0001:00036cd0       ?RecvCommand_89_Patch_ASM@@YAXXZ 66037cd0 f   quest.obj
 0001:00036cf0       ?RecvCommand_5D_Patch_ASM@@YAXXZ 66037cf0 f   quest.obj
 0001:00036d00       ?CheckUnitKM@@YAXXZ        66037d00 f   quest.obj
 0001:00036dd0       ?getMouseQuestId@@YAHHH@Z  66037dd0 f   quest.obj
 0001:00036eb0       ?DrawQuestPagePatch@@YIXHH@Z 66037eb0 f   quest.obj
 0001:00037390       ?DrawQuestPagePatch_ASM@@YAXXZ 66038390 f   quest.obj
 0001:000373a0       ?PacketA4@@YIXPAD@Z        660383a0 f   quest.obj
 0001:00037520       ?Packet4D@@YIXPAD@Z        66038520 f   quest.obj
 0001:00037570       ?RecvCommand_A4_Patch_ASM@@YAXXZ 66038570 f   quest.obj
 0001:00037580       ?RecvCommand_4D_Patch_ASM@@YAXXZ 66038580 f   quest.obj
 0001:00037590       ?RecvCommand_28_Patch_ASM@@YAXXZ 66038590 f   quest.obj
 0001:000376c0       ?UnicodeFix@@YAXPA_WPAK@Z  660386c0 f   unicode.obj
 0001:000378b0       ?D2Lang_Unicode2WinPatch@@YIPBDPADPA_WH@Z 660388b0 f   unicode.obj
 0001:000378f0       ?D2Lang_Win2UnicodePatch@@YIPA_WPA_WPBDH@Z 660388f0 f   unicode.obj
 0001:00037920       ?EditDeleteSelect@@YAXPAUD2EditBox@@@Z 66038920 f   unicode.obj
 0001:00037a50       ?ChannelEnterCharPatch@@YIKPAUD2EditBox@@E@Z 66038a50 f   unicode.obj
 0001:00037d80       ?UnicodeToUTF_8@@YAXPADPA_W@Z 66038d80 f   unicode.obj
 0001:00037df0       ?MultiByteFix@@YGXPAD@Z    66038df0 f   unicode.obj
 0001:00037fe0       ?MultiByteFixPatch_ASM@@YAXXZ 66038fe0 f   unicode.obj
 0001:00037ff0       ?IsPritableCharacterPatch_ASM@@YAXXZ 66038ff0 f   unicode.obj
 0001:00038010       ?lifebar_addConfigVars@@YAXXZ 66039010 f   lifebar.obj
 0001:00038050       ?lifebar_initConfigVars@@YAXXZ 66039050 f   lifebar.obj
 0001:00038070       ?lifebarNewGame@@YAXXZ     66039070 f   lifebar.obj
 0001:00038080       ?MonsterNamePatch@@YIJPA_WJPAUUnitAny@@JJ@Z 66039080 f   lifebar.obj
 0001:00038b90       ?MonsterNamePatch_ASM@@YAXXZ 66039b90 f   lifebar.obj
 0001:00038bb0       ?MonsterDescCommaPatch1_ASM@@YAXXZ 66039bb0 f   lifebar.obj
 0001:00038bc0       ?MonsterDescCommaPatch2_ASM@@YAXXZ 66039bc0 f   lifebar.obj
 0001:00038bd0       ?MonsterDescCommaPatch3@@YIXPA_WPAUMonsterTxt@@@Z 66039bd0 f   lifebar.obj
 0001:00038c60       ?MonsterDescCommaPatch3_ASM@@YAXXZ 66039c60 f   lifebar.obj
 0001:00038c70       ?LifeBarPatch_ASM@@YAXXZ   66039c70 f   lifebar.obj
 0001:00038c90       ?MonsterDeathPatch_ASM@@YAXXZ 66039c90 f   lifebar.obj
 0001:00038cb0       ?CalculateHighestTC@@YAXHG@Z 66039cb0 f   lifebar.obj
 0001:00038ef0       ?InitTCList@@YAXXZ         66039ef0 f   lifebar.obj
 0001:00038f70       ?GetTcLevel@@YAPAUMonTC@@GH@Z 66039f70 f   lifebar.obj
 0001:00039000       ?GetPlayerHpPercent@@YAHPAUUnitAny@@@Z 6603a000 f   lifebar.obj
 0001:00039040       ?PlayerNamePatch@@YIXPA_WPAUUnitAny@@@Z 6603a040 f   lifebar.obj
 0001:000391b0       ?PlayerNamePatch_ASM@@YAXXZ 6603a1b0 f   lifebar.obj
 0001:000391d0       ?AutoWarCryNewGame@@YAXXZ  6603a1d0 f   bo.obj
 0001:00039240       ?AutoWarCryRunLoop@@YAXXZ  6603a240 f   bo.obj
 0001:000399b0       ?d2s_init@@YAXPAUd2s_file@@@Z 6603a9b0 f   d2s.obj
 0001:00039c10       ?d2s_write@@YAHPAUd2s_file@@PADH@Z 6603ac10 f   d2s.obj
 0001:00039d30       ?d2s_checksum@@YAXPADH@Z   6603ad30 f   d2s.obj
 0001:00039db0       ?d2s_generate@@YAHPAU_iobuf@@PAUUnitAny@@1PAGPAD1@Z 6603adb0 f   d2s.obj
 0001:0003a9f0       ?DropProtection_addConfigVars@@YAXXZ 6603b9f0 f   DropProtection.obj
 0001:0003aa30       ?DropProtection_initConfigVars@@YAXXZ 6603ba30 f   DropProtection.obj
 0001:0003aab0       ?DropProtection@@YAHPAUUnitAny@@@Z 6603bab0 f   DropProtection.obj
 0001:0003aec0       ?canHireMerc@@YAHXZ        6603bec0 f   DropProtection.obj
 0001:0003b020       ?DropProtectionPacketBlock@@YAHPAEH@Z 6603c020 f   DropProtection.obj
 0001:0003b180       ?ClickHireMercMenuItemPatch_ASM@@YAXXZ 6603c180 f   DropProtection.obj
 0001:0003b1a0       ?unicode2win@@YAXPADPA_WH@Z 6603c1a0 f   DropProtection.obj
 0001:0003b200       ?DeleteCharacter_Patch_ASM@@YAXXZ 6603c200 f   DropProtection.obj
 0001:0003b290       ?DeleteSelectedCharacter_Patch_ASM@@YAXXZ 6603c290 f   DropProtection.obj
 0001:0003bae0       ?ClickMenuItem_Patch_ASM@@YAXXZ 6603cae0 f   DropProtection.obj
 0001:0003bc00       ?playerHasRune@@YAHH@Z     6603cc00 f   DropProtection.obj
 0001:0003bc50       ?isValidRuneword@@YIHPAUUnitAny@@@Z 6603cc50 f   DropProtection.obj
 0001:0003c5f0       ?AutoEnchantNewGame@@YAXXZ 6603d5f0 f   enchant.obj
 0001:0003c650       ?checkUnit@@YAHPAUUnitAny@@@Z 6603d650 f   enchant.obj
 0001:0003c960       ?AutoEnchantRunLoop@@YAXXZ 6603d960 f   enchant.obj
 0001:0003ccd0       ?AutoEnchantPlayerNeedHelp@@YAXH@Z 6603dcd0 f   enchant.obj
 0001:0003cd10       ?check3bb@@YAXXZ           6603dd10 f   enchant.obj
 0001:0003d010       ?GamePacketPlaySound@@YIXPAE@Z 6603e010 f   enchant.obj
 0001:0003d070       ?RecvCommand_2C_Patch_ASM@@YAXXZ 6603e070 f   enchant.obj
 0001:0003d080       ?GameChat_addConfigVars@@YAXXZ 6603e080 f   chat.obj
 0001:0003d0c0       ?chat_initConfigVars@@YAXXZ 6603e0c0 f   chat.obj
 0001:0003d0d0       ?setClipboard@@YAHPAUHWND__@@PA_WH@Z 6603e0d0 f   chat.obj
 0001:0003d1a0       ?processChatPaste@@YAXXZ   6603e1a0 f   chat.obj
 0001:0003d2d0       ?sendQuickMessage@@YAHPAUMessageKey@@@Z 6603e2d0 f   chat.obj
 0001:0003d380       ?addQuickMessage@@YAXHPA_WH@Z 6603e380 f   chat.obj
 0001:0003d490       ?SendChatMessageW@@YAXPA_W@Z 6603e490 f   chat.obj
 0001:0003d550       ?SendChatMessage@@YAXPAD@Z 6603e550 f   chat.obj
 0001:0003d600       ?WisperPatch@@YAXXZ        6603e600 f   chat.obj
 0001:0003d620       ?WisperPatch_ASM@@YAXXZ    6603e620 f   chat.obj
 0001:0003d630       ?CheckD2WinEditBox@@YAXXZ  6603e630 f   chat.obj
 0001:0003d690       ?InputLinePatch@@YAHE@Z    6603e690 f   chat.obj
 0001:0003d730       ?InputLinePatch1_ASM@@YAXXZ 6603e730 f   chat.obj
 0001:0003d750       ?EditBoxCallBack@@YGHPAUD2EditBox@@HPAD@Z 6603e750 f   chat.obj
 0001:0003d750       ?Filterbox_InputHandler@@YGHPAUD2EditBox@@HPAD@Z 6603e750 f   mcp.obj
 0001:0003d760       ?InitD2EditBox@@YAHXZ      6603e760 f   chat.obj
 0001:0003d830       ?InputLinePatch2_ASM@@YAXXZ 6603e830 f   chat.obj
 0001:0003d850       ?SelectTextPatch1@@YGHPAD@Z 6603e850 f   chat.obj
 0001:0003d930       ?SelectTextPatch1_ASM@@YAXXZ 6603e930 f   chat.obj
 0001:0003d950       ?SelectTextPatch2@@YGHPAD@Z 6603e950 f   chat.obj
 0001:0003da00       ?SelectTextPatch2_ASM@@YAXXZ 6603ea00 f   chat.obj
 0001:0003da20       ?ResetGameList@@YAXXZ      6603ea20 f   mcp.obj
 0001:0003da40       ?gameFilter_addConfigVars@@YAXXZ 6603ea40 f   mcp.obj
 0001:0003da80       ?D2MCPPacketHandler_05_Patch@@YIHPAEH@Z 6603ea80 f   mcp.obj
 0001:0003dd10       ?D2MCPPacketHandler_05_Patch_ASM@@YAXXZ 6603ed10 f   mcp.obj
 0001:0003dd30       ?Filterbox_ReturnHandler@@YGHPA_W@Z 6603ed30 f   mcp.obj
 0001:0003dda0       ?CreateFilterBox@@YAXXZ    6603eda0 f   mcp.obj
 0001:0003de20       ?CreateGameBoxPatch_ASM@@YAXXZ 6603ee20 f   mcp.obj
 0001:0003de30       ?DestroyGamelistPatch@@YGXPAUD2EditBox@@@Z 6603ee30 f   mcp.obj
 0001:0003de70       ?GameListRefreshTimePatch_ASM@@YAXXZ 6603ee70 f   mcp.obj
 0001:0003dec0       ?DrawGameListPatch@@YAXXZ  6603eec0 f   mcp.obj
 0001:0003e050       ?DrawGameListPatch_ASM@@YAXXZ 6603f050 f   mcp.obj
 0001:0003e060       ?SortGameList_Patch_ASM@@YAXXZ 6603f060 f   mcp.obj
 0001:0003e0f0       ?ShowGameListDifficulty_Patch_ASM@@YAXXZ 6603f0f0 f   mcp.obj
 0001:0003e1a0       ?clearCharacterTag@@YAXXZ  6603f1a0 f   login.obj
 0001:0003e1d0       ?addCharacterTag@@YAXPAD0@Z 6603f1d0 f   login.obj
 0001:0003e350       ?getCharTag@@YAPADPAD@Z    6603f350 f   login.obj
 0001:0003e410       ?doneCharacterTag@@YAXXZ   6603f410 f   login.obj
 0001:0003e470       ?drawCharTags@@YAXXZ       6603f470 f   login.obj
 0001:0003e5a0       ?login_initConfigVars@@YAXXZ 6603f5a0 f   login.obj
 0001:0003e5b0       ?addAccount@@YAXHPAD0@Z    6603f5b0 f   login.obj
 0001:0003e700       ?isLoginScreen@@YAPAUD2EditBox@@XZ 6603f700 f   login.obj
 0001:0003e7b0       ?getLastUser@@YAPADXZ      6603f7b0 f   login.obj
 0001:0003e820       ?inputUserPassword@@YAHPAULoginInfo@@@Z 6603f820 f   login.obj
 0001:0003ea80       ?autoLogin@@YAXXZ          6603fa80 f   login.obj
 0001:0003eb50       ?LastBNet_Patch@@YGHPAD0H0H@Z 6603fb50 f   login.obj
 0001:0003eba0       ?SelectCharPatch_ASM@@YAXXZ 6603fba0 f   login.obj
 0001:0003ecc0       ?autoSelectChar@@YAXXZ     6603fcc0 f   login.obj
 0001:0003ede0       ?saveCharMenu@@YAXXZ       6603fde0 f   login.obj
 0001:0003f1b0       ?OpenCharMenuPatch_ASM@@YAXXZ 660401b0 f   login.obj
 0001:0003f1c0       ?misc_addConfigVars@@YAXXZ 660401c0 f   misc.obj
 0001:0003f200       ?ULCPatch_ASM@@YAXXZ       66040200 f   misc.obj
 0001:0003f220       ?OutTownSelectPatch@@YIHPAUUnitAny@@@Z 66040220 f   misc.obj
 0001:0003f260       ?OutTownSelectPatch_ASM1@@YAXXZ 66040260 f   misc.obj
 0001:0003f290       ?CheckOutTownSelected@@YGHPAUUnitAny@@@Z 66040290 f   misc.obj
 0001:0003f2f0       ?OutTownSelectPatch_ASM2@@YAXXZ 660402f0 f   misc.obj
 0001:0003f310       ?NPCMessageLoopPatch_ASM@@YAXXZ 66040310 f   misc.obj
 0001:0003f350       ?NPCQuestMessageStartPatch_ASM@@YAXXZ 66040350 f   misc.obj
 0001:0003f370       ?NPCQuestMessageEndPatch1_ASM@@YAXXZ 66040370 f   misc.obj
 0001:0003f390       ?NPCQuestMessageEndPatch2_ASM@@YAXXZ 66040390 f   misc.obj
 0001:0003f3a0       ?NsPassingActBugFixPatch_ASM@@YAXXZ 660403a0 f   misc.obj
 0001:0003f3b0       ?SetGoldPatch@@YIHH@Z      660403b0 f   misc.obj
 0001:0003f430       ?SetGoldPatch_ASM@@YAXXZ   66040430 f   misc.obj
 0001:0003f440       ?SetDefaultGoldPatch_ASM@@YAXXZ 66040440 f   misc.obj
 0001:0003f450       ?multiclient_addConfigVars@@YAXXZ 66040450 f   multi.obj
 0001:0003f490       ?multiclient_initConfigVars@@YAXXZ 66040490 f   multi.obj
 0001:0003f4c0       ?multiclient_FixValues@@YAXXZ 660404c0 f   multi.obj
 0001:0003f4f0       ?MultiClientNewGame@@YAXXZ 660404f0 f   multi.obj
 0001:0003f610       ?MultiClientEndGame@@YAXXZ 66040610 f   multi.obj
 0001:0003f630       ?makeRuntimeInfoPath@@YAHPADH@Z 66040630 f   multi.obj
 0001:0003f700       ?saveRuntimeInfo1@@YAHPAUHWND__@@H@Z 66040700 f   multi.obj
 0001:0003f910       ?saveRuntimeInfo@@YAHPAUHWND__@@@Z 66040910 f   multi.obj
 0001:0003f930       ?loadRuntimeInfo@@YAHPAUD2Window@@H@Z 66040930 f   multi.obj
 0001:00040170       ?getLocalPlayer@@YAPAUD2Window@@H@Z 66041170 f   multi.obj
 0001:000401d0       ?isLocalPlayerName@@YAHPAD@Z 660411d0 f   multi.obj
 0001:000402a0       ?isLocalPlayer@@YAHH@Z     660412a0 f   multi.obj
 0001:00040310       ?refresh_clients@@YAXXZ    66041310 f   multi.obj
 0001:000404e0       ?multiclient_load_config@@YAXXZ 660414e0 f   multi.obj
 0001:00040560       ?multiclient_winactive@@YAXXZ 66041560 f   multi.obj
 0001:000406a0       ?getGameWindowHwnd@@YAPAUHWND__@@H@Z 660416a0 f   multi.obj
 0001:000406e0       ?pressESC@@YAXXZ           660416e0 f   multi.obj
 0001:00040740       ?canRemoteControl@@YAHXZ   66041740 f   multi.obj
 0001:00040800       ?leader_click_object@@YAXHH@Z 66041800 f   multi.obj
 0001:000408c0       ?send_multi_skill_info@@YAXH@Z 660418c0 f   multi.obj
 0001:000408f0       ?recv_multi_skill_info@@YAXPAUD2Window@@H@Z 660418f0 f   multi.obj
 0001:00040960       ?send_multi_quest_info@@YAXH@Z 66041960 f   multi.obj
 0001:00040990       ?recv_multi_quest_info@@YAXPAUD2Window@@H@Z 66041990 f   multi.obj
 0001:00040aa0       ?send_multi_reply@@YAXH@Z  66041aa0 f   multi.obj
 0001:00040ad0       ?recv_multi_quest_reply@@YAXPAUD2Window@@H@Z 66041ad0 f   multi.obj
 0001:00040b50       ?multiclient_recv_info@@YAXH@Z 66041b50 f   multi.obj
 0001:00040f30       ?multiclient_send_info@@YAXH@Z 66041f30 f   multi.obj
 0001:00040f80       ?follower_click_object@@YAXHH@Z 66041f80 f   multi.obj
 0001:000410e0       ?autoHydra@@YAXXZ          660420e0 f   multi.obj
 0001:00041270       ?MultiClientLoop@@YAXXZ    66042270 f   multi.obj
 0001:00041ee0       ?follower_left_click_xy@@YAXHH@Z 66042ee0 f   multi.obj
 0001:00041f20       ?follower_right_click_xy@@YAXHH@Z 66042f20 f   multi.obj
 0001:00041f60       ?follower_left_click_unit@@YAXHH@Z 66042f60 f   multi.obj
 0001:00041fa0       ?follower_right_client_unit@@YAXHH@Z 66042fa0 f   multi.obj
 0001:00041fe0       ?refresh_followers@@YAXH@Z 66042fe0 f   multi.obj
 0001:00042100       ?toggle_follower@@YAXH@Z   66043100 f   multi.obj
 0001:00042210       ?follower_stop_follow@@YAXXZ 66043210 f   multi.obj
 0001:000422b0       ?findClosetPortal@@YAPAUUnitAny@@XZ 660432b0 f   multi.obj
 0001:00042430       ?talkToNpc@@YAXXZ          66043430 f   multi.obj
 0001:000426d0       ?follower_cmd@@YAXH@Z      660436d0 f   multi.obj
 0001:00042b40       ?MultiClientStartFollow@@YAHH@Z 66043b40 f   multi.obj
 0001:00042c20       ?MultiClientStopFollow@@YAHXZ 66043c20 f   multi.obj
 0001:00042cc0       ?MultiClientStartFollow1@@YAHXZ 66043cc0 f   multi.obj
 0001:00042ce0       ?MultiClientStartFollow2@@YAHXZ 66043ce0 f   multi.obj
 0001:00042d00       ?MultiClientToggleFollow@@YAHXZ 66043d00 f   multi.obj
 0001:00042d30       ?MultiClientTalkToNpc@@YAHXZ 66043d30 f   multi.obj
 0001:00042e00       ?MultiClientAllNextGame@@YAHXZ 66043e00 f   multi.obj
 0001:00042eb0       ?MultiClientJoinGame@@YAHXZ 66043eb0 f   multi.obj
 0001:00042f50       ?leader_back_to_town@@YAHXZ 66043f50 f   multi.obj
 0001:00043000       ?MultiClientEnterDoor@@YAHXZ 66044000 f   multi.obj
 0001:000431c0       ?MultiClientStartClick@@YAHH@Z 660441c0 f   multi.obj
 0001:000431e0       ?MultiClientStopClick@@YAHH@Z 660441e0 f   multi.obj
 0001:00043200       ?MultiClientInitClick@@YAHXZ 66044200 f   multi.obj
 0001:00043260       ?leader_tp@@YAHHH@Z        66044260 f   multi.obj
 0001:00043370       ?follower_tp@@YAXHH@Z      66044370 f   multi.obj
 0001:000433d0       ?transferClick@@YAHHPAUUnitAny@@HH@Z 660443d0 f   multi.obj
 0001:00043600       ?canTranferClick@@YAHXZ    66044600 f   multi.obj
 0001:00043660       ?shouldLeftClick@@YIHPAH@Z 66044660 f   multi.obj
 0001:00043a90       ?shouldRightClick@@YIHPAH@Z 66044a90 f   multi.obj
 0001:00043c90       ?LeftClick_Patch_ASM@@YAXXZ 66044c90 f   multi.obj
 0001:00043cb0       ?RightClick_Patch_ASM@@YAXXZ 66044cb0 f   multi.obj
 0001:00043cd0       ?RecvCommand_77_Patch_ASM@@YAXXZ 66044cd0 f   multi.obj
 0001:00043ef0       ?RecvCommand_78_Patch_ASM@@YAXXZ 66044ef0 f   multi.obj
 0001:00043f80       ?NpcTrade_AddConfigVars@@YAXXZ 66044f80 f   NpcTrade.obj
 0001:00043fc0       ?NpcTradeNewGame@@YAXXZ    66044fc0 f   NpcTrade.obj
 0001:00043fe0       ?drawNpcTradeInfo@@YAXH@Z  66044fe0 f   NpcTrade.obj
 0001:00044af0       ?NpcTradeLoop@@YAXXZ       66045af0 f   NpcTrade.obj
 0001:00044d50       ?NpcTradePatch_ASM@@YAXXZ  66045d50 f   NpcTrade.obj
 0001:00044d80       ?PartyHelp_addConfigVars@@YAXXZ 66045d80 f   party.obj
 0001:00044dc0       ?PartyHelp_initConfigVars@@YAXXZ 66045dc0 f   party.obj
 0001:00044dd0       ?PartyHelpNewGame@@YAXXZ   66045dd0 f   party.obj
 0001:00044f90       ?PartyHelpEndGame@@YAXXZ   66045f90 f   party.obj
 0001:00044fa0       ?ResponseInvite@@YAXXZ     66045fa0 f   party.obj
 0001:000452d0       ?RecvCommand_5A_Patch_ASM@@YAXXZ 660462d0 f   party.obj
 0001:000454b0       ?AutoInvite@@YAXXZ         660464b0 f   party.obj
 0001:00045950       ?RecvCommand_5B_Patch_ASM@@YAXXZ 66046950 f   party.obj
 0001:00045a20       ?RecvCommand_59_Patch_ASM@@YAXXZ 66046a20 f   party.obj
 0001:00045b40       ?RecvCommand_8C_Patch_ASM@@YAXXZ 66046b40 f   party.obj
 0001:00045d30       ?quick_addConfigVars@@YAXXZ 66046d30 f   quick.obj
 0001:00045d70       ?quick_NewGame@@YAXXZ      66046d70 f   quick.obj
 0001:00045d90       ?quick_EndGame@@YAXXZ      66046d90 f   quick.obj
 0001:00045da0       ?skillCount@@YAHH@Z        66046da0 f   quick.obj
 0001:00045e00       ?BackToTown@@YAHXZ         66046e00 f   quick.obj
 0001:00045ee0       ?QuickToLevel@@YAHPAUstQuickToLevel@@@Z 66046ee0 f   quick.obj
 0001:00045f30       ?addQuickToLevel@@YAXHHH@Z 66046f30 f   quick.obj
 0001:00046040       ?quickLoop@@YAXXZ          66047040 f   quick.obj
 0001:00046120       ?AutoBackToTown@@YIXPAE@Z  66047120 f   quick.obj
 0001:00046240       ?RecvCommand_60_Patch_ASM@@YAXXZ 66047240 f   quick.obj
 0001:00046250       ?setGameNamePassword@@YAXPAD0@Z 66047250 f   quick.obj
 0001:000462b0       ?autoJoinGame@@YAXXZ       660472b0 f   quick.obj
 0001:000466e0       ?joinGame@@YAXPAD0@Z       660476e0 f   quick.obj
 0001:00046780       ?SaveGameName@@YAXXZ       66047780 f   quick.obj
 0001:00046820       ?QuickExitGame@@YAHXZ      66047820 f   quick.obj
 0001:00046860       ?QuickNextGame@@YAHH@Z     66047860 f   quick.obj
 0001:00046ad0       ?NextGameNamePatch@@YIXPAUD2EditBox@@P6GH0HPAD@Z@Z 66047ad0 f   quick.obj
 0001:00046b10       ?NextGamePasswordPatch@@YIXPAUD2EditBox@@P6GH0HPAD@Z@Z 66047b10 f   quick.obj
 0001:00046b50       ?NextGameDecriptionPatch@@YIXPAUD2EditBox@@P6GH0HPAD@Z@Z 66047b50 f   quick.obj
 0001:00046b90       ?SelectGamePatch@@YIPAXPAUD2EditBox@@PA_W@Z 66047b90 f   quick.obj
 0001:00046c30       ?quickswap_addConfigVars@@YAXXZ 66047c30 f   QuickSwapItem.obj
 0001:00046c70       ?getInvTxt@@YAPAUInventoryBIN@@XZ 66047c70 f   QuickSwapItem.obj
 0001:00046cf0       ?putIntoCubeIndirect@@YAHXZ 66047cf0 f   QuickSwapItem.obj
 0001:00046dd0       ?putItem@@YAHPAUInventoryBIN@@PADH@Z 66047dd0 f   QuickSwapItem.obj
 0001:00046fc0       ?putIntoInv@@YAHXZ         66047fc0 f   QuickSwapItem.obj
 0001:00046fe0       ?putIntoStash@@YAHXZ       66047fe0 f   QuickSwapItem.obj
 0001:00047040       ?MoveItem@@YAXPAUD2MSG@@@Z 66048040 f   QuickSwapItem.obj
 0001:00048000       ?RButtonUpHandlerPatch@@YGXPAUD2MSG@@@Z 66049000 f   QuickSwapItem.obj
 0001:00048040       ?RButtonUpHandlerPatch_ASM@@YAXXZ 66049040 f   QuickSwapItem.obj
 0001:00048060       ?RButtonInTradePatch_ASM@@YAXXZ 66049060 f   QuickSwapItem.obj
 0001:00048070       ?CtrlClickHandlerPatch_ASM@@YAXXZ 66049070 f   QuickSwapItem.obj
 0001:000480a0       ?clickCubeTransformButton@@YAXXZ 660490a0 f   QuickSwapItem.obj
 0001:000480f0       ?autoCubeTransform@@YAHXZ  660490f0 f   QuickSwapItem.obj
 0001:00048610       ?quickswap_NewGame@@YAXXZ  66049610 f   QuickSwapItem.obj
 0001:00048640       ?RecvPacket3FPatch_ASM@@YAXXZ 66049640 f   QuickSwapItem.obj
 0001:00048660       ?activeItemStack@@YAXH@Z   66049660 f   QuickSwapItem.obj
 0001:000486d0       ?autoIdentify@@YAHXZ       660496d0 f   QuickSwapItem.obj
 0001:00048800       ?autoSimpleItemStack@@YAHXZ 66049800 f   QuickSwapItem.obj
 0001:000489c0       ?dropRune789@@YAXXZ        660499c0 f   QuickSwapItem.obj
 0001:00048ae0       ?Resolution_AddConfigVars@@YAXXZ 66049ae0 f   resolution.obj
 0001:00048b20       ?changeResolution@@YAXH@Z  66049b20 f   resolution.obj
 0001:00048b30       ?resolution_init@@YAXXZ    66049b30 f   resolution.obj
 0001:00048b80       ?resolution_uninit@@YAXXZ  66049b80 f   resolution.obj
 0001:00048bd0       ?fitWindowToResolution@@YAXXZ 66049bd0 f   resolution.obj
 0001:00048d10       ?fitResolution@@YAXXZ      66049d10 f   resolution.obj
 0001:00048ff0       ?SetBitBlockWidthAndHeightPatch_ASM@@YAXXZ 66049ff0 f   resolution.obj
 0001:00049000       ?SetCelDisplayLeftAndRightPatch_ASM@@YAXXZ 6604a000 f   resolution.obj
 0001:00049020       ?IsNeedResizeWindowPatchW_ASM@@YAXXZ 6604a020 f   resolution.obj
 0001:00049020       ?IsNeedRestoreDownWindowPatchW_ASM@@YAXXZ 6604a020 f   resolution.obj
 0001:00049030       ?IsNeedResizeWindowPatchH_ASM@@YAXXZ 6604a030 f   resolution.obj
 0001:00049030       ?IsNeedRestoreDownWindowPatchH_ASM@@YAXXZ 6604a030 f   resolution.obj
 0001:00049040       ?SetDisplayWidthAndHeightPatch_ASM@@YAXXZ 6604a040 f   resolution.obj
 0001:00049060       ?SetGeneralDisplayWidthAndHeightPatch_ASM@@YAXXZ 6604a060 f   resolution.obj
 0001:00049080       ?GetGlobalBeltSlotPositionPatch_ASM@@YAXXZ 6604a080 f   resolution.obj
 0001:00049130       ?GetGlobalBeltRecordPatch_ASM@@YAXXZ 6604a130 f   resolution.obj
 0001:00049200       ?AdjustWindowRectExPatch_ASM@@YAXXZ 6604a200 f   resolution.obj
 0001:00049350       ?ClearFramebufPatch_ASM@@YAXXZ 6604a350 f   resolution.obj
 0001:00049370       ?DrawLeftOrbImagePatch_ASM@@YAXXZ 6604a370 f   resolution.obj
 0001:000493a0       ?DrawLeftOrbPatch_ASM@@YAXXZ 6604a3a0 f   resolution.obj
 0001:000493c0       ?DrawRightOrbImagePatch_ASM@@YAXXZ 6604a3c0 f   resolution.obj
 0001:000493f0       ?DrawRightOrbPatch_ASM@@YAXXZ 6604a3f0 f   resolution.obj
 0001:00049410       ?FillLeftOrbPatch_ASM@@YAXXZ 6604a410 f   resolution.obj
 0001:00049430       ?FillRightOrbPatch_ASM@@YAXXZ 6604a430 f   resolution.obj
 0001:00049450       ?DrawLeftSkillButtonPatch_ASM@@YAXXZ 6604a450 f   resolution.obj
 0001:00049470       ?DrawRightSkillButtonPatch_ASM@@YAXXZ 6604a470 f   resolution.obj
 0001:00049490       ?DisplayHPTextPatch_ASM@@YAXXZ 6604a490 f   resolution.obj
 0001:000494b0       ?DisplayManaTextPatch_ASM@@YAXXZ 6604a4b0 f   resolution.obj
 0001:000494d0       ?DrawGroundHeightPatch_ASM@@YAXXZ 6604a4d0 f   resolution.obj
 0001:00049500       ?BottomBoundPatch_ASM@@YAXXZ 6604a500 f   resolution.obj
 0001:00049520       ?installResolutionPatches@@YAHXZ 6604a520 f   resolution.obj
 0001:000499d0       ?autoskill_addConfigVars@@YAXXZ 6604a9d0 f   skill.obj
 0001:00049a10       ?autoskill_initConfigVars@@YAXXZ 6604aa10 f   skill.obj
 0001:00049b70       ?AutoSkillNewGame@@YAXXZ   6604ab70 f   skill.obj
 0001:00049be0       ?checkAutoSkill@@YAXXZ     6604abe0 f   skill.obj
 0001:00049f20       ?checkAutoSkillStatus@@YAXXZ 6604af20 f   skill.obj
 0001:0004a000       ?stackThrowing@@YAXXZ      6604b000 f   skill.obj
 0001:0004a0c0       ?AutoSkillNow@@YAHXZ       6604b0c0 f   skill.obj
 0001:0004a0f0       ?AutoSkillRunLoop@@YAXXZ   6604b0f0 f   skill.obj
 0001:0004b700       ?autoSkillDimVision@@YIXPAD@Z 6604c700 f   skill.obj
 0001:0004b750       ?autoTelekinesis@@YAHXZ    6604c750 f   skill.obj
 0001:0004b870       ?Snapshot_AddConfigVars@@YAXXZ 6604c870 f   Snapshot.obj
 0001:0004b8b0       ?hex@@YAXPAU_iobuf@@HPAXH@Z 6604c8b0 f   Snapshot.obj
 0001:0004ba40       ?LoadLogNames@@YAXPAU_iobuf@@@Z 6604ca40 f   Snapshot.obj
 0001:0004c030       ?getSnapshotPath1@@YAXPAD00000D@Z 6604d030 f   Snapshot.obj
 0001:0004c510       ?getSnapshotPath@@YAXPAD00000D@Z 6604d510 f   Snapshot.obj
 0001:0004c560       ?openSnapshotFile@@YAPAU_iobuf@@PAD00D0H@Z 6604d560 f   Snapshot.obj
 0001:0004c680       ?openDbgFile@@YAPAU_iobuf@@PAD@Z 6604d680 f   Snapshot.obj
 0001:0004c8b0       ?SnapshotNewGame@@YAXXZ    6604d8b0 f   Snapshot.obj
 0001:0004caf0       ?SnapshotEndGame@@YAXXZ    6604daf0 f   Snapshot.obj
 0001:0004ce60       ?dumpStat@@YAXPAU_iobuf@@HHPAH@Z 6604de60 f   Snapshot.obj
 0001:0004d3a0       ?countAllGemRunes@@YAXXZ   6604e3a0 f   Snapshot.obj
 0001:0004d9a0       ?dumpStatList@@YAHPAU_iobuf@@PAUStatList@@H@Z 6604e9a0 f   Snapshot.obj
 0001:0004ded0       ?loadWaypoints@@YAXPADH@Z  6604eed0 f   Snapshot.obj
 0001:0004df80       ?saveWaypoints@@YAXPADH@Z  6604ef80 f   Snapshot.obj
 0001:00051800       ?dumpUnit2@@YAXPAU_iobuf@@PAUUnitAny@@@Z 66052800 f   Snapshot.obj
 0001:000519e0       ?dumpMap@@YAXXZ            660529e0 f   Snapshot.obj
 0001:00051f50       ?saveMercInfo@@YIXPAD@Z    66052f50 f   Snapshot.obj
 0001:00052090       ?RecvCommand_81_Patch_ASM@@YAXXZ 66053090 f   Snapshot.obj
 0001:000520a0       ?removeSnapshot@@YAXPAD00@Z 660530a0 f   Snapshot.obj
 0001:000522e0       ?dumpServerQuest@@YAXPAU_iobuf@@@Z 660532e0 f   Snapshot.obj
 0001:00052560       ?DoSnapshot@@YAHXZ         66053560 f   Snapshot.obj
 0001:00052b30       ?saveItems@@YAXXZ          66053b30 f   snap.obj
 0001:00052fb0       ?formatItems@@YAXPAD00@Z   66053fb0 f   snap.obj
 0001:00054740       ?scan_realm@@YAXPAD@Z      66055740 f   snap.obj
 0001:00054b80       ?rebuild_snap@@YAXXZ       66055b80 f   snap.obj
 0001:00054d80       ?AutoSummonNewGame@@YAXXZ  66055d80 f   summon.obj
 0001:00054e70       ?checkSkeletonCount@@YAXXZ 66055e70 f   summon.obj
 0001:00055040       ?AutoSummonRunLoop@@YAXXZ  66056040 f   summon.obj
 0001:00055870       ?addUnit@@YIXPAUUnitAny@@@Z 66056870 f   summon.obj
 0001:000558f0       ?AddUnitPatch_ASM@@YAXXZ   660568f0 f   summon.obj
 0001:00055910       ?RemoveUnitPatch1_ASM@@YAXXZ 66056910 f   summon.obj
 0001:00055930       ?RemoveUnitPatch2_ASM@@YAXXZ 66056930 f   summon.obj
 0001:00055950       ?RecvCommand_69_Patch_ASM@@YAXXZ 66056950 f   summon.obj
 0001:00055d10       ?RecvCommand_7A_Patch_ASM@@YAXXZ 66056d10 f   summon.obj
 0001:00055d40       ?RecvCommand_21_Patch_ASM@@YAXXZ 66056d40 f   summon.obj
 0001:00055d60       ?autoteleport_addConfigVars@@YAXXZ 66056d60 f   teleport.obj
 0001:00055da0       ?autoteleport_initConfigVars@@YAXXZ 66056da0 f   teleport.obj
 0001:00055dd0       ?autoteleport_fixValues@@YAXXZ 66056dd0 f   teleport.obj
 0001:00055df0       ?autoTpEvade@@YAHPAD@Z     66056df0 f   teleport.obj
 0001:00056dd0       ?AutoTeleportStart@@YAHXZ  66057dd0 f   teleport.obj
 0001:00056e70       ?AutoTeleportEnd@@YAHXZ    66057e70 f   teleport.obj
 0001:00056ef0       ?AutoTeleport@@YAHXZ       66057ef0 f   teleport.obj
 0001:00058150       ?abs@@YAJJ@Z               66059150 f i teleport.obj
 0001:00058990       ?dumpRunewordTxt@@YAXXZ    66059990 f   txt.obj
 0001:00058d00       ?dumpTxt@@YAXXZ            66059d00 f   txt.obj
 0001:000592d0       ?panel_addConfigVars@@YAXXZ 6605a2d0 f   panel.obj
 0001:00059310       ?printPanelConf@@YAPADHPAD0@Z 6605a310 f   panel.obj
 0001:00059440       ?panelNewGame@@YAXXZ       6605a440 f   panel.obj
 0001:000595d0       ?panelEndGame@@YAXXZ       6605a5d0 f   panel.obj
 0001:00059600       ?modifyStashGrid@@YAXXZ    6605a600 f   panel.obj
 0001:00059b00       ?MpqLoadPatch@@YIXPAD0@Z   6605ab00 f   panel.obj
 0001:00059be0       ?MqpLoadPathPatch_ASM@@YAXXZ 6605abe0 f   panel.obj
 0001:00059c00       ?ModifyStashImagePatch_ASM@@YAXXZ 6605ac00 f   panel.obj
 0001:00059c10       ?ModifyCubeImagePatch_ASM@@YAXXZ 6605ac10 f   panel.obj
 0001:00059c40       ?ModifyInvCharImagePatch_ASM@@YAXXZ 6605ac40 f   panel.obj
 0001:00059c80       ?ChooseInvCharImagePatch_ASM@@YAXXZ 6605ac80 f   panel.obj
 0001:00059cb0       ?CalDrawOffsetPatch_ASM@@YAXXZ 6605acb0 f   panel.obj
 0001:00059d40       ?GetEquipmentSlotLayoutPatch_ASM@@YAXXZ 6605ad40 f   panel.obj
 0001:00059ee0       ?GetInventoryGridLayoutPatch_ASM@@YAXXZ 6605aee0 f   panel.obj
 0001:00059f90       ?GetInventoryPositionPatch_ASM@@YAXXZ 6605af90 f   panel.obj
 0001:0005a040       ?AddSkillPatch_ASM@@YAXXZ  6605b040 f   panel.obj
 0001:0005a0c0       ?RecvCommand_26_Patch_ASM@@YAXXZ 6605b0c0 f   panel.obj
 0001:0005a4c0       ?installPanelPatches@@YAHXZ 6605b4c0 f   panel.obj
 0001:0005a660       ?uninstallBigstashPatches@@YAHXZ 6605b660 f   panel.obj
 0001:0005a680       ?installBigstashPatches@@YAHXZ 6605b680 f   panel.obj
 0001:0005ab40       ?server_addConfigVars@@YAXXZ 6605bb40 f   server.obj
 0001:0005ab80       ?client_unassign_stat@@YAHHH@Z 6605bb80 f   server.obj
 0001:0005ac60       ?client_mouse_stat@@YAHHH@Z 6605bc60 f   server.obj
 0001:0005ad30       ?getSkillDescTxt@@YAPAXH@Z 6605bd30 f   server.obj
 0001:0005ad40       ?getSkillTreeButtonY@@YAHH@Z 6605bd40 f   server.obj
 0001:0005ad50       ?getSkillTreeButtonX@@YAHH@Z 6605bd50 f   server.obj
 0001:0005ad60       ?client_mouse_skillBtn@@YAHHH@Z 6605bd60 f   server.obj
 0001:0005ae60       ?client_unassign_skill@@YAHHH@Z 6605be60 f   server.obj
 0001:0005af40       ?client_reset_quest@@YAHH@Z 6605bf40 f   server.obj
 0001:0005af70       ?UndoStr@@YAXPAUUnitAny@@H@Z 6605bf70 f   server.obj
 0001:0005b010       ?UndoDex@@YAXPAUUnitAny@@H@Z 6605c010 f   server.obj
 0001:0005b0b0       ?UndoVit@@YAXPAUUnitAny@@H@Z 6605c0b0 f   server.obj
 0001:0005b1b0       ?UndoEne@@YAXPAUUnitAny@@H@Z 6605c1b0 f   server.obj
 0001:0005b280       ?getClient@@YAPAXPAUUnitAny@@@Z 6605c280 f   server.obj
 0001:0005b2b0       ?UndoSkill@@YAXPAUUnitAny@@HH@Z 6605c2b0 f   server.obj
 0001:0005b490       ?getQuest@@YAPAGPAUWorld@@PAUUnitAny@@@Z 6605c490 f   server.obj
 0001:0005b4d0       ?serverUndo@@YAHPAUWorld@@PAUUnitAny@@PAD2@Z 6605c4d0 f   server.obj
 0001:0005bbc0       ?ModifyStashGridPatch_ASM@@YAXXZ 6605cbc0 f   server.obj
 0001:0005bbd0       ?compileRunesTxt@@YGPAXHPADPAUTxtField@@PAHH@Z 6605cbd0 f   server.obj
 0001:0005bc30       ?GameStartPatch_ASM@@YAXXZ 6605cc30 f   server.obj
 0001:0005bdd0       ?DoServerTest@@YAHXZ       6605cdd0 f   server.obj
 0001:0005beb0       ?installServerPatches@@YAHXZ 6605ceb0 f   server.obj
 0001:0005c330       ?RepeatAdminCmd@@YAHXZ     6605d330 f   admin.obj
 0001:0005c3a0       ?ClientChatPatch_ASM@@YAXXZ 6605d3a0 f   admin.obj
 0001:0005c440       ?setCharLv@@YAXPAUWorld@@PAUUnitAny@@H@Z 6605d440 f   admin.obj
 0001:0005c4f0       ?maxCharStat@@YAXPAUWorld@@PAUUnitAny@@@Z 6605d4f0 f   admin.obj
 0001:0005c5c0       ?enableAllWaypoints@@YAXPAUUnitAny@@@Z 6605d5c0 f   admin.obj
 0001:0005c640       ?passGame@@YAHPAUWorld@@PAUUnitAny@@H@Z 6605d640 f   admin.obj
 0001:0005c860       ?itemIndex2txt@@YAHH@Z     6605d860 f   admin.obj
 0001:0005c8f0       ?SelectUniquePatch_ASM@@YAXXZ 6605d8f0 f   admin.obj
 0001:0005c9c0       ?SelectSetPatch_ASM@@YAXXZ 6605d9c0 f   admin.obj
 0001:0005ca50       ?getItemTxtByCode@@YAHH@Z  6605da50 f   admin.obj
 0001:0005cb00       ?getRunewordTxt@@YAPAURuneWordTxt@@H@Z 6605db00 f   admin.obj
 0001:0005cb40       ?pickupItem@@YAXPAUWorld@@PAUUnitAny@@1H@Z 6605db40 f   admin.obj
 0001:0005cba0       ?invToHand@@YAXPAUWorld@@PAUUnitAny@@1@Z 6605dba0 f   admin.obj
 0001:0005cbe0       ?handToBody@@YAXPAUWorld@@PAUUnitAny@@1H@Z 6605dbe0 f   admin.obj
 0001:0005cc70       ?putItemIntoSocket@@YAXPAUWorld@@PAUUnitAny@@11@Z 6605dc70 f   admin.obj
 0001:0005ccb0       ?autoPortal@@YAHPAUWorld@@PAUUnitAny@@@Z 6605dcb0 f   admin.obj
 0001:0005d0e0       ?MonsterSleepPatch_ASM@@YAXXZ 6605e0e0 f   admin.obj
 0001:0005d100       ?skipServerPacket15@@YIHPAUWorld@@PAUUnitAny@@PADH@Z 6605e100 f   admin.obj
 0001:0005fdd0       ?ServerRecvPacket15Patch_ASM@@YAXXZ 66060dd0 f   admin.obj
 0001:0005fe00       ?uber_addConfigVars@@YAXXZ 66060e00 f   uber.obj
 0001:0005fe40       ?resetUberQuest@@YAXXZ     66060e40 f   uber.obj
 0001:0005feb0       ?openPandPortal@@YIHPAUWorld@@PAUUnitAny@@@Z 66060eb0 f   uber.obj
 0001:0005ff70       ?openPandFinalPortal@@YIHPAUWorld@@PAUUnitAny@@@Z 66060f70 f   uber.obj
 0001:0005ffb0       ?spawnSuperUnique@@YAHPAUWorld@@PAUAreaRectData@@HHHHHH@Z 66060fb0 f   uber.obj
 0001:0005fff0       ?monsterUseSkill@@YAXPAUWorld@@PAUUnitAny@@HH1HH@Z 66060ff0 f   uber.obj
 0001:00060030       ?spawnUber@@YGXPAUWorld@@PAUAreaRectData@@@Z 66061030 f   uber.obj
 0001:00060280       ?GetNbMonsters@@YAHPAUDrlgLevel@@@Z 66061280 f   uber.obj
 0001:00060310       ?GetNbMonstersRadius@@YAHPAUDrlgLevel@@UtagPOINT@@H@Z 66061310 f   uber.obj
 0001:000603d0       ?CastSummonMonster@@YAHPAUWorld@@PAUUnitAny@@HHPAHHH@Z 660613d0 f   uber.obj
 0001:00060500       ?randf@@YANXZ              66061500 f   uber.obj
 0001:00060520       ?RandInCircle@@YAXPAUtagPOINT@@H@Z 66061520 f   uber.obj
 0001:00060580       ?uberMephAI@@YIXPAUWorld@@PAUUnitAny@@PAUAIParam@@@Z 66061580 f   uber.obj
 0001:00060610       ?uberDiabloAI@@YIXPAUWorld@@PAUUnitAny@@PAUAIParam@@@Z 66061610 f   uber.obj
 0001:00060760       ?uberBaalAI@@YIXPAUWorld@@PAUUnitAny@@PAUAIParam@@@Z 66061760 f   uber.obj
 0001:00060930       ?installUberQuestPatches@@YAHXZ 66061930 f   uber.obj
 0001:00060a56       ??0_LocaleUpdate@@QAE@PAUlocaleinfo_struct@@@Z 66061a56 f i LIBCMT:stricmp.obj
 0001:00060add       ___ascii_stricmp           66061add f   LIBCMT:stricmp.obj
 0001:00060b16       __stricmp_l                66061b16 f   LIBCMT:stricmp.obj
 0001:00060beb       __stricmp                  66061beb f   LIBCMT:stricmp.obj
 0001:00060c3d       __flush                    66061c3d f   LIBCMT:fflush.obj
 0001:00060ca5       __fflush_nolock            66061ca5 f   LIBCMT:fflush.obj
 0001:00060dc7       _fflush                    66061dc7 f   LIBCMT:fflush.obj
 0001:00060e1a       __flushall                 66061e1a f   LIBCMT:fflush.obj
 0001:00060e23       _fprintf                   66061e23 f   LIBCMT:fprintf.obj
 0001:00060f3f       _bsearch                   66061f3f f   LIBCMT:bsearch.obj
 0001:00061001       @__security_check_cookie@4 66062001 f   LIBCMT:secchk.obj
 0001:00061010       _sprintf                   66062010 f   LIBCMT:sprintf.obj
 0001:00061090       _memset                    66062090 f   LIBCMT:memset.obj
 0001:0006110a       __fclose_nolock            6606210a f   LIBCMT:fclose.obj
 0001:00061181       _fclose                    66062181 f   LIBCMT:fclose.obj
 0001:000611fd       _fputs                     660621fd f   LIBCMT:fputs.obj
 0001:00061310       _strncpy                   66062310 f   LIBCMT:strncpy.obj
 0001:00061450       _strchr                    66062450 f   LIBCMT:strchr.obj
 0001:00061456       ___from_strstr_to_strchr   66062456     LIBCMT:strchr.obj
 0001:00061510       _strrchr                   66062510 f   LIBCMT:strrchr.obj
 0001:00061600       _qsort                     66062600 f   LIBCMT:qsort.obj
 0001:0006184d       _realloc                   6606284d f   LIBCMT:realloc.obj
 0001:00061a70       _memcpy                    66062a70 f   LIBCMT:memcpy.obj
 0001:00061dd5       __isalpha_l                66062dd5 f i LIBCMT:_ctype.obj
 0001:00061e2b       _isalpha                   66062e2b f i LIBCMT:_ctype.obj
 0001:00061e5b       __isdigit_l                66062e5b f i LIBCMT:_ctype.obj
 0001:00061eac       _isdigit                   66062eac f i LIBCMT:_ctype.obj
 0001:00061eda       __isspace_l                66062eda f i LIBCMT:_ctype.obj
 0001:00061f2b       _isspace                   66062f2b f i LIBCMT:_ctype.obj
 0001:00061f59       __isalnum_l                66062f59 f i LIBCMT:_ctype.obj
 0001:00061faf       _isalnum                   66062faf f i LIBCMT:_ctype.obj
 0001:0006220e       _strtol                    6606320e f   LIBCMT:strtol.obj
 0001:00062239       _strtoul                   66063239 f   LIBCMT:strtol.obj
 0001:00062265       __toupper_l                66063265 f   LIBCMT:toupper.obj
 0001:0006237b       _toupper                   6606337b f   LIBCMT:toupper.obj
 0001:000623a7       ___iob_func                660633a7 f   LIBCMT:_file.obj
 0001:000623ad       ___initstdio               660633ad f   LIBCMT:_file.obj
 0001:0006245e       ___endstdio                6606345e f   LIBCMT:_file.obj
 0001:0006247e       __lock_file                6606347e f   LIBCMT:_file.obj
 0001:000624bf       __lock_file2               660634bf f   LIBCMT:_file.obj
 0001:000624f1       __unlock_file              660634f1 f   LIBCMT:_file.obj
 0001:0006252d       __unlock_file2             6606352d f   LIBCMT:_file.obj
 0001:0006255c       __initp_misc_winxfltr      6606355c f   LIBCMT:winxfltr.obj
 0001:0006255c       __fpclear                  6606355c f   LIBCMT:_fpinit_.obj
 0001:0006255d       __cfltcvt_init             6606355d f   LIBCMT:_fpinit_.obj
 0001:000625bd       __fpmath                   660635bd f   LIBCMT:_fpinit_.obj
 0001:000625e0       __except_handler4          660635e0 f   LIBCMT:chandler4.obj
 0001:0006276c       _V6_HeapAlloc              6606376c f   LIBCMT:malloc.obj
 0001:000627bb       _malloc                    660637bb f   LIBCMT:malloc.obj
 0001:00062890       _strstr                    66063890 f   LIBCMT:strstr.obj
 0001:00062916       _fgets                     66063916 f   LIBCMT:fgets.obj
 0001:00062a5e       __fseek_nolock             66063a5e f   LIBCMT:fseek.obj
 0001:00062ae8       _fseek                     66063ae8 f   LIBCMT:fseek.obj
 0001:00062b6d       __fread_nolock_s           66063b6d f   LIBCMT:fread.obj
 0001:00062d77       _fread_s                   66063d77 f   LIBCMT:fread.obj
 0001:00062e0d       _fread                     66063e0d f   LIBCMT:fread.obj
 0001:00062e2a       __memicmp_l                66063e2a f   LIBCMT:memicmp.obj
 0001:00062eff       __memicmp                  66063eff f   LIBCMT:memicmp.obj
 0001:00062f5e       _strtok                    66063f5e f   LIBCMT:strtok.obj
 0001:00063020       __ftol2_sse                66064020 f   LIBCMT:ftol2.obj
 0001:00063029       __ftol2_pentium4           66064029 f   LIBCMT:ftol2.obj
 0001:0006303c       __ftol2_sse_excpt          6606403c f   LIBCMT:ftol2.obj
 0001:00063056       __ftol2                    66064056 f   LIBCMT:ftol2.obj
 0001:000630cb       ??3@YAXPAX@Z               660640cb f   LIBCMT:delete.obj
 0001:000630d6       ??0bad_alloc@std@@QAE@XZ   660640d6 f i LIBCMT:new.obj
 0001:000630f1       ??1bad_alloc@std@@UAE@XZ   660640f1 f i LIBCMT:new.obj
 0001:000630fc       ??_Ebad_alloc@std@@UAEPAXI@Z 660640fc f i LIBCMT:new.obj
 0001:000630fc       ??_Gbad_alloc@std@@UAEPAXI@Z 660640fc f i LIBCMT:new.obj
 0001:00063123       ??0bad_alloc@std@@QAE@ABV01@@Z 66064123 f i LIBCMT:new.obj
 0001:00063140       ??2@YAPAXI@Z               66064140 f   LIBCMT:new.obj
 0001:000631a5       _free                      660641a5 f   LIBCMT:free.obj
 0001:0006330d       __stat64i32                6606430d f   LIBCMT:stati32.obj
 0001:000636e1       __fwrite_nolock            660646e1 f   LIBCMT:fwrite.obj
 0001:00063843       _fwrite                    66064843 f   LIBCMT:fwrite.obj
 0001:000638c5       __fsopen                   660648c5 f   LIBCMT:fopen.obj
 0001:00063989       _fopen                     66064989 f   LIBCMT:fopen.obj
 0001:000639a0       __snprintf                 660649a0 f   LIBCMT:snprintf.obj
 0001:00063a4f       __ftell_nolock             66064a4f f   LIBCMT:ftell.obj
 0001:00063bec       _ftell                     66064bec f   LIBCMT:ftell.obj
 0001:00063c60       __chkstk                   66064c60 f   LIBCMT:chkstk.obj
 0001:00063c60       __alloca_probe             66064c60     LIBCMT:chkstk.obj
 0001:00063c90       __CIsqrt                   66064c90 f   LIBCMT:_sqrt_.obj
 0001:00063ca4       _sqrt                      66064ca4     LIBCMT:_sqrt_.obj
 0001:00063d4a       __vsnprintf_l              66064d4a f   LIBCMT:vsnprint.obj
 0001:00063dfd       __vsnprintf                66064dfd f   LIBCMT:vsnprint.obj
 0001:00063e1a       __strdup                   66064e1a f   LIBCMT:strdup.obj
 0001:00063e6f       _fputc                     66064e6f f   LIBCMT:fputc.obj
 0001:00063f7b       _rand                      66064f7b f   LIBCMT:rand.obj
 0001:00063f9d       _rename                    66064f9d f   LIBCMT:rename.obj
 0001:00063fd0       _memmove                   66064fd0 f   LIBCMT:memmove.obj
 0001:00064335       __isleadbyte_l             66065335 f i LIBCMT:_wctype.obj
 0001:0006436d       _isleadbyte                6606536d f i LIBCMT:_wctype.obj
 0001:00064380       _iswspace                  66065380 f i LIBCMT:_wctype.obj
 0001:00064393       _printf                    66065393 f   LIBCMT:printf.obj
 0001:00064442       __get_printf_count_output  66065442 f   LIBCMT:printf.obj
 0001:00064458       __time64                   66065458 f   LIBCMT:time64.obj
 0001:000644a9       __freea                    660654a9 f i LIBCMT:strupr.obj
 0001:00064647       __strupr_s_l               66065647 f   LIBCMT:strupr.obj
 0001:0006467c       __strupr                   6606567c f   LIBCMT:strupr.obj
 0001:000648db       _wcstol                    660658db f   LIBCMT:wcstol.obj
 0001:00064910       __allshr                   66065910 f   LIBCMT:llshr.obj
 0001:00064940       _sin                       66065940 f   LIBCMT:_sin_.obj
 0001:00064980       __CIsin                    66065980 f   LIBCMT:_sin_.obj
 0001:000649bb       __CIsin_default            660659bb f   LIBCMT:_sin_.obj
 0001:000649cf       __sin_default              660659cf     LIBCMT:_sin_.obj
 0001:00064a70       _cos                       66065a70 f   LIBCMT:_cos_.obj
 0001:00064ab0       __CIcos                    66065ab0 f   LIBCMT:_cos_.obj
 0001:00064aeb       __CIcos_default            66065aeb f   LIBCMT:_cos_.obj
 0001:00064aff       __cos_default              66065aff     LIBCMT:_cos_.obj
 0001:00064b99       __CRT_INIT@12              66065b99 f   LIBCMT:dllcrt0.obj
 0001:00064dc4       __DllMainCRTStartup@12     66065dc4 f   LIBCMT:dllcrt0.obj
 0001:0006500d       ___updatetmbcinfo          6606600d f   LIBCMT:mbctype.obj
 0001:0006512d       __setmbcp_nolock           6606612d f   LIBCMT:mbctype.obj
 0001:00065312       __setmbcp                  66066312 f   LIBCMT:mbctype.obj
 0001:000654ac       ___initmbctable            660664ac f   LIBCMT:mbctype.obj
 0001:000654ca       ___freetlocinfo            660664ca f   LIBCMT:setlocal.obj
 0001:00065613       ___addlocaleref            66066613 f   LIBCMT:setlocal.obj
 0001:000656a2       ___removelocaleref         660666a2 f   LIBCMT:setlocal.obj
 0001:00065779       ___updatetlocinfo          66066779 f   LIBCMT:setlocal.obj
 0001:000657ef       __encode_pointer           660667ef f   LIBCMT:tidtable.obj
 0001:00065861       __encoded_null             66066861 f   LIBCMT:tidtable.obj
 0001:0006586a       __decode_pointer           6606686a f   LIBCMT:tidtable.obj
 0001:000658dc       ___crtTlsAlloc@4           660668dc f   LIBCMT:tidtable.obj
 0001:000658e5       ___set_flsgetvalue         660668e5 f   LIBCMT:tidtable.obj
 0001:00065919       __mtterm                   66066919 f   LIBCMT:tidtable.obj
 0001:00065956       __initptd                  66066956 f   LIBCMT:tidtable.obj
 0001:00065a3d       __getptd_noexit            66066a3d f   LIBCMT:tidtable.obj
 0001:00065ab6       __getptd                   66066ab6 f   LIBCMT:tidtable.obj
 0001:00065ad0       __freefls@4                66066ad0 f   LIBCMT:tidtable.obj
 0001:00065bff       __freeptd                  66066bff f   LIBCMT:tidtable.obj
 0001:00065c6d       __mtinit                   66066c6d f   LIBCMT:tidtable.obj
 0001:00065dfa       __tolower_l                66066dfa f   LIBCMT:tolower.obj
 0001:00065f0f       _tolower                   66066f0f f   LIBCMT:tolower.obj
 0001:00065f3b       __initp_misc_invarg        66066f3b f   LIBCMT:invarg.obj
 0001:00065f4a       __invoke_watson            66066f4a f   LIBCMT:invarg.obj
 0001:00066072       __invalid_parameter        66067072 f   LIBCMT:invarg.obj
 0001:00066098       __get_errno_from_oserr     66067098 f   LIBCMT:dosmap.obj
 0001:000660da       __errno                    660670da f   LIBCMT:dosmap.obj
 0001:000660ed       ___doserrno                660670ed f   LIBCMT:dosmap.obj
 0001:00066100       __dosmaperr                66067100 f   LIBCMT:dosmap.obj
 0001:00066123       __write_nolock             66067123 f   LIBCMT:write.obj
 0001:00066856       __write                    66067856 f   LIBCMT:write.obj
 0001:00066932       __fileno                   66067932 f   LIBCMT:fileno.obj
 0001:00066964       __commit                   66067964 f   LIBCMT:commit.obj
 0001:00066a45       __mtinitlocks              66067a45 f   LIBCMT:mlock.obj
 0001:00066a90       __mtdeletelocks            66067a90 f   LIBCMT:mlock.obj
 0001:00066ae7       __unlock                   66067ae7 f   LIBCMT:mlock.obj
 0001:00066afe       __mtinitlocknum            66067afe f   LIBCMT:mlock.obj
 0001:00066bc1       __lock                     66067bc1 f   LIBCMT:mlock.obj
 0001:00066bf4       __SEH_prolog4              66067bf4 f   LIBCMT:sehprolg4.obj
 0001:00066c39       __SEH_epilog4              66067c39 f   LIBCMT:sehprolg4.obj
 0001:00066c4d       __stbuf                    66067c4d f   LIBCMT:_sftbuf.obj
 0001:00066ce9       __ftbuf                    66067ce9 f   LIBCMT:_sftbuf.obj
 0001:00066dc3       __output_l                 66067dc3 f   LIBCMT:output.obj
 0001:0006795b       __ioinit                   6606895b f   LIBCMT:ioinit.obj
 0001:00067baf       __ioterm                   66068baf f   LIBCMT:ioinit.obj
 0001:00067bfd       ___report_gsfailure        66068bfd f   LIBCMT:gs_report.obj
 0001:00067d03       __flsbuf                   66068d03 f   LIBCMT:_flsbuf.obj
 0001:00067ebe       __VEC_memzero              66068ebe f   LIBCMT:p4_memset.obj
 0001:00067f9d       __get_sse2_info            66068f9d f   LIBCMT:cpu_disp.obj
 0001:00067fff       ___sse2_available_init     66068fff f   LIBCMT:cpu_disp.obj
 0001:0006800c       __close_nolock             6606900c f   LIBCMT:close.obj
 0001:000680a8       __close                    660690a8 f   LIBCMT:close.obj
 0001:00068175       __freebuf                  66069175 f   LIBCMT:_freebuf.obj
 0001:000681b0       _strlen                    660691b0 f   LIBCMT:strlen.obj
 0001:0006823b       __initp_heap_handler       6606923b f   LIBCMT:handler.obj
 0001:0006824a       __callnewh                 6606924a f   LIBCMT:handler.obj
 0001:00068272       __heap_init                66069272 f   LIBCMT:heapinit.obj
 0001:000682a2       __heap_term                660692a2 f   LIBCMT:heapinit.obj
 0001:00068316       ___sbh_find_block          66069316 f   LIBCMT:sbheap.obj
 0001:00068346       ___sbh_free_block          66069346 f   LIBCMT:sbheap.obj
 0001:0006865c       ___sbh_alloc_new_region    6606965c f   LIBCMT:sbheap.obj
 0001:0006870c       ___sbh_alloc_new_group     6606970c f   LIBCMT:sbheap.obj
 0001:00068814       ___sbh_resize_block        66069814 f   LIBCMT:sbheap.obj
 0001:00068af5       ___sbh_alloc_block         66069af5 f   LIBCMT:sbheap.obj
 0001:00068e61       __VEC_memcpy               66069e61 f   LIBCMT:p4_memcpy.obj
 0001:00068f44       __isctype_l                66069f44 f   LIBCMT:isctype.obj
 0001:000693a1       ___crtLCMapStringA         6606a3a1 f   LIBCMT:a_map.obj
 0001:000693e6       __malloc_crt               6606a3e6 f   LIBCMT:crtheap.obj
 0001:0006942b       __calloc_crt               6606a42b f   LIBCMT:crtheap.obj
 0001:00069477       __realloc_crt              6606a477 f   LIBCMT:crtheap.obj
 0001:000694c5       __recalloc_crt             6606a4c5 f   LIBCMT:crtheap.obj
 0001:00069517       __fcloseall                6606a517 f   LIBCMT:closeall.obj
 0001:000695b6       __crt_waiting_on_module_handle 6606a5b6 f   LIBCMT:crt0dat.obj
 0001:000695e6       __amsg_exit                6606a5e6 f   LIBCMT:crt0dat.obj
 0001:0006960f       ___crtCorExitProcess       6606a60f f   LIBCMT:crt0dat.obj
 0001:0006963a       ___crtExitProcess          6606a63a f   LIBCMT:crt0dat.obj
 0001:00069652       __lockexit                 6606a652 f   LIBCMT:crt0dat.obj
 0001:0006965b       __unlockexit               6606a65b f   LIBCMT:crt0dat.obj
 0001:00069681       __initterm_e               6606a681 f   LIBCMT:crt0dat.obj
 0001:000696a5       __cinit                    6606a6a5 f   LIBCMT:crt0dat.obj
 0001:00069856       __exit                     6606a856 f   LIBCMT:crt0dat.obj
 0001:0006986c       __cexit                    6606a86c f   LIBCMT:crt0dat.obj
 0001:0006987b       __init_pointers            6606a87b f   LIBCMT:crt0dat.obj
 0001:000698c9       __forcdecpt_l              6606a8c9 f   LIBCMT:cvt.obj
 0001:0006993c       __cropzeros_l              6606a93c f   LIBCMT:cvt.obj
 0001:000699be       __positive                 6606a9be f   LIBCMT:cvt.obj
 0001:000699da       __fassign_l                6606a9da f   LIBCMT:cvt.obj
 0001:00069a1c       __fassign                  6606aa1c f   LIBCMT:cvt.obj
 0001:00069a55       __forcdecpt                6606aa55 f   LIBCMT:cvt.obj
 0001:00069a68       __cropzeros                6606aa68 f   LIBCMT:cvt.obj
 0001:00069bea       __cftoe_l                  6606abea f   LIBCMT:cvt.obj
 0001:00069cba       __cftoe                    6606acba f   LIBCMT:cvt.obj
 0001:00069cda       __cftoa_l                  6606acda f   LIBCMT:cvt.obj
 0001:0006a144       __cftof_l                  6606b144 f   LIBCMT:cvt.obj
 0001:0006a1ff       __cftog_l                  6606b1ff f   LIBCMT:cvt.obj
 0001:0006a2f9       __cfltcvt_l                6606b2f9 f   LIBCMT:cvt.obj
 0001:0006a381       __cfltcvt                  6606b381 f   LIBCMT:cvt.obj
 0001:0006a3a4       __initp_misc_cfltcvt_tab   6606b3a4 f   LIBCMT:cmiscdat.obj
 0001:0006a3c5       __setdefaultprecision      6606b3c5 f   LIBCMT:fp8.obj
 0001:0006a3f0       __ms_p5_test_fdiv          6606b3f0 f   LIBCMT:_testfdiv_.obj
 0001:0006a42e       __ms_p5_mp_test_fdiv       6606b42e f   LIBCMT:_testfdiv_.obj
 0001:0006a458       __local_unwind4            6606b458 f   LIBCMT:exsup4.obj
 0001:0006a52e       __seh_longjmp_unwind4@4    6606b52e f   LIBCMT:exsup4.obj
 0001:0006a54a       @_EH4_CallFilterFunc@8     6606b54a f   LIBCMT:exsup4.obj
 0001:0006a561       @_EH4_TransferToHandler@8  6606b561 f   LIBCMT:exsup4.obj
 0001:0006a57a       @_EH4_GlobalUnwind@4       6606b57a f   LIBCMT:exsup4.obj
 0001:0006a594       @_EH4_LocalUnwind@16       6606b594 f   LIBCMT:exsup4.obj
 0001:0006a5b0       __ValidateImageBase        6606b5b0 f   LIBCMT:pesect.obj
 0001:0006a5f0       __FindPESection            6606b5f0 f   LIBCMT:pesect.obj
 0001:0006a640       __IsNonwritableInCurrentImage 6606b640 f   LIBCMT:pesect.obj
 0001:0006a6fd       __NMSG_WRITE               6606b6fd f   LIBCMT:crt0msg.obj
 0001:0006a8a8       __FF_MSGBANNER             6606b8a8 f   LIBCMT:crt0msg.obj
 0001:0006a8e1       __filbuf                   6606b8e1 f   LIBCMT:_filbuf.obj
 0001:0006aa0c       __lseek_nolock             6606ba0c f   LIBCMT:lseek.obj
 0001:0006aa81       __lseek                    6606ba81 f   LIBCMT:lseek.obj
 0001:0006ab5d       __read_nolock              6606bb5d f   LIBCMT:read.obj
 0001:0006b11f       __read                     6606c11f f   LIBCMT:read.obj
 0001:0006b21c       _memcpy_s                  6606c21c f   LIBCMT:memcpy_s.obj
 0001:0006b2a0       ___ascii_memicmp           6606c2a0 f   LIBCMT:_memicmp.obj
 0001:0006b2f9       ??0exception@std@@QAE@ABQBDH@Z 6606c2f9 f   LIBCMT:stdexcpt.obj
 0001:0006b316       ??0exception@std@@QAE@ABV01@@Z 6606c316 f   LIBCMT:stdexcpt.obj
 0001:0006b373       ??1exception@std@@UAE@XZ   6606c373 f   LIBCMT:stdexcpt.obj
 0001:0006b389       ?what@exception@std@@UBEPBDXZ 6606c389 f   LIBCMT:stdexcpt.obj
 0001:0006b396       ??_Gexception@std@@UAEPAXI@Z 6606c396 f i LIBCMT:stdexcpt.obj
 0001:0006b396       ??_Eexception@std@@UAEPAXI@Z 6606c396 f i LIBCMT:stdexcpt.obj
 0001:0006b3b7       ??1type_info@@UAE@XZ       6606c3b7 f   LIBCMT:typinfo.obj
 0001:0006b3c7       ??_Gtype_info@@UAEPAXI@Z   6606c3c7 f i LIBCMT:typinfo.obj
 0001:0006b3c7       ??_Etype_info@@UAEPAXI@Z   6606c3c7 f i LIBCMT:typinfo.obj
 0001:0006b4a2       ___onexitinit              6606c4a2 f   LIBCMT:onexit.obj
 0001:0006b4d3       __onexit                   6606c4d3 f   LIBCMT:onexit.obj
 0001:0006b50f       _atexit                    6606c50f f   LIBCMT:onexit.obj
 0001:0006b526       __CxxThrowException@8      6606c526 f   LIBCMT:throw.obj
 0001:0006b572       __fullpath                 6606c572 f   LIBCMT:fullpath.obj
 0001:0006b67c       ___dtoxmode                6606c67c f   LIBCMT:stat.obj
 0001:0006b739       ___loctotime64_t           6606c739 f   LIBCMT:dtoxtm64.obj
 0001:0006b9a4       __getdrive                 6606c9a4 f   LIBCMT:drive.obj
 0001:0006ba6d       __mbctolower_l             6606ca6d f   LIBCMT:mbtolwr.obj
 0001:0006bb13       __mbctolower               6606cb13 f   LIBCMT:mbtolwr.obj
 0001:0006bb26       __mbspbrk_l                6606cb26 f   LIBCMT:mbspbrk.obj
 0001:0006bbf3       __mbspbrk                  6606cbf3 f   LIBCMT:mbspbrk.obj
 0001:0006bc0a       __openfile                 6606cc0a f   LIBCMT:_open.obj
 0001:0006bed3       __getstream                6606ced3 f   LIBCMT:stream.obj
 0001:0006c010       __trandisp1                6606d010 f   LIBCMT:_87disp_.obj
 0001:0006c077       __trandisp2                6606d077 f   LIBCMT:_87disp_.obj
 0001:0006c103       __rttospopde               6606d103     LIBCMT:_87disp_.obj
 0001:0006c108       __rttospop                 6606d108     LIBCMT:_87disp_.obj
 0001:0006c10a       __rtnospop                 6606d10a     LIBCMT:_87disp_.obj
 0001:0006c10c       __rttosnpop                6606d10c     LIBCMT:_87disp_.obj
 0001:0006c10d       __rtnospopde               6606d10d     LIBCMT:_87disp_.obj
 0001:0006c114       __rtzeropop                6606d114     LIBCMT:_87disp_.obj
 0001:0006c116       __rtzeronpop               6606d116     LIBCMT:_87disp_.obj
 0001:0006c11b       __rtonepop                 6606d11b     LIBCMT:_87disp_.obj
 0001:0006c11d       __rtonenpop                6606d11d     LIBCMT:_87disp_.obj
 0001:0006c122       __tosnan1                  6606d122     LIBCMT:_87disp_.obj
 0001:0006c14d       __nosnan2                  6606d14d     LIBCMT:_87disp_.obj
 0001:0006c14f       __tosnan2                  6606d14f     LIBCMT:_87disp_.obj
 0001:0006c177       __nan2                     6606d177     LIBCMT:_87disp_.obj
 0001:0006c1b6       __rtindfpop                6606d1b6     LIBCMT:_87disp_.obj
 0001:0006c1b8       __rtindfnpop               6606d1b8     LIBCMT:_87disp_.obj
 0001:0006c1c9       __rttosnpopde              6606d1c9     LIBCMT:_87disp_.obj
 0001:0006c1d3       __rtchsifneg               6606d1d3     LIBCMT:_87disp_.obj
 0001:0006c1e0       __startTwoArgErrorHandling 6606d1e0 f   LIBCMT:_genexcep_.obj
 0001:0006c1f7       __startOneArgErrorHandling 6606d1f7 f   LIBCMT:_genexcep_.obj
 0001:0006c240       __twoToTOS                 6606d240 f   LIBCMT:_common_.obj
 0001:0006c255       __load_CW                  6606d255 f   LIBCMT:_common_.obj
 0001:0006c26c       __convertTOStoQNaN         6606d26c f   LIBCMT:_common_.obj
 0001:0006c285       __fload_withFB             6606d285 f   LIBCMT:_common_.obj
 0001:0006c2c8       __checkTOS_withFB          6606d2c8 f   LIBCMT:_common_.obj
 0001:0006c2de       __fast_exit                6606d2de f   LIBCMT:_common_.obj
 0001:0006c2eb       __math_exit                6606d2eb f   LIBCMT:_common_.obj
 0001:0006c315       __check_overflow_exit      6606d315 f   LIBCMT:_common_.obj
 0001:0006c329       __check_range_exit         6606d329 f   LIBCMT:_common_.obj
 0001:0006c3cc       _strcpy_s                  6606d3cc f   LIBCMT:strcpy_s.obj
 0001:0006c434       __iswctype_l               6606d434 f   LIBCMT:iswctype.obj
 0001:0006c4be       _iswctype                  6606d4be f   LIBCMT:iswctype.obj
 0001:0006c540       __aulldiv                  6606d540 f   LIBCMT:ulldiv.obj
 0001:0006c5a8       _strnlen                   6606d5a8 f   LIBCMT:strlen_s.obj
 0001:0006c5d0       __alloca_probe_16          6606d5d0 f   LIBCMT:alloca16.obj
 0001:0006c5e6       __alloca_probe_8           6606d5e6     LIBCMT:alloca16.obj
 0001:0006c5fc       __wchartodigit             6606d5fc f   LIBCMT:wchtodig.obj
 0001:0006c7d7       __sse2_mathfcns_init       6606d7d7 f   LIBCMT:_mathfcns_.obj
 0001:0006c7f0       __CIsin_pentium4           6606d7f0 f   LIBCMT:_sin_pentium4_.obj
 0001:0006c808       __sin_pentium4             6606d808     LIBCMT:_sin_pentium4_.obj
 0001:0006c9c0       __CIcos_pentium4           6606d9c0 f   LIBCMT:_cos_pentium4_.obj
 0001:0006c9d8       __cos_pentium4             6606d9d8     LIBCMT:_cos_pentium4_.obj
 0001:0006cb6c       __setenvp                  6606db6c f   LIBCMT:stdenvp.obj
 0001:0006cde4       __setargv                  6606dde4 f   LIBCMT:stdargv.obj
 0001:0006ce9f       ___crtGetEnvironmentStringsA 6606de9f f   LIBCMT:a_env.obj
 0001:0006cfd6       __RTC_Initialize           6606dfd6 f   LIBCMT:_initsect_.obj
 0001:0006cffc       __RTC_Terminate            6606dffc f   LIBCMT:_initsect_.obj
 0001:0006d022       __XcptFilter               6606e022 f   LIBCMT:winxfltr.obj
 0001:0006d182       ___CppXcptFilter           6606e182 f   LIBCMT:winxfltr.obj
 0001:0006d1a2       ___security_init_cookie    6606e1a2 f   LIBCMT:gs_support.obj
 0001:0006d3f2       ___crtGetStringTypeA       6606e3f2 f   LIBCMT:a_str.obj
 0001:0006d434       ___free_lc_time            6606e434 f   LIBCMT:inittime.obj
 0001:0006d5c9       ___free_lconv_num          6606e5c9 f   LIBCMT:initnum.obj
 0001:0006d60e       ___free_lconv_mon          6606e60e f   LIBCMT:initmon.obj
 0001:0006d69c       ____lc_codepage_func       6606e69c f   LIBCMT:initctyp.obj
 0001:0006d6c2       _strcat_s                  6606e6c2 f   LIBCMT:strcat_s.obj
 0001:0006d740       _strcspn                   6606e740 f   LIBCMT:strcspn.obj
 0001:0006d786       _strncpy_s                 6606e786 f   LIBCMT:strncpy_s.obj
 0001:0006d840       _strcmp                    6606e840 f   LIBCMT:strcmp.obj
 0001:0006d8c8       _strncmp                   6606e8c8 f   LIBCMT:strncmp.obj
 0001:0006d990       _strpbrk                   6606e990 f   LIBCMT:strpbrk.obj
 0001:0006d9d0       __crt_debugger_hook        6606e9d0 f   LIBCMT:dbghook.obj
 0001:0006d9d8       __putwch_nolock            6606e9d8 f   LIBCMT:putwch.obj
 0001:0006da9d       __mbtowc_l                 6606ea9d f   LIBCMT:mbtowc.obj
 0001:0006dbb4       _mbtowc                    6606ebb4 f   LIBCMT:mbtowc.obj
 0001:0006dbce       __isatty                   6606ebce f   LIBCMT:isatty.obj
 0001:0006dc32       __lseeki64_nolock          6606ec32 f   LIBCMT:lseeki64.obj
 0001:0006dcb7       __lseeki64                 6606ecb7 f   LIBCMT:lseeki64.obj
 0001:0006ddd0       __set_osfhnd               6606edd0 f   LIBCMT:osfinfo.obj
 0001:0006de51       __free_osfhnd              6606ee51 f   LIBCMT:osfinfo.obj
 0001:0006ded7       __get_osfhandle            6606eed7 f   LIBCMT:osfinfo.obj
 0001:0006df4e       ___lock_fhandle            6606ef4e f   LIBCMT:osfinfo.obj
 0001:0006dfee       __unlock_fhandle           6606efee f   LIBCMT:osfinfo.obj
 0001:0006e015       __alloc_osfhnd             6606f015 f   LIBCMT:osfinfo.obj
 0001:0006e1af       __initp_misc_initcrit      6606f1af f   LIBCMT:initcrit.obj
 0001:0006e1be       ___crtInitCritSecAndSpinCount 6606f1be f   LIBCMT:initcrit.obj
 0001:0006e21e       __wctomb_s_l               6606f21e f   LIBCMT:wctomb.obj
 0001:0006e38a       _wctomb_s                  6606f38a f   LIBCMT:wctomb.obj
 0001:0006e3b0       __aulldvrm                 6606f3b0 f   LIBCMT:ulldvrm.obj
 0001:0006e445       __getbuf                   6606f445 f   LIBCMT:_getbuf.obj
 0001:0006e48e       ___ansicp                  6606f48e f   LIBCMT:convrtcp.obj
 0001:0006e4d7       ___convertcp               6606f4d7 f   LIBCMT:convrtcp.obj
 0001:0006e68b       __calloc_impl              6606f68b f   LIBCMT:calloc_impl.obj
 0001:0006e7a9       __recalloc                 6606f7a9 f   LIBCMT:recalloc.obj
 0001:0006e824       ?terminate@@YAXXZ          6606f824 f   LIBCMT:hooks.obj
 0001:0006e85d       __initp_eh_hooks           6606f85d f   LIBCMT:hooks.obj
 0001:0006e86e       __initp_misc_winsig        6606f86e f   LIBCMT:winsig.obj
 0001:0006e8c3       ___get_sigabrt             6606f8c3 f   LIBCMT:winsig.obj
 0001:0006e8d0       _raise                     6606f8d0 f   LIBCMT:winsig.obj
 0001:0006ea80       __initp_misc_rand_s        6606fa80 f   LIBCMT:rand_s.obj
 0001:0006ea8f       __initp_misc_purevirt      6606fa8f f   LIBCMT:inithelp.obj
 0001:0006ea9e       __atodbl_l                 6606fa9e f   LIBCMT:atodbl.obj
 0001:0006eb46       __atoflt_l                 6606fb46 f   LIBCMT:atodbl.obj
 0001:0006ebee       __fptostr                  6606fbee f   LIBCMT:_fptostr.obj
 0001:0006ecad       ___dtold                   6606fcad f   LIBCMT:_cfout_.obj
 0001:0006ed6a       __fltout2                  6606fd6a f   LIBCMT:_cfout_.obj
 0001:0006ee00       __alldvrm                  6606fe00 f   LIBCMT:lldvrm.obj
 0001:0006eee0       __aullshr                  6606fee0 f   LIBCMT:ullshr.obj
 0001:0006eeff       __fptrap                   6606feff f   LIBCMT:crt0fp.obj
 0001:0006ef08       __controlfp_s              6606ff08 f   LIBCMT:_contrlfp_.obj
 0001:0006ef74       __global_unwind2           6606ff74 f   LIBCMT:exsup.obj
 0001:0006efd9       __local_unwind2            6606ffd9 f   LIBCMT:exsup.obj
 0001:0006f05d       __abnormal_termination     6607005d f   LIBCMT:exsup.obj
 0001:0006f080       __NLG_Notify1              66070080 f   LIBCMT:exsup.obj
 0001:0006f089       __NLG_Notify               66070089 f   LIBCMT:exsup.obj
 0001:0006f0a0       __NLG_Dispatch2            660700a0     LIBCMT:exsup.obj
 0001:0006f0a0       __NLG_Dispatch             660700a0     LIBCMT:exsup.obj
 0001:0006f0a8       __NLG_Call                 660700a8 f   LIBCMT:exsup.obj
 0001:0006f0aa       __NLG_Return2              660700aa     LIBCMT:exsup.obj
 0001:0006f0ab       ___crtMessageBoxA          660700ab f   LIBCMT:crtmbox.obj
 0001:0006f214       __set_error_mode           66070214 f   LIBCMT:errmode.obj
 0001:0006f25f       ?_Type_info_dtor@type_info@@CAXPAV1@@Z 6607025f f   LIBCMT:typname.obj
 0001:0006f2cf       __msize                    660702cf f   LIBCMT:msize.obj
 0001:0006f372       __validdrive               66070372 f   LIBCMT:getcwd.obj
 0001:0006f3ab       __getdcwd_nolock           660703ab f   LIBCMT:getcwd.obj
 0001:0006f4e2       __getcwd                   660704e2 f   LIBCMT:getcwd.obj
 0001:0006f52b       _calloc                    6607052b f   LIBCMT:calloc.obj
 0001:0006f56b       __mbsicmp_l                6607056b f   LIBCMT:mbsicmp.obj
 0001:0006f791       __mbsicmp                  66070791 f   LIBCMT:mbsicmp.obj
 0001:0006f7a8       __mbsrchr_l                660707a8 f   LIBCMT:mbsrchr.obj
 0001:0006f864       __mbsrchr                  66070864 f   LIBCMT:mbsrchr.obj
 0001:0006f87b       __set_daylight             6607087b f i LIBCMT:tzset.obj
 0001:0006f88c       __set_dstbias              6607088c f i LIBCMT:tzset.obj
 0001:0006f89d       __set_timezone             6607089d f i LIBCMT:tzset.obj
 0001:0006ffc3       ___tzset                   66070fc3 f   LIBCMT:tzset.obj
 0001:00070012       __isindst                  66071012 f   LIBCMT:tzset.obj
 0001:00070053       __get_daylight             66071053 f   LIBCMT:timeset.obj
 0001:0007008c       __get_dstbias              6607108c f   LIBCMT:timeset.obj
 0001:000700c5       __get_timezone             660710c5 f   LIBCMT:timeset.obj
 0001:000700fe       ___daylight                660710fe f   LIBCMT:timeset.obj
 0001:00070104       ___dstbias                 66071104 f   LIBCMT:timeset.obj
 0001:0007010a       ___timezone                6607110a f   LIBCMT:timeset.obj
 0001:00070110       ___tzname                  66071110 f   LIBCMT:timeset.obj
 0001:00070120       __allmul                   66071120 f   LIBCMT:llmul.obj
 0001:00070873       __sopen_helper             66071873 f   LIBCMT:open.obj
 0001:0007093f       __sopen_s                  6607193f f   LIBCMT:open.obj
 0001:0007095f       __mbsnbicmp_l              6607195f f   LIBCMT:mbsnbicm.obj
 0001:00070b8a       __mbsnbicmp                66071b8a f   LIBCMT:mbsnbicm.obj
 0001:00070ba4       __mbsnbcmp_l               66071ba4 f   LIBCMT:mbsnbcmp.obj
 0001:00070d0e       __mbsnbcmp                 66071d0e f   LIBCMT:mbsnbcmp.obj
 0001:00070d28       __87except                 66071d28 f   LIBCMT:_87except_.obj
 0001:00070e67       ___crtGetStringTypeW       66071e67 f   LIBCMT:w_str.obj
 0001:00070ef8       __ismbblead                66071ef8 f   LIBCMT:ismbbyte.obj
 0001:00070f10       _atol                      66071f10 f   LIBCMT:atox.obj
 0001:00070f26       __strnicmp_l               66071f26 f   LIBCMT:strnicmp.obj
 0001:00071018       __strnicmp                 66072018 f   LIBCMT:strnicmp.obj
 0001:00071076       ___initconout              66072076 f   LIBCMT:initcon.obj
 0001:00071095       ___termcon                 66072095 f   LIBCMT:initcon.obj
 0001:000710c2       _abort                     660720c2 f   LIBCMT:abort.obj
 0001:000711d9       __ld12tod                  660721d9 f   LIBCMT:_intrncvt_.obj
 0001:0007171d       __ld12tof                  6607271d f   LIBCMT:_intrncvt_.obj
 0001:00071c61       ___strgtold12_l            66072c61 f   LIBCMT:_strgtold_.obj
 0001:00072359       _$I10_OUTPUT               66073359 f   LIBCMT:_x10fout_.obj
 0001:00072dab       __control87                66073dab f i LIBCMT:_ieee87_.obj
 0001:000730ba       __getenv_helper_nolock     660740ba f   LIBCMT:getenv.obj
 0001:00073141       __chsize_nolock            66074141 f   LIBCMT:chsize.obj
 0001:000732f7       __setmode_nolock           660742f7 f   LIBCMT:setmode.obj
 0001:000733b3       __get_fmode                660743b3 f   LIBCMT:setmode.obj
 0001:000733ec       __raise_exc_ex             660743ec f   LIBCMT:_fpexcept_.obj
 0001:000736c8       __raise_exc                660746c8 f   LIBCMT:_fpexcept_.obj
 0001:000736eb       __handle_exc               660746eb f   LIBCMT:_fpexcept_.obj
 0001:000738cd       __set_errno_from_matherr   660748cd f   LIBCMT:_fpexcept_.obj
 0001:000738fa       __matherr                  660748fa f   LIBCMT:_matherr_.obj
 0001:000738fd       __statfp                   660748fd f   LIBCMT:_fpctrl_.obj
 0001:0007390d       __clrfp                    6607490d f   LIBCMT:_fpctrl_.obj
 0001:0007391e       __ctrlfp                   6607491e f   LIBCMT:_fpctrl_.obj
 0001:00073947       __set_statfp               66074947 f   LIBCMT:_fpctrl_.obj
 0001:0007399f       ___set_fpsr_sse2           6607499f f   LIBCMT:_fpctrl_.obj
 0001:00073a20       ___ascii_strnicmp          66074a20 f   LIBCMT:_strnicm.obj
 0001:00073a81       ___mtold12                 66074a81 f   LIBCMT:_mantold_.obj
 0001:00073c4f       __mbsnbicoll_l             66074c4f f   LIBCMT:mbsnbico.obj
 0001:00073d3d       __mbsnbicoll               66074d3d f   LIBCMT:mbsnbico.obj
 0001:00073d57       ___wtomb_environ           66074d57 f   LIBCMT:wtombenv.obj
 0001:00073dee       __set_exp                  66074dee f   LIBCMT:_util_.obj
 0001:00073e1a       __decomp                   66074e1a f   LIBCMT:_util_.obj
 0001:00074261       ___crtCompareStringA       66075261 f   LIBCMT:a_cmp.obj
 0001:000742a3       __strnicoll_l              660752a3 f   LIBCMT:strnicol.obj
 0001:00074449       ___crtsetenv               66075449 f   LIBCMT:setenv.obj
 0001:00074694       __mbschr_l                 66075694 f   LIBCMT:mbschr.obj
 0001:00074750       __mbschr                   66075750 f   LIBCMT:mbschr.obj
 0001:00074768       _ImmAssociateContext@8     66075768 f   imm32:IMM32.dll
 0001:0007476e       _RtlUnwind@16              6607576e f   kernel32:KERNEL32.dll
 0002:00000000       __imp__ImmAssociateContext@8 66076000     imm32:IMM32.dll
 0002:00000004       \177IMM32_NULL_THUNK_DATA  66076004     imm32:IMM32.dll
 0002:00000008       __imp__IsBadReadPtr@8      66076008     kernel32:KERNEL32.dll
 0002:0000000c       __imp__MultiByteToWideChar@24 6607600c     kernel32:KERNEL32.dll
 0002:00000010       __imp__QueryPerformanceFrequency@4 66076010     kernel32:KERNEL32.dll
 0002:00000014       __imp__HeapCreate@12       66076014     kernel32:KERNEL32.dll
 0002:00000018       __imp__HeapDestroy@4       66076018     kernel32:KERNEL32.dll
 0002:0000001c       __imp__QueryPerformanceCounter@4 6607601c     kernel32:KERNEL32.dll
 0002:00000020       __imp__GetCommandLineA@0   66076020     kernel32:KERNEL32.dll
 0002:00000024       __imp__GetModuleFileNameA@12 66076024     kernel32:KERNEL32.dll
 0002:00000028       __imp__DeleteFileA@4       66076028     kernel32:KERNEL32.dll
 0002:0000002c       __imp__HeapFree@12         6607602c     kernel32:KERNEL32.dll
 0002:00000030       __imp__WideCharToMultiByte@32 66076030     kernel32:KERNEL32.dll
 0002:00000034       __imp__DisableThreadLibraryCalls@4 66076034     kernel32:KERNEL32.dll
 0002:00000038       __imp__LoadLibraryA@4      66076038     kernel32:KERNEL32.dll
 0002:0000003c       __imp__GetModuleHandleA@4  6607603c     kernel32:KERNEL32.dll
 0002:00000040       __imp__VirtualProtect@16   66076040     kernel32:KERNEL32.dll
 0002:00000044       __imp__WriteProcessMemory@20 66076044     kernel32:KERNEL32.dll
 0002:00000048       __imp__GetCurrentProcess@0 66076048     kernel32:KERNEL32.dll
 0002:0000004c       __imp__GetProcAddress@8    6607604c     kernel32:KERNEL32.dll
 0002:00000050       __imp__IsBadWritePtr@8     66076050     kernel32:KERNEL32.dll
 0002:00000054       __imp__LCMapStringA@24     66076054     kernel32:KERNEL32.dll
 0002:00000058       __imp__GetProcessTimes@20  66076058     kernel32:KERNEL32.dll
 0002:0000005c       __imp__GetSystemTimeAsFileTime@4 6607605c     kernel32:KERNEL32.dll
 0002:00000060       __imp__IsBadCodePtr@4      66076060     kernel32:KERNEL32.dll
 0002:00000064       __imp__Sleep@4             66076064     kernel32:KERNEL32.dll
 0002:00000068       __imp__GetTickCount@0      66076068     kernel32:KERNEL32.dll
 0002:0000006c       __imp__GetLocalTime@4      6607606c     kernel32:KERNEL32.dll
 0002:00000070       __imp__CreateFileA@28      66076070     kernel32:KERNEL32.dll
 0002:00000074       __imp__WriteFile@20        66076074     kernel32:KERNEL32.dll
 0002:00000078       __imp__SetFilePointer@16   66076078     kernel32:KERNEL32.dll
 0002:0000007c       __imp__CloseHandle@4       6607607c     kernel32:KERNEL32.dll
 0002:00000080       __imp__GetFileSize@8       66076080     kernel32:KERNEL32.dll
 0002:00000084       __imp__GetCurrentProcessId@0 66076084     kernel32:KERNEL32.dll
 0002:00000088       __imp__GlobalFree@4        66076088     kernel32:KERNEL32.dll
 0002:0000008c       __imp__GlobalUnlock@4      6607608c     kernel32:KERNEL32.dll
 0002:00000090       __imp__GlobalLock@4        66076090     kernel32:KERNEL32.dll
 0002:00000094       __imp__GlobalAlloc@8       66076094     kernel32:KERNEL32.dll
 0002:00000098       __imp__HeapAlloc@12        66076098     kernel32:KERNEL32.dll
 0002:0000009c       __imp__FindNextFileA@8     6607609c     kernel32:KERNEL32.dll
 0002:000000a0       __imp__FindFirstFileA@8    660760a0     kernel32:KERNEL32.dll
 0002:000000a4       __imp__GetFileAttributesA@4 660760a4     kernel32:KERNEL32.dll
 0002:000000a8       __imp__CompareStringW@24   660760a8     kernel32:KERNEL32.dll
 0002:000000ac       __imp__CompareStringA@24   660760ac     kernel32:KERNEL32.dll
 0002:000000b0       __imp__GetProcessHeap@0    660760b0     kernel32:KERNEL32.dll
 0002:000000b4       __imp__SetEndOfFile@4      660760b4     kernel32:KERNEL32.dll
 0002:000000b8       __imp__GetTimeZoneInformation@4 660760b8     kernel32:KERNEL32.dll
 0002:000000bc       __imp__HeapSize@12         660760bc     kernel32:KERNEL32.dll
 0002:000000c0       __imp__InitializeCriticalSectionAndSpinCount@8 660760c0     kernel32:KERNEL32.dll
 0002:000000c4       __imp__SetStdHandle@8      660760c4     kernel32:KERNEL32.dll
 0002:000000c8       __imp__WriteConsoleW@20    660760c8     kernel32:KERNEL32.dll
 0002:000000cc       __imp__GetConsoleOutputCP@0 660760cc     kernel32:KERNEL32.dll
 0002:000000d0       __imp__WriteConsoleA@20    660760d0     kernel32:KERNEL32.dll
 0002:000000d4       __imp__GetLocaleInfoA@16   660760d4     kernel32:KERNEL32.dll
 0002:000000d8       __imp__GetStringTypeW@16   660760d8     kernel32:KERNEL32.dll
 0002:000000dc       __imp__GetStringTypeA@20   660760dc     kernel32:KERNEL32.dll
 0002:000000e0       __imp__GetEnvironmentStringsW@0 660760e0     kernel32:KERNEL32.dll
 0002:000000e4       __imp__FreeEnvironmentStringsW@4 660760e4     kernel32:KERNEL32.dll
 0002:000000e8       __imp__GetEnvironmentStrings@0 660760e8     kernel32:KERNEL32.dll
 0002:000000ec       __imp__FreeEnvironmentStringsA@4 660760ec     kernel32:KERNEL32.dll
 0002:000000f0       __imp__GetCurrentDirectoryA@8 660760f0     kernel32:KERNEL32.dll
 0002:000000f4       __imp__GetFullPathNameA@16 660760f4     kernel32:KERNEL32.dll
 0002:000000f8       __imp__RaiseException@16   660760f8     kernel32:KERNEL32.dll
 0002:000000fc       __imp__ReadFile@20         660760fc     kernel32:KERNEL32.dll
 0002:00000100       __imp__SetEnvironmentVariableA@8 66076100     kernel32:KERNEL32.dll
 0002:00000104       __imp__CreateDirectoryA@8  66076104     kernel32:KERNEL32.dll
 0002:00000108       __imp__HeapReAlloc@16      66076108     kernel32:KERNEL32.dll
 0002:0000010c       __imp__GetLastError@0      6607610c     kernel32:KERNEL32.dll
 0002:00000110       __imp__EnterCriticalSection@4 66076110     kernel32:KERNEL32.dll
 0002:00000114       __imp__LeaveCriticalSection@4 66076114     kernel32:KERNEL32.dll
 0002:00000118       __imp__FindClose@4         66076118     kernel32:KERNEL32.dll
 0002:0000011c       __imp__FileTimeToSystemTime@8 6607611c     kernel32:KERNEL32.dll
 0002:00000120       __imp__FileTimeToLocalFileTime@8 66076120     kernel32:KERNEL32.dll
 0002:00000124       __imp__GetDriveTypeA@4     66076124     kernel32:KERNEL32.dll
 0002:00000128       __imp__MoveFileA@8         66076128     kernel32:KERNEL32.dll
 0002:0000012c       __imp__GetCurrentThreadId@0 6607612c     kernel32:KERNEL32.dll
 0002:00000130       __imp__GetCPInfo@8         66076130     kernel32:KERNEL32.dll
 0002:00000134       __imp__InterlockedIncrement@4 66076134     kernel32:KERNEL32.dll
 0002:00000138       __imp__InterlockedDecrement@4 66076138     kernel32:KERNEL32.dll
 0002:0000013c       __imp__GetACP@0            6607613c     kernel32:KERNEL32.dll
 0002:00000140       __imp__GetOEMCP@0          66076140     kernel32:KERNEL32.dll
 0002:00000144       __imp__IsValidCodePage@4   66076144     kernel32:KERNEL32.dll
 0002:00000148       __imp__GetModuleHandleW@4  66076148     kernel32:KERNEL32.dll
 0002:0000014c       __imp__TlsGetValue@4       6607614c     kernel32:KERNEL32.dll
 0002:00000150       __imp__TlsAlloc@0          66076150     kernel32:KERNEL32.dll
 0002:00000154       __imp__TlsSetValue@8       66076154     kernel32:KERNEL32.dll
 0002:00000158       __imp__TlsFree@4           66076158     kernel32:KERNEL32.dll
 0002:0000015c       __imp__SetLastError@4      6607615c     kernel32:KERNEL32.dll
 0002:00000160       __imp__TerminateProcess@8  66076160     kernel32:KERNEL32.dll
 0002:00000164       __imp__UnhandledExceptionFilter@4 66076164     kernel32:KERNEL32.dll
 0002:00000168       __imp__SetUnhandledExceptionFilter@4 66076168     kernel32:KERNEL32.dll
 0002:0000016c       __imp__IsDebuggerPresent@0 6607616c     kernel32:KERNEL32.dll
 0002:00000170       __imp__GetConsoleCP@0      66076170     kernel32:KERNEL32.dll
 0002:00000174       __imp__GetConsoleMode@8    66076174     kernel32:KERNEL32.dll
 0002:00000178       __imp__FlushFileBuffers@4  66076178     kernel32:KERNEL32.dll
 0002:0000017c       __imp__DeleteCriticalSection@4 6607617c     kernel32:KERNEL32.dll
 0002:00000180       __imp__SetHandleCount@4    66076180     kernel32:KERNEL32.dll
 0002:00000184       __imp__GetStdHandle@4      66076184     kernel32:KERNEL32.dll
 0002:00000188       __imp__GetFileType@4       66076188     kernel32:KERNEL32.dll
 0002:0000018c       __imp__GetStartupInfoA@4   6607618c     kernel32:KERNEL32.dll
 0002:00000190       __imp__VirtualFree@12      66076190     kernel32:KERNEL32.dll
 0002:00000194       __imp__VirtualAlloc@16     66076194     kernel32:KERNEL32.dll
 0002:00000198       __imp__LCMapStringW@24     66076198     kernel32:KERNEL32.dll
 0002:0000019c       __imp__ExitProcess@4       6607619c     kernel32:KERNEL32.dll
 0002:000001a0       __imp__RtlUnwind@16        660761a0     kernel32:KERNEL32.dll
 0002:000001a4       \177KERNEL32_NULL_THUNK_DATA 660761a4     kernel32:KERNEL32.dll
 0002:000001a8       __imp__GetWindowRect@8     660761a8     user32:USER32.dll
 0002:000001ac       __imp__AdjustWindowRectEx@16 660761ac     user32:USER32.dll
 0002:000001b0       __imp__SetWindowPos@28     660761b0     user32:USER32.dll
 0002:000001b4       __imp__GetClassNameA@12    660761b4     user32:USER32.dll
 0002:000001b8       __imp__OpenClipboard@4     660761b8     user32:USER32.dll
 0002:000001bc       __imp__EmptyClipboard@0    660761bc     user32:USER32.dll
 0002:000001c0       __imp__SetClipboardData@8  660761c0     user32:USER32.dll
 0002:000001c4       __imp__CloseClipboard@0    660761c4     user32:USER32.dll
 0002:000001c8       __imp__SetCursorPos@8      660761c8     user32:USER32.dll
 0002:000001cc       __imp__GetKeyState@4       660761cc     user32:USER32.dll
 0002:000001d0       __imp__PostMessageA@16     660761d0     user32:USER32.dll
 0002:000001d4       __imp__SetWindowTextA@8    660761d4     user32:USER32.dll
 0002:000001d8       __imp__GetWindowLongA@8    660761d8     user32:USER32.dll
 0002:000001dc       __imp__SetWindowLongA@12   660761dc     user32:USER32.dll
 0002:000001e0       __imp__ShowWindow@8        660761e0     user32:USER32.dll
 0002:000001e4       __imp__GetWindowPlacement@8 660761e4     user32:USER32.dll
 0002:000001e8       __imp__GetClipCursor@4     660761e8     user32:USER32.dll
 0002:000001ec       __imp__GetClientRect@8     660761ec     user32:USER32.dll
 0002:000001f0       __imp__ClientToScreen@8    660761f0     user32:USER32.dll
 0002:000001f4       __imp__ClipCursor@4        660761f4     user32:USER32.dll
 0002:000001f8       __imp__GetDesktopWindow@0  660761f8     user32:USER32.dll
 0002:000001fc       __imp__GetWindowInfo@8     660761fc     user32:USER32.dll
 0002:00000200       __imp__SendMessageA@16     66076200     user32:USER32.dll
 0002:00000204       __imp__wvsprintfW@12       66076204     user32:USER32.dll
 0002:00000208       __imp__wvsprintfA@12       66076208     user32:USER32.dll
 0002:0000020c       __imp__MessageBoxA@16      6607620c     user32:USER32.dll
 0002:00000210       __imp__wsprintfW           66076210     user32:USER32.dll
 0002:00000214       __imp__SetForegroundWindow@4 66076214     user32:USER32.dll
 0002:00000218       \177USER32_NULL_THUNK_DATA 66076218     user32:USER32.dll
 0002:0000021c       ___xc_a                    6607621c     LIBCMT:crt0init.obj
 0002:00000220       ___xc_z                    66076220     LIBCMT:crt0init.obj
 0002:00000224       ___xi_a                    66076224     LIBCMT:crt0init.obj
 0002:0000023c       ___xi_z                    6607623c     LIBCMT:crt0init.obj
 0002:00000240       ___xp_a                    66076240     LIBCMT:crt0init.obj
 0002:0000024c       ___xp_z                    6607624c     LIBCMT:crt0init.obj
 0002:00000250       ___xt_a                    66076250     LIBCMT:crt0init.obj
 0002:00000254       ___xt_z                    66076254     LIBCMT:crt0init.obj
 0002:00000ff0       __real@408f400000000000    66076ff0     config.obj
 0002:00001240       __real@4014000000000000    66077240     guess.obj
 0002:00001248       __real@4052c00000000000    66077248     guess.obj
 0002:00001250       __real@4039000000000000    66077250     guess.obj
 0002:00001258       __real@3fe0000000000000    66077258     guess.obj
 0002:00001260       __real@4008000000000000    66077260     guess.obj
 0002:00001268       __real@4040000000000000    66077268     guess.obj
 0002:00001270       __real@4059000000000000    66077270     guess.obj
 0002:00001278       __real@4010000000000000    66077278     guess.obj
 0002:00009248       __real@4022000000000000    6607f248     common.obj
 0002:00009250       __real@4070000000000000    6607f250     common.obj
 0002:00009258       __real@3fd999999999999a    6607f258     common.obj
 0002:00009bb0       __real@412e848000000000    6607fbb0     loop.obj
 0002:0000d010       __real@4024000000000000    66083010     GameMonitor.obj
 0002:0000e3f8       __real@3ff8000000000000    660843f8     item.obj
 0002:00012f24       __real@41200000            66088f24     skill.obj
 0002:00012f28       __real@41e80000            66088f28     skill.obj
 0002:00012f2c       __real@41d00000            66088f2c     skill.obj
 0002:00012f30       __real@41c00000            66088f30     skill.obj
 0002:00012f34       __real@41f00000            66088f34     skill.obj
 0002:00012f38       __real@41f80000            66088f38     skill.obj
 0002:00012f3c       __real@41000000            66088f3c     skill.obj
 0002:00012f40       __real@41a00000            66088f40     skill.obj
 0002:00012f44       __real@41980000            66088f44     skill.obj
 0002:00012f48       __real@40a00000            66088f48     skill.obj
 0002:00012f50       __real@0000000000000000    66088f50     skill.obj
 0002:00012f58       __real@42040000            66088f58     skill.obj
 0002:00014760       __real@40c3880000000000    6608a760     Snapshot.obj
 0002:00014768       __real@4054400000000000    6608a768     Snapshot.obj
 0002:00014770       __real@4020000000000000    6608a770     Snapshot.obj
 0002:00014778       __real@40a0000000000000    6608a778     Snapshot.obj
 0002:00015318       __real@401c000000000000    6608b318     teleport.obj
 0002:000167e0       __real@40f0000000000000    6608c7e0     uber.obj
 0002:000167e8       __real@401921fb3fa6defc    6608c7e8     uber.obj
 0002:00016810       __FPinit                   6608c810     LIBCMT:_fpinit_.obj
 0002:00016814       __FPmtinit                 6608c814     LIBCMT:_fpinit_.obj
 0002:00016818       __FPmtterm                 6608c818     LIBCMT:_fpinit_.obj
 0002:0001681c       ??_C@_0P@GHFPNOJB@bad?5allocation?$AA@ 6608c81c     LIBCMT:new.obj
 0002:00016830       ??_7bad_alloc@std@@6B@     6608c830     LIBCMT:new.obj
 0002:00016838       ??_C@_03LLEJOLGL@?4?1?2?$AA@ 6608c838     LIBCMT:stati32.obj
 0002:0001683c       ??_C@_02EAOCEIGI@?$DP?$CK?$AA@ 6608c83c     LIBCMT:stati32.obj
 0002:00016840       __pRawDllMain              6608c840     LIBCMT:dllcrt0.obj
 0002:00016840       __pDefaultRawDllMain       6608c840     LIBCMT:dllcrt0.obj
 0002:000168c8       ??_C@_01NEMOKFLO@?$DN?$AA@ 6608c8c8     LIBCMT:setlocal.obj
 0002:000168ca       ??_C@_00CNPNBAHC@?$AA@     6608c8ca     LIBCMT:setlocal.obj
 0002:000168cc       ??_C@_0O@NLDKAIKN@EncodePointer?$AA@ 6608c8cc     LIBCMT:tidtable.obj
 0002:000168dc       ??_C@_1BK@DBDEIDLH@?$AAK?$AAE?$AAR?$AAN?$AAE?$AAL?$AA3?$AA2?$AA?4?$AAD?$AAL?$AAL?$AA?$AA@ 6608c8dc     LIBCMT:tidtable.obj
 0002:000168f8       ??_C@_0O@KBPMFGHI@DecodePointer?$AA@ 6608c8f8     LIBCMT:tidtable.obj
 0002:00016908       ??_C@_07PEJMOBNF@FlsFree?$AA@ 6608c908     LIBCMT:tidtable.obj
 0002:00016910       ??_C@_0M@JCPCPOEF@FlsSetValue?$AA@ 6608c910     LIBCMT:tidtable.obj
 0002:0001691c       ??_C@_0M@GDNOONDI@FlsGetValue?$AA@ 6608c91c     LIBCMT:tidtable.obj
 0002:00016928       ??_C@_08KNHFBNJ@FlsAlloc?$AA@ 6608c928     LIBCMT:tidtable.obj
 0002:00016934       ??_C@_1O@CEDCILHN@?$AA?$CI?$AAn?$AAu?$AAl?$AAl?$AA?$CJ?$AA?$AA@ 6608c934     LIBCMT:output.obj
 0002:00016944       ??_C@_06OJHGLDPL@?$CInull?$CJ?$AA@ 6608c944     LIBCMT:output.obj
 0002:00016950       ___lookuptable             6608c950     LIBCMT:output.obj
 0002:000169b4       ??_C@_13NOLLCAOD@?$AA?$AA?$AA?$AA@ 6608c9b4     LIBCMT:a_map.obj
 0002:000169b8       ??_C@_0P@MIGLKIOC@CorExitProcess?$AA@ 6608c9b8     LIBCMT:crt0dat.obj
 0002:000169c8       ??_C@_1BI@BGOHAHKC@?$AAm?$AAs?$AAc?$AAo?$AAr?$AAe?$AAe?$AA?4?$AAd?$AAl?$AAl?$AA?$AA@ 6608c9c8     LIBCMT:crt0dat.obj
 0002:000169e0       ??_C@_05KLBDPFGC@e?$CL000?$AA@ 6608c9e0     LIBCMT:cvt.obj
 0002:000169e8       __real@4150017ec0000000    6608c9e8     LIBCMT:_testfdiv_.obj
 0002:000169f0       __real@4147ffff80000000    6608c9f0     LIBCMT:_testfdiv_.obj
 0002:000169f8       ??_C@_0BK@NHEOCAHP@IsProcessorFeaturePresent?$AA@ 6608c9f8     LIBCMT:_testfdiv_.obj
 0002:00016a14       ??_C@_08CPNIBGIE@KERNEL32?$AA@ 6608ca14     LIBCMT:_testfdiv_.obj
 0002:00016a20       ??_C@_0P@GGKDKEEG@runtime?5error?5?$AA@ 6608ca20     LIBCMT:crt0msg.obj
 0002:00016a30       ??_C@_02PCIJFNDE@?$AN?6?$AA@ 6608ca30     LIBCMT:crt0msg.obj
 0002:00016a34       ??_C@_0O@MJNIPGOH@TLOSS?5error?$AN?6?$AA@ 6608ca34     LIBCMT:crt0msg.obj
 0002:00016a44       ??_C@_0N@BONNPDHF@SING?5error?$AN?6?$AA@ 6608ca44     LIBCMT:crt0msg.obj
 0002:00016a54       ??_C@_0P@MBDAJNE@DOMAIN?5error?$AN?6?$AA@ 6608ca54     LIBCMT:crt0msg.obj
 0002:00016a68       ??_C@_0JL@DFDOOABL@R6034?$AN?6An?5application?5has?5made?5a@ 6608ca68     LIBCMT:crt0msg.obj
 0002:00016b08       ??_C@_0PH@EPAFIJ@R6033?$AN?6?9?5Attempt?5to?5use?5MSIL?5cod@ 6608cb08     LIBCMT:crt0msg.obj
 0002:00016c00       ??_C@_0DD@BKEEABMM@R6032?$AN?6?9?5not?5enough?5space?5for?5lo@ 6608cc00     LIBCMT:crt0msg.obj
 0002:00016c38       ??_C@_0GD@OFKILIED@R6031?$AN?6?9?5Attempt?5to?5initialize?5t@ 6608cc38     LIBCMT:crt0msg.obj
 0002:00016c9c       ??_C@_0BP@LPMHJOKI@R6030?$AN?6?9?5CRT?5not?5initialized?$AN?6?$AA@ 6608cc9c     LIBCMT:crt0msg.obj
 0002:00016cbc       ??_C@_0CF@KJDAIALP@R6028?$AN?6?9?5unable?5to?5initialize?5he@ 6608ccbc     LIBCMT:crt0msg.obj
 0002:00016ce4       ??_C@_0DF@GAKBPDFP@R6027?$AN?6?9?5not?5enough?5space?5for?5lo@ 6608cce4     LIBCMT:crt0msg.obj
 0002:00016d1c       ??_C@_0DF@IBLNNAIG@R6026?$AN?6?9?5not?5enough?5space?5for?5st@ 6608cd1c     LIBCMT:crt0msg.obj
 0002:00016d54       ??_C@_0CG@IOHKGFNJ@R6025?$AN?6?9?5pure?5virtual?5function?5c@ 6608cd54     LIBCMT:crt0msg.obj
 0002:00016d7c       ??_C@_0DF@JIJJFJDC@R6024?$AN?6?9?5not?5enough?5space?5for?5_o@ 6608cd7c     LIBCMT:crt0msg.obj
 0002:00016db4       ??_C@_0CJ@EGEJHFME@R6019?$AN?6?9?5unable?5to?5open?5console?5@ 6608cdb4     LIBCMT:crt0msg.obj
 0002:00016de0       ??_C@_0CB@GNHNIELH@R6018?$AN?6?9?5unexpected?5heap?5error?$AN?6@ 6608cde0     LIBCMT:crt0msg.obj
 0002:00016e04       ??_C@_0CN@FOLDKNG@R6017?$AN?6?9?5unexpected?5multithread?5@ 6608ce04     LIBCMT:crt0msg.obj
 0002:00016e34       ??_C@_0CM@FAHFJNHO@R6016?$AN?6?9?5not?5enough?5space?5for?5th@ 6608ce34     LIBCMT:crt0msg.obj
 0002:00016e60       ??_C@_0JG@LBKMGKLD@?$AN?6This?5application?5has?5requested@ 6608ce60     LIBCMT:crt0msg.obj
 0002:00016ef8       ??_C@_0CM@FLCNIPKK@R6009?$AN?6?9?5not?5enough?5space?5for?5en@ 6608cef8     LIBCMT:crt0msg.obj
 0002:00016f24       ??_C@_0CK@KMMJOAPP@R6008?$AN?6?9?5not?5enough?5space?5for?5ar@ 6608cf24     LIBCMT:crt0msg.obj
 0002:00016f50       ??_C@_0CN@LEKKICBM@R6002?$AN?6?9?5floating?5point?5support?5@ 6608cf50     LIBCMT:crt0msg.obj
 0002:00016f80       ??_C@_0CF@GOGNBNAK@Microsoft?5Visual?5C?$CL?$CL?5Runtime?5Lib@ 6608cf80     LIBCMT:crt0msg.obj
 0002:00016fa8       ??_C@_02PHMGELLB@?6?6?$AA@ 6608cfa8     LIBCMT:crt0msg.obj
 0002:00016fac       ??_C@_03KHICJKCI@?4?4?4?$AA@ 6608cfac     LIBCMT:crt0msg.obj
 0002:00016fb0       ??_C@_0BH@DNAGHKFM@?$DMprogram?5name?5unknown?$DO?$AA@ 6608cfb0     LIBCMT:crt0msg.obj
 0002:00016fc8       ??_C@_0BK@OFGJDLJJ@Runtime?5Error?$CB?6?6Program?3?5?$AA@ 6608cfc8     LIBCMT:crt0msg.obj
 0002:00016fe8       ??_7exception@std@@6B@     6608cfe8     LIBCMT:stdexcpt.obj
 0002:00016ff0       ??_C@_0BC@EOODALEL@Unknown?5exception?$AA@ 6608cff0     LIBCMT:stdexcpt.obj
 0002:00017008       ??_7type_info@@6B@         6608d008     LIBCMT:typinfo.obj
 0002:0001702c       ??_C@_04PNGHFIJN@?4com?$AA@ 6608d02c     LIBCMT:stat.obj
 0002:00017034       ??_C@_04NEEFLLOK@?4bat?$AA@ 6608d034     LIBCMT:stat.obj
 0002:0001703c       ??_C@_04CPCBDHLK@?4cmd?$AA@ 6608d03c     LIBCMT:stat.obj
 0002:00017044       ??_C@_04JLMDILM@?4exe?$AA@ 6608d044     LIBCMT:stat.obj
 0002:00017078       __DEFAULT_CW_in_mem        6608d078     LIBCMT:_common_.obj
 0002:0001707a       __pi_by_2_to_61            6608d07a     LIBCMT:_common_.obj
 0002:00018210       __XcptActTab               6608e210     LIBCMT:winxfltr.obj
 0002:00018288       ___newctype                6608e288     LIBCMT:ctype.obj
 0002:00018588       __wctype                   6608e588     LIBCMT:ctype.obj
 0002:00018790       ___newclmap                6608e790     LIBCMT:ctype.obj
 0002:00018910       ___newcumap                6608e910     LIBCMT:ctype.obj
 0002:00018a90       ??_C@_08JCCMCCIL@HH?3mm?3ss?$AA@ 6608ea90     LIBCMT:strftime.obj
 0002:00018a9c       ??_C@_0BE@CKGJFCPC@dddd?0?5MMMM?5dd?0?5yyyy?$AA@ 6608ea9c     LIBCMT:strftime.obj
 0002:00018ab0       ??_C@_08BPBNCDIB@MM?1dd?1yy?$AA@ 6608eab0     LIBCMT:strftime.obj
 0002:00018abc       ??_C@_02CJNFDJBF@PM?$AA@   6608eabc     LIBCMT:strftime.obj
 0002:00018ac0       ??_C@_02DEDBPAFC@AM?$AA@   6608eac0     LIBCMT:strftime.obj
 0002:00018ac4       ??_C@_08EDHMEBNP@December?$AA@ 6608eac4     LIBCMT:strftime.obj
 0002:00018ad0       ??_C@_08HCHEGEOA@November?$AA@ 6608ead0     LIBCMT:strftime.obj
 0002:00018adc       ??_C@_07JJNFCEND@October?$AA@ 6608eadc     LIBCMT:strftime.obj
 0002:00018ae4       ??_C@_09BHHEALKD@September?$AA@ 6608eae4     LIBCMT:strftime.obj
 0002:00018af0       ??_C@_06LBBHFDDG@August?$AA@ 6608eaf0     LIBCMT:strftime.obj
 0002:00018af8       ??_C@_04MIEPOIFP@July?$AA@ 6608eaf8     LIBCMT:strftime.obj
 0002:00018b00       ??_C@_04CNLMGBGM@June?$AA@ 6608eb00     LIBCMT:strftime.obj
 0002:00018b08       ??_C@_05DMJDNLEJ@April?$AA@ 6608eb08     LIBCMT:strftime.obj
 0002:00018b10       ??_C@_05HPCKOFNC@March?$AA@ 6608eb10     LIBCMT:strftime.obj
 0002:00018b18       ??_C@_08GNJGEPFN@February?$AA@ 6608eb18     LIBCMT:strftime.obj
 0002:00018b24       ??_C@_07CGJPFGJA@January?$AA@ 6608eb24     LIBCMT:strftime.obj
 0002:00018b2c       ??_C@_03MKABNOCG@Dec?$AA@  6608eb2c     LIBCMT:strftime.obj
 0002:00018b30       ??_C@_03JPJOFNIA@Nov?$AA@  6608eb30     LIBCMT:strftime.obj
 0002:00018b34       ??_C@_03BMAOKBAD@Oct?$AA@  6608eb34     LIBCMT:strftime.obj
 0002:00018b38       ??_C@_03GGCAPAJC@Sep?$AA@  6608eb38     LIBCMT:strftime.obj
 0002:00018b3c       ??_C@_03IFJFEIGA@Aug?$AA@  6608eb3c     LIBCMT:strftime.obj
 0002:00018b40       ??_C@_03LBGABGKK@Jul?$AA@  6608eb40     LIBCMT:strftime.obj
 0002:00018b44       ??_C@_03IDFGHECI@Jun?$AA@  6608eb44     LIBCMT:strftime.obj
 0002:00018b48       ??_C@_03CNMDKL@May?$AA@    6608eb48     LIBCMT:strftime.obj
 0002:00018b4c       ??_C@_03LEOLGMJP@Apr?$AA@  6608eb4c     LIBCMT:strftime.obj
 0002:00018b50       ??_C@_03ODNJBKGA@Mar?$AA@  6608eb50     LIBCMT:strftime.obj
 0002:00018b54       ??_C@_03HJBDCHOM@Feb?$AA@  6608eb54     LIBCMT:strftime.obj
 0002:00018b58       ??_C@_03JIHJHPIE@Jan?$AA@  6608eb58     LIBCMT:strftime.obj
 0002:00018b5c       ??_C@_08INBOOONO@Saturday?$AA@ 6608eb5c     LIBCMT:strftime.obj
 0002:00018b68       ??_C@_06JECMNKMI@Friday?$AA@ 6608eb68     LIBCMT:strftime.obj
 0002:00018b70       ??_C@_08HACCIKIA@Thursday?$AA@ 6608eb70     LIBCMT:strftime.obj
 0002:00018b7c       ??_C@_09DLIGFAKA@Wednesday?$AA@ 6608eb7c     LIBCMT:strftime.obj
 0002:00018b88       ??_C@_07BAAGCFCM@Tuesday?$AA@ 6608eb88     LIBCMT:strftime.obj
 0002:00018b90       ??_C@_06JLEDEDGH@Monday?$AA@ 6608eb90     LIBCMT:strftime.obj
 0002:00018b98       ??_C@_06OOPIFAJ@Sunday?$AA@ 6608eb98     LIBCMT:strftime.obj
 0002:00018ba0       ??_C@_03FEFJNEK@Sat?$AA@   6608eba0     LIBCMT:strftime.obj
 0002:00018ba4       ??_C@_03IDIOELNC@Fri?$AA@  6608eba4     LIBCMT:strftime.obj
 0002:00018ba8       ??_C@_03IOFIKPDN@Thu?$AA@  6608eba8     LIBCMT:strftime.obj
 0002:00018bac       ??_C@_03MHOMLAJA@Wed?$AA@  6608ebac     LIBCMT:strftime.obj
 0002:00018bb0       ??_C@_03NAGEINEP@Tue?$AA@  6608ebb0     LIBCMT:strftime.obj
 0002:00018bb4       ??_C@_03PDAGKDH@Mon?$AA@   6608ebb4     LIBCMT:strftime.obj
 0002:00018bb8       ??_C@_03KOEHGMDN@Sun?$AA@  6608ebb8     LIBCMT:strftime.obj
 0002:00018bc0       ___lookuptable_s           6608ebc0     LIBCMT:outputs.obj
 0002:00018c1c       ??_C@_0BI@DFKBFLJE@GetProcessWindowStation?$AA@ 6608ec1c     LIBCMT:crtmbox.obj
 0002:00018c34       ??_C@_0BK@CIDNPOGP@GetUserObjectInformationA?$AA@ 6608ec34     LIBCMT:crtmbox.obj
 0002:00018c50       ??_C@_0BD@HHGDFDBJ@GetLastActivePopup?$AA@ 6608ec50     LIBCMT:crtmbox.obj
 0002:00018c64       ??_C@_0BA@HNOPNCHB@GetActiveWindow?$AA@ 6608ec64     LIBCMT:crtmbox.obj
 0002:00018c74       ??_C@_0M@CHKKJDAI@MessageBoxA?$AA@ 6608ec74     LIBCMT:crtmbox.obj
 0002:00018c80       ??_C@_0L@NDEGIDAG@USER32?4DLL?$AA@ 6608ec80     LIBCMT:crtmbox.obj
 0002:00018c8c       ??_C@_02CLFPBFFP@TZ?$AA@   6608ec8c     LIBCMT:tzset.obj
 0002:00018c90       ___dnames                  6608ec90     LIBCMT:timeset.obj
 0002:00018ca8       ___mnames                  6608eca8     LIBCMT:timeset.obj
 0002:00018cd0       ??_C@_07GPDNMNG@CONOUT$?$AA@ 6608ecd0     LIBCMT:initcon.obj
 0002:00018cd8       ??_C@_06IMKFLFPG@1?$CDQNAN?$AA@ 6608ecd8     LIBCMT:_x10fout_.obj
 0002:00018ce0       ??_C@_05DNEBIAHO@1?$CDINF?$AA@ 6608ece0     LIBCMT:_x10fout_.obj
 0002:00018ce8       ??_C@_05PHHOCPM@1?$CDIND?$AA@ 6608ece8     LIBCMT:_x10fout_.obj
 0002:00018cf0       ??_C@_06PGGFOGJG@1?$CDSNAN?$AA@ 6608ecf0     LIBCMT:_x10fout_.obj
 0002:00018cf8       ??_C@_0BK@CFCOFLF@?5Complete?5Object?5Locator?8?$AA@ 6608ecf8     LIBCMT:undname.obj
 0002:00018d14       ??_C@_0BN@MECKDCOJ@?5Class?5Hierarchy?5Descriptor?8?$AA@ 6608ed14     LIBCMT:undname.obj
 0002:00018d34       ??_C@_0BD@LGICGFMM@?5Base?5Class?5Array?8?$AA@ 6608ed34     LIBCMT:undname.obj
 0002:00018d48       ??_C@_0BM@LDKODKLH@?5Base?5Class?5Descriptor?5at?5?$CI?$AA@ 6608ed48     LIBCMT:undname.obj
 0002:00018d64       ??_C@_0BC@DAFEJGAK@?5Type?5Descriptor?8?$AA@ 6608ed64     LIBCMT:undname.obj
 0002:00018d78       ??_C@_0BM@PMGGMLDN@?$GAlocal?5static?5thread?5guard?8?$AA@ 6608ed78     LIBCMT:undname.obj
 0002:00018d94       ??_C@_0CL@FGIJHLCE@?$GAmanaged?5vector?5copy?5constructor@ 6608ed94     LIBCMT:undname.obj
 0002:00018dc0       ??_C@_0CJ@GJELGAMM@?$GAvector?5vbase?5copy?5constructor?5i@ 6608edc0     LIBCMT:undname.obj
 0002:00018dec       ??_C@_0CD@CGAJBKEJ@?$GAvector?5copy?5constructor?5iterato@ 6608edec     LIBCMT:undname.obj
 0002:00018e10       ??_C@_0CB@PDBIFEP@?$GAdynamic?5atexit?5destructor?5for?5?8@ 6608ee10     LIBCMT:undname.obj
 0002:00018e34       ??_C@_0BL@CLIPGLGB@?$GAdynamic?5initializer?5for?5?8?$AA@ 6608ee34     LIBCMT:undname.obj
 0002:00018e50       ??_C@_0CM@FCBBDIGB@?$GAeh?5vector?5vbase?5copy?5constructo@ 6608ee50     LIBCMT:undname.obj
 0002:00018e7c       ??_C@_0CG@HLDDJMAG@?$GAeh?5vector?5copy?5constructor?5iter@ 6608ee7c     LIBCMT:undname.obj
 0002:00018ea4       ??_C@_0CF@IMGKMJNO@?$GAmanaged?5vector?5destructor?5itera@ 6608eea4     LIBCMT:undname.obj
 0002:00018ecc       ??_C@_0CG@CFDHKGGD@?$GAmanaged?5vector?5constructor?5iter@ 6608eecc     LIBCMT:undname.obj
 0002:00018ef4       ??_C@_0BN@CKNJLHMB@?$GAplacement?5delete?$FL?$FN?5closure?8?$AA@ 6608eef4     LIBCMT:undname.obj
 0002:00018f14       ??_C@_0BL@CNOONJFP@?$GAplacement?5delete?5closure?8?$AA@ 6608ef14     LIBCMT:undname.obj
 0002:00018f30       ??_C@_0P@HJKNJFNN@?$GAomni?5callsig?8?$AA@ 6608ef30     LIBCMT:undname.obj
 0002:00018f40       ??_C@_09LBNFPBCA@?5delete?$FL?$FN?$AA@ 6608ef40     LIBCMT:undname.obj
 0002:00018f4c       ??_C@_06FHBGPFGH@?5new?$FL?$FN?$AA@ 6608ef4c     LIBCMT:undname.obj
 0002:00018f54       ??_C@_0CE@IIHCMGGL@?$GAlocal?5vftable?5constructor?5closu@ 6608ef54     LIBCMT:undname.obj
 0002:00018f78       ??_C@_0BA@KKLDJDLB@?$GAlocal?5vftable?8?$AA@ 6608ef78     LIBCMT:undname.obj
 0002:00018f88       ??_C@_05KHLCHHI@?$GARTTI?$AA@ 6608ef88     LIBCMT:undname.obj
 0002:00018f90       ??_C@_03KLGMFNMG@?$GAEH?$AA@ 6608ef90     LIBCMT:undname.obj
 0002:00018f94       ??_C@_0BA@KBCDOMBN@?$GAudt?5returning?8?$AA@ 6608ef94     LIBCMT:undname.obj
 0002:00018fa4       ??_C@_0BL@LLKPOHJI@?$GAcopy?5constructor?5closure?8?$AA@ 6608efa4     LIBCMT:undname.obj
 0002:00018fc0       ??_C@_0CH@OOJPLCPH@?$GAeh?5vector?5vbase?5constructor?5ite@ 6608efc0     LIBCMT:undname.obj
 0002:00018fe8       ??_C@_0CA@GCEOPDGL@?$GAeh?5vector?5destructor?5iterator?8?$AA@ 6608efe8     LIBCMT:undname.obj
 0002:00019008       ??_C@_0CB@JONCMFFK@?$GAeh?5vector?5constructor?5iterator?8@ 6608f008     LIBCMT:undname.obj
 0002:0001902c       ??_C@_0BL@NILFHHPC@?$GAvirtual?5displacement?5map?8?$AA@ 6608f02c     LIBCMT:undname.obj
 0002:00019048       ??_C@_0CE@IKBNEHA@?$GAvector?5vbase?5constructor?5iterat@ 6608f048     LIBCMT:undname.obj
 0002:0001906c       ??_C@_0BN@LFPFMEDL@?$GAvector?5destructor?5iterator?8?$AA@ 6608f06c     LIBCMT:undname.obj
 0002:0001908c       ??_C@_0BO@PFGOCPJJ@?$GAvector?5constructor?5iterator?8?$AA@ 6608f08c     LIBCMT:undname.obj
 0002:000190ac       ??_C@_0BN@IMDCHIKM@?$GAscalar?5deleting?5destructor?8?$AA@ 6608f0ac     LIBCMT:undname.obj
 0002:000190cc       ??_C@_0BO@OBMKPJIG@?$GAdefault?5constructor?5closure?8?$AA@ 6608f0cc     LIBCMT:undname.obj
 0002:000190ec       ??_C@_0BN@DEGPLNFK@?$GAvector?5deleting?5destructor?8?$AA@ 6608f0ec     LIBCMT:undname.obj
 0002:0001910c       ??_C@_0BD@JDLKDPAB@?$GAvbase?5destructor?8?$AA@ 6608f10c     LIBCMT:undname.obj
 0002:00019120       ??_C@_08OBABFOLI@?$GAstring?8?$AA@ 6608f120     LIBCMT:undname.obj
 0002:0001912c       ??_C@_0BF@KDPPACIK@?$GAlocal?5static?5guard?8?$AA@ 6608f12c     LIBCMT:undname.obj
 0002:00019144       ??_C@_08LLFFHHDJ@?$GAtypeof?8?$AA@ 6608f144     LIBCMT:undname.obj
 0002:00019150       ??_C@_07FEEIOKP@?$GAvcall?8?$AA@ 6608f150     LIBCMT:undname.obj
 0002:00019158       ??_C@_09BLBHBJP@?$GAvbtable?8?$AA@ 6608f158     LIBCMT:undname.obj
 0002:00019164       ??_C@_09IFPLHPGF@?$GAvftable?8?$AA@ 6608f164     LIBCMT:undname.obj
 0002:00019170       ??_C@_02MHEGNOJ@?$FO?$DN?$AA@ 6608f170     LIBCMT:undname.obj
 0002:00019174       ??_C@_02DHLNPPGH@?$HM?$DN?$AA@ 6608f174     LIBCMT:undname.obj
 0002:00019178       ??_C@_02FGJGFEAB@?$CG?$DN?$AA@ 6608f178     LIBCMT:undname.obj
 0002:0001917c       ??_C@_03CDNPDDLA@?$DM?$DM?$DN?$AA@ 6608f17c     LIBCMT:undname.obj
 0002:00019180       ??_C@_03IKFCCPFF@?$DO?$DO?$DN?$AA@ 6608f180     LIBCMT:undname.obj
 0002:00019184       ??_C@_02FENAOKFI@?$CF?$DN?$AA@ 6608f184     LIBCMT:undname.obj
 0002:00019188       ??_C@_02FJEHGPIO@?1?$DN?$AA@ 6608f188     LIBCMT:undname.obj
 0002:0001918c       ??_C@_02FKMDLLOA@?9?$DN?$AA@ 6608f18c     LIBCMT:undname.obj
 0002:00019190       ??_C@_02FOEOMHFC@?$CL?$DN?$AA@ 6608f190     LIBCMT:undname.obj
 0002:00019194       ??_C@_02FPIMKNGF@?$CK?$DN?$AA@ 6608f194     LIBCMT:undname.obj
 0002:00019198       ??_C@_02NONPIBCD@?$HM?$HM?$AA@ 6608f198     LIBCMT:undname.obj
 0002:0001919c       ??_C@_02PPKAJPJL@?$CG?$CG?$AA@ 6608f19c     LIBCMT:undname.obj
 0002:000191a0       ??_C@_01DNKMNLPK@?$HM?$AA@ 6608f1a0     LIBCMT:undname.obj
 0002:000191a4       ??_C@_01JKBOJNNK@?$FO?$AA@ 6608f1a4     LIBCMT:undname.obj
 0002:000191a8       ??_C@_01PJKLJHI@?$HO?$AA@  6608f1a8     LIBCMT:undname.obj
 0002:000191ac       ??_C@_02HCKGKOFO@?$CI?$CJ?$AA@ 6608f1ac     LIBCMT:undname.obj
 0002:000191b0       ??_C@_01IHBHIGKO@?0?$AA@   6608f1b0     LIBCMT:undname.obj
 0002:000191b4       ??_C@_02EEKDKGMJ@?$DO?$DN?$AA@ 6608f1b4     LIBCMT:undname.obj
 0002:000191b8       ??_C@_01PPODPGHN@?$DO?$AA@ 6608f1b8     LIBCMT:undname.obj
 0002:000191bc       ??_C@_02EHCHHCKH@?$DM?$DN?$AA@ 6608f1bc     LIBCMT:undname.obj
 0002:000191c0       ??_C@_01MNNFJEPP@?$DM?$AA@ 6608f1c0     LIBCMT:undname.obj
 0002:000191c4       ??_C@_01FGNFDNOH@?$CF?$AA@ 6608f1c4     LIBCMT:undname.obj
 0002:000191c8       ??_C@_01KMDKNFGN@?1?$AA@   6608f1c8     LIBCMT:undname.obj
 0002:000191cc       ??_C@_03MNHNFDLC@?9?$DO?$CK?$AA@ 6608f1cc     LIBCMT:undname.obj
 0002:000191d0       ??_C@_01HNPIGOCE@?$CG?$AA@ 6608f1d0     LIBCMT:undname.obj
 0002:000191d4       ??_C@_01MIFGBAGJ@?$CL?$AA@ 6608f1d4     LIBCMT:undname.obj
 0002:000191d8       ??_C@_01JOAMLHOP@?9?$AA@   6608f1d8     LIBCMT:undname.obj
 0002:000191dc       ??_C@_02BAABKJLB@?9?9?$AA@ 6608f1dc     LIBCMT:undname.obj
 0002:000191e0       ??_C@_02ECNGHCIF@?$CL?$CL?$AA@ 6608f1e0     LIBCMT:undname.obj
 0002:000191e4       ??_C@_01NBENCBCI@?$CK?$AA@ 6608f1e4     LIBCMT:undname.obj
 0002:000191e8       ??_C@_02HBOOOICD@?9?$DO?$AA@ 6608f1e8     LIBCMT:undname.obj
 0002:000191ec       ??_C@_08LHJFAFGD@operator?$AA@ 6608f1ec     LIBCMT:undname.obj
 0002:000191f8       ??_C@_02GPECMEKF@?$FL?$FN?$AA@ 6608f1f8     LIBCMT:undname.obj
 0002:000191fc       ??_C@_02FDNJECIE@?$CB?$DN?$AA@ 6608f1fc     LIBCMT:undname.obj
 0002:00019200       ??_C@_02EGOFBIJA@?$DN?$DN?$AA@ 6608f200     LIBCMT:undname.obj
 0002:00019204       ??_C@_01DCLJPIOD@?$CB?$AA@ 6608f204     LIBCMT:undname.obj
 0002:00019208       ??_C@_02FODMEDOG@?$DM?$DM?$AA@ 6608f208     LIBCMT:undname.obj
 0002:0001920c       ??_C@_02GPIOPFAK@?$DO?$DO?$AA@ 6608f20c     LIBCMT:undname.obj
 0002:00019210       ??_C@_07FPCDHGMM@?5delete?$AA@ 6608f210     LIBCMT:undname.obj
 0002:00019218       ??_C@_04NIHEBCM@?5new?$AA@ 6608f218     LIBCMT:undname.obj
 0002:00019220       ??_C@_0M@GFIIJFMG@__unaligned?$AA@ 6608f220     LIBCMT:undname.obj
 0002:0001922c       ??_C@_0L@PILCLIHE@__restrict?$AA@ 6608f22c     LIBCMT:undname.obj
 0002:00019238       ??_C@_07JOMMBBKO@__ptr64?$AA@ 6608f238     LIBCMT:undname.obj
 0002:00019240       ??_C@_09HIJEGCPM@__clrcall?$AA@ 6608f240     LIBCMT:undname.obj
 0002:0001924c       ??_C@_0L@JMKHOMEK@__fastcall?$AA@ 6608f24c     LIBCMT:undname.obj
 0002:00019258       ??_C@_0L@NPHFGOKO@__thiscall?$AA@ 6608f258     LIBCMT:undname.obj
 0002:00019264       ??_C@_09IFJBGAPI@__stdcall?$AA@ 6608f264     LIBCMT:undname.obj
 0002:00019270       ??_C@_08GHMPAG@__pascal?$AA@ 6608f270     LIBCMT:undname.obj
 0002:0001927c       ??_C@_07KOLFKCDI@__cdecl?$AA@ 6608f27c     LIBCMT:undname.obj
 0002:00019284       ??_C@_08EHJDFFNH@__based?$CI?$AA@ 6608f284     LIBCMT:undname.obj
 0002:00019410       ??_C@_0L@KDOEJCKC@_nextafter?$AA@ 6608f410     LIBCMT:_fpexcept_.obj
 0002:0001941c       ??_C@_05JGDBENOH@_logb?$AA@ 6608f41c     LIBCMT:_fpexcept_.obj
 0002:00019424       ??_C@_03ONILCKOB@_yn?$AA@  6608f424     LIBCMT:_fpexcept_.obj
 0002:00019428       ??_C@_03NAKIGLHK@_y1?$AA@  6608f428     LIBCMT:_fpexcept_.obj
 0002:0001942c       ??_C@_03MJLDFKDL@_y0?$AA@  6608f42c     LIBCMT:_fpexcept_.obj
 0002:00019430       ??_C@_05GKKHEGJL@frexp?$AA@ 6608f430     LIBCMT:_fpexcept_.obj
 0002:00019438       ??_C@_04KEPJIHGP@fmod?$AA@ 6608f438     LIBCMT:_fpexcept_.obj
 0002:00019440       ??_C@_06MEIMCGCF@_hypot?$AA@ 6608f440     LIBCMT:_fpexcept_.obj
 0002:00019448       ??_C@_05KBKMEMPO@_cabs?$AA@ 6608f448     LIBCMT:_fpexcept_.obj
 0002:00019450       ??_C@_05CEJMAHNP@ldexp?$AA@ 6608f450     LIBCMT:_fpexcept_.obj
 0002:00019458       ??_C@_04EHEDPDJG@modf?$AA@ 6608f458     LIBCMT:_fpexcept_.obj
 0002:00019460       ??_C@_04ODHECPBC@fabs?$AA@ 6608f460     LIBCMT:_fpexcept_.obj
 0002:00019468       ??_C@_05PBJFFIGL@floor?$AA@ 6608f468     LIBCMT:_fpexcept_.obj
 0002:00019470       ??_C@_04GFPJNGEK@ceil?$AA@ 6608f470     LIBCMT:_fpexcept_.obj
 0002:00019478       ??_C@_03IIINPABG@tan?$AA@  6608f478     LIBCMT:_fpexcept_.obj
 0002:0001947c       ??_C@_03LALBNOCG@cos?$AA@  6608f47c     LIBCMT:_fpexcept_.obj
 0002:00019480       ??_C@_03BLEJJJBH@sin?$AA@  6608f480     LIBCMT:_fpexcept_.obj
 0002:00019484       ??_C@_04EIAKFFMI@sqrt?$AA@ 6608f484     LIBCMT:_fpexcept_.obj
 0002:0001948c       ??_C@_05KNGEOGJB@atan2?$AA@ 6608f48c     LIBCMT:_fpexcept_.obj
 0002:00019494       ??_C@_04MLLJIGOK@atan?$AA@ 6608f494     LIBCMT:_fpexcept_.obj
 0002:0001949c       ??_C@_04PDIFKINK@acos?$AA@ 6608f49c     LIBCMT:_fpexcept_.obj
 0002:000194a4       ??_C@_04FIHNOPOL@asin?$AA@ 6608f4a4     LIBCMT:_fpexcept_.obj
 0002:000194ac       ??_C@_04FJHINJAO@tanh?$AA@ 6608f4ac     LIBCMT:_fpexcept_.obj
 0002:000194b4       ??_C@_04HPJJNFIM@cosh?$AA@ 6608f4b4     LIBCMT:_fpexcept_.obj
 0002:000194bc       ??_C@_04COOMCNPB@sinh?$AA@ 6608f4bc     LIBCMT:_fpexcept_.obj
 0002:000194c4       ??_C@_05HGHHAHAP@log10?$AA@ 6608f4c4     LIBCMT:_fpexcept_.obj
 0002:000194cc       ??_C@_03MGHMBJCF@log?$AA@  6608f4cc     LIBCMT:_fpexcept_.obj
 0002:000194d0       ??_C@_03JGHBODFD@pow?$AA@  6608f4d0     LIBCMT:_fpexcept_.obj
 0002:000194d4       ??_C@_03KHJOGHMM@exp?$AA@  6608f4d4     LIBCMT:_fpexcept_.obj
 0002:000194d8       __load_config_used         6608f4d8     LIBCMT:loadcfg.obj
 0002:00019520       ??_R4bad_alloc@std@@6B@    6608f520     LIBCMT:new.obj
 0002:00019534       ??_R3bad_alloc@std@@8      6608f534     LIBCMT:new.obj
 0002:00019544       ??_R2bad_alloc@std@@8      6608f544     LIBCMT:new.obj
 0002:00019550       ??_R1A@?0A@EA@bad_alloc@std@@8 6608f550     LIBCMT:new.obj
 0002:0001956c       ??_R1A@?0A@EA@exception@std@@8 6608f56c     LIBCMT:new.obj
 0002:00019588       ??_R3exception@std@@8      6608f588     LIBCMT:new.obj
 0002:00019598       ??_R2exception@std@@8      6608f598     LIBCMT:new.obj
 0002:000195a0       ??_R4exception@std@@6B@    6608f5a0     LIBCMT:stdexcpt.obj
 0002:000195b4       ??_R4type_info@@6B@        6608f5b4     LIBCMT:typinfo.obj
 0002:000195c8       ??_R3type_info@@8          6608f5c8     LIBCMT:typinfo.obj
 0002:000195d8       ??_R2type_info@@8          6608f5d8     LIBCMT:typinfo.obj
 0002:000195e0       ??_R1A@?0A@EA@type_info@@8 6608f5e0     LIBCMT:typinfo.obj
 0002:00019600       ___safe_se_handler_table   6608f600     <linker-defined>
 0002:0001960c       ___rtc_iaa                 6608f60c     LIBCMT:_initsect_.obj
 0002:00019610       ___rtc_izz                 6608f610     LIBCMT:_initsect_.obj
 0002:00019614       ___rtc_taa                 6608f614     LIBCMT:_initsect_.obj
 0002:00019618       ___rtc_tzz                 6608f618     LIBCMT:_initsect_.obj
 0002:0001980c       __TI2?AVbad_alloc@std@@    6608f80c     LIBCMT:new.obj
 0002:0001981c       __CTA2?AVbad_alloc@std@@   6608f81c     LIBCMT:new.obj
 0002:00019828       __CT??_R0?AVbad_alloc@std@@@8??0bad_alloc@std@@QAE@ABV01@@Z12 6608f828     LIBCMT:new.obj
 0002:00019844       __CT??_R0?AVexception@std@@@8??0exception@std@@QAE@ABV01@@Z12 6608f844     LIBCMT:new.obj
 0002:00019d74       __IMPORT_DESCRIPTOR_KERNEL32 6608fd74     kernel32:KERNEL32.dll
 0002:00019d88       __IMPORT_DESCRIPTOR_USER32 6608fd88     user32:USER32.dll
 0002:00019d9c       __IMPORT_DESCRIPTOR_IMM32  6608fd9c     imm32:IMM32.dll
 0002:00019db0       __NULL_IMPORT_DESCRIPTOR   6608fdb0     kernel32:KERNEL32.dll
 0003:00000000       ?szRuntimePath@@3PADA      66091000     config.obj
 0003:00000100       ?fShowCheckInfo@@3HA       66091100     config.obj
 0003:00000104       ?fLoadItemColours@@3HA     66091104     config.obj
 0003:00000108       ?mainMenuMsgTimeout@@3HA   66091108     config.obj
 0003:00000790       ?dwGameWindowId@@3HA       66091790     DllMain.obj
 0003:00000798       ?dwGameLng@@3HA            66091798     install.obj
 0003:0000079c       ?fFixSocketError@@3HA      6609179c     install.obj
 0003:000007a0       ?tReloadDll@@3UToggleVar@@A 660917a0     install.obj
 0003:000007d0       ?tReloadConfig@@3UToggleVar@@A 660917d0     install.obj
 0003:00000800       ?tInstallPatches@@3UToggleVar@@A 66091800     install.obj
 0003:000009cc       ?dwPetListChangeCount@@3HA 660919cc     common.obj
 0003:000009d0       ?skillTypes@@3PAY0BO@HA    660919d0     common.obj
 0003:00000d18       ?tShowTestInfo@@3UToggleVar@@A 66091d18     dbg.obj
 0003:00000d50       ?fPlayerInTown@@3HA        66091d50     loop.obj
 0003:00000d54       ?actlvls@@3PAHA            66091d54     loop.obj
 0003:00000d6c       ?dwCurrentLevel@@3HA       66091d6c     loop.obj
 0003:00000d70       ?dwLeftSkill@@3HA          66091d70     loop.obj
 0003:00000d74       ?dwRightSkill@@3HA         66091d74     loop.obj
 0003:00000d78       ?fCanUseLeftSkill@@3HA     66091d78     loop.obj
 0003:00000d7c       ?fCanUseRightSkill@@3HA    66091d7c     loop.obj
 0003:00000d80       ?dwSlowMs@@3HA             66091d80     loop.obj
 0003:00000d84       ?dwSlowSkipMs@@3HA         66091d84     loop.obj
 0003:00000ecc       ?dwAutoRevealMode@@3HA     66091ecc     map.obj
 0003:00000ed0       ?tRevealAct@@3UToggleVar@@A 66091ed0     map.obj
 0003:00000f00       ?tRevealLevel@@3UToggleVar@@A 66091f00     map.obj
 0003:00000f30       ?tPrevMapTarget@@3UToggleVar@@A 66091f30     map.obj
 0003:00000f60       ?tNextMapTarget@@3UToggleVar@@A 66091f60     map.obj
 0003:00000f90       ?tAutomapLevelNames@@3UToggleVar@@A 66091f90     map.obj
 0003:00000fc0       ?tAutoMap@@3UToggleVar@@A  66091fc0     map.obj
 0003:00000ff0       ?tMiniShrine@@3UToggleVar@@A 66091ff0     map.obj
 0003:00001020       ?tAutomapActiveRect@@3UToggleVar@@A 66092020     map.obj
 0003:00001050       ?tAutomapReadyRect@@3UToggleVar@@A 66092050     map.obj
 0003:00001080       ?tAutomapScreenArea@@3UToggleVar@@A 66092080     map.obj
 0003:000010b0       ?nAutomapActiveRectColors@@3EA 660920b0     map.obj
 0003:000010b1       ?nAutomapReadyRectColors@@3EA 660920b1     map.obj
 0003:000010b2       ?nAutomapScreenColors@@3EA 660920b2     map.obj
 0003:000010b3       ?nMinimapSize@@3EA         660920b3     map.obj
 0003:000010b4       ?routeLineColor@@3EA       660920b4     map.obj
 0003:000010b5       ?fAutomapPartyDefault@@3EA 660920b5     map.obj
 0003:000010b6       ?fAutomapNamesDefault@@3EA 660920b6     map.obj
 0003:000010b7       ?nHostileMissileColor@@3EA 660920b7     map.obj
 0003:000010b8       ?tMinimapDirectLineToggle@@3UToggleVar@@A 660920b8     map.obj
 0003:000010e8       ?tMinimapDebugToggle@@3UToggleVar@@A 660920e8     map.obj
 0003:00001118       ?tAutomapCorpse@@3UToggleVar@@A 66092118     map.obj
 0003:00001148       ?tAutomapMonsters@@3UToggleVar@@A 66092148     map.obj
 0003:00001178       ?tAutomapChests@@3UToggleVar@@A 66092178     map.obj
 0003:000011a8       ?tAutomapMissiles@@3UToggleVar@@A 660921a8     map.obj
 0003:000011d8       ?tAutomapItems@@3UToggleVar@@A 660921d8     map.obj
 0003:00001208       ?nGuidedMissileColor@@3EA  66092208     map.obj
 0003:00001209       ?nTracerMissileColor@@3EA  66092209     map.obj
 0003:0000120a       ?nOtherMissileColor@@3EA   6609220a     map.obj
 0003:0000120b       ?nClosedChestColor@@3EA    6609220b     map.obj
 0003:0000120c       ?nLockedChestColor@@3EA    6609220c     map.obj
 0003:0000120d       ?nNormalCorpseColor@@3EA   6609220d     map.obj
 0003:0000120e       ?nBossCorpseColor@@3EA     6609220e     map.obj
 0003:0000120f       ?nMinionCorpseColor@@3EA   6609220f     map.obj
 0003:00001210       ?nChampionCorpseColor@@3EA 66092210     map.obj
 0003:00001211       ?nMonsterNormalColor@@3EA  66092211     map.obj
 0003:00001212       ?nMonsterBossColor@@3EA    66092212     map.obj
 0003:00001213       ?nMonsterMinionColor@@3EA  66092213     map.obj
 0003:00001214       ?nMonsterChampColor@@3EA   66092214     map.obj
 0003:00001215       ?nSuperUniqueColor@@3EA    66092215     map.obj
 0003:00001216       ?nNeutralPlayerColor@@3EA  66092216     map.obj
 0003:00001217       ?nHostilePlayerColor@@3EA  66092217     map.obj
 0003:00001218       ?nFriendMinionColor@@3EA   66092218     map.obj
 0003:00001219       ?nPlayerMinionColor@@3EA   66092219     map.obj
 0003:0000121a       ?nPartyTextColour@@3EA     6609221a     map.obj
 0003:0000121b       ?nNeutralTextColour@@3EA   6609221b     map.obj
 0003:0000121c       ?nHostileTextColour@@3EA   6609221c     map.obj
 0003:0000121d       ?nMonsterTextCol@@3EA      6609221d     map.obj
 0003:00001220       ?tBossNameToggle@@3UToggleVar@@A 66092220     map.obj
 0003:00001250       ?tScreenshake@@3UToggleVar@@A 66092250     map.obj
 0003:00001280       ?tCenterMap@@3UToggleVar@@A 66092280     map.obj
 0003:000012b0       ?nScrollMode@@3HA          660922b0     map.obj
 0003:000012b4       ?dwDuranceOfHateLevel3TeleportShift@@3PAHA 660922b4     map.obj
 0003:000012c0       ?dwDuranceOfHateLevel3TeleportShiftBugKM@@3PAHA 660922c0     map.obj
 0003:000026f0       ?dwSocketTimeOutSec@@3HA   660936f0     packet.obj
 0003:000026f4       ?dwSocketTimeOut@@3HA      660936f4     packet.obj
 0003:000026f8       ?dwAddStatMaxCount@@3HA    660936f8     packet.obj
 0003:000026fc       ?tPacketHandler@@3UToggleVar@@A 660936fc     packet.obj
 0003:0000272c       ?tDoTest@@3UToggleVar@@A   6609372c     packet.obj
 0003:0000275c       ?tNecTeleportAttract@@3UToggleVar@@A 6609375c     packet.obj
 0003:0000278c       ?tHardCoreSwapWeaponProtect@@3UToggleVar@@A 6609378c     packet.obj
 0003:00002920       ?tAutomapRouteInfo@@3UToggleVar@@A 66093920     route.obj
 0003:00002950       ?tScreenRouteGuide@@3UToggleVar@@A 66093950     route.obj
 0003:00002980       ?tReroute@@3UToggleVar@@A  66093980     route.obj
 0003:00002b40       ?fWinActive@@3HA           66093b40     winmsg.obj
 0003:00002b44       ?dwQuickSwapItemDelayMs@@3HA 66093b44     winmsg.obj
 0003:00002b48       ?dwAutoCallToArm@@3HA      66093b48     winmsg.obj
 0003:00002b4c       ?tLockMouseToggle@@3UToggleVar@@A 66093b4c     winmsg.obj
 0003:00002b7c       ?tHardCoreEscapeProtect@@3UToggleVar@@A 66093b7c     winmsg.obj
 0003:00002bac       ?tAutoHideMinimapToggle@@3UToggleVar@@A 66093bac     winmsg.obj
 0003:00002bdc       ?tAutoMinimapTeleportToggle@@3UToggleVar@@A 66093bdc     winmsg.obj
 0003:00002c0c       ?tFullScreen@@3UToggleVar@@A 66093c0c     winmsg.obj
 0003:00002c3c       ?tFullScreenNoCaption@@3UToggleVar@@A 66093c3c     winmsg.obj
 0003:00002c6c       ?tResizeWindowBar@@3UToggleVar@@A 66093c6c     winmsg.obj
 0003:00002c9c       ?tAttractNPC@@3UToggleVar@@A 66093c9c     winmsg.obj
 0003:00002ccc       ?tEnableScreenSaver@@3UToggleVar@@A 66093ccc     winmsg.obj
 0003:00002cfc       ?tEnableMenuScreenSaver@@3UToggleVar@@A 66093cfc     winmsg.obj
 0003:00002d2c       ?tNoHide@@3UToggleVar@@A   66093d2c     winmsg.obj
 0003:00002d5c       ?tSaveGame@@3UToggleVar@@A 66093d5c     winmsg.obj
 0003:00003390       ?newTextBoxData@@3PAKA     66094390     winmsg.obj
 0003:000033c0       ?tChangeVisualEffect@@3UToggleVar@@A 660943c0     env.obj
 0003:000033f0       ?tWeather@@3UToggleVar@@A  660943f0     env.obj
 0003:00003420       ?tHiddenCorpse@@3UToggleVar@@A 66094420     env.obj
 0003:00003450       ?tSkipDrawToggle@@3UToggleVar@@A 66094450     env.obj
 0003:00003480       ?tHide3BB@@3UToggleVar@@A  66094480     env.obj
 0003:00003640       ?simpleItemStackTxt@@3HA   66094640     GameMonitor.obj
 0003:00003644       ?simpleItemStackIdx@@3HA   66094644     GameMonitor.obj
 0003:00003648       ?simpleItemStackStatId@@3HA 66094648     GameMonitor.obj
 0003:0000364c       ?changeStashPageCmd@@3HA   6609464c     GameMonitor.obj
 0003:00003650       ?changeStashPageCmdOffset@@3HA 66094650     GameMonitor.obj
 0003:00003654       ?changeStashPageCmdValue@@3HA 66094654     GameMonitor.obj
 0003:00003658       ?changeStashPageValueOffset@@3HA 66094658     GameMonitor.obj
 0003:000036a4       ?tCountDown@@3UToggleVar@@A 660946a4     GameMonitor.obj
 0003:000036d4       ?tDrawMultiPageStashCount@@3UToggleVar@@A 660946d4     GameMonitor.obj
 0003:00003704       ?dwGameMonitorX@@3HA       66094704     GameMonitor.obj
 0003:00003708       ?dwGameMonitorY@@3HA       66094708     GameMonitor.obj
 0003:0000370c       ?dwCountDownFontSize@@3HA  6609470c     GameMonitor.obj
 0003:00003710       ?dwCountDownGap@@3HA       66094710     GameMonitor.obj
 0003:00003714       ?dwCountDownFlashSecond@@3HA 66094714     GameMonitor.obj
 0003:00003718       ?tKillCount@@3UToggleVar@@A 66094718     GameMonitor.obj
 0003:00003748       ?tGetHitCount@@3UToggleVar@@A 66094748     GameMonitor.obj
 0003:00003778       ?tNecAutomapCorpsesToggle@@3UToggleVar@@A 66094778     GameMonitor.obj
 0003:000037a8       ?tDrawBossHpToggle@@3UToggleVar@@A 660947a8     GameMonitor.obj
 0003:000037d8       ?bossLineColor@@3HA        660947d8     GameMonitor.obj
 0003:000037dc       ?tDrawPlayerNameToggle@@3UToggleVar@@A 660947dc     GameMonitor.obj
 0003:0000380c       ?tAnalyzeMonsterExp@@3UToggleVar@@A 6609480c     GameMonitor.obj
 0003:0000383c       ?tLogMonsterExp@@3UToggleVar@@A 6609483c     GameMonitor.obj
 0003:0000386c       ?dwDrawPlayerNameDy@@3HA   6609486c     GameMonitor.obj
 0003:00003870       ?HasCowKing@@3HA           66094870     GameMonitor.obj
 0003:00003874       ?tShowPlayerCastPath@@3UToggleVar@@A 66094874     GameMonitor.obj
 0003:00003fe4       ?countDowns@@3PAPAUCountDown@@A 66094fe4     GameMonitor.obj
 0003:00004118       ?tServerIp@@3UToggleVar@@A 66095118     info.obj
 0003:00004148       ?tGameTime@@3UToggleVar@@A 66095148     info.obj
 0003:00004178       ?tClock@@3UToggleVar@@A    66095178     info.obj
 0003:000041a8       ?tLayerLevelNo@@3UToggleVar@@A 660951a8     info.obj
 0003:000041d8       ?tAreaLevel@@3UToggleVar@@A 660951d8     info.obj
 0003:00004208       ?tPermShowOrb@@3UToggleVar@@A 66095208     info.obj
 0003:00004238       ?tShowExp@@3UToggleVar@@A  66095238     info.obj
 0003:00004268       ?tShowPing@@3UToggleVar@@A 66095268     info.obj
 0003:00004298       ?tShowPartyPosition@@3UToggleVar@@A 66095298     info.obj
 0003:000042c8       ?tShowPartyLevel@@3UToggleVar@@A 660952c8     info.obj
 0003:000042f8       ?tViewEquipmentKey@@3UToggleVar@@A 660952f8     info.obj
 0003:00004328       ?tViewPlayerStatsKey@@3UToggleVar@@A 66095328     info.obj
 0003:00004358       ?tShowBaseStat@@3UToggleVar@@A 66095358     info.obj
 0003:00004388       ?tFirstPlayerStat@@3UToggleVar@@A 66095388     info.obj
 0003:000043b8       ?tNextPlayerStat@@3UToggleVar@@A 660953b8     info.obj
 0003:000043e8       ?tPrevPlayerStat@@3UToggleVar@@A 660953e8     info.obj
 0003:000046d8       ?szOrbPattern@@3PADA       660956d8     info.obj
 0003:000046dc       ?viewStatUnit@@3UViewUnitInfo@@A 660956dc     info.obj
 0003:000046ec       ?viewEquUnit@@3UViewUnitInfo@@A 660956ec     info.obj
 0003:000047d0       ?tLogMessage@@3UToggleVar@@A 660957d0     MessageLog.obj
 0003:00004800       ?dwMessageFileSize@@3HA    66095800     MessageLog.obj
 0003:00004860       ?anGoldGoodCol@@3PADA      66095860     item.obj
 0003:00004864       ?anGoldPoorCol@@3PADA      66095864     item.obj
 0003:00004868       ?tSwitchItemMode@@3UToggleVar@@A 66095868     item.obj
 0003:00004898       ?dwItemShowMode@@3HA       66095898     item.obj
 0003:0000489c       ?nQuestItemColour@@3EA     6609589c     item.obj
 0003:0000489d       ?nDefaultExtInfoColour@@3EA 6609589d     item.obj
 0003:000048a0       ?tRuneNumbers@@3UToggleVar@@A 660958a0     item.obj
 0003:000048d0       ?tSocketNumbers@@3UToggleVar@@A 660958d0     item.obj
 0003:00004900       ?tItemLevel@@3UToggleVar@@A 66095900     item.obj
 0003:00004930       ?tItemValue@@3UToggleVar@@A 66095930     item.obj
 0003:00004960       ?tItemIndex@@3UToggleVar@@A 66095960     item.obj
 0003:00004990       ?tItemFileIndex@@3UToggleVar@@A 66095990     item.obj
 0003:000049c0       ?tUnitNumber@@3UToggleVar@@A 660959c0     item.obj
 0003:000049f0       ?tItemQLevel@@3UToggleVar@@A 660959f0     item.obj
 0003:00004a20       ?tItemMLevel@@3UToggleVar@@A 66095a20     item.obj
 0003:00004a50       ?tItemALevel@@3UToggleVar@@A 66095a50     item.obj
 0003:00004a80       ?tAfterCube@@3UToggleVar@@A 66095a80     item.obj
 0003:00004ab0       ?tLifePerLevel@@3UToggleVar@@A 66095ab0     item.obj
 0003:00004ae0       ?dwItemValueNpc@@3PAHA     66095ae0     item.obj
 0003:00004af4       ?tShowBaseED@@3UToggleVar@@A 66095af4     item.obj
 0003:00004b24       ?tShowIdentifiedItem@@3UToggleVar@@A 66095b24     item.obj
 0003:00004b54       ?tHiddenItems@@3UToggleVar@@A 66095b54     item.obj
 0003:00004b84       ?tPermShowItems@@3UToggleVar@@A 66095b84     item.obj
 0003:00004bb4       ?tLockAltToggle@@3UToggleVar@@A 66095bb4     item.obj
 0003:00004be4       ?tItemBasicStat@@3UToggleVar@@A 66095be4     item.obj
 0003:00004c14       ?tViewSocketable@@3UToggleVar@@A 66095c14     item.obj
 0003:00004c44       ?tViewSocketBase@@3UToggleVar@@A 66095c44     item.obj
 0003:00004c74       ?tShowItemVariableProp@@3UToggleVar@@A 66095c74     item.obj
 0003:00004ca4       ?tSocketProtect@@3UToggleVar@@A 66095ca4     item.obj
 0003:00004cd4       ?tRunewordProtect@@3UToggleVar@@A 66095cd4     item.obj
 0003:00004d04       ?tDrawInvItemInfo@@3UToggleVar@@A 66095d04     item.obj
 0003:00004d34       ?tItemExtInfo@@3UToggleVar@@A 66095d34     item.obj
 0003:00004d64       ?maxTownPortalCount@@3HA   66095d64     item.obj
 0003:00004d68       ?maxIdentifyPortalCount@@3HA 66095d68     item.obj
 0003:00004d6c       ?batchSimpleItemStackCount@@3HA 66095d6c     item.obj
 0003:00004d70       ?tDrawSimpleItemStackCount@@3UToggleVar@@A 66095d70     item.obj
 0003:000056ec       ?dwAutoPotionCheckMs@@3HA  660966ec     dangerous.obj
 0003:000056f0       ?dwHirePotionDelayMs@@3HA  660966f0     dangerous.obj
 0003:000056f4       ?dwManaPotionDelayMs@@3HA  660966f4     dangerous.obj
 0003:000056f8       ?nChickenLifeAction@@3HA   660966f8     dangerous.obj
 0003:000056fc       ?tHealingPotion@@3UToggleVar@@A 660966fc     dangerous.obj
 0003:0000572c       ?tManaPotion@@3UToggleVar@@A 6609672c     dangerous.obj
 0003:0000575c       ?tChickenLife@@3UToggleVar@@A 6609675c     dangerous.obj
 0003:0000578c       ?tChickenHostile@@3UToggleVar@@A 6609678c     dangerous.obj
 0003:000057bc       ?tChickenHostileNearby@@3UToggleVar@@A 660967bc     dangerous.obj
 0003:000057ec       ?tChickenDangerousMonster@@3UToggleVar@@A 660967ec     dangerous.obj
 0003:0000581c       ?tAutoPotion@@3UToggleVar@@A 6609681c     dangerous.obj
 0003:0000584c       ?tHardCoreAllBackTownIfProtect@@3UToggleVar@@A 6609684c     dangerous.obj
 0003:0000587c       ?tHardCoreLeaveTownDurability@@3UToggleVar@@A 6609687c     dangerous.obj
 0003:000058ac       ?dwHardCoreLeaveTownDurabilityPercent@@3HA 660968ac     dangerous.obj
 0003:000058b0       ?dwChickenLifeForcedClevel@@3HA 660968b0     dangerous.obj
 0003:000058b4       ?dwNoQuitIfDeadClevel@@3HA 660968b4     dangerous.obj
 0003:000058b8       ?dwChickenLifeEnterGame@@3HA 660968b8     dangerous.obj
 0003:000058bc       ?nDangerousMonsterAction@@3HA 660968bc     dangerous.obj
 0003:00006010       ?dwBarbrianLeft@@3HA       66097010     quest.obj
 0003:00006014       ?dwBugAlertTimes@@3HA      66097014     quest.obj
 0003:00006018       ?tBugKCountess@@3UToggleVar@@A 66097018     quest.obj
 0003:00006048       ?tBugKM@@3UToggleVar@@A    66097048     quest.obj
 0003:00006078       ?tBugKD@@3UToggleVar@@A    66097078     quest.obj
 0003:000060a8       ?tBugKB@@3UToggleVar@@A    660970a8     quest.obj
 0003:000060d8       ?tBugAutoQuit@@3UToggleVar@@A 660970d8     quest.obj
 0003:00006108       ?tBugAutoQuitHell@@3UToggleVar@@A 66097108     quest.obj
 0003:00006138       ?tBugAutoQuitHellAct1@@3UToggleVar@@A 66097138     quest.obj
 0003:00006168       ?tBugAutoQuitHellAct3@@3UToggleVar@@A 66097168     quest.obj
 0003:00006198       ?tBugAutoQuitHellAct4@@3UToggleVar@@A 66097198     quest.obj
 0003:000061c8       ?tBugAutoQuitHellAct5@@3UToggleVar@@A 660971c8     quest.obj
 0003:000061f8       ?tBugAutoQuitAct5@@3UToggleVar@@A 660971f8     quest.obj
 0003:00006228       ?tBugAllHellAlert@@3UToggleVar@@A 66097228     quest.obj
 0003:00006258       ?tAlertNoBug@@3UToggleVar@@A 66097258     quest.obj
 0003:00006288       ?t3BBProtect@@3UToggleVar@@A 66097288     quest.obj
 0003:00006668       ?tMonsterLevel@@3UToggleVar@@A 66097668     lifebar.obj
 0003:00006698       ?tMonsterTC@@3UToggleVar@@A 66097698     lifebar.obj
 0003:000066c8       ?tMonsterRuneTC@@3UToggleVar@@A 660976c8     lifebar.obj
 0003:000066f8       ?tMonsterResists@@3UToggleVar@@A 660976f8     lifebar.obj
 0003:00006728       ?tMonsterHPPercent@@3UToggleVar@@A 66097728     lifebar.obj
 0003:00006758       ?tMonsterDistance@@3UToggleVar@@A 66097758     lifebar.obj
 0003:00006788       ?tMonsterID@@3UToggleVar@@A 66097788     lifebar.obj
 0003:000067b8       ?tSPMonsterHP@@3UToggleVar@@A 660977b8     lifebar.obj
 0003:000067e8       ?tSPMonsterExp@@3UToggleVar@@A 660977e8     lifebar.obj
 0003:00006818       ?nLifeBarTrans@@3EA        66097818     lifebar.obj
 0003:00006819       ?nLifeBarColour@@3EA       66097819     lifebar.obj
 0003:0000681c       ?tPlayerLevel@@3UToggleVar@@A 6609781c     lifebar.obj
 0003:0000684c       ?tPlayerDistance@@3UToggleVar@@A 6609784c     lifebar.obj
 0003:0000687c       ?tPlayerHPPercent@@3UToggleVar@@A 6609787c     lifebar.obj
 0003:00006bf8       ?tDropProtectionToggle@@3UToggleVar@@A 66097bf8     DropProtection.obj
 0003:00006c28       ?tResetProtectionToggle@@3UToggleVar@@A 66097c28     DropProtection.obj
 0003:00006c58       ?protectCharLv@@3HA        66097c58     DropProtection.obj
 0003:00006dc0       ?tWisperNotice@@3UToggleVar@@A 66097dc0     chat.obj
 0003:00006df0       ?tInputLine@@3UToggleVar@@A 66097df0     chat.obj
 0003:00006e20       ?tUseCustomFont@@3UToggleVar@@A 66097e20     chat.obj
 0003:00006e50       ?tQuickMessagePasteOnly@@3UToggleVar@@A 66097e50     chat.obj
 0003:000070d0       ?tOutTownSelect@@3UToggleVar@@A 660980d0     misc.obj
 0003:00007100       ?tULCMask@@3UToggleVar@@A  66098100     misc.obj
 0003:000071b8       ?tMultiClient@@3UToggleVar@@A 660981b8     multi.obj
 0003:000071e8       ?tMultiClientToggleFollow@@3UToggleVar@@A 660981e8     multi.obj
 0003:00007218       ?tMultiClientStartFollow1@@3UToggleVar@@A 66098218     multi.obj
 0003:00007248       ?tMultiClientStartFollow2@@3UToggleVar@@A 66098248     multi.obj
 0003:00007278       ?tMultiClientStopFollow@@3UToggleVar@@A 66098278     multi.obj
 0003:000072a8       ?tMultiClientEnterDoor@@3UToggleVar@@A 660982a8     multi.obj
 0003:000072d8       ?tMultiClientRetreat@@3UToggleVar@@A 660982d8     multi.obj
 0003:00007308       ?tMultiClientClick@@3UToggleVar@@A 66098308     multi.obj
 0003:00007338       ?tMultiClientClick2@@3UToggleVar@@A 66098338     multi.obj
 0003:00007368       ?tMultiClientTalkToNpc@@3UToggleVar@@A 66098368     multi.obj
 0003:00007398       ?tMultiClientTp@@3UToggleVar@@A 66098398     multi.obj
 0003:000073c8       ?dwMultiClientGroupSize1@@3HA 660983c8     multi.obj
 0003:000073cc       ?dwMultiClientGroupSize2@@3HA 660983cc     multi.obj
 0003:000073d0       ?dwAutoFollowDistance@@3HA 660983d0     multi.obj
 0003:000073d4       ?dwAutoFollowMaxDistance@@3HA 660983d4     multi.obj
 0003:000073d8       ?dwAutoFollowMoveDistance@@3HA 660983d8     multi.obj
 0003:000073dc       ?dwAutoFollowCheckInterval@@3HA 660983dc     multi.obj
 0003:000073e0       ?dwAutoFollowClickObjectDelayMs@@3HA 660983e0     multi.obj
 0003:000073e4       ?dwWaitTeamEnterPortalMaxDelayMs@@3HA 660983e4     multi.obj
 0003:000073e8       ?tNecNoAttackInHell@@3UToggleVar@@A 660983e8     multi.obj
 0003:000077e0       ?tNpcTradeShowInfo@@3UToggleVar@@A 660987e0     NpcTrade.obj
 0003:00007860       ?mAutoPartyDelays@@3HA     66098860     party.obj
 0003:00007864       ?tAutoParty@@3UToggleVar@@A 66098864     party.obj
 0003:00007894       ?tAutoInvite@@3UToggleVar@@A 66098894     party.obj
 0003:000078c4       ?tAutoPermit@@3UToggleVar@@A 660988c4     party.obj
 0003:000078f4       ?tAutoLocalPermit@@3UToggleVar@@A 660988f4     party.obj
 0003:00007924       ?tAutoPartyBugMF@@3UToggleVar@@A 66098924     party.obj
 0003:00007954       ?tHardCoreBackTownIfAnyoneDie@@3UToggleVar@@A 66098954     party.obj
 0003:00007984       ?autoPartyLevelRange@@3PAY01DA 66098984     party.obj
 0003:00007af0       ?nTownportalAlertNums@@3HA 66098af0     quick.obj
 0003:00007af8       ?tBackToTown@@3UToggleVar@@A 66098af8     quick.obj
 0003:00007b28       ?tExitGame@@3UToggleVar@@A 66098b28     quick.obj
 0003:00007b58       ?tQuickNextGame@@3UToggleVar@@A 66098b58     quick.obj
 0003:00007b88       ?tQuickNextGame2@@3UToggleVar@@A 66098b88     quick.obj
 0003:00007bb8       ?tAllNextGame@@3UToggleVar@@A 66098bb8     quick.obj
 0003:00007be8       ?tAutoJoinGame@@3UToggleVar@@A 66098be8     quick.obj
 0003:00007c18       ?tCancelAutoJoinIfForeground@@3UToggleVar@@A 66098c18     quick.obj
 0003:00007f10       ?tRightClickSwap@@3UToggleVar@@A 66098f10     QuickSwapItem.obj
 0003:00007f40       ?tQuickDropToggle@@3UToggleVar@@A 66098f40     QuickSwapItem.obj
 0003:00007f70       ?tEnableGemAutoMerge@@3UToggleVar@@A 66098f70     QuickSwapItem.obj
 0003:00007fa0       ?tEnableAutoSimpleItemStack@@3UToggleVar@@A 66098fa0     QuickSwapItem.obj
 0003:000080e8       ?tHighResolution@@3UToggleVar@@A 660990e8     resolution.obj
 0003:00008148       ?tAutoPickupToggle@@3UToggleVar@@A 66099148     skill.obj
 0003:00008178       ?tAutoEnchant@@3UToggleVar@@A 66099178     skill.obj
 0003:000081a8       ?dwRenewEnchantMs@@3HA     660991a8     skill.obj
 0003:000081ac       ?dwAutoEnchantMana@@3HA    660991ac     skill.obj
 0003:000081b0       ?dwRenewEnchantMana@@3HA   660991b0     skill.obj
 0003:000081b4       ?dwAutoEnchantPlayerLevel@@3HA 660991b4     skill.obj
 0003:000081b8       ?tAutoWarCry@@3UToggleVar@@A 660991b8     skill.obj
 0003:000081e8       ?tAutoBackgroundSkill@@3UToggleVar@@A 660991e8     skill.obj
 0003:00008218       ?tAutoForegroundSkillToggle@@3UToggleVar@@A 66099218     skill.obj
 0003:00008248       ?tAutoForegroundSkill@@3UToggleVar@@A 66099248     skill.obj
 0003:00008278       ?dwAutoSkillCheckInterval@@3HA 66099278     skill.obj
 0003:0000827c       ?dwAutoSkillIdleDelay@@3HA 6609927c     skill.obj
 0003:00008280       ?dwAutoThrowMinQuantity@@3HA 66099280     skill.obj
 0003:00008284       ?dwAutoStaticFieldHPPercent@@3HA 66099284     skill.obj
 0003:00008288       ?tAutoSummon@@3UToggleVar@@A 66099288     skill.obj
 0003:000082b8       ?tAutoSummonRevive@@3UToggleVar@@A 660992b8     skill.obj
 0003:000082e8       ?tShowSummonInfo@@3UToggleVar@@A 660992e8     skill.obj
 0003:00008318       ?dwAutoSummonMana@@3HA     66099318     skill.obj
 0003:0000831c       ?dwSwitchSkillMs@@3HA      6609931c     skill.obj
 0003:00008320       ?dwAutoSummonSkeletonLevelAdjust@@3HA 66099320     skill.obj
 0003:00008324       ?dwAutoSummonSkeletonMageLevelAdjust@@3HA 66099324     skill.obj
 0003:00008328       ?dwAutoSummonReviveLevelAdjust@@3HA 66099328     skill.obj
 0003:0000832c       ?tAutoForegroundSkill2@@3UToggleVar@@A 6609932c     skill.obj
 0003:0000894c       ?showStatNum@@3HA          6609994c     Snapshot.obj
 0003:00008950       ?szSnapshotPath@@3PADA     66099950     Snapshot.obj
 0003:00008a50       ?szSnapshotNamesPath@@3PADA 66099a50     Snapshot.obj
 0003:00008b50       ?tDoSnapshot@@3UToggleVar@@A 66099b50     Snapshot.obj
 0003:00008b80       ?tSnapshot@@3UToggleVar@@A 66099b80     Snapshot.obj
 0003:00008bb0       ?tSnapshotNewGame@@3UToggleVar@@A 66099bb0     Snapshot.obj
 0003:00008be0       ?tSnapshotEndGame@@3UToggleVar@@A 66099be0     Snapshot.obj
 0003:00008c10       ?tSnapshotLog@@3UToggleVar@@A 66099c10     Snapshot.obj
 0003:00008c40       ?tSnapshotSaveD2s@@3UToggleVar@@A 66099c40     Snapshot.obj
 0003:00009064       ?tAutoTeleportEvade@@3UToggleVar@@A 6609a064     teleport.obj
 0003:00009590       ?tServerTest@@3UToggleVar@@A 6609a590     server.obj
 0003:000095c0       ?tRepeatAdminCmd@@3UToggleVar@@A 6609a5c0     server.obj
 0003:00009614       ?fEnableAdminCmd@@3HA      6609a614     server.obj
 0003:0000961c       ?adminCmdPrefix@@3PADA     6609a61c     server.obj
 0003:000099cc       ?UberMephistoNbMinions@@3HA 6609a9cc     uber.obj
 0003:000099d0       ?UberMephistoMinions@@3PAHA 6609a9d0     uber.obj
 0003:000099e8       ?UberMephistoSpawnPercent@@3HA 6609a9e8     uber.obj
 0003:000099ec       ?UberMephistoSpawnRadius@@3HA 6609a9ec     uber.obj
 0003:000099f0       ?UberBaalNbMinions@@3HA    6609a9f0     uber.obj
 0003:000099f4       ?UberBaalMinions@@3PAHA    6609a9f4     uber.obj
 0003:000099fc       ?UberBaalSpawnPercent@@3HA 6609a9fc     uber.obj
 0003:00009a00       ?UberBaalSpawnRadius@@3HA  6609aa00     uber.obj
 0003:00009a04       ?UberDiabloNbMinions@@3HA  6609aa04     uber.obj
 0003:00009a08       ?UberDiabloMinions@@3PAHA  6609aa08     uber.obj
 0003:00009a0c       ?UberDiabloSpawnPercent@@3HA 6609aa0c     uber.obj
 0003:00009a10       ?UberDiabloSpawnRadius@@3HA 6609aa10     uber.obj
 0003:00009a14       ?uberBaalChillingArmorTimer@@3HA 6609aa14     uber.obj
 0003:00009ac8       ?szVersion@@3PADA          6609aac8     version.obj
 0003:00009acc       ?compileTime@@3PADA        6609aacc     version.obj
 0003:00009ad0       ___security_cookie         6609aad0     LIBCMT:gs_cookie.obj
 0003:00009ad4       ___security_cookie_complement 6609aad4     LIBCMT:gs_cookie.obj
 0003:00009ae0       __iob                      6609aae0     LIBCMT:_file.obj
 0003:00009d60       __fltused                  6609ad60     LIBCMT:_fpinit_.obj
 0003:00009d64       __ldused                   6609ad64     LIBCMT:_fpinit_.obj
 0003:00009d74       ??_R0?AVbad_alloc@std@@@8  6609ad74     LIBCMT:new.obj
 0003:00009d90       ??_R0?AVexception@std@@@8  6609ad90     LIBCMT:new.obj
 0003:00009dd8       ___initialmbcinfo          6609add8     LIBCMT:mbctype.obj
 0003:00009ff8       __mbctype                  6609aff8     LIBCMT:mbctype.obj
 0003:0000a100       __mbcasemap                6609b100     LIBCMT:mbctype.obj
 0003:0000a200       ___ptmbcinfo               6609b200     LIBCMT:mbctype.obj
 0003:0000a2fc       ___globallocalestatus      6609b2fc     LIBCMT:glstatus.obj
 0003:0000a300       ___clocalestr              6609b300     LIBCMT:nlsdata2.obj
 0003:0000a308       ___initiallocinfo          6609b308     LIBCMT:nlsdata2.obj
 0003:0000a3e0       ___ptlocinfo               6609b3e0     LIBCMT:nlsdata2.obj
 0003:0000a3e4       ___lc_clike                6609b3e4     LIBCMT:nlsdata2.obj
 0003:0000a3e8       ___initiallocalestructinfo 6609b3e8     LIBCMT:nlsdata2.obj
 0003:0000a3f0       ___flsindex                6609b3f0     LIBCMT:tidtable.obj
 0003:0000a3f4       ___getvalueindex           6609b3f4     LIBCMT:tidtable.obj
 0003:0000a688       ___nullstring              6609b688     LIBCMT:output.obj
 0003:0000a68c       ___wnullstring             6609b68c     LIBCMT:output.obj
 0003:0000a690       ___badioinfo               6609b690     LIBCMT:ioinit.obj
 0003:0000a6d0       __amblksiz                 6609b6d0     LIBCMT:heapinit.obj
 0003:0000a6d4       __aexit_rtn                6609b6d4     LIBCMT:crt0dat.obj
 0003:0000a6d8       __cfltcvt_tab              6609b6d8     LIBCMT:cmiscdat.obj
 0003:0000a7b8       __lookuptrailbytes         6609b7b8     LIBCMT:read.obj
 0003:0000a8c8       ??_R0?AVtype_info@@@8      6609b8c8     LIBCMT:typinfo.obj
 0003:0000a8e0       __indefinite               6609b8e0     LIBCMT:_87disp_.obj
 0003:0000a8ea       __piby2                    6609b8ea     LIBCMT:_87disp_.obj
 0003:0000a910       __First_FPE_Indx           6609b910     LIBCMT:winxfltr.obj
 0003:0000a914       __Num_FPE                  6609b914     LIBCMT:winxfltr.obj
 0003:0000a918       __XcptActTabSize           6609b918     LIBCMT:winxfltr.obj
 0003:0000a91c       __XcptActTabCount          6609b91c     LIBCMT:winxfltr.obj
 0003:0000a920       __pctype                   6609b920     LIBCMT:ctype.obj
 0003:0000a924       __pwctype                  6609b924     LIBCMT:ctype.obj
 0003:0000a928       ___lc_time_c               6609b928     LIBCMT:strftime.obj
 0003:0000a9e0       ___lc_time_curr            6609b9e0     LIBCMT:strftime.obj
 0003:0000a9e4       ___lconv_static_decimal    6609b9e4     LIBCMT:lconv.obj
 0003:0000a9e8       ___lconv_c                 6609b9e8     LIBCMT:lconv.obj
 0003:0000aa18       ___lconv                   6609ba18     LIBCMT:lconv.obj
 0003:0000aa1c       ___mb_cur_max              6609ba1c     LIBCMT:nlsdata1.obj
 0003:0000aa20       ___decimal_point           6609ba20     LIBCMT:nlsdata1.obj
 0003:0000aa24       ___decimal_point_length    6609ba24     LIBCMT:nlsdata1.obj
 0003:0000aa40       __NLG_Destination          6609ba40     LIBCMT:exsup.obj
 0003:0000aa70       __timezone                 6609ba70     LIBCMT:timeset.obj
 0003:0000aa74       __daylight                 6609ba74     LIBCMT:timeset.obj
 0003:0000aa78       __dstbias                  6609ba78     LIBCMT:timeset.obj
 0003:0000ab00       __tzname                   6609bb00     LIBCMT:timeset.obj
 0003:0000ab08       __lpdays                   6609bb08     LIBCMT:days.obj
 0003:0000ab3c       __days                     6609bb3c     LIBCMT:days.obj
 0003:0000ab70       __coninpfh                 6609bb70     LIBCMT:initcon.obj
 0003:0000ab74       __confh                    6609bb74     LIBCMT:initcon.obj
 0003:0000ab78       ___abort_behavior          6609bb78     LIBCMT:abort.obj
 0003:0000ac98       __matherr_flag             6609bc98     LIBCMT:_matherr_.obj
 0003:0000acc0       __pow10pos                 6609bcc0     LIBCMT:_constpow_.obj
 0003:0000ae20       __pow10neg                 6609be20     LIBCMT:_constpow_.obj
 0003:0000af80       __d_inf                    6609bf80     LIBCMT:_util_.obj
 0003:0000af88       __d_ind                    6609bf88     LIBCMT:_util_.obj
 0003:0000af90       __d_max                    6609bf90     LIBCMT:_util_.obj
 0003:0000af98       __d_min                    6609bf98     LIBCMT:_util_.obj
 0003:0000afa0       __d_mzero                  6609bfa0     LIBCMT:_util_.obj
 0003:0000afc0       ?tmpSymbols@@3PAUSymbol@@A 6609bfc0     config.obj
 0003:0000b3c4       ?logfp@@3PAU_iobuf@@A      6609c3c4     config.obj
 0003:0000b3c8       ?tKeyEventMap@@3PAPAUToggleVar@@A 6609c3c8     config.obj
 0003:0000d3d0       ?warningMsgs@@3PAUWarningMsg@@A 6609e3d0     config.obj
 0003:0000d3d8       ?pSymbols@@3PAUSymbol@@A   6609e3d8     config.obj
 0003:0000d3dc       ?nSymbols@@3HA             6609e3dc     config.obj
 0003:0000d3e0       ?capSymbols@@3HA           6609e3e0     config.obj
 0003:0000d3e4       ?nTmpSymbols@@3HA          6609e3e4     config.obj
 0003:0000d3e8       ?fSymbolSorted@@3HA        6609e3e8     config.obj
 0003:0000d3f0       ?configVarCap@@3HA         6609e3f0     config.obj
 0003:0000d3f4       ?configVarCount@@3HA       6609e3f4     config.obj
 0003:0000d3f8       ?loadingConfigs@@3PAULoadingConfig@@A 6609e3f8     config.obj
 0003:0000d400       ?hInstDLL@@3PAUHINSTANCE__@@A 6609e400     DllMain.obj
 0003:0000d404       ?dllHeap@@3PAXA            6609e404     DllMain.obj
 0003:0000d408       ?confHeap@@3PAXA           6609e408     DllMain.obj
 0003:0000d40c       ?gameHeap@@3PAXA           6609e40c     DllMain.obj
 0003:0000d410       ?fIsSinglePlayer@@3HA      6609e410     DllMain.obj
 0003:0000d414       ?fIsTcpIp@@3HA             6609e414     DllMain.obj
 0003:0000d418       ?fIsRealmServer@@3HA       6609e418     DllMain.obj
 0003:0000d41c       ?fIsRealmClient@@3HA       6609e41c     DllMain.obj
 0003:0000d420       ?szDllPath@@3PADA          6609e420     DllMain.obj
 0003:0000d528       ?szPluginPath@@3PADA       6609e528     DllMain.obj
 0003:0000d630       ?reloadStorage@@3PADA      6609e630     DllMain.obj
 0003:0000d634       ?reloadStorageSize@@3HA    6609e634     DllMain.obj
 0003:0000d638       ?storm_pmpq_load_flag@@3PAHA 6609e638     install.obj
 0003:0000d63c       ?storm_pmpq_crypt_table@@3PAHA 6609e63c     install.obj
 0003:0000d640       ?storm_regQueryValue@@3P6GHPAD0H0H@ZA 6609e640     install.obj
 0003:0000d644       ?storm_snprintf@@3P6AHPADHHZZA 6609e644     install.obj
 0003:0000d648       ?storm_processWinMessage372@@3P6GHHPAUHWND__@@HPAUD2MSG@@@ZA 6609e648     install.obj
 0003:0000d64c       ?storm_processWinMessage@@3P6GHPAUHWND__@@HHHPAX1@ZA 6609e64c     install.obj
 0003:0000d650       ?storm_openMpq@@3P6GHPBDHHPAX@ZA 6609e650     install.obj
 0003:0000d654       ?storm_mpq_open_block@@3P6GHPADPAUmpq_block@@@ZA 6609e654     install.obj
 0003:0000d658       ?storm_mpq_open_block_from@@3P6GHPAXPADHPAUmpq_block@@@ZA 6609e658     install.obj
 0003:0000d65c       ?storm_mpq_read_block@@3P6GHPAUmpq_block@@HPADH@ZA 6609e65c     install.obj
 0003:0000d660       ?storm_mk_abs_path@@3P6GPADPADPAX@ZA 6609e660     install.obj
 0003:0000d664       ?storm_mpq_hashstring@@3P6GHH@ZA 6609e664     install.obj
 0003:0000d668       ?storm_mpq_uncompress@@3P6GHPAXPAH0H@ZA 6609e668     install.obj
 0003:0000d66c       ?fog_Ord10218@@3P6IHXZA    6609e66c     install.obj
 0003:0000d670       ?fog_getMCPPacket@@3P6GHPAXPADH@ZA 6609e670     install.obj
 0003:0000d674       ?fog_Ord10089@@3P6IHH@ZA   6609e674     install.obj
 0003:0000d678       ?fog_uninit@@3P6GHXZA      6609e678     install.obj
 0003:0000d67c       ?fog_realloc@@3P6IPAXHPAXHPADHH@ZA 6609e67c     install.obj
 0003:0000d680       ?fog_allocMemory@@3P6IPAXHHPADHH@ZA 6609e680     install.obj
 0003:0000d684       ?fog_getCriticalSection@@3P6IPAUCriticalSection@@HPADHH@ZA 6609e684     install.obj
 0003:0000d688       ?fog_setCriticalSection@@3P6IHPAUCriticalSection@@PADHH@ZA 6609e688     install.obj
 0003:0000d68c       ?fog_freeMemory@@3P6IHHPAXPADHH@ZA 6609e68c     install.obj
 0003:0000d690       ?fog_Ord10101@@3P6IHHH@ZA  6609e690     install.obj
 0003:0000d694       ?fog_mpq_open_block@@3P6IHPADPAUmpq_block@@@ZA 6609e694     install.obj
 0003:0000d698       ?fog_initBitStream@@3P6GPAUFogBits@@PAU1@PADH@ZA 6609e698     install.obj
 0003:0000d69c       ?fog_writeBitStream@@3P6GXPAUFogBits@@HH@ZA 6609e69c     install.obj
 0003:0000d6a0       ?fog_setBit@@3P6GXPAXH@ZA  6609e6a0     install.obj
 0003:0000d6a4       ?fog_clearBit@@3P6GXPAXH@ZA 6609e6a4     install.obj
 0003:0000d6a8       ?fog_getBitStreamBytes@@3P6GHPAUFogBits@@@ZA 6609e6a8     install.obj
 0003:0000d6ac       ?fog_alignBitStreamToByte@@3P6GHPAUFogBits@@@ZA 6609e6ac     install.obj
 0003:0000d6b0       ?fog_Ord10019@@3P6IHPADPAX0H@ZA 6609e6b0     install.obj
 0003:0000d6b4       ?fog_FogValidateCriticalSection@@3P6IHPAUCriticalSection@@H@ZA 6609e6b4     install.obj
 0003:0000d6b8       ?fog_reportError@@3P6AXPAXHH@ZA 6609e6b8     install.obj
 0003:0000d6bc       ?fog_setLogFilePrefix@@3P6IHPAD@ZA 6609e6bc     install.obj
 0003:0000d6c0       ?fog_getEIP@@3P6GHXZA      6609e6c0     install.obj
 0003:0000d6c4       ?fog_getClientID@@3P6GHPAUClientInfos@@H@ZA 6609e6c4     install.obj
 0003:0000d6c8       ?fog_getClientInfo@@3P6GPAUClientInfo@@PAUClientInfos@@H@ZA 6609e6c8     install.obj
 0003:0000d6cc       ?fog_enableNTFeature@@3P6GHPAH@ZA 6609e6cc     install.obj
 0003:0000d6d0       ?fog_exit@@3P6GXH@ZA       6609e6d0     install.obj
 0003:0000d6d4       ?d2win_pDrawHoverY@@3PAHA  6609e6d4     install.obj
 0003:0000d6d8       ?d2win_pmusic_volumn@@3PAHA 6609e6d8     install.obj
 0003:0000d6dc       ?d2win_pRunningFlag@@3PAHA 6609e6dc     install.obj
 0003:0000d6e0       ?d2win_pclientProcessMessageFunc@@3PAPAXA 6609e6e0     install.obj
 0003:0000d6e4       ?d2win_pFocusedControl@@3PAPAUD2EditBox@@A 6609e6e4     install.obj
 0003:0000d6e8       ?d2win_pvar_214A0@@3PAPAXA 6609e6e8     install.obj
 0003:0000d6ec       ?d2win_DrawMainMenu@@3P6IPAXXZA 6609e6ec     install.obj
 0003:0000d6f0       ?d2win_CreateTextBox@@3P6GPAXPAK@ZA 6609e6f0     install.obj
 0003:0000d6f4       ?d2win_DestroyListBox@@3P6GXPAUD2EditBox@@@ZA 6609e6f4     install.obj
 0003:0000d6f8       ?d2win_processMessage@@3P6GHPAUHWND__@@HHH@ZA 6609e6f8     install.obj
 0003:0000d6fc       ?d2win_CreateEditBox@@3P6IPAUD2EditBox@@HHHHHHPAUCellFile@@KKKPAX@ZA 6609e6fc     install.obj
 0003:0000d700       ?d2win_DestroyEditBox@@3P6IHPAUD2EditBox@@@ZA 6609e700     install.obj
 0003:0000d704       ?d2win_AddEditBoxChar@@3P6IKPAUD2EditBox@@E@ZA 6609e704     install.obj
 0003:0000d708       ?d2win_SetEditBoxText@@3P6IPAXPAUD2EditBox@@PA_W@ZA 6609e708     install.obj
 0003:0000d70c       ?d2win_SetEditBoxProc@@3P6IXPAUD2EditBox@@P6GH0HPAD@Z@ZA 6609e70c     install.obj
 0003:0000d710       ?d2win_SelectEditBoxText@@3P6IXPAUD2EditBox@@@ZA 6609e710     install.obj
 0003:0000d714       ?d2win_GetEditBoxText@@3P6IPA_WPAUD2EditBox@@@ZA 6609e714     install.obj
 0003:0000d718       ?d2win_DrawHover@@3P6IXXZA 6609e718     install.obj
 0003:0000d71c       ?d2win_SetTextFont@@3P6IHH@ZA 6609e71c     install.obj
 0003:0000d720       ?d2win_DrawText@@3P6IXPA_WJJHH@ZA 6609e720     install.obj
 0003:0000d724       ?d2win_GetTextPixelLen@@3P6IHPA_W@ZA 6609e724     install.obj
 0003:0000d728       ?d2win_DrawUnitLifeBar@@3P6IHPA_WJJHKK@ZA 6609e728     install.obj
 0003:0000d72c       ?d2win_GetTextAreaSize@@3P6IHPA_WPAH1@ZA 6609e72c     install.obj
 0003:0000d730       ?d2win_DrawHoverText@@3P6IXPA_WJJHH@ZA 6609e730     install.obj
 0003:0000d734       ?d2win_initMPQ@@3P6IHXZA   6609e734     install.obj
 0003:0000d738       ?d2win_uninit@@3P6GHXZA    6609e738     install.obj
 0003:0000d73c       ?d2win_addLineToList@@3P6IXPAUD2EditBox@@PAD@ZA 6609e73c     install.obj
 0003:0000d740       ?d2win_PrintLineOnTextBox@@3P6IXPAXPADH@ZA 6609e740     install.obj
 0003:0000d744       ?d2win_setLineEndText@@3P6IXPAUD2EditBox@@PADPAXH@ZA 6609e744     install.obj
 0003:0000d748       ?d2win_ToggleSound@@3P6GXXZA 6609e748     install.obj
 0003:0000d74c       ?d2sound_pmusic_volumn@@3PAHA 6609e74c     install.obj
 0003:0000d750       ?d2sound_get_music_volumn@@3P6AHXZA 6609e750     install.obj
 0003:0000d754       ?d2sound_set_music_volumn@@3P6IHH@ZA 6609e754     install.obj
 0003:0000d758       ?d2net_pclientInfos@@3PAPAUClientInfos@@A 6609e758     install.obj
 0003:0000d75c       ?d2net_pUnkNetFlag@@3PAKA  6609e75c     install.obj
 0003:0000d760       ?d2net_ppacketSizes@@3PAHA 6609e760     install.obj
 0003:0000d764       ?d2net_SendPacket@@3P6GXHHPAE@ZA 6609e764     install.obj
 0003:0000d768       ?d2net_getPacketSize@@3P6IXPADHPAH@ZA 6609e768     install.obj
 0003:0000d76c       ?d2net_initNetwork@@3P6GHHH@ZA 6609e76c     install.obj
 0003:0000d770       ?d2net_SendToClient@@3P6GHHHPAXH@ZA 6609e770     install.obj
 0003:0000d774       ?d2net_uninit@@3P6GHXZA    6609e774     install.obj
 0003:0000d778       ?d2net_getWorldId@@3P6GHH@ZA 6609e778     install.obj
 0003:0000d77c       ?d2multi_plastRefreshMs2@@3PAHA 6609e77c     install.obj
 0003:0000d780       ?d2multi_plastRefreshMs1@@3PAHA 6609e780     install.obj
 0003:0000d784       ?d2multi_pnGames@@3PAHA    6609e784     install.obj
 0003:0000d788       ?d2multi_pGameDescription@@3PAPAUD2EditBox@@A 6609e788     install.obj
 0003:0000d78c       ?d2multi_pGamePassword@@3PAPAUD2EditBox@@A 6609e78c     install.obj
 0003:0000d790       ?d2multi_pGameName@@3PAPAUD2EditBox@@A 6609e790     install.obj
 0003:0000d794       ?d2multi_pGameListControl@@3PAPAUD2EditBox@@A 6609e794     install.obj
 0003:0000d798       ?d2multi_pmcp05_games2@@3PAUMcp05Game@@A 6609e798     install.obj
 0003:0000d79c       ?d2multi_pEditboxPreferences@@3PAPAXA 6609e79c     install.obj
 0003:0000d7a0       ?d2multi_pmcp05_games@@3PAUMcp05Game@@A 6609e7a0     install.obj
 0003:0000d7a4       ?d2multi_reset_games@@3P6GHXZA 6609e7a4     install.obj
 0003:0000d7a8       ?d2multi_add_game@@3P6GHXZA 6609e7a8     install.obj
 0003:0000d7ac       ?d2multi_show_games@@3P6GHXZA 6609e7ac     install.obj
 0003:0000d7b0       ?d2multi_num2str@@3P6AHHPADH@ZA 6609e7b0     install.obj
 0003:0000d7b4       ?d2multi_num2str1058@@3P6GHHH@ZA 6609e7b4     install.obj
 0003:0000d7b8       ?d2mcpclient_pmcp05_type@@3PAHA 6609e7b8     install.obj
 0003:0000d7bc       ?d2mcpclient_pmcp05_gameName2@@3PADA 6609e7bc     install.obj
 0003:0000d7c0       ?d2mcpclient_pmcp05_gameName@@3PADA 6609e7c0     install.obj
 0003:0000d7c4       ?d2mcpclient_pmcp05_off08@@3PAHA 6609e7c4     install.obj
 0003:0000d7c8       ?d2mcpclient_pmcp05_nPlayers@@3PAHA 6609e7c8     install.obj
 0003:0000d7cc       ?d2mcpclient_pmcp05_idx@@3PAHA 6609e7cc     install.obj
 0003:0000d7d0       ?d2mcpclient_pmcp05_seqId@@3PAHA 6609e7d0     install.obj
 0003:0000d7d4       ?d2mcpclient_pmcp05_buf@@3PAUMcp05Buf@@A 6609e7d4     install.obj
 0003:0000d7d8       ?d2mcpclient_pmcpSrc@@3PAPAXA 6609e7d8     install.obj
 0003:0000d7dc       ?d2mcpclient_pAccountInfo@@3PAUD2AccountInfo@@A 6609e7dc     install.obj
 0003:0000d7e0       ?d2mcpclient_pmpc05_seqId@@3PAFA 6609e7e0     install.obj
 0003:0000d7e4       ?d2mcpclient_processOnePacket@@3P6GHXZA 6609e7e4     install.obj
 0003:0000d7e8       ?d2mcpclient_getMcp05Buf@@3P6GPAUMcp05Buf@@XZA 6609e7e8     install.obj
 0003:0000d7ec       ?d2mcpclient_mcpPacket05@@3P6IHPAUMCPPacket05@@H@ZA 6609e7ec     install.obj
 0003:0000d7f0       ?d2launch_pcharCount@@3PAHA 6609e7f0     install.obj
 0003:0000d7f4       ?d2launch_pD2Characters@@3PAPAUD2Character@@A 6609e7f4     install.obj
 0003:0000d7f8       ?d2launch_plaunchNumChildren@@3PAHA 6609e7f8     install.obj
 0003:0000d7fc       ?d2launch_plaunchChildren@@3PAPAXA 6609e7fc     install.obj
 0003:0000d800       ?d2launch_pSelectedCharIndex@@3PAHA 6609e800     install.obj
 0003:0000d804       ?d2launch_pcreateTextBoxParam11F0@@3PAPAKA 6609e804     install.obj
 0003:0000d808       ?d2launch_DeleteCharacter@@3P6IXPAD@ZA 6609e808     install.obj
 0003:0000d80c       ?d2launch_DeleteSelectedCharacter@@3P6GHH@ZA 6609e80c     install.obj
 0003:0000d810       ?d2launch_sprintf@@3P6AHPAD0ZZA 6609e810     install.obj
 0003:0000d814       ?d2lang_plocaleTxtMap20000@@3PAPAUd2lang_map@@A 6609e814     install.obj
 0003:0000d818       ?d2lang_plocaleTxtMap10000@@3PAPAUd2lang_map@@A 6609e818     install.obj
 0003:0000d81c       ?d2lang_plocaleTxt20000@@3PAPAPA_WA 6609e81c     install.obj
 0003:0000d820       ?d2lang_plocaleTxt10000@@3PAPAPA_WA 6609e820     install.obj
 0003:0000d824       ?d2lang_plocaleTxt0@@3PAPAPA_WA 6609e824     install.obj
 0003:0000d828       ?d2lang_plocaleTxtMap0@@3PAPAUd2lang_map@@A 6609e828     install.obj
 0003:0000d82c       ?d2lang_strcat@@3P6IPA_WPA_W0@ZA 6609e82c     install.obj
 0003:0000d830       ?d2lang_initLanguage@@3P6IHHPADH@ZA 6609e830     install.obj
 0003:0000d834       ?d2lang_uninit@@3P6GHXZA   6609e834     install.obj
 0003:0000d838       ?d2lang_GetLocaleText@@3P6IPA_WH@ZA 6609e838     install.obj
 0003:0000d83c       ?d2lang_getLocalText9050@@3P6GPA_WPAPA_W@ZA 6609e83c     install.obj
 0003:0000d840       ?d2gfx_pWinState@@3PAHA    6609e840     install.obj
 0003:0000d844       ?d2gfx_pDrawGoundH1@@3PAHA 6609e844     install.obj
 0003:0000d848       ?d2gfx_pDrawGoundH2@@3PAHA 6609e848     install.obj
 0003:0000d84c       ?d2gfx_pcallbackTable@@3PAPAXA 6609e84c     install.obj
 0003:0000d850       ?d2gfx_pResolutionMode@@3PAHA 6609e850     install.obj
 0003:0000d854       ?d2gfx_DrawRectangle@@3P6GXJJJJHH@ZA 6609e854     install.obj
 0003:0000d858       ?d2gfx_DrawLine@@3P6GXHHHHHH@ZA 6609e858     install.obj
 0003:0000d85c       ?d2gfx_getResolutionMode@@3P6GHXZA 6609e85c     install.obj
 0003:0000d860       ?d2gfx_DrawCellFile@@3P6GHPAUCellContext@@HHKHPAE@ZA 6609e860     install.obj
 0003:0000d864       ?d2gfx_drawSomething@@3P6GXPAXHHHHH@ZA 6609e864     install.obj
 0003:0000d868       ?d2gfx_FillOrb@@3P6GXHHHHHH@ZA 6609e868     install.obj
 0003:0000d86c       ?d2gfx_DrawAutomapNode@@3P6GXPAUCellContext@@HHPAUtagRECT@@K@ZA 6609e86c     install.obj
 0003:0000d870       ?d2gfx_drawShadow@@3P6GXPAXHH@ZA 6609e870     install.obj
 0003:0000d874       ?d2gfx_clearFramebuf@@3P6GXHHHH@ZA 6609e874     install.obj
 0003:0000d878       ?d2gfx_flushFramebuf@@3P6GXXZA 6609e878     install.obj
 0003:0000d87c       ?d2gfx_Ordinal10043@@3P6GXXZA 6609e87c     install.obj
 0003:0000d880       ?d2gfx_MinimizeWindows@@3P6GXK@ZA 6609e880     install.obj
 0003:0000d884       ?d2gfx_GetHwnd@@3P6GPAUHWND__@@XZA 6609e884     install.obj
 0003:0000d888       ?d2gfx_drawGroundPiece@@3P6GXPAX0HHHHHHH@ZA 6609e888     install.obj
 0003:0000d88c       ?d2gdi_pcriticalSection@@3PAPAUCriticalSection@@A 6609e88c     install.obj
 0003:0000d890       ?d2gdi_pFrameBuf@@3PAPAXA  6609e890     install.obj
 0003:0000d894       ?d2gdi_pDisplayRight@@3PAHA 6609e894     install.obj
 0003:0000d898       ?d2gdi_pFrameBufHeight@@3PAHA 6609e898     install.obj
 0003:0000d89c       ?d2gdi_pgdiobj@@3PAPAXA    6609e89c     install.obj
 0003:0000d8a0       ?d2gdi_ppalette@@3PAPAUHPALETTE__@@A 6609e8a0     install.obj
 0003:0000d8a4       ?d2gdi_pFrameBufWidth@@3PAHA 6609e8a4     install.obj
 0003:0000d8a8       ?d2gdi_phwnd@@3PAPAUHWND__@@A 6609e8a8     install.obj
 0003:0000d8ac       ?d2gdi_pColorMap@@3PAHA    6609e8ac     install.obj
 0003:0000d8b0       ?d2gdi_initCriticalSection@@3P6IHPAX0@ZA 6609e8b0     install.obj
 0003:0000d8b4       ?d2game_pDropChioceProb@@3PAHA 6609e8b4     install.obj
 0003:0000d8b8       ?d2game_pDropChioces@@3PAHA 6609e8b8     install.obj
 0003:0000d8bc       ?d2game_pworldHash@@3PAPAUWorldHash@@A 6609e8bc     install.obj
 0003:0000d8c0       ?d2game_pcriticalSection@@3PAUCriticalSection@@A 6609e8c0     install.obj
 0003:0000d8c4       ?d2game_pSPUnitOffsets@@3PAHA 6609e8c4     install.obj
 0003:0000d8c8       ?d2game_psgptDataTables@@3PAPAUD2DataTables@@A 6609e8c8     install.obj
 0003:0000d8cc       ?d2game_MonsterMove@@3P6IXPAUWorld@@PAUUnitAny@@1HHHHH@ZA 6609e8cc     install.obj
 0003:0000d8d0       ?d2game_MonsterUseSkill@@3P6IXPAUWorld@@PAUUnitAny@@HH1HH@ZA 6609e8d0     install.obj
 0003:0000d8d4       ?d2game_SpawnMonster@@3P6IPAUUnitAny@@HHPAUWorld@@PAUAreaRectData@@HHHH@ZA 6609e8d4     install.obj
 0003:0000d8d8       ?d2game_SpawnMonsterEF10@@3P6IPAUUnitAny@@PAUSpawnMon@@@ZA 6609e8d8     install.obj
 0003:0000d8dc       ?d2game_MakeD2S@@3P6IHPAUUnitAny@@PAUWorld@@PADPAHHHH@ZA 6609e8dc     install.obj
 0003:0000d8e0       ?d2game_playerUpgrade@@3P6GHPAUWorld@@@ZA 6609e8e0     install.obj
 0003:0000d8e4       ?d2game_CreateUnit@@3P6IPAUUnitAny@@HHHHPAUWorld@@PAUAreaRectData@@HHH@ZA 6609e8e4     install.obj
 0003:0000d8e8       ?d2game_GetUnit@@3P6IHPAUWorld@@H@ZA 6609e8e8     install.obj
 0003:0000d8ec       ?d2game_isUnitDead@@3P6GHXZA 6609e8ec     install.obj
 0003:0000d8f0       ?d2game_swapWeapon@@3P6GHPAUWorld@@PAH@ZA 6609e8f0     install.obj
 0003:0000d8f4       ?d2game_pickupItem@@3P6GHHPAH@ZA 6609e8f4     install.obj
 0003:0000d8f8       ?d2game_putItemInSocketD4A70@@3P6GHPAUWorld@@PAUUnitAny@@HPAHHHHH@ZA 6609e8f8     install.obj
 0003:0000d8fc       ?d2game_recv19_invToHand@@3P6IHPAUWorld@@PAUUnitAny@@PADH@ZA 6609e8fc     install.obj
 0003:0000d900       ?d2game_recv16_pickup@@3P6IHPAUWorld@@PAUUnitAny@@PADH@ZA 6609e900     install.obj
 0003:0000d904       ?d2game_pickup@@3P6IHPAUWorld@@HPAUUnitAny@@H@ZA 6609e904     install.obj
 0003:0000d908       ?d2game_recv60_swapWeapon@@3P6IHPAUWorld@@PAUUnitAny@@PADH@ZA 6609e908     install.obj
 0003:0000d90c       ?d2game_recv1A_handToBody@@3P6IHPAUWorld@@PAUUnitAny@@PADH@ZA 6609e90c     install.obj
 0003:0000d910       ?d2game_recv28_socket@@3P6IHPAUWorld@@PAUUnitAny@@PADH@ZA 6609e910     install.obj
 0003:0000d914       ?d2game_itemNotInInv@@3P6IHHHPAUUnitAny@@@ZA 6609e914     install.obj
 0003:0000d918       ?d2game_processPacket@@3P6GHPAUWorld@@H@ZA 6609e918     install.obj
 0003:0000d91c       ?d2game_recv40_quest@@3P6IHPAUWorld@@PAUUnitAny@@PADH@ZA 6609e91c     install.obj
 0003:0000d920       ?d2game_passClassicB9F20@@3P6IHPAUWorld@@PAUUnitAny@@H@ZA 6609e920     install.obj
 0003:0000d924       ?d2game_passClassicB9A30@@3P6IHXZA 6609e924     install.obj
 0003:0000d928       ?d2game_BaalAI@@3P6IXPAUWorld@@PAUUnitAny@@PAX@ZA 6609e928     install.obj
 0003:0000d92c       ?d2game_UberBaalAI@@3P6IXPAUWorld@@PAUUnitAny@@PAX@ZA 6609e92c     install.obj
 0003:0000d930       ?d2game_DiabloAI@@3P6IXPAUWorld@@PAUUnitAny@@PAX@ZA 6609e930     install.obj
 0003:0000d934       ?d2game_UberDiabloAI@@3P6IXPAUWorld@@PAUUnitAny@@PAX@ZA 6609e934     install.obj
 0003:0000d938       ?d2game_NecSummon@@3P6IPAUUnitAny@@XZA 6609e938     install.obj
 0003:0000d93c       ?d2game_LinkPortal@@3P6GPAUUnitAny@@PAUWorld@@PAU1@HH@ZA 6609e93c     install.obj
 0003:0000d940       ?d2game_fun_8EBC0@@3P6GHPAUWorld@@PAX@ZA 6609e940     install.obj
 0003:0000d944       ?d2game_SetSkillBaseLevelOnClient@@3P6IXPAXPAUUnitAny@@HHH@ZA 6609e944     install.obj
 0003:0000d948       ?d2game_sendPacket@@3P6GHPADH@ZA 6609e948     install.obj
 0003:0000d94c       ?d2game_MephAI@@3P6IXPAUWorld@@PAUUnitAny@@PAX@ZA 6609e94c     install.obj
 0003:0000d950       ?d2game_UberMephAI@@3P6IXPAUWorld@@PAUUnitAny@@PAX@ZA 6609e950     install.obj
 0003:0000d954       ?d2game_fun_769A0@@3P6GHPAUWorld@@HH@ZA 6609e954     install.obj
 0003:0000d958       ?d2game_OpenPandPortal@@3P6IXPAUWorld@@PAUUnitAny@@@ZA 6609e958     install.obj
 0003:0000d95c       ?d2game_OpenPandFinalPortal@@3P6IXPAUWorld@@PAUUnitAny@@@ZA 6609e95c     install.obj
 0003:0000d960       ?d2game_passExpansion599E0@@3P6IXPAUWorld@@PAUUnitAny@@H@ZA 6609e960     install.obj
 0003:0000d964       ?d2game_passExpansion58BE0@@3P6IXPAUUnitAny@@@ZA 6609e964     install.obj
 0003:0000d968       ?d2game_fun_4E2A0@@3P6IXPAUWorld@@PAUUnitAny@@H@ZA 6609e968     install.obj
 0003:0000d96c       ?d2game_getNetClient@@3P6IPAUNetClient@@H@ZA 6609e96c     install.obj
 0003:0000d970       ?d2game_processClientQuestReq@@3P6GHPAUWorld@@PAUUnitAny@@@ZA 6609e970     install.obj
 0003:0000d974       ?d2game_sendQuestToClient@@3P6GHPAUWorld@@@ZA 6609e974     install.obj
 0003:0000d978       ?d2game_processGame@@3P6GHXZA 6609e978     install.obj
 0003:0000d97c       ?d2game_isBusy@@3P6GHH@ZA  6609e97c     install.obj
 0003:0000d980       ?d2game_Ord10024@@3P6GHHH@ZA 6609e980     install.obj
 0003:0000d984       ?d2game_endAllGames@@3P6AHH@ZA 6609e984     install.obj
 0003:0000d988       ?d2game_Ord10038@@3P6GHXZA 6609e988     install.obj
 0003:0000d98c       ?d2game_SendDatabaseCharacter@@3P6GHHPAXHHHHPAUPlayerInfo@@H@ZA 6609e98c     install.obj
 0003:0000d990       ?d2game_removeClientFromGame@@3P6GHH@ZA 6609e990     install.obj
 0003:0000d994       ?d2game_SaveGame@@3P6GXPAUWorld@@@ZA 6609e994     install.obj
 0003:0000d998       ?d2game_NewEmptyGame@@3P6GHPAD00HDDDPAF@ZA 6609e998     install.obj
 0003:0000d99c       ?d2game_getWorld@@3P6GPAUWorld@@XZA 6609e99c     install.obj
 0003:0000d9a0       ?d2game_getWorldByID@@3P6GPAUWorld@@H@ZA 6609e9a0     install.obj
 0003:0000d9a4       ?d2game_uninit@@3P6GHXZA   6609e9a4     install.obj
 0003:0000d9a8       ?d2game_setWorldHash@@3P6GHPAUWorldHash@@PAH@ZA 6609e9a8     install.obj
 0003:0000d9ac       ?d2game_initCallbackTable@@3P6GHPAX@ZA 6609e9ac     install.obj
 0003:0000d9b0       ?d2game_SpawnSuperUnique@@3P6IHPAUWorld@@PAUAreaRectData@@HHHHHH@ZA 6609e9b0     install.obj
 0003:0000d9b4       ?d2game_Game235C0@@3P6GXPAUWorld@@PAUAreaRectData@@@ZA 6609e9b4     install.obj
 0003:0000d9b8       ?d2game_DropItem1880@@3P6GXPAUWorld@@HHHH@ZA 6609e9b8     install.obj
 0003:0000d9bc       ?d2game_DropItem1490@@3P6GPAUUnitAny@@PAUWorld@@PAXH@ZA 6609e9bc     install.obj
 0003:0000d9c0       ?d2game_GetFreeXY@@3P6GPAUAreaRectData@@PAU1@PAUtagPOINT@@H@ZA 6609e9c0     install.obj
 0003:0000d9c4       ?d2game_GetUnitLevel@@3P6GHH@ZA 6609e9c4     install.obj
 0003:0000d9c8       ?d2game_hasDroppedUnique@@3P6IHH@ZA 6609e9c8     install.obj
 0003:0000d9cc       ?d2game_exit@@3P6GHH@ZA    6609e9cc     install.obj
 0003:0000d9d0       ?d2game_getWorld_2130@@3P6GPAUWorld@@XZA 6609e9d0     install.obj
 0003:0000d9d4       ?d2game_TestPosition@@3P6IPAUAreaRectData@@XZA 6609e9d4     install.obj
 0003:0000d9d8       ?d2game_random@@3P6IHPAUD2Seed@@@ZA 6609e9d8     install.obj
 0003:0000d9dc       ?d2common_pnCubeMain@@3PAHA 6609e9dc     install.obj
 0003:0000d9e0       ?d2common_ppCubeMainTxt@@3PAPAXA 6609e9e0     install.obj
 0003:0000d9e4       ?d2common_pnMapCache@@3PAHA 6609e9e4     install.obj
 0003:0000d9e8       ?d2common_ppMapCache@@3PAPAXA 6609e9e8     install.obj
 0003:0000d9ec       ?d2common_ppLvlSubCache@@3PAPAXA 6609e9ec     install.obj
 0003:0000d9f0       ?d2common_pnLvlSub@@3PAHA  6609e9f0     install.obj
 0003:0000d9f4       ?d2common_ppLvlSubTxt@@3PAPAXA 6609e9f4     install.obj
 0003:0000d9f8       ?d2common_pnLvlMaze@@3PAHA 6609e9f8     install.obj
 0003:0000d9fc       ?d2common_ppLvlMazeTxt@@3PAPAXA 6609e9fc     install.obj
 0003:0000da00       ?d2common_pnLvlWarp@@3PAHA 6609ea00     install.obj
 0003:0000da04       ?d2common_ppLvlWarpTxt@@3PAPAXA 6609ea04     install.obj
 0003:0000da08       ?d2common_pnLvlTypes@@3PAHA 6609ea08     install.obj
 0003:0000da0c       ?d2common_pnWaypoints@@3PAHA 6609ea0c     install.obj
 0003:0000da10       ?d2common_ppWaypoints@@3PAPAXA 6609ea10     install.obj
 0003:0000da14       ?d2common_ppLvlTypesTxt@@3PAPAXA 6609ea14     install.obj
 0003:0000da18       ?d2common_ppArenaTxt@@3PAPAXA 6609ea18     install.obj
 0003:0000da1c       ?d2common_pnCharTemplate@@3PAHA 6609ea1c     install.obj
 0003:0000da20       ?d2common_ppCharTemplateTxt@@3PAPAXA 6609ea20     install.obj
 0003:0000da24       ?d2common_pnLvlSubExtraStuff@@3PAHA 6609ea24     install.obj
 0003:0000da28       ?d2common_ppLvlSubExtraStuff@@3PAPAXA 6609ea28     install.obj
 0003:0000da2c       ?d2common_pExpFieldRuntimeData@@3PAPAXA 6609ea2c     install.obj
 0003:0000da30       ?d2common_ppExpFieldD2@@3PAPAXA 6609ea30     install.obj
 0003:0000da34       ?d2common_pnDifficultyLevels@@3PAHA 6609ea34     install.obj
 0003:0000da38       ?d2common_ppDifficultyLevelsTxt@@3PAPAXA 6609ea38     install.obj
 0003:0000da3c       ?d2common_ppExperienceTxt@@3PAPAXA 6609ea3c     install.obj
 0003:0000da40       ?d2common_ppAnimTables@@3PAPAXA 6609ea40     install.obj
 0003:0000da44       ?d2common_pItemStatCostStuff@@3PAPAXA 6609ea44     install.obj
 0003:0000da48       ?d2common_pnLvlPrest@@3PAHA 6609ea48     install.obj
 0003:0000da4c       ?d2common_ppLvlPrestTxt@@3PAPAXA 6609ea4c     install.obj
 0003:0000da50       ?d2common_ppLvlDefsBin@@3PAPAXA 6609ea50     install.obj
 0003:0000da54       ?d2common_pnLevels@@3PAHA  6609ea54     install.obj
 0003:0000da58       ?d2common_ppLevelsTxt@@3PAPAXA 6609ea58     install.obj
 0003:0000da5c       ?d2common_pnMonUMod@@3PAHA 6609ea5c     install.obj
 0003:0000da60       ?d2common_ppMonUModTxt@@3PAPAXA 6609ea60     install.obj
 0003:0000da64       ?d2common_ppMonUModLink@@3PAPAXA 6609ea64     install.obj
 0003:0000da68       ?d2common_pnMonTypeNesting@@3PAHA 6609ea68     install.obj
 0003:0000da6c       ?d2common_ppMonTypeNesting@@3PAPAXA 6609ea6c     install.obj
 0003:0000da70       ?d2common_pnMonType@@3PAHA 6609ea70     install.obj
 0003:0000da74       ?d2common_ppMonTypeTxt@@3PAPAXA 6609ea74     install.obj
 0003:0000da78       ?d2common_ppMonTypeLink@@3PAPAXA 6609ea78     install.obj
 0003:0000da7c       ?d2common_pnMonProp@@3PAHA 6609ea7c     install.obj
 0003:0000da80       ?d2common_ppMonPropTxt@@3PAPAXA 6609ea80     install.obj
 0003:0000da84       ?d2common_ppMonPropLink@@3PAPAXA 6609ea84     install.obj
 0003:0000da88       ?d2common_pnUniqueItems@@3PAHA 6609ea88     install.obj
 0003:0000da8c       ?d2common_ppUniqueItemsTxt@@3PAPAXA 6609ea8c     install.obj
 0003:0000da90       ?d2common_ppUniqueItemsLink@@3PAPAXA 6609ea90     install.obj
 0003:0000da94       ?d2common_pnSetItems@@3PAHA 6609ea94     install.obj
 0003:0000da98       ?d2common_ppSetItemsTxt@@3PAPAXA 6609ea98     install.obj
 0003:0000da9c       ?d2common_ppSetItemsLink@@3PAPAXA 6609ea9c     install.obj
 0003:0000daa0       ?d2common_pnSets@@3PAHA    6609eaa0     install.obj
 0003:0000daa4       ?d2common_ppSetsTxt@@3PAPAXA 6609eaa4     install.obj
 0003:0000daa8       ?d2common_ppSetsLink@@3PAPAXA 6609eaa8     install.obj
 0003:0000daac       ?d2common_ppItemTypeNesting@@3PAPAXA 6609eaac     install.obj
 0003:0000dab0       ?d2common_pnItemTypeNesting@@3PAHA 6609eab0     install.obj
 0003:0000dab4       ?d2common_pnItemTypes@@3PAHA 6609eab4     install.obj
 0003:0000dab8       ?d2common_ppItemTypesTxt@@3PAPAXA 6609eab8     install.obj
 0003:0000dabc       ?d2common_ppItemTypesLink@@3PAPAXA 6609eabc     install.obj
 0003:0000dac0       ?d2common_pnPetTypes@@3PAHA 6609eac0     install.obj
 0003:0000dac4       ?d2common_ppPetTypesLink@@3PAPAXA 6609eac4     install.obj
 0003:0000dac8       ?d2common_ppPetTypesTxt@@3PAPAXA 6609eac8     install.obj
 0003:0000dacc       ?d2common_pnMonEquip@@3PAHA 6609eacc     install.obj
 0003:0000dad0       ?d2common_ppMonEquipTxt@@3PAPAXA 6609ead0     install.obj
 0003:0000dad4       ?d2common_pnOpStatNesting@@3PAHA 6609ead4     install.obj
 0003:0000dad8       ?d2common_ppOpStatNesting@@3PAPAXA 6609ead8     install.obj
 0003:0000dadc       ?d2common_pnItemStatCost@@3PAHA 6609eadc     install.obj
 0003:0000dae0       ?d2common_ppItemStatCostLink@@3PAPAXA 6609eae0     install.obj
 0003:0000dae4       ?d2common_ppItemStatCostTxt@@3PAPAUItemStatCostTxt@@A 6609eae4     install.obj
 0003:0000dae8       ?d2common_pnCharStats@@3PAHA 6609eae8     install.obj
 0003:0000daec       ?d2common_ppCharStatsTxt@@3PAPAXA 6609eaec     install.obj
 0003:0000daf0       ?d2common_pnOverlay@@3PAHA 6609eaf0     install.obj
 0003:0000daf4       ?d2common_ppOverlayLink@@3PAPAXA 6609eaf4     install.obj
 0003:0000daf8       ?d2common_ppOverlayTxt@@3PAPAXA 6609eaf8     install.obj
 0003:0000dafc       ?d2common_ppPassiveSkillList@@3PAPAXA 6609eafc     install.obj
 0003:0000db00       ?d2common_pnPassiveSkillCount@@3PAHA 6609eb00     install.obj
 0003:0000db04       ?d2common_ppPlayerSkillList@@3PAPAXA 6609eb04     install.obj
 0003:0000db08       ?d2common_pnPlayerSkillCount@@3PAHA 6609eb08     install.obj
 0003:0000db0c       ?d2common_ppPlayerSkillCount@@3PAPAXA 6609eb0c     install.obj
 0003:0000db10       ?d2common_pnSkills@@3PAHA  6609eb10     install.obj
 0003:0000db14       ?d2common_ppSkillsLink@@3PAPAXA 6609eb14     install.obj
 0003:0000db18       ?d2common_ppSkillsTxt@@3PAPAXA 6609eb18     install.obj
 0003:0000db1c       ?d2common_pnSkillDesc@@3PAHA 6609eb1c     install.obj
 0003:0000db20       ?d2common_ppSkillDescLink@@3PAPAXA 6609eb20     install.obj
 0003:0000db24       ?d2common_ppSkillDescTxt@@3PAPAXA 6609eb24     install.obj
 0003:0000db28       ?d2common_pnMonSequences@@3PAHA 6609eb28     install.obj
 0003:0000db2c       ?d2common_ppMonSequences@@3PAPAXA 6609eb2c     install.obj
 0003:0000db30       ?d2common_pnMonSeq@@3PAHA  6609eb30     install.obj
 0003:0000db34       ?d2common_ppMonSeqLink@@3PAPAXA 6609eb34     install.obj
 0003:0000db38       ?d2common_ppMonSeqTxt@@3PAPAXA 6609eb38     install.obj
 0003:0000db3c       ?d2common_pnMonLvl@@3PAHA  6609eb3c     install.obj
 0003:0000db40       ?d2common_ppMonLvlTxt@@3PAPAXA 6609eb40     install.obj
 0003:0000db44       ?d2common_pnMissiles@@3PAHA 6609eb44     install.obj
 0003:0000db48       ?d2common_ppMissilesLink@@3PAPAXA 6609eb48     install.obj
 0003:0000db4c       ?d2common_ppMissilesTxt@@3PAPAXA 6609eb4c     install.obj
 0003:0000db50       ?d2common_pSuperUniqueHcIdxList@@3PAPAXA 6609eb50     install.obj
 0003:0000db54       ?d2common_pnSuperUniques@@3PAHA 6609eb54     install.obj
 0003:0000db58       ?d2common_ppSuperUniquesLink@@3PAPAXA 6609eb58     install.obj
 0003:0000db5c       ?d2common_ppSuperUniquesTxt@@3PAPAXA 6609eb5c     install.obj
 0003:0000db60       ?d2common_pnMonPresetEachAct@@3PAHA 6609eb60     install.obj
 0003:0000db64       ?d2common_ppMonPresetActList@@3PAPAXA 6609eb64     install.obj
 0003:0000db68       ?d2common_ppMonPresetTxt@@3PAPAXA 6609eb68     install.obj
 0003:0000db6c       ?d2common_pnMonPlace@@3PAHA 6609eb6c     install.obj
 0003:0000db70       ?d2common_ppMonPlaceLink@@3PAPAXA 6609eb70     install.obj
 0003:0000db74       ?d2common_ppMonPlaceTxt@@3PAPAXA 6609eb74     install.obj
 0003:0000db78       ?d2common_pnMonStats2@@3PAHA 6609eb78     install.obj
 0003:0000db7c       ?d2common_ppMonStats2Link@@3PAPAXA 6609eb7c     install.obj
 0003:0000db80       ?d2common_ppMonStats2Txt@@3PAPAXA 6609eb80     install.obj
 0003:0000db84       ?d2common_pnMonSounds@@3PAHA 6609eb84     install.obj
 0003:0000db88       ?d2common_ppMonSoundsLink@@3PAPAXA 6609eb88     install.obj
 0003:0000db8c       ?d2common_ppMonSoundsTxt@@3PAPAXA 6609eb8c     install.obj
 0003:0000db90       ?d2common_pnMonStats@@3PAHA 6609eb90     install.obj
 0003:0000db94       ?d2common_ppMonStatsLink@@3PAPAXA 6609eb94     install.obj
 0003:0000db98       ?d2common_ppMonStatsTxt@@3PAPAXA 6609eb98     install.obj
 0003:0000db9c       ?d2common_ppChestTreasureClassList@@3PAPAXA 6609eb9c     install.obj
 0003:0000dba0       ?d2common_pnTreasureClassEx@@3PAHA 6609eba0     install.obj
 0003:0000dba4       ?d2common_ppTreasureClassExTxt@@3PAPAXA 6609eba4     install.obj
 0003:0000dba8       ?d2common_ppTreasureClassExLink@@3PAPAXA 6609eba8     install.obj
 0003:0000dbac       ?d2common_ppColorsLink@@3PAPAXA 6609ebac     install.obj
 0003:0000dbb0       ?d2common_ppColorsTxt@@3PAPAXA 6609ebb0     install.obj
 0003:0000dbb4       ?d2common_pnNpcs@@3PAHA    6609ebb4     install.obj
 0003:0000dbb8       ?d2common_ppNpcsTxt@@3PAPAXA 6609ebb8     install.obj
 0003:0000dbbc       ?d2common_pHireNameListEnd@@3PAPAXA 6609ebbc     install.obj
 0003:0000dbc0       ?d2common_pHireNameListStart@@3PAPAXA 6609ebc0     install.obj
 0003:0000dbc4       ?d2common_pnHirelings@@3PAHA 6609ebc4     install.obj
 0003:0000dbc8       ?d2common_ppHirelingsTxt@@3PAPAXA 6609ebc8     install.obj
 0003:0000dbcc       ?d2common_pnSoundCodes@@3PAHA 6609ebcc     install.obj
 0003:0000dbd0       ?d2common_ppSoundCodesLink@@3PAPAXA 6609ebd0     install.obj
 0003:0000dbd4       ?d2common_ppSoundCodesBin@@3PAPAXA 6609ebd4     install.obj
 0003:0000dbd8       ?d2common_pnColorStates@@3PAHA 6609ebd8     install.obj
 0003:0000dbdc       ?d2common_ppColorStates@@3PAPAXA 6609ebdc     install.obj
 0003:0000dbe0       ?d2common_pnActionStates@@3PAHA 6609ebe0     install.obj
 0003:0000dbe4       ?d2common_ppActionStates@@3PAPAXA 6609ebe4     install.obj
 0003:0000dbe8       ?d2common_pnTransformStates@@3PAHA 6609ebe8     install.obj
 0003:0000dbec       ?d2common_ppTransformStates@@3PAPAXA 6609ebec     install.obj
 0003:0000dbf0       ?d2common_pnCurseStates@@3PAHA 6609ebf0     install.obj
 0003:0000dbf4       ?d2common_ppCurseStates@@3PAPAXA 6609ebf4     install.obj
 0003:0000dbf8       ?d2common_pnProgressiveStates@@3PAHA 6609ebf8     install.obj
 0003:0000dbfc       ?d2common_ppProgressiveStates@@3PAPAXA 6609ebfc     install.obj
 0003:0000dc00       ?d2common_ppStateMaskArray@@3PAPAXA 6609ec00     install.obj
 0003:0000dc04       ?d2common_ppStateMaskFirst@@3PAPAXA 6609ec04     install.obj
 0003:0000dc08       ?d2common_pnStates@@3PAHA  6609ec08     install.obj
 0003:0000dc0c       ?d2common_ppStatesLink@@3PAPAXA 6609ec0c     install.obj
 0003:0000dc10       ?d2common_ppStatesTxt@@3PAPAXA 6609ec10     install.obj
 0003:0000dc14       ?d2common_ppHireDescLink@@3PAPAXA 6609ec14     install.obj
 0003:0000dc18       ?d2common_ppHireDescTxt@@3PAPAXA 6609ec18     install.obj
 0003:0000dc1c       ?d2common_ppRunesLink@@3PAPAXA 6609ec1c     install.obj
 0003:0000dc20       ?d2common_pnProperties@@3PAHA 6609ec20     install.obj
 0003:0000dc24       ?d2common_ppPropertiesLink@@3PAPAXA 6609ec24     install.obj
 0003:0000dc28       ?d2common_ppPropertiesTxt@@3PAPAXA 6609ec28     install.obj
 0003:0000dc2c       ?d2common_pnItemCalcCacheDelta@@3PAHA 6609ec2c     install.obj
 0003:0000dc30       ?d2common_pnItemCalcCache@@3PAHA 6609ec30     install.obj
 0003:0000dc34       ?d2common_ppItemCalcCache@@3PAPAXA 6609ec34     install.obj
 0003:0000dc38       ?d2common_ppItemLink@@3PAPAXA 6609ec38     install.obj
 0003:0000dc3c       ?d2common_pnMonAi@@3PAHA   6609ec3c     install.obj
 0003:0000dc40       ?d2common_ppMonAiLink@@3PAPAXA 6609ec40     install.obj
 0003:0000dc44       ?d2common_ppMonAiTxt@@3PAPAXA 6609ec44     install.obj
 0003:0000dc48       ?d2common_pnCompCodes@@3PAHA 6609ec48     install.obj
 0003:0000dc4c       ?d2common_ppCompCodesLink@@3PAPAXA 6609ec4c     install.obj
 0003:0000dc50       ?d2common_ppCompCodesTxt@@3PAPAXA 6609ec50     install.obj
 0003:0000dc54       ?d2common_ppEventsLink@@3PAPAXA 6609ec54     install.obj
 0003:0000dc58       ?d2common_ppEventsTxt@@3PAPAXA 6609ec58     install.obj
 0003:0000dc5c       ?d2common_ppSkillCodesLink@@3PAPAXA 6609ec5c     install.obj
 0003:0000dc60       ?d2common_ppSkillCodesBin@@3PAPAXA 6609ec60     install.obj
 0003:0000dc64       ?d2common_pnMissCalcCacheDelta@@3PAHA 6609ec64     install.obj
 0003:0000dc68       ?d2common_pnMissCalcCache@@3PAHA 6609ec68     install.obj
 0003:0000dc6c       ?d2common_ppMissCalcCache@@3PAPAXA 6609ec6c     install.obj
 0003:0000dc70       ?d2common_ppMissCalcLink@@3PAPAXA 6609ec70     install.obj
 0003:0000dc74       ?d2common_ppMissCalcTxt@@3PAPAXA 6609ec74     install.obj
 0003:0000dc78       ?d2common_pnSkillDescCalcCacheDelta@@3PAHA 6609ec78     install.obj
 0003:0000dc7c       ?d2common_pnSkillDescCalcCache@@3PAHA 6609ec7c     install.obj
 0003:0000dc80       ?d2common_ppSkillDescCalcCache@@3PAPAXA 6609ec80     install.obj
 0003:0000dc84       ?d2common_pnSkillCalcCacheDelta@@3PAHA 6609ec84     install.obj
 0003:0000dc88       ?d2common_pnSkillCalcCache@@3PAHA 6609ec88     install.obj
 0003:0000dc8c       ?d2common_ppSkillCalcCache@@3PAPAXA 6609ec8c     install.obj
 0003:0000dc90       ?d2common_ppSkillCalcLink@@3PAPAXA 6609ec90     install.obj
 0003:0000dc94       ?d2common_ppSkillCalcTxt@@3PAPAXA 6609ec94     install.obj
 0003:0000dc98       ?d2common_ppPlrModeLink@@3PAPAXA 6609ec98     install.obj
 0003:0000dc9c       ?d2common_ppPlrModeTxt@@3PAPAXA 6609ec9c     install.obj
 0003:0000dca0       ?d2common_ppMonModeLink@@3PAPAXA 6609eca0     install.obj
 0003:0000dca4       ?d2common_ppMonModeTxt@@3PAPAXA 6609eca4     install.obj
 0003:0000dca8       ?d2common_ppHitClassLink@@3PAPAXA 6609eca8     install.obj
 0003:0000dcac       ?d2common_ppHitClassTxt@@3PAPAXA 6609ecac     install.obj
 0003:0000dcb0       ?d2common_ppElemTypesLink@@3PAPAXA 6609ecb0     install.obj
 0003:0000dcb4       ?d2common_ppElemTypesTxt@@3PAPAXA 6609ecb4     install.obj
 0003:0000dcb8       ?d2common_ppStorePageLink@@3PAPAXA 6609ecb8     install.obj
 0003:0000dcbc       ?d2common_ppStorePageTxt@@3PAPAXA 6609ecbc     install.obj
 0003:0000dcc0       ?d2common_ppBodyLocsLink@@3PAPAXA 6609ecc0     install.obj
 0003:0000dcc4       ?d2common_ppBodyLocsTxt@@3PAPAXA 6609ecc4     install.obj
 0003:0000dcc8       ?d2common_ppPlayerClassLink@@3PAPAXA 6609ecc8     install.obj
 0003:0000dccc       ?d2common_ppPlayerClassTxt@@3PAPAXA 6609eccc     install.obj
 0003:0000dcd0       ?d2common_pRuneWordTxt@@3PAPAURuneWordTxt@@A 6609ecd0     install.obj
 0003:0000dcd4       ?d2common_pRuneWords@@3PAHA 6609ecd4     install.obj
 0003:0000dcd8       ?d2common_pArmorTxts@@3PAHA 6609ecd8     install.obj
 0003:0000dcdc       ?d2common_pWeaponsTxts@@3PAHA 6609ecdc     install.obj
 0003:0000dce0       ?d2common_pItemTxts@@3PAPAUItemTxt@@A 6609ece0     install.obj
 0003:0000dce4       ?d2common_pItemTxtCount@@3PAHA 6609ece4     install.obj
 0003:0000dce8       ?d2common_pInventoryTxt@@3PAPAUInventoryBIN@@A 6609ece8     install.obj
 0003:0000dcec       ?d2common_pInventoryTxtCount@@3PAHA 6609ecec     install.obj
 0003:0000dcf0       ?d2common_pDataTables@@3PAPAUD2DataTables@@A 6609ecf0     install.obj
 0003:0000dcf4       ?d2common_compileInventoryTxt@@3P6GPAUInventoryBIN@@H@ZA 6609ecf4     install.obj
 0003:0000dcf8       ?d2common_getInventoryPos16@@3P6GXHHPAUEquipmentLayout16@@@ZA 6609ecf8     install.obj
 0003:0000dcfc       ?d2common_getInventoryLayout@@3P6GXHHPAUInvLayout@@@ZA 6609ecfc     install.obj
 0003:0000dd00       ?d2common_getEquipmentPos@@3P6GXHHPAUEquipmentLayout20@@H@ZA 6609ed00     install.obj
 0003:0000dd04       ?d2common_compileItemStatCostTxt@@3P6GPAXH@ZA 6609ed04     install.obj
 0003:0000dd08       ?d2common_compileItemTypeTxt@@3P6GPAXH@ZA 6609ed08     install.obj
 0003:0000dd0c       ?d2common_GetItemTxt@@3P6GPAUItemTxt@@H@ZA 6609ed0c     install.obj
 0003:0000dd10       ?d2common_getAreaLevel@@3P6GHHHH@ZA 6609ed10     install.obj
 0003:0000dd14       ?d2common_GetLevelTxt@@3P6GPAULevelTxt@@H@ZA 6609ed14     install.obj
 0003:0000dd18       ?d2common_GetLevelWeather@@3P6GDH@ZA 6609ed18     install.obj
 0003:0000dd1c       ?d2common_GetLevelTxt07@@3P6GDH@ZA 6609ed1c     install.obj
 0003:0000dd20       ?d2common_GetLevelTxt06@@3P6GDH@ZA 6609ed20     install.obj
 0003:0000dd24       ?d2common_GetLevelDefTxt@@3P6IPAULevelDefTxt@@H@ZA 6609ed24     install.obj
 0003:0000dd28       ?d2common_addToRectData1C@@3P6GHPAUUnitAny@@@ZA 6609ed28     install.obj
 0003:0000dd2c       ?d2common_initGameDataTable@@3P6GHHHH@ZA 6609ed2c     install.obj
 0003:0000dd30       ?d2common_getLvlOfExp@@3P6GHHH@ZA 6609ed30     install.obj
 0003:0000dd34       ?d2common_CompileTxtFile@@3P6GPAXHPADPAUTxtField@@PAHH@ZA 6609ed34     install.obj
 0003:0000dd38       ?d2common_uninit@@3P6GHXZA 6609ed38     install.obj
 0003:0000dd3c       ?d2common_GetMinExpToLevel@@3P6GHHH@ZA 6609ed3c     install.obj
 0003:0000dd40       ?d2common_getPlayerMaxLvl@@3P6GHH@ZA 6609ed40     install.obj
 0003:0000dd44       ?d2common_compileMonTypeTxt@@3P6GPAXH@ZA 6609ed44     install.obj
 0003:0000dd48       ?d2common_GetTreasureClasses@@3P6GPAUTreasureClass@@GH@ZA 6609ed48     install.obj
 0003:0000dd4c       ?d2common_GetSuperUniqueTxt@@3P6GPAUSuperUniqueTxt@@H@ZA 6609ed4c     install.obj
 0003:0000dd50       ?d2common_SetSkillBaseLevel@@3P6GXPAUUnitAny@@HHHPADH@ZA 6609ed50     install.obj
 0003:0000dd54       ?d2common_getSkillStatus@@3P6GHPAUUnitAny@@PAUSkill@@@ZA 6609ed54     install.obj
 0003:0000dd58       ?d2common_getMaxSkeletons@@3P6GHPAUUnitAny@@HHH@ZA 6609ed58     install.obj
 0003:0000dd5c       ?d2common_GetSkillCost@@3P6GHPAUUnitAny@@HHH@ZA 6609ed5c     install.obj
 0003:0000dd60       ?d2common_GetSkillLevel@@3P6GHPAUUnitAny@@PAUSkill@@H@ZA 6609ed60     install.obj
 0003:0000dd64       ?d2common_CheckCorpseCanUse@@3P6GHPAUUnitAny@@K@ZA 6609ed64     install.obj
 0003:0000dd68       ?d2common_getSkillBonus@@3P6IHXZA 6609ed68     install.obj
 0003:0000dd6c       ?d2common_getSkillId@@3P6GHHH@ZA 6609ed6c     install.obj
 0003:0000dd70       ?d2common_getPlayerSkillCount@@3P6GHH@ZA 6609ed70     install.obj
 0003:0000dd74       ?d2common_setSkillCount@@3P6GXPAUSkill@@H@ZA 6609ed74     install.obj
 0003:0000dd78       ?d2common_GetDropPos@@3P6GPAUAreaRectData@@PAU1@PAUtagPOINT@@1HHHH@ZA 6609ed78     install.obj
 0003:0000dd7c       ?d2common_IsLineBlocked@@3P6GHPAUAreaRectData@@PAUtagPOINT@@1H@ZA 6609ed7c     install.obj
 0003:0000dd80       ?d2common_setItemEthereal@@3P6GHPAUUnitAny@@@ZA 6609ed80     install.obj
 0003:0000dd84       ?d2common_GetObjectTxt@@3P6GPAUObjectTxt@@H@ZA 6609ed84     install.obj
 0003:0000dd88       ?d2common_isInTown@@3P6GHPAUAreaRectData@@@ZA 6609ed88     install.obj
 0003:0000dd8c       ?d2common_GetLevelIdFromRectData@@3P6GHPAUAreaRectData@@@ZA 6609ed8c     install.obj
 0003:0000dd90       ?d2common_Common11084@@3P6GHPAUAreaRectData@@H@ZA 6609ed90     install.obj
 0003:0000dd94       ?d2common_Ord10196@@3P6GHPAUUnitAny@@@ZA 6609ed94     install.obj
 0003:0000dd98       ?d2common_stat_10807@@3P6GHPAUUnitAny@@PAUStatList@@H@ZA 6609ed98     install.obj
 0003:0000dd9c       ?d2common_changeUnitStat@@3P6GHPAUUnitAny@@HHH@ZA 6609ed9c     install.obj
 0003:0000dda0       ?d2common_AddPlayerStat@@3P6GXPAUUnitAny@@HHH@ZA 6609eda0     install.obj
 0003:0000dda4       ?d2common_addStatList@@3P6GHPAUStatList@@HHH@ZA 6609eda4     install.obj
 0003:0000dda8       ?d2common_changeStatList@@3P6GHPAUStatList@@HHH@ZA 6609eda8     install.obj
 0003:0000ddac       ?d2common_fun39F70@@3P6GHHPAUUnitAny@@@ZA 6609edac     install.obj
 0003:0000ddb0       ?d2common_getStatValue39380@@3P6GHH@ZA 6609edb0     install.obj
 0003:0000ddb4       ?d2common_getUnitMaxHP@@3P6GHPAUUnitAny@@@ZA 6609edb4     install.obj
 0003:0000ddb8       ?d2common_getUnitMaxMana@@3P6GHPAUUnitAny@@@ZA 6609edb8     install.obj
 0003:0000ddbc       ?d2common_getUnitMaxStamina@@3P6GHPAUUnitAny@@@ZA 6609edbc     install.obj
 0003:0000ddc0       ?d2common_GetUnitBaseStat@@3P6GHPAUUnitAny@@HG@ZA 6609edc0     install.obj
 0003:0000ddc4       ?d2common_GetUnitStat@@3P6GHPAUUnitAny@@HG@ZA 6609edc4     install.obj
 0003:0000ddc8       ?d2common_getUnitStatValueB00@@3P6GHPAUItemStatCostTxt@@@ZA 6609edc8     install.obj
 0003:0000ddcc       ?d2common_getStatValueWithMinChecked@@3P6GHPAUItemStatCostTxt@@@ZA 6609edcc     install.obj
 0003:0000ddd0       ?d2common_GetStatFromStatList@@3P6GHPAUStatList@@KPAUStatEx@@K@ZA 6609edd0     install.obj
 0003:0000ddd4       ?d2common_bsearchStat@@3P6GHXZA 6609edd4     install.obj
 0003:0000ddd8       ?d2common_removeStat@@3P6GHH@ZA 6609edd8     install.obj
 0003:0000dddc       ?d2common_GetStatListWithFlag@@3P6GPAUStatList@@PAUUnitAny@@HK@ZA 6609eddc     install.obj
 0003:0000dde0       ?d2common_GetUnitPosX@@3P6GHPAUDynamicPath@@@ZA 6609ede0     install.obj
 0003:0000dde4       ?d2common_GetUnitPosY@@3P6GHPAUDynamicPath@@@ZA 6609ede4     install.obj
 0003:0000dde8       ?d2common_CheckUnitState@@3P6GHPAUUnitAny@@H@ZA 6609ede8     install.obj
 0003:0000ddec       ?d2common_setUnitMode@@3P6GHPAUUnitAny@@H@ZA 6609edec     install.obj
 0003:0000ddf0       ?d2common_GetMonsterHpPercent@@3P6GHPAUUnitAny@@@ZA 6609edf0     install.obj
 0003:0000ddf4       ?d2common_IsUnitBlocked@@3P6GHPAUUnitAny@@0H@ZA 6609edf4     install.obj
 0003:0000ddf8       ?d2common_getUnitSize@@3P6GHPAUUnitAny@@@ZA 6609edf8     install.obj
 0003:0000ddfc       ?d2common_getLeftSkill@@3P6GPAUSkill@@PAUUnitAny@@@ZA 6609edfc     install.obj
 0003:0000de00       ?d2common_getCurrentSkill@@3P6GPAUSkill@@PAUUnitAny@@@ZA 6609ee00     install.obj
 0003:0000de04       ?d2common_getUnitPos@@3P6GXPAUUnitAny@@PAUtagPOINT@@@ZA 6609ee04     install.obj
 0003:0000de08       ?d2common_getRectData@@3P6GPAUAreaRectData@@PAUUnitAny@@@ZA 6609ee08     install.obj
 0003:0000de0c       ?d2common_GetBoxType@@3P6GHPAUUnitAny@@EH@ZA 6609ee0c     install.obj
 0003:0000de10       ?d2common_allocUnit@@3P6GPAUUnitAny@@HH@ZA 6609ee10     install.obj
 0003:0000de14       ?d2common_setStaticUnitX@@3P6GXPAUUnitAny@@H@ZA 6609ee14     install.obj
 0003:0000de18       ?d2common_setStaticUnitY@@3P6GXPAUUnitAny@@H@ZA 6609ee18     install.obj
 0003:0000de1c       ?d2common_GetPlayerData@@3P6GPAUPlayerData@@PAUUnitAny@@@ZA 6609ee1c     install.obj
 0003:0000de20       ?d2common_getObjectFlags@@3P6GHPAUUnitAny@@@ZA 6609ee20     install.obj
 0003:0000de24       ?d2common_setObjectFlags@@3P6GHPAUUnitAny@@H@ZA 6609ee24     install.obj
 0003:0000de28       ?d2common_InitDrlgLevel@@3P6GXPAUDrlgLevel@@@ZA 6609ee28     install.obj
 0003:0000de2c       ?d2common_GetDrlgLevel@@3P6IPAUDrlgLevel@@PAUDrlgMisc@@H@ZA 6609ee2c     install.obj
 0003:0000de30       ?d2common_CheckQuestFlag@@3P6GHPAUQuestInfo@@HH@ZA 6609ee30     install.obj
 0003:0000de34       ?d2common_setQuestFlag@@3P6GXPAUQuestInfo@@HH@ZA 6609ee34     install.obj
 0003:0000de38       ?d2common_clearQuestFlag@@3P6GXPAUQuestInfo@@HH@ZA 6609ee38     install.obj
 0003:0000de3c       ?d2common_copyQuestData@@3P6GPAUQuestInfo@@PAU1@PAFHH@ZA 6609ee3c     install.obj
 0003:0000de40       ?d2common_GetMercInfo@@3P6GHHHHPAX@ZA 6609ee40     install.obj
 0003:0000de44       ?d2common_setItemSocket@@3P6GHPAUUnitAny@@H@ZA 6609ee44     install.obj
 0003:0000de48       ?d2common_GetItemPrice@@3P6GHPAUUnitAny@@0HPAUQuestInfo@@HK@ZA 6609ee48     install.obj
 0003:0000de4c       ?d2common_EncodeItem@@3P6GHPAUUnitAny@@PADHHHH@ZA 6609ee4c     install.obj
 0003:0000de50       ?d2common_EncodeItemBits@@3P6IHPAUUnitAny@@PAUFogBits@@HHH@ZA 6609ee50     install.obj
 0003:0000de54       ?d2common_EncodeComplexItem@@3P6GHPAUUnitAny@@PAUFogBits@@HH@ZA 6609ee54     install.obj
 0003:0000de58       ?d2common_searchRunewordTxt@@3P6GPAURuneWordTxt@@PAUUnitAny@@@ZA 6609ee58     install.obj
 0003:0000de5c       ?d2common_getSocketCount@@3P6GHPAUUnitAny@@@ZA 6609ee5c     install.obj
 0003:0000de60       ?d2common_EncodeCompactItem@@3P6GHPAUUnitAny@@H@ZA 6609ee60     install.obj
 0003:0000de64       ?d2common_countUsedSocketed@@3P6GHXZA 6609ee64     install.obj
 0003:0000de68       ?d2common_getItemMaxSocket@@3P6GHPAUUnitAny@@@ZA 6609ee68     install.obj
 0003:0000de6c       ?d2common_checkItemTypeFlags@@3P6GHPAUUnitAny@@H@ZA 6609ee6c     install.obj
 0003:0000de70       ?d2common_isMagicItem@@3P6GHPAUUnitAny@@@ZA 6609ee70     install.obj
 0003:0000de74       ?d2common_writeBitStream@@3P6GXPAUFogBits@@@ZA 6609ee74     install.obj
 0003:0000de78       ?d2common_getItemSeed@@3P6GPAUD2Seed@@PAUUnitAny@@@ZA 6609ee78     install.obj
 0003:0000de7c       ?d2common_getItemFingerPrint@@3P6GHPAUUnitAny@@@ZA 6609ee7c     install.obj
 0003:0000de80       ?d2common_setItemFingerPrint@@3P6GXPAUUnitAny@@H@ZA 6609ee80     install.obj
 0003:0000de84       ?d2common_getItemQuality@@3P6GHPAUUnitAny@@@ZA 6609ee84     install.obj
 0003:0000de88       ?d2common_setItemQuality@@3P6GXPAUUnitAny@@H@ZA 6609ee88     install.obj
 0003:0000de8c       ?d2common_getItemMagicPrefix@@3P6GHPAUUnitAny@@H@ZA 6609ee8c     install.obj
 0003:0000de90       ?d2common_getItemMagicSuffix@@3P6GHPAUUnitAny@@H@ZA 6609ee90     install.obj
 0003:0000de94       ?d2common_getRarePrefix@@3P6GFPAUUnitAny@@@ZA 6609ee94     install.obj
 0003:0000de98       ?d2common_getRareSuffix@@3P6GFPAUUnitAny@@@ZA 6609ee98     install.obj
 0003:0000de9c       ?d2common_CheckItemFlag@@3P6GHPAUUnitAny@@KHPAD@ZA 6609ee9c     install.obj
 0003:0000dea0       ?d2common_setItemFlag@@3P6GXPAUUnitAny@@HH@ZA 6609eea0     install.obj
 0003:0000dea4       ?d2common_getItemFlag@@3P6GXPAUUnitAny@@@ZA 6609eea4     install.obj
 0003:0000dea8       ?d2common_setItemLevel@@3P6GHPAUUnitAny@@H@ZA 6609eea8     install.obj
 0003:0000deac       ?d2common_setItemLocation@@3P6GHPAUUnitAny@@D@ZA 6609eeac     install.obj
 0003:0000deb0       ?d2common_getItemTypeB14@@3P6GHPAUUnitAny@@@ZA 6609eeb0     install.obj
 0003:0000deb4       ?d2common_getItemCode@@3P6GPADPAUUnitAny@@@ZA 6609eeb4     install.obj
 0003:0000deb8       ?d2common_getItemWidthHeight@@3P6GHPAUUnitAny@@PAD1@ZA 6609eeb8     install.obj
 0003:0000debc       ?d2common_getItemType@@3P6GHPAUUnitAny@@@ZA 6609eebc     install.obj
 0003:0000dec0       ?d2common_getItemTypeByTxt@@3P6GHH@ZA 6609eec0     install.obj
 0003:0000dec4       ?d2common_getItemCode1@@3P6GPADPAUUnitAny@@@ZA 6609eec4     install.obj
 0003:0000dec8       ?d2common_isQuestItem@@3P6GHPAUUnitAny@@@ZA 6609eec8     install.obj
 0003:0000decc       ?d2common_GetItemFileIndex@@3P6GHPAUUnitAny@@@ZA 6609eecc     install.obj
 0003:0000ded0       ?d2common_setItemFileIndex@@3P6GHPAUUnitAny@@H@ZA 6609eed0     install.obj
 0003:0000ded4       ?d2common_getItemData1C_20@@3P6GXPAUUnitAny@@PAX1@ZA 6609eed4     install.obj
 0003:0000ded8       ?d2common_setOwnerId@@3P6GXPAUUnitAny@@H@ZA 6609eed8     install.obj
 0003:0000dedc       ?d2common_isCompactItem@@3P6IDXZA 6609eedc     install.obj
 0003:0000dee0       ?d2common_getItemFormat@@3P6GHPAUUnitAny@@@ZA 6609eee0     install.obj
 0003:0000dee4       ?d2common_setItemFormat@@3P6GXPAUUnitAny@@F@ZA 6609eee4     install.obj
 0003:0000dee8       ?d2common_isBitSet@@3P6GHHH@ZA 6609eee8     install.obj
 0003:0000deec       ?d2common_putItemIntoSocket10405@@3P6GHPAUUnitInventory@@PAUUnitAny@@H@ZA 6609eeec     install.obj
 0003:0000def0       ?d2common_setCursorItem@@3P6GHPAUUnitInventory@@PAUUnitAny@@@ZA 6609eef0     install.obj
 0003:0000def4       ?d2common_isItemInside@@3P6GHPAUUnitInventory@@PAUUnitAny@@@ZA 6609eef4     install.obj
 0003:0000def8       ?d2common_CheckInvLocation@@3P6GHPAUUnitInventory@@PAUUnitAny@@HHHPAH2E@ZA 6609eef8     install.obj
 0003:0000defc       ?d2common_GetNextItemInInv@@3P6GPAUUnitAny@@PAU1@@ZA 6609eefc     install.obj
 0003:0000df00       ?d2common_getOwnerInventory@@3P6GPAUUnitInventory@@XZA 6609ef00     install.obj
 0003:0000df04       ?d2common_createInventory@@3P6GPAUUnitInventory@@PAXPAUUnitAny@@@ZA 6609ef04     install.obj
 0003:0000df08       ?d2common_getEquippedItemInfo@@3P6GHPAUUnitInventory@@H@ZA 6609ef08     install.obj
 0003:0000df0c       ?d2common_createEquippedItem@@3P6GPAUEquippedGears@@XZA 6609ef0c     install.obj
 0003:0000df10       ?d2common_GetFirstItemInInv@@3P6GPAUUnitAny@@PAUUnitInventory@@@ZA 6609ef10     install.obj
 0003:0000df14       ?d2common_GetCursorItem@@3P6GPAUUnitAny@@PAUUnitInventory@@@ZA 6609ef14     install.obj
 0003:0000df18       ?d2common_getFilledSockets@@3P6GHPAUUnitInventory@@@ZA 6609ef18     install.obj
 0003:0000df1c       ?d2common_subEsp@@3P6GHXZA 6609ef1c     install.obj
 0003:0000df20       ?d2common_exit@@3P6GHH@ZA  6609ef20     install.obj
 0003:0000df24       ?d2common_GetMonStats2@@3P6IPAXXZA 6609ef24     install.obj
 0003:0000df28       ?d2common_GetNearRectDataWithPos@@3P6IPAUAreaRectData@@XZA 6609ef28     install.obj
 0003:0000df2c       ?d2common_GetCharStatsTxt@@3P6GPAXXZA 6609ef2c     install.obj
 0003:0000df30       ?d2cmp_mpq_path_3010@@3P6IHPAD@ZA 6609ef30     install.obj
 0003:0000df34       ?d2cmp_InitCellFile@@3P6GXPAXPAPAUCellFile@@PADHH2@ZA 6609ef34     install.obj
 0003:0000df38       ?d2cmp_DeleteCellFile@@3P6GXPAUCellFile@@@ZA 6609ef38     install.obj
 0003:0000df3c       ?d2client_pIsEquipment800x600@@3PAHA 6609ef3c     install.obj
 0003:0000df40       ?d2client_pQuestPage@@3PAHA 6609ef40     install.obj
 0003:0000df44       ?d2client_plpCritialSection@@3PAPAUCriticalSection@@A 6609ef44     install.obj
 0003:0000df48       ?d2client_pworldHash@@3PAPAUWorldHash@@A 6609ef48     install.obj
 0003:0000df4c       ?d2client_pLastChatMessage@@3PA_WA 6609ef4c     install.obj
 0003:0000df50       ?d2client_pPetUnitList@@3PAPAUPetUnit@@A 6609ef50     install.obj
 0003:0000df54       ?d2client_pShowManaStr@@3PAHA 6609ef54     install.obj
 0003:0000df58       ?d2client_pShowLifeStr@@3PAHA 6609ef58     install.obj
 0003:0000df5c       ?d2client_pBeltNotEmpty@@3PADA 6609ef5c     install.obj
 0003:0000df60       ?d2client_pscreenDrawXsub@@3PAHA 6609ef60     install.obj
 0003:0000df64       ?d2client_pScreenBlocked@@3PAHA 6609ef64     install.obj
 0003:0000df68       ?d2client_pStandStill@@3PAHA 6609ef68     install.obj
 0003:0000df6c       ?d2client_pNpcConvData@@3PAPAXA 6609ef6c     install.obj
 0003:0000df70       ?d2client_pDrlgAct@@3PAPAUDrlgAct@@A 6609ef70     install.obj
 0003:0000df74       ?d2client_pnotAcceptKeys@@3PAHA 6609ef74     install.obj
 0003:0000df78       ?d2client_pMButton@@3PAHA  6609ef78     install.obj
 0003:0000df7c       ?d2client_pInGame@@3PAHA   6609ef7c     install.obj
 0003:0000df80       ?d2client_pDifficulty@@3PAEA 6609ef80     install.obj
 0003:0000df84       ?d2client_pMercData32@@3PAHA 6609ef84     install.obj
 0003:0000df88       ?d2client_pFlagUnknownC2F8@@3PAHA 6609ef88     install.obj
 0003:0000df8c       ?d2client_pHasSelectedObject@@3PAHA 6609ef8c     install.obj
 0003:0000df90       ?d2client_pFps@@3PAHA      6609ef90     install.obj
 0003:0000df94       ?d2client_pAutoMapSize@@3PAUtagPOINT@@A 6609ef94     install.obj
 0003:0000df98       ?d2client_pMinimapOffset@@3PAUtagPOINT@@A 6609ef98     install.obj
 0003:0000df9c       ?d2client_pInfoPositionY@@3PAHA 6609ef9c     install.obj
 0003:0000dfa0       ?d2client_pScreenMinimapY@@3PAHA 6609efa0     install.obj
 0003:0000dfa4       ?d2client_pScreenMinimapX@@3PAHA 6609efa4     install.obj
 0003:0000dfa8       ?d2client_pAutomapPos@@3PAUtagPOINT@@A 6609efa8     install.obj
 0003:0000dfac       ?d2client_pMinimapCellFile@@3PAPAUCellFile@@A 6609efac     install.obj
 0003:0000dfb0       ?d2client_pAutomapLayer@@3PAPAUAutomapLayer@@A 6609efb0     install.obj
 0003:0000dfb4       ?d2client_pAutomapLayerList@@3PAPAUAutomapLayer@@A 6609efb4     install.obj
 0003:0000dfb8       ?d2client_pMinimapType@@3PAHA 6609efb8     install.obj
 0003:0000dfbc       ?d2client_pChatTextLength@@3PAHA 6609efbc     install.obj
 0003:0000dfc0       ?d2client_pMapShakeX@@3PAJA 6609efc0     install.obj
 0003:0000dfc4       ?d2client_pIsMapShakeOn@@3PAHA 6609efc4     install.obj
 0003:0000dfc8       ?d2client_pActiveWeapon@@3PAHA 6609efc8     install.obj
 0003:0000dfcc       ?d2client_pStachImage@@3PAPAUCellFile@@A 6609efcc     install.obj
 0003:0000dfd0       ?d2client_pPanelTradeStash@@3PAPAUCellFile@@A 6609efd0     install.obj
 0003:0000dfd4       ?d2client_pPanelCube@@3PAPAUCellFile@@A 6609efd4     install.obj
 0003:0000dfd8       ?d2client_pPanelBank@@3PAPAUCellFile@@A 6609efd8     install.obj
 0003:0000dfdc       ?d2client_pNpcTradeCurrentTab@@3PAHA 6609efdc     install.obj
 0003:0000dfe0       ?d2client_pCurrentViewItem@@3PAPAUUnitAny@@A 6609efe0     install.obj
 0003:0000dfe4       ?d2client_pRosterUnitList@@3PAPAURosterUnit@@A 6609efe4     install.obj
 0003:0000dfe8       ?d2client_pnpcInteract@@3PAPAXA 6609efe8     install.obj
 0003:0000dfec       ?d2client_pPlayerUnit@@3PAPAUUnitAny@@A 6609efec     install.obj
 0003:0000dff0       ?d2client_pGoldInTranBox@@3PAHA 6609eff0     install.obj
 0003:0000dff4       ?d2client_pDrawOffsetY@@3PAHA 6609eff4     install.obj
 0003:0000dff8       ?d2client_pDrawOffsetX@@3PAHA 6609eff8     install.obj
 0003:0000dffc       ?d2client_pDrawOffset@@3PAUtagPOINT@@A 6609effc     install.obj
 0003:0000e000       ?d2client_pIs800x600@@3PAHA 6609f000     install.obj
 0003:0000e004       ?d2client_pGameInfo@@3PAPAUGameStructInfo@@A 6609f004     install.obj
 0003:0000e008       ?d2client_pMouseX@@3PAHA   6609f008     install.obj
 0003:0000e00c       ?d2client_pMouseY@@3PAHA   6609f00c     install.obj
 0003:0000e010       ?d2client_pPanelBtn@@3PAPAUCellFile@@A 6609f010     install.obj
 0003:0000e014       ?d2client_pPanelInvChar@@3PAPAUCellFile@@A 6609f014     install.obj
 0003:0000e018       ?d2client_pXButton1@@3PAHA 6609f018     install.obj
 0003:0000e01c       ?d2client_pXButton2@@3PAHA 6609f01c     install.obj
 0003:0000e020       ?d2client_pKeyboardSettingEnd@@3PAUKeyboardSetting@@A 6609f020     install.obj
 0003:0000e024       ?d2client_pKeyboardSettingStart@@3PAUKeyboardSetting@@A 6609f024     install.obj
 0003:0000e028       ?d2client_pSkillHotKeyLeft@@3PAHA 6609f028     install.obj
 0003:0000e02c       ?d2client_pSkillHotKeys@@3PAHA 6609f02c     install.obj
 0003:0000e030       ?d2client_pscreenDrawX@@3PAHA 6609f030     install.obj
 0003:0000e034       ?d2client_pscreenDrawY@@3PAHA 6609f034     install.obj
 0003:0000e038       ?d2client_pCastingDelayEndFrame@@3PAHA 6609f038     install.obj
 0003:0000e03c       ?d2client_pExpansion@@3PAHA 6609f03c     install.obj
 0003:0000e040       ?d2client_pPing@@3PAHA     6609f040     install.obj
 0003:0000e044       ?d2client_pCurFrame@@3PAHA 6609f044     install.obj
 0003:0000e048       ?d2client_pTradeRelated@@3PAPAHA 6609f048     install.obj
 0003:0000e04c       ?d2client_pGameQuestData@@3PAPAUQuestInfo@@A 6609f04c     install.obj
 0003:0000e050       ?d2client_pQuestData@@3PAPAUQuestInfo@@A 6609f050     install.obj
 0003:0000e054       ?d2client_pAutomapNodeListBaseAddr@@3PAPAXA 6609f054     install.obj
 0003:0000e058       ?d2client_pMapShakeY@@3PAJA 6609f058     install.obj
 0003:0000e05c       ?d2client_pUnitTable@@3PAPAUUnitAny@@A 6609f05c     install.obj
 0003:0000e060       ?d2client_pWaypointMenuCount@@3PAHA 6609f060     install.obj
 0003:0000e064       ?d2client_pWaypointMenuCurTab@@3PAHA 6609f064     install.obj
 0003:0000e068       ?d2client_pWaypointMenuItems@@3PAUWaypointMenuItem@@A 6609f068     install.obj
 0003:0000e06c       ?d2client_pUiHelpOn@@3PAHA 6609f06c     install.obj
 0003:0000e070       ?d2client_pUiBeltOn@@3PAHA 6609f070     install.obj
 0003:0000e074       ?d2client_pUiCubeOn@@3PAHA 6609f074     install.obj
 0003:0000e078       ?d2client_pUiStashOn@@3PAHA 6609f078     install.obj
 0003:0000e07c       ?d2client_pUiMessageLogOn@@3PAHA 6609f07c     install.obj
 0003:0000e080       ?d2client_pUiPPLTradeOn@@3PAHA 6609f080     install.obj
 0003:0000e084       ?d2client_pUiPartyOn@@3PAHA 6609f084     install.obj
 0003:0000e088       ?d2client_pUiWaypointOn@@3PAHA 6609f088     install.obj
 0003:0000e08c       ?d2client_pUiNewQuestOn@@3PAHA 6609f08c     install.obj
 0003:0000e090       ?d2client_pUiQuestOn@@3PAHA 6609f090     install.obj
 0003:0000e094       ?d2client_pUiModItemOn@@3PAHA 6609f094     install.obj
 0003:0000e098       ?d2client_pUiShowItemsOn@@3PAHA 6609f098     install.obj
 0003:0000e09c       ?d2client_pUiNpcTradeOn@@3PAHA 6609f09c     install.obj
 0003:0000e0a0       ?d2client_pAutomapOn@@3PAHA 6609f0a0     install.obj
 0003:0000e0a4       ?d2client_pUiGameMenuOn@@3PAHA 6609f0a4     install.obj
 0003:0000e0a8       ?d2client_pUiInteractOn@@3PAHA 6609f0a8     install.obj
 0003:0000e0ac       ?d2client_pUiNewSkillOn@@3PAHA 6609f0ac     install.obj
 0003:0000e0b0       ?d2client_pUiNewStatOn@@3PAHA 6609f0b0     install.obj
 0003:0000e0b4       ?d2client_pUiChatOn@@3PAHA 6609f0b4     install.obj
 0003:0000e0b8       ?d2client_pUiSkillTreeOn@@3PAHA 6609f0b8     install.obj
 0003:0000e0bc       ?d2client_pUiSelectSkillOn@@3PAHA 6609f0bc     install.obj
 0003:0000e0c0       ?d2client_pUiCharacterOn@@3PAHA 6609f0c0     install.obj
 0003:0000e0c4       ?d2client_pUiInventoryOn@@3PAHA 6609f0c4     install.obj
 0003:0000e0c8       ?d2client_pUiDropGoldWindow@@3PAPAXA 6609f0c8     install.obj
 0003:0000e0cc       ?d2client_pInfoPositionX@@3PAHA 6609f0cc     install.obj
 0003:0000e0d0       ?d2client_pExitAppFlag@@3PAHA 6609f0d0     install.obj
 0003:0000e0d4       ?d2client_pGameControlEnd@@3PAHA 6609f0d4     install.obj
 0003:0000e0d8       ?d2client_pGameControlStart@@3PAHA 6609f0d8     install.obj
 0003:0000e0dc       ?d2client_pMercData16@@3PAHA 6609f0dc     install.obj
 0003:0000e0e0       ?d2client_pMinimapZoom@@3PAHA 6609f0e0     install.obj
 0003:0000e0e4       ?d2client_pCurSkillClass@@3PAHA 6609f0e4     install.obj
 0003:0000e0e8       ?d2client_pCursorInvGridY@@3PAHA 6609f0e8     install.obj
 0003:0000e0ec       ?d2client_pCursorInvGridX@@3PAHA 6609f0ec     install.obj
 0003:0000e0f0       ?d2client_pLastMousePos@@3PAUtagPOINT@@A 6609f0f0     install.obj
 0003:0000e0f4       ?d2client_pScreenHeight@@3PAHA 6609f0f4     install.obj
 0003:0000e0f8       ?d2client_pScreenSize@@3PAUtagPOINT@@A 6609f0f8     install.obj
 0003:0000e0fc       ?d2client_pScreenWidth@@3PAHA 6609f0fc     install.obj
 0003:0000e100       ?d2client_psgptDataTables@@3PAPAUD2DataTables@@A 6609f100     install.obj
 0003:0000e104       ?d2client_DrawControls@@3P6GHH@ZA 6609f104     install.obj
 0003:0000e108       ?d2client_SetUiStatus@@3P6IHHHK@ZA 6609f108     install.obj
 0003:0000e10c       ?d2client_LoadUiImageSubpath@@3P6IPAUCellFile@@XZA 6609f10c     install.obj
 0003:0000e110       ?d2client_CheckUiStatusStub@@3P6IHH@ZA 6609f110     install.obj
 0003:0000e114       ?d2client_RecvPacket3F@@3P6IXPAD@ZA 6609f114     install.obj
 0003:0000e118       ?d2client_RecvPacket0E@@3P6IXHPAD@ZA 6609f118     install.obj
 0003:0000e11c       ?d2client_RecvPacket9D@@3P6IXPAD@ZA 6609f11c     install.obj
 0003:0000e120       ?d2client_RecvPacket9C@@3P6IXPAD@ZA 6609f120     install.obj
 0003:0000e124       ?d2client_PacketHandler@@3P6GXH@ZA 6609f124     install.obj
 0003:0000e128       ?d2client_RecvCommand07@@3P6IXPAE@ZA 6609f128     install.obj
 0003:0000e12c       ?d2client_RecvCommand08@@3P6IXPAE@ZA 6609f12c     install.obj
 0003:0000e130       ?d2client_removeUnitFromHash@@3P6IHPAPAUUnitAny@@HHH@ZA 6609f130     install.obj
 0003:0000e134       ?d2client_addUnitToHash@@3P6GHXZA 6609f134     install.obj
 0003:0000e138       ?d2client_GetUnitFromId@@3P6IPAUUnitAny@@HH@ZA 6609f138     install.obj
 0003:0000e13c       ?d2client_CanUseSkillNow@@3P6GHH@ZA 6609f13c     install.obj
 0003:0000e140       ?d2client_processMessageA3C10@@3P6GHPAUD2MSG@@@ZA 6609f140     install.obj
 0003:0000e144       ?d2client_drawFloatingWindow@@3P6GHXZA 6609f144     install.obj
 0003:0000e148       ?d2client_drawUnits9EE90@@3P6GHPAX@ZA 6609f148     install.obj
 0003:0000e14c       ?d2client_drawInventory@@3P6GHXZA 6609f14c     install.obj
 0003:0000e150       ?d2client_func_958A0@@3P6GHPAUUnitAny@@@ZA 6609f150     install.obj
 0003:0000e154       ?d2client_DrawAllUnits@@3P6GHXZA 6609f154     install.obj
 0003:0000e158       ?d2client_CalcShake@@3P6GXPAH0@ZA 6609f158     install.obj
 0003:0000e15c       ?d2client_useStackableItem@@3P6GXPAD@ZA 6609f15c     install.obj
 0003:0000e160       ?d2client_packet9C_4@@3P6IXXZA 6609f160     install.obj
 0003:0000e164       ?d2client_drawEnvironment@@3P6GXPAX0@ZA 6609f164     install.obj
 0003:0000e168       ?d2client_drawNpcConversition@@3P6IHXZA 6609f168     install.obj
 0003:0000e16c       ?d2client_isNpcConversitionEnd@@3P6IHPAX@ZA 6609f16c     install.obj
 0003:0000e170       ?d2client_ShowGameMessage@@3P6GXPA_WH@ZA 6609f170     install.obj
 0003:0000e174       ?d2client_ShowPartyMessage@@3P6GXPA_WH@ZA 6609f174     install.obj
 0003:0000e178       ?d2client_getSkillTreeButtonY@@3P6IHXZA 6609f178     install.obj
 0003:0000e17c       ?d2client_getSkillTreeButtonX@@3P6IHXZA 6609f17c     install.obj
 0003:0000e180       ?d2client_ChatInputStub@@3P6GXPAUD2MSG@@@ZA 6609f180     install.obj
 0003:0000e184       ?d2client_drawInvItem@@3P6GHHH@ZA 6609f184     install.obj
 0003:0000e188       ?d2client_drawUnit@@3P6GHPAX@ZA 6609f188     install.obj
 0003:0000e18c       ?d2client_shouldDrawUnit@@3P6GHXZA 6609f18c     install.obj
 0003:0000e190       ?d2client_InitAutomapLayerStub@@3P6IPAUAutomapLayer@@K@ZA 6609f190     install.obj
 0003:0000e194       ?d2client_AddAreaRectToMinimap@@3P6GXPAUAreaRectData@@KPAUAutomapLayer@@@ZA 6609f194     install.obj
 0003:0000e198       ?d2client_AddAutomapNode@@3P6IXPAUAutomapNode@@PAPAU1@@ZA 6609f198     install.obj
 0003:0000e19c       ?d2client_SetAutomapPartyStub@@3P6IXK@ZA 6609f19c     install.obj
 0003:0000e1a0       ?d2client_SetAutomapNamesStub@@3P6IXK@ZA 6609f1a0     install.obj
 0003:0000e1a4       ?d2client_NewAutomapNode@@3P6IPAUAutomapNode@@XZA 6609f1a4     install.obj
 0003:0000e1a8       ?d2client_drawAllHeads@@3P6GHXZA 6609f1a8     install.obj
 0003:0000e1ac       ?d2client_recvCmd77ButtonAction@@3P6GXXZA 6609f1ac     install.obj
 0003:0000e1b0       ?d2client_clickAcceptTradeMenuItem@@3P6GHXZA 6609f1b0     install.obj
 0003:0000e1b4       ?d2client_GetSelectedUnit@@3P6GPAUUnitAny@@XZA 6609f1b4     install.obj
 0003:0000e1b8       ?d2client_fun_4B8A0@@3P6GHHPAFD@ZA 6609f1b8     install.obj
 0003:0000e1bc       ?d2client_clickHireMercMenu@@3P6GHXZA 6609f1bc     install.obj
 0003:0000e1c0       ?d2client_clickGotoAct2MenuItem@@3P6GHXZA 6609f1c0     install.obj
 0003:0000e1c4       ?d2client_clickGotoAct3MenuItem@@3P6GHXZA 6609f1c4     install.obj
 0003:0000e1c8       ?d2client_drawNpcInteractMenu@@3P6GHXZA 6609f1c8     install.obj
 0003:0000e1cc       ?d2client_Unknown6150@@3P6GHXZA 6609f1cc     install.obj
 0003:0000e1d0       ?d2client_GetScreenDrawY@@3P6GJXZA 6609f1d0     install.obj
 0003:0000e1d4       ?d2client_GetScreenDrawX@@3P6GJXZA 6609f1d4     install.obj
 0003:0000e1d8       ?d2client_DrawSkillButtonE5E0@@3P6GXHHHHHH@ZA 6609f1d8     install.obj
 0003:0000e1dc       ?d2client_SkillUnusable@@3P6IXXZA 6609f1dc     install.obj
 0003:0000e1e0       ?d2client_processWinMessage@@3P6GHPAUHWND__@@HHH@ZA 6609f1e0     install.obj
 0003:0000e1e4       ?d2client_processMessages@@3P6IXXZA 6609f1e4     install.obj
 0003:0000e1e8       ?d2client_ShowMap@@3P6IXXZA 6609f1e8     install.obj
 0003:0000e1ec       ?d2client_LoadUiImageFunc@@3P6GPAUCellFile@@H@ZA 6609f1ec     install.obj
 0003:0000e1f0       ?d2client_setState_2A750@@3P6IXHHHH@ZA 6609f1f0     install.obj
 0003:0000e1f4       ?d2client_UseBelt@@3P6IXPAUUnitInventory@@PAUUnitAny@@H@ZA 6609f1f4     install.obj
 0003:0000e1f8       ?d2client_DrawClient@@3P6IXXZA 6609f1f8     install.obj
 0003:0000e1fc       ?d2client_DrawSkillButton@@3P6GXPAUSkill@@HHH@ZA 6609f1fc     install.obj
 0003:0000e200       ?d2client_drawHpManaText@@3P6GHXZA 6609f200     install.obj
 0003:0000e204       ?d2client_PlaySound@@3P6IHHHH@ZA 6609f204     install.obj
 0003:0000e208       ?d2client_ItemProtect@@3P6GXPAUUnitAny@@K@ZA 6609f208     install.obj
 0003:0000e20c       ?d2client_GetMonsterOwner@@3P6IHH@ZA 6609f20c     install.obj
 0003:0000e210       ?d2client_LeftClickBDE0@@3P6GHXZA 6609f210     install.obj
 0003:0000e214       ?d2client_RightClickBC40@@3P6GHXZA 6609f214     install.obj
 0003:0000e218       ?d2client_ShouldClick85E0@@3P6GHXZA 6609f218     install.obj
 0003:0000e21c       ?d2client_SendPacket3@@3P6IXF@ZA 6609f21c     install.obj
 0003:0000e220       ?d2client_sendPacketLen13@@3P6IXHHH@ZA 6609f220     install.obj
 0003:0000e224       ?d2client_SendPacket43E0@@3P6GXPAD@ZA 6609f224     install.obj
 0003:0000e228       ?d2client_drawGround@@3P6GHPAX@ZA 6609f228     install.obj
 0003:0000e22c       ?d2client_drawGroundPiece@@3P6GXHHHHHH@ZA 6609f22c     install.obj
 0003:0000e230       ?d2client_SetResolutionMode@@3P6GXXZA 6609f230     install.obj
 0003:0000e234       ?d2client_getNearbyRectData@@3P6GXPAUAreaRectData@@PAPAPAU1@PAH@ZA 6609f234     install.obj
 0003:0000e238       ?d2client_Storm511@@3P6GXPAUD2MSG@@@ZA 6609f238     install.obj
 0003:0000e23c       ?d2client_subEsp@@3P6GHXZA 6609f23c     install.obj
 0003:0000e240       ?d2client_getSkillDescTxt@@3P6IPAXXZA 6609f240     install.obj
 0003:0000e244       ?bnclient_pBnChatMessage@@3PAPAKA 6609f244     install.obj
 0003:0000e24c       ?bnetIp@@3PADA             6609f24c     install.obj
 0003:0000e254       ?load_dll_error@@3HA       6609f254     install.obj
 0003:0000e258       ?fLocalizationSupport@@3HA 6609f258     install.obj
 0003:0000e25c       ?addr_storm@@3PAUHINSTANCE__@@A 6609f25c     install.obj
 0003:0000e260       ?addr_d2client@@3PAUHINSTANCE__@@A 6609f260     install.obj
 0003:0000e264       ?addr_d2common@@3PAUHINSTANCE__@@A 6609f264     install.obj
 0003:0000e268       ?addr_d2gfx@@3PAUHINSTANCE__@@A 6609f268     install.obj
 0003:0000e26c       ?addr_d2win@@3PAUHINSTANCE__@@A 6609f26c     install.obj
 0003:0000e270       ?addr_d2lang@@3PAUHINSTANCE__@@A 6609f270     install.obj
 0003:0000e274       ?addr_d2cmp@@3PAUHINSTANCE__@@A 6609f274     install.obj
 0003:0000e278       ?addr_bnclient@@3PAUHINSTANCE__@@A 6609f278     install.obj
 0003:0000e27c       ?addr_d2net@@3PAUHINSTANCE__@@A 6609f27c     install.obj
 0003:0000e280       ?addr_fog@@3PAUHINSTANCE__@@A 6609f280     install.obj
 0003:0000e284       ?addr_d2game@@3PAUHINSTANCE__@@A 6609f284     install.obj
 0003:0000e288       ?addr_d2launch@@3PAUHINSTANCE__@@A 6609f288     install.obj
 0003:0000e28c       ?addr_d2gdi@@3PAUHINSTANCE__@@A 6609f28c     install.obj
 0003:0000e290       ?addr_d2sound@@3PAUHINSTANCE__@@A 6609f290     install.obj
 0003:0000e294       ?addr_d2multi@@3PAUHINSTANCE__@@A 6609f294     install.obj
 0003:0000e298       ?addr_d2mcpclient@@3PAUHINSTANCE__@@A 6609f298     install.obj
 0003:0000e29c       ?fGameFilter@@3HA          6609f29c     install.obj
 0003:0000e2a0       ?hasPlugY@@3HA             6609f2a0     install.obj
 0003:0000e2a4       ?pPatchList@@3PAPAUInstalledPatch@@A 6609f2a4     install.obj
 0003:0000e2b4       ?networkPatch@@3PAUInstalledPatch@@A 6609f2b4     install.obj
 0003:0000f6c8       ?dwDumpMpqPath@@3HA        660a06c8     mpq.obj
 0003:0000f760       ?singlePlayerWorld@@3PAUWorld@@A 660a0760     common.obj
 0003:0000f764       ?forceStandStill@@3HA      660a0764     common.obj
 0003:00011050       ?nPet@@3HA                 660a2050     common.obj
 0003:00011054       ?petCap@@3HA               660a2054     common.obj
 0003:00011058       ?dwPetListChangeVerify@@3HA 660a2058     common.obj
 0003:00011060       ?fPartyListValid@@3HA      660a2060     common.obj
 0003:0001109c       ?autoTerminateNpcInteractMs@@3HA 660a209c     loop.obj
 0003:000110a0       ?screenDrawY@@3HA          660a20a0     loop.obj
 0003:000110a4       ?screenDrawX@@3HA          660a20a4     loop.obj
 0003:000110a8       ?exitGameMs@@3HA           660a20a8     loop.obj
 0003:000110ac       ?dwChangeLeftSkill@@3HA    660a20ac     loop.obj
 0003:000110b0       ?dwLoopCount@@3HA          660a20b0     loop.obj
 0003:000110b4       ?fDebugMs@@3HA             660a20b4     loop.obj
 0003:000110b8       ?dwLevelChangeMs@@3HA      660a20b8     loop.obj
 0003:000110bc       ?dwCpuUser@@3HA            660a20bc     loop.obj
 0003:000110c0       ?dwCpuKernel@@3HA          660a20c0     loop.obj
 0003:000110c4       ?dwLoopFPS@@3HA            660a20c4     loop.obj
 0003:000110c8       ?dwDrawFPS@@3HA            660a20c8     loop.obj
 0003:000110cc       ?dwCurMs@@3HC              660a20cc     loop.obj
 0003:000110d0       ?dwEnterGameMs@@3HA        660a20d0     loop.obj
 0003:000110d4       ?fStartingGame@@3HA        660a20d4     loop.obj
 0003:000110d8       ?fInGame@@3HA              660a20d8     loop.obj
 0003:000110dc       ?dwEnterGameShowDifficultyMs@@3HA 660a20dc     loop.obj
 0003:000110e0       ?dwCurrentAct@@3HA         660a20e0     loop.obj
 0003:000110e4       ?dwPlayerX@@3HA            660a20e4     loop.obj
 0003:000110e8       ?dwPlayerY@@3HA            660a20e8     loop.obj
 0003:000110ec       ?dwPlayerId@@3HA           660a20ec     loop.obj
 0003:000110f0       ?dwPlayerPartyId@@3HA      660a20f0     loop.obj
 0003:000110f4       ?dwPlayerClass@@3HA        660a20f4     loop.obj
 0003:000110f8       ?pLeftSkill@@3PAUSkill@@A  660a20f8     loop.obj
 0003:000110fc       ?pRightSkill@@3PAUSkill@@A 660a20fc     loop.obj
 0003:00011100       ?dwLeftSkillStatus@@3HA    660a2100     loop.obj
 0003:00011104       ?dwRightSkillStatus@@3HA   660a2104     loop.obj
 0003:00011108       ?dwPlayerLevel@@3HA        660a2108     loop.obj
 0003:0001110c       ?dwPlayerHP@@3HA           660a210c     loop.obj
 0003:00011110       ?dwPlayerMaxHP@@3HA        660a2110     loop.obj
 0003:00011114       ?dwPlayerMana@@3HA         660a2114     loop.obj
 0003:00011118       ?dwPlayerMaxMana@@3HA      660a2118     loop.obj
 0003:0001111c       ?dwPlayerFcrFrame@@3HA     660a211c     loop.obj
 0003:00011120       ?dwPlayerFcrMs@@3HA        660a2120     loop.obj
 0003:00011124       ?dwSlowRestoreMs@@3HA      660a2124     loop.obj
 0003:00011138       ?dwBugFlag@@3HA            660a2138     loop.obj
 0003:0001113c       ?fIsHardCoreSafe@@3HA      660a213c     loop.obj
 0003:00011140       ?fUsingHardCoreConfig@@3HA 660a2140     loop.obj
 0003:00011144       ?fIsHardCoreGame@@3HA      660a2144     loop.obj
 0003:00011148       ?fHasHardCoreConfig@@3HA   660a2148     loop.obj
 0003:0001114c       ?needReloadConfig@@3HA     660a214c     loop.obj
 0003:00011178       ?wcsLevelTargetName@@3PA_WA 660a2178     map.obj
 0003:000112a8       ?minimapLevels@@3PAUMinimapLevel@@A 660a22a8     map.obj
 0003:00012888       ?pCurMapLevel@@3PAUMinimapLevel@@A 660a3888     map.obj
 0003:00012974       ?pMinimapObjectCell@@3PAUCellFile@@A 660a3974     map.obj
 0003:00012978       ?dwRevealMapMs@@3HA        660a3978     map.obj
 0003:0001297c       ?dwAutoRevealCLevel@@3HA   660a397c     map.obj
 0003:00012980       ?anMonsterColours@@3PAEA   660a3980     map.obj
 0003:00012d68       ?wszStaffTombLvlDesc@@3PA_WA 660a3d68     map.obj
 0003:00012dcc       ?nCaveNameTextCol@@3EA     660a3dcc     map.obj
 0003:00012dcd       ?nSuperUniqueDescFont@@3EA 660a3dcd     map.obj
 0003:00012dd0       ?aszUnitBlobFiles@@3PAY0DC@DA 660a3dd0     map.obj
 0003:00012ff8       ?awszEnchantDescs@@3PAY0BE@_WA 660a3ff8     map.obj
 0003:000137c8       ?awszAuraDescs@@3PAY0BE@_WA 660a47c8     map.obj
 0003:000138e0       ?awszImmuneDescs@@3PAY0BE@_WA 660a48e0     map.obj
 0003:000139d0       ?anMonsterCorpseColors@@3PAEA 660a49d0     map.obj
 0003:00013db8       ?anMissileColours@@3PAEA   660a4db8     map.obj
 0003:000141a0       ?dwScreenScrollCount@@3HA  660a51a0     map.obj
 0003:000141a4       ?dwMinimapScrollCount@@3HA 660a51a4     map.obj
 0003:000141a8       ?tScreenScrollKeys@@3PAUToggleVar@@A 660a51a8     map.obj
 0003:000144a8       ?dwScreenScrollOffset@@3PAY01HA 660a54a8     map.obj
 0003:00014528       ?tMiniMapScrollKeys@@3PAUToggleVar@@A 660a5528     map.obj
 0003:00014828       ?dwMiniMapScrollOffset@@3PAY01HA 660a5828     map.obj
 0003:00014ab4       ?npcChatTxt@@3HA           660a5ab4     packet.obj
 0003:00014ab8       ?dwSendPacketCount@@3HA    660a5ab8     packet.obj
 0003:00014abc       ?dwInteractEntityCount@@3HA 660a5abc     packet.obj
 0003:00014ac0       ?fMonitorSendCmd@@3PADA    660a5ac0     packet.obj
 0003:00014bc0       ?fMonitorRecvCmd@@3PADA    660a5bc0     packet.obj
 0003:00014dc8       ?dwTargetDistanceMs@@3HA   660a5dc8     route.obj
 0003:00014dcc       ?dwTargetDistance@@3HA     660a5dcc     route.obj
 0003:00014df8       ?pSrcRect@@3PAURouteRect@@A 660a5df8     route.obj
 0003:00014e00       ?dwTakeWaypointToLevel@@3HA 660a5e00     waypoint.obj
 0003:00014e04       ?waypointBits@@3PADA       660a5e04     waypoint.obj
 0003:00014e10       ?waypointMap@@3PAHA        660a5e10     waypoint.obj
 0003:00015040       ?mainMenuLoopCount@@3HA    660a6040     winmsg.obj
 0003:00015044       ?mouseL@@3HA               660a6044     winmsg.obj
 0003:00015048       ?mouseW@@3HA               660a6048     winmsg.obj
 0003:00017450       ?fSkipPainting@@3HA        660a8450     winmsg.obj
 0003:00017454       ?fSkipPaintingMenu@@3HA    660a8454     winmsg.obj
 0003:00017458       ?dwQuickSwapItemMs@@3HA    660a8458     winmsg.obj
 0003:0001745c       ?dwScreenBlockMask@@3HA    660a845c     winmsg.obj
 0003:00017460       ?dwDrawCount@@3HA          660a8460     winmsg.obj
 0003:00017464       ?fInMainMenu@@3HA          660a8464     winmsg.obj
 0003:00017468       ?fLeftBtnDown@@3HA         660a8468     winmsg.obj
 0003:0001746c       ?fRightBtnDown@@3HA        660a846c     winmsg.obj
 0003:00017470       ?dwBtnReleaseMs@@3HA       660a8470     winmsg.obj
 0003:00017474       ?fUserOperating@@3HA       660a8474     winmsg.obj
 0003:00017478       ?need_paint@@3HA           660a8478     winmsg.obj
 0003:0001747c       ?altDown@@3HA              660a847c     winmsg.obj
 0003:00017480       ?ctrlDown@@3HA             660a8480     winmsg.obj
 0003:00017484       ?shiftDown@@3HA            660a8484     winmsg.obj
 0003:000174a0       ?fNoBackgroundImage@@3HA   660a84a0     winmsg.obj
 0003:000174a4       ?dwAutoHideMinimapKey@@3HA 660a84a4     winmsg.obj
 0003:000174a8       ?dwGameControlKeys@@3PAY03HA 660a84a8     winmsg.obj
 0003:000178a8       ?dwGameSoundKeys@@3PAHA    660a88a8     winmsg.obj
 0003:00017aa8       ?tSwitchWindowKeys@@3PAY01UToggleVar@@A 660a8aa8     winmsg.obj
 0003:000180a8       ?dwSwitchSkillKeyCount@@3HA 660a90a8     winmsg.obj
 0003:000180ac       ?fFullWindows@@3HA         660a90ac     winmsg.obj
 0003:000180b0       ?dwSwitchSkillKeys@@3PAHA  660a90b0     winmsg.obj
 0003:00018130       ?dwSwitchSkillLeft@@3PAY173HA 660a9130     winmsg.obj
 0003:00019130       ?dwSwitchSkillRight@@3PAY173HA 660aa130     winmsg.obj
 0003:0001a130       ?dwSwitchSkillLeftUp@@3PAY07HA 660ab130     winmsg.obj
 0003:0001a530       ?dwSwitchSkillRightUp@@3PAY07HA 660ab530     winmsg.obj
 0003:0001a930       ?dwSwitchSkillStandStill@@3PAHA 660ab930     winmsg.obj
 0003:0001a9b0       ?dwSwitchSkillLeftOrg@@3PAHA 660ab9b0     winmsg.obj
 0003:0001aa30       ?dwSwitchSkillRightOrg@@3PAHA 660aba30     winmsg.obj
 0003:0001aab0       ?dwTpSwitchBackground@@3PAHA 660abab0     winmsg.obj
 0003:0001aad0       ?dwEnterDoorInBackgroundSkill@@3PAY0MI@HA 660abad0     winmsg.obj
 0003:0001c0b0       ?dwDrawUnitCount@@3HA      660ad0b0     winmsg.obj
 0003:0001c0e8       ?skipMonsters@@3PADA       660ad0e8     env.obj
 0003:0001c4e8       ?dwVisualEffectMode@@3HA   660ad4e8     env.obj
 0003:0001c4f0       ?afMonsterCorpses@@3PAEA   660ad4f0     env.obj
 0003:0001c8d8       ?afMissileCorpses@@3PAEA   660ad8d8     env.obj
 0003:0001ce40       ?dwNextStackLoc@@3HA       660ade40     GameMonitor.obj
 0003:0001ce44       ?dwNextStackY@@3HA         660ade44     GameMonitor.obj
 0003:0001ce48       ?dwNextStackX@@3HA         660ade48     GameMonitor.obj
 0003:0001ce4c       ?dwNextStackingId@@3HA     660ade4c     GameMonitor.obj
 0003:0001ce50       ?dwThrowWeaponId@@3HA      660ade50     GameMonitor.obj
 0003:0001ce60       ?dwNextMPotionId@@3HA      660ade60     GameMonitor.obj
 0003:0001ce64       ?dwNextHPotionId@@3HA      660ade64     GameMonitor.obj
 0003:0001ce68       ?beltLayers@@3HA           660ade68     GameMonitor.obj
 0003:0001ce6c       ?dwNeedPotionType@@3HA     660ade6c     GameMonitor.obj
 0003:0001ce70       ?beltType@@3PAEA           660ade70     GameMonitor.obj
 0003:0001ce74       ?beltCount@@3PAEA          660ade74     GameMonitor.obj
 0003:0001ce78       ?fWerebear@@3HA            660ade78     GameMonitor.obj
 0003:0001ce7c       ?fWerewolf@@3HA            660ade7c     GameMonitor.obj
 0003:0001ce80       ?dwOakSageLvl@@3HA         660ade80     GameMonitor.obj
 0003:0001cea4       ?bossHps@@3PAHA            660adea4     GameMonitor.obj
 0003:0001ceb0       ?dwRecheckSelfItemMs@@3HA  660adeb0     GameMonitor.obj
 0003:0001ceb4       ?leftWeapon@@3PAUUnitAny@@A 660adeb4     GameMonitor.obj
 0003:0001ceb8       ?rightWeapon@@3PAUUnitAny@@A 660adeb8     GameMonitor.obj
 0003:0001cebc       ?dwTownPortalCount@@3HA    660adebc     GameMonitor.obj
 0003:0001cec0       ?dwIdentifyPortalCount@@3HA 660adec0     GameMonitor.obj
 0003:0001cec4       ?fUsingBow@@3HA            660adec4     GameMonitor.obj
 0003:0001cec8       ?fUsingCrossBow@@3HA       660adec8     GameMonitor.obj
 0003:0001cecc       ?fUsingThrow@@3HA          660adecc     GameMonitor.obj
 0003:0001ced0       ?dwHPotionCount@@3HA       660aded0     GameMonitor.obj
 0003:0001ced4       ?dwMPotionCount@@3HA       660aded4     GameMonitor.obj
 0003:0001ced8       ?dwRPotionCount@@3HA       660aded8     GameMonitor.obj
 0003:0001cedc       ?dwArrowCount@@3HA         660adedc     GameMonitor.obj
 0003:0001cee0       ?dwCArrowCount@@3HA        660adee0     GameMonitor.obj
 0003:0001cee4       ?dwThrowCount@@3HA         660adee4     GameMonitor.obj
 0003:0001cee8       ?curStashPage@@3HA         660adee8     GameMonitor.obj
 0003:0001ceec       ?nStashPages@@3HA          660adeec     GameMonitor.obj
 0003:0001cef0       ?stashPages@@3PAPAUStashPage@@A 660adef0     GameMonitor.obj
 0003:0001d0f0       ?bossX@@3HA                660ae0f0     GameMonitor.obj
 0003:0001d0f4       ?bossY@@3HA                660ae0f4     GameMonitor.obj
 0003:0001d0f8       ?bossId@@3HA               660ae0f8     GameMonitor.obj
 0003:0001d0fc       ?nBoss@@3HA                660ae0fc     GameMonitor.obj
 0003:0001d108       ?fMonitorQuantity@@3HA     660ae108     GameMonitor.obj
 0003:0001d10c       ?fMonitorDurability@@3HA   660ae10c     GameMonitor.obj
 0003:0001d110       ?dwKillSum@@3HA            660ae110     GameMonitor.obj
 0003:0001d114       ?dwGameKills@@3HA          660ae114     GameMonitor.obj
 0003:0001d118       ?dwLastKills@@3HA          660ae118     GameMonitor.obj
 0003:0001d11c       ?dwGetHitSum@@3HA          660ae11c     GameMonitor.obj
 0003:0001d120       ?dwGetHits@@3HA            660ae120     GameMonitor.obj
 0003:0001d124       ?dwOrgMode@@3HA            660ae124     GameMonitor.obj
 0003:0001d128       ?targetNameColor@@3DA      660ae128     GameMonitor.obj
 0003:0001d12c       ?fState100HP@@3HA          660ae12c     GameMonitor.obj
 0003:0001d130       ?fState106ManaMs@@3HA      660ae130     GameMonitor.obj
 0003:0001d138       ?dwGuessBOMs@@3HA          660ae138     GameMonitor.obj
 0003:0001d13c       ?dwGuessEnchantMs@@3HA     660ae13c     GameMonitor.obj
 0003:0001d140       ?nPlayerCast@@3HA          660ae140     GameMonitor.obj
 0003:0001fa70       ?fViewingTargetUnit@@3HA   660b0a70     info.obj
 0003:0001fa74       ?currentgameexp@@3HA       660b0a74     info.obj
 0003:00094dd0       ?dwGoldGoodNum@@3HA        66125dd0     item.obj
 0003:00094dd4       ?fSimplifiedPotionName@@3HA 66125dd4     item.obj
 0003:00094dd8       ?anRuneColours@@3PAY03DA   66125dd8     item.obj
 0003:00094f68       ?anItemColours@@3PAY37163DA 66125f68     item.obj
 0003:001dd168       ?anItemHideLevel@@3PAY07DA 6626e168     item.obj
 0003:001e2f28       ?anItemShowCLevel@@3PAY01DA 66273f28     item.obj
 0003:001e4698       ?wszEtherealItemPrefix@@3PA_WA 66275698     item.obj
 0003:001e46d4       ?wszEtherealItemPostfix@@3PA_WA 662756d4     item.obj
 0003:001e4710       ?dwShowValuableItem@@3HA   66275710     item.obj
 0003:001e4718       ?szItemExtInfoCfgName@@3PAY0BAA@DA 66275718     item.obj
 0003:001e4918       ?fViewSockFlag@@3HA        66275918     item.obj
 0003:001e491c       ?fViewSocketableOn@@3HA    6627591c     item.obj
 0003:001e4920       ?wszDescText@@3PA_WA       66275920     item.obj
 0003:001e5120       ?pViewingItem@@3PAUUnitAny@@A 66276120     item.obj
 0003:001e5128       ?marketItemCount@@3HA      66276128     item.obj
 0003:001e512c       ?marketItemCount1@@3HA     6627612c     item.obj
 0003:001f4a50       ?dwCheckMercMs@@3HA        66285a50     dangerous.obj
 0003:001f4a6c       ?dwIronGolemLifeAlertPercent@@3HA 66285a6c     dangerous.obj
 0003:001f4a70       ?dwIronGolemLifeTownPercent@@3HA 66285a70     dangerous.obj
 0003:001f4a74       ?dwIronGolemLifeExitPercent@@3HA 66285a74     dangerous.obj
 0003:001f4a78       ?dwIronGolemTownLifePercent@@3HA 66285a78     dangerous.obj
 0003:001f4a7c       ?dwHirePotionMinCLevel@@3HA 66285a7c     dangerous.obj
 0003:001f4a80       ?dwHirePotionLifePercent@@3HA 66285a80     dangerous.obj
 0003:001f4a84       ?dwHirePotionColumn@@3HA   66285a84     dangerous.obj
 0003:001f4a88       ?dwHealingPotionLifePercent@@3HA 66285a88     dangerous.obj
 0003:001f4a8c       ?dwHealingPotionDelayMs@@3HA 66285a8c     dangerous.obj
 0003:001f4a90       ?dwManaPotionMax@@3HA      66285a90     dangerous.obj
 0003:001f4a94       ?dwManaPotionValue@@3HA    66285a94     dangerous.obj
 0003:001f4a98       ?dwManaPotionNTValue@@3HA  66285a98     dangerous.obj
 0003:001f4a9c       ?dwChickenLife@@3HA        66285a9c     dangerous.obj
 0003:001f4aa0       ?dwChickenLifeCondition@@3HA 66285aa0     dangerous.obj
 0003:001f4aa4       ?dwChickenHostileLife@@3HA 66285aa4     dangerous.obj
 0003:001f4aa8       ?dwChickenHostileNearbyLife@@3HA 66285aa8     dangerous.obj
 0003:001f4aac       ?dwChickenLifePercent@@3HA 66285aac     dangerous.obj
 0003:001f4ab0       ?dwHCChickenLifePercent@@3HA 66285ab0     dangerous.obj
 0003:001f4ab4       ?dwChickenHostileLifePercent@@3HA 66285ab4     dangerous.obj
 0003:001f4ab8       ?dwChickenHostileNearbyLifePercent@@3HA 66285ab8     dangerous.obj
 0003:001f4abc       ?dwChickenLifeMinClevel@@3HA 66285abc     dangerous.obj
 0003:001f4ac0       ?fLifeProtectOn@@3HA       66285ac0     dangerous.obj
 0003:001f4ac4       ?fDangerousMonsterActive@@3HA 66285ac4     dangerous.obj
 0003:001f4ac8       ?anDangerousMonster@@3PAY01DA 66285ac8     dangerous.obj
 0003:001f5298       ?dwHardCoreFEHpProtect@@3HA 66286298     dangerous.obj
 0003:001f5328       ?dwUpdateQuestMs@@3HA      66286328     quest.obj
 0003:001f532c       ?dwQuestAlertMs@@3HA       6628632c     quest.obj
 0003:001f5330       ?hasRune789@@3HA           66286330     quest.obj
 0003:001f5338       ?wszBugKBAlertMessage@@3PA_WA 66286338     quest.obj
 0003:001f5538       ?dwKBSkillSwitch@@3PAY05HA 66286538     quest.obj
 0003:001f9548       ?afMonsterDeathAnims@@3PAEA 6628a548     lifebar.obj
 0003:001f9968       ?aDropProtectRune@@3PADA   6628a968     DropProtection.obj
 0003:001f9990       ?aDropProtectRuneword@@3PADA 6628a990     DropProtection.obj
 0003:001f9a90       ?aDropProtectUnique@@3PADA 6628aa90     DropProtection.obj
 0003:001f9c90       ?aDropProtectSet@@3PADA    6628ac90     DropProtection.obj
 0003:001f9d90       ?dwSimpleItemProtectionCount@@3HA 6628ad90     DropProtection.obj
 0003:001fe1b0       ?fAutoEnchantCheckUnit@@3HA 6628f1b0     enchant.obj
 0003:001fe1b8       ?pD2WinEditBox@@3PAUD2EditBox@@A 6628f1b8     chat.obj
 0003:001fe1c0       ?chatPasteMs@@3HA          6628f1c0     chat.obj
 0003:001fe1c8       ?fMyChatOn@@3HA            6628f1c8     chat.obj
 0003:001fe290       ?dwAutoLoginMs@@3HA        6628f290     login.obj
 0003:001fe298       ?dwAutoSelectCharMs@@3HA   6628f298     login.obj
 0003:001fe2a8       ?nCurCharTags@@3HA         6628f2a8     login.obj
 0003:001fe2c0       ?mSkipQuestMessage@@3HA    6628f2c0     misc.obj
 0003:001fe2d4       ?dwWaitTeamEnterPortalId@@3HA 6628f2d4     multi.obj
 0003:001fe2d8       ?dwWaitTeamEnterPortalMs@@3HA 6628f2d8     multi.obj
 0003:001fe324       ?hydraY@@3HA               6628f324     multi.obj
 0003:001fe328       ?hydraX@@3HA               6628f328     multi.obj
 0003:001fe32c       ?clickAcceptTradeMs@@3HA   6628f32c     multi.obj
 0003:001fe330       ?autoNpcTxt@@3HA           6628f330     multi.obj
 0003:001fe334       ?dwMultiClientMaxWindowId@@3HA 6628f334     multi.obj
 0003:001fe338       ?d2winLastId@@3HA          6628f338     multi.obj
 0003:001fe33c       ?fAutoFollowMoving@@3HA    6628f33c     multi.obj
 0003:001fe340       ?wszTransferClick@@3PA_WA  6628f340     multi.obj
 0003:001fe3c0       ?acceptTradeFromGid@@3HA   6628f3c0     multi.obj
 0003:001fe3c4       ?acceptTradeFromUid@@3HA   6628f3c4     multi.obj
 0003:001fe3c8       ?acceptTradeMs@@3HA        6628f3c8     multi.obj
 0003:001fe3e4       ?hydraLock@@3HA            6628f3e4     multi.obj
 0003:001fe3e8       ?hydraUid@@3HA             6628f3e8     multi.obj
 0003:001fe3ec       ?tpMs@@3HA                 6628f3ec     multi.obj
 0003:001fe3f0       ?tMCFormationKeys@@3PAUToggleVar@@A 6628f3f0     multi.obj
 0003:001fe9f0       ?aMCFormation@@3PAY0BA@CA  6628f9f0     multi.obj
 0003:001febf0       ?fTransferClick@@3HA       6628fbf0     multi.obj
 0003:001febf4       ?dwTeamMemberCount@@3HA    6628fbf4     multi.obj
 0003:001febf8       ?aAutoFollowClickObject@@3PADA 6628fbf8     multi.obj
 0003:001feff8       ?dwLeaderId@@3HA           6628fff8     multi.obj
 0003:001ff000       ?d2wins@@3PAUD2Window@@A   66290000     multi.obj
 0003:00201098       ?wszNpcTradeInfo@@3PA_WA   66292098     NpcTrade.obj
 0003:00201bfc       ?dwNpcTradeCheckMs@@3HA    66292bfc     NpcTrade.obj
 0003:00201c00       ?dwPartyInvideMs@@3HA      66292c00     party.obj
 0003:00201c04       ?dwCheckRelationMs@@3HA    66292c04     party.obj
 0003:00201c08       ?hasHostilePlayer@@3HA     66292c08     party.obj
 0003:00201c0c       ?fCanInvite@@3HA           66292c0c     party.obj
 0003:00201c10       ?dwPartyResponseMs@@3HA    66292c10     party.obj
 0003:00201c28       ?fCanExitGame@@3HA         66292c28     quick.obj
 0003:00201c2c       ?dwBackToTownTimeout@@3HA  66292c2c     quick.obj
 0003:00201c38       ?fAutoNextGameName@@3HA    66292c38     quick.obj
 0003:00201c3c       ?fAutoNextGamePassword@@3HA 66292c3c     quick.obj
 0003:00201c40       ?fAutoNextGameDescription@@3HA 66292c40     quick.obj
 0003:00201c48       ?wszGameName@@3PA_WA       66292c48     quick.obj
 0003:00201c88       ?wszGamePassword@@3PA_WA   66292c88     quick.obj
 0003:00201cc8       ?wszGameDescription@@3PA_WA 66292cc8     quick.obj
 0003:00201d0c       ?autoJoinGameMs@@3HA       66292d0c     quick.obj
 0003:00202298       ?fHighRes@@3HA             66293298     resolution.obj
 0003:0020636c       ?dwAutoSkillReloading@@3HA 6629736c     skill.obj
 0003:00206370       ?dwRescueBarSafeDistance@@3HA 66297370     skill.obj
 0003:00206374       ?fAutoEnchant@@3HA         66297374     skill.obj
 0003:00206378       ?aAutoPickupItem@@3PADA    66297378     skill.obj
 0003:00206f30       ?fAutoEnchantUseLeftSkill@@3HA 66297f30     skill.obj
 0003:00206f34       ?fAutoWarCry@@3HA          66297f34     skill.obj
 0003:00206f38       ?dwAutoEnchantMonster@@3PADA 66297f38     skill.obj
 0003:00207338       ?fAutoWarCryUseLeftSkill@@3HA 66298338     skill.obj
 0003:0020733c       ?dwAutoWarCryRenewPercent@@3HA 6629833c     skill.obj
 0003:00207340       ?dwUseLeftSkillFirst@@3HA  66298340     skill.obj
 0003:00207344       ?dwAutoReloadThrowing@@3HA 66298344     skill.obj
 0003:00207348       ?dwAutoSkillCheckMs@@3HA   66298348     skill.obj
 0003:0020734c       ?dwAutoSkillMode@@3HA      6629834c     skill.obj
 0003:00207350       ?fAutoSkillNow@@3HA        66298350     skill.obj
 0003:00207354       ?fAutoSkill@@3HA           66298354     skill.obj
 0003:00207358       ?aAutoDimVisionMonster@@3PADA 66298358     skill.obj
 0003:00207758       ?aAutoSkillMonsterType@@3PADA 66298758     skill.obj
 0003:00207b58       ?aAutoSkillDistance@@3PAY01DA 66298b58     skill.obj
 0003:00207f58       ?fAutoSummon@@3HA          66298f58     skill.obj
 0003:00207f5c       ?fAutoSummonUseLeftSkill@@3HA 66298f5c     skill.obj
 0003:00207f60       ?dwAutoSummonStartMs@@3HA  66298f60     skill.obj
 0003:00207f64       ?dwAutoSummonCheckEnchantMs@@3HA 66298f64     skill.obj
 0003:00207f68       ?aAutoReviveMonster@@3PADA 66298f68     skill.obj
 0003:00208368       ?dwSkeletonCount@@3HA      66299368     skill.obj
 0003:0020836c       ?dwEnchantSkeletonCount@@3HA 6629936c     skill.obj
 0003:00208370       ?dwSkeletonMaxCount@@3HA   66299370     skill.obj
 0003:00208374       ?dwSkeletonMageCount@@3HA  66299374     skill.obj
 0003:00208378       ?dwSkeletonMageMaxCount@@3HA 66299378     skill.obj
 0003:0020837c       ?dwReviveCount@@3HA        6629937c     skill.obj
 0003:00208380       ?dwReviveMaxCount@@3HA     66299380     skill.obj
 0003:00208384       ?dwSkeletonHPPercent@@3HA  66299384     skill.obj
 0003:00208388       ?dwSkeletonMageHPPercent@@3HA 66299388     skill.obj
 0003:0020ad58       ?questNames@@3PAPADA       6629bd58     Snapshot.obj
 0003:0020ae18       ?dwMercNameId@@3HA         6629be18     Snapshot.obj
 0003:0020ae24       ?dwMercSeed@@3HA           6629be24     Snapshot.obj
 0003:0020af98       ?dwCheckSkeletonCountMs@@3HA 6629bf98     summon.obj
 0003:0020efc0       ?fAutoSummonSwitchSkillTmp@@3HA 6629ffc0     summon.obj
 0003:0020efc4       ?fAutoSummonSwitchSkill@@3HA 6629ffc4     summon.obj
 0003:0020efc8       ?fAutoSummonNeedCorpse@@3HA 6629ffc8     summon.obj
 0003:0020efcc       ?dwNecInfoExpireMs@@3HA    6629ffcc     summon.obj
 0003:0020efd0       ?dwNecMana@@3HA            6629ffd0     summon.obj
 0003:0020efd4       ?dwTotalMonsterCount@@3HA  6629ffd4     summon.obj
 0003:0020efd8       ?dwSkillChangeCount@@3HA   6629ffd8     summon.obj
 0003:0020f448       ?maxTpDisRaw@@3HA          662a0448     teleport.obj
 0003:0020f4c4       ?dwTpDoneMs@@3HA           662a04c4     teleport.obj
 0003:0020f4c8       ?dwTpMs@@3HA               662a04c8     teleport.obj
 0003:0020f4cc       ?TPfailedRect@@3PAUAreaRectData@@A 662a04cc     teleport.obj
 0003:0020f4d0       ?TPtargetRect@@3PAUAreaRectData@@A 662a04d0     teleport.obj
 0003:0020f4d4       ?TPtarget@@3UtagPOINT@@A   662a04d4     teleport.obj
 0003:0020f508       ?isAutoTeleporting@@3HA    662a0508     teleport.obj
 0003:0020f50c       ?fAutoTeleporting@@3HA     662a050c     teleport.obj
 0003:0020f510       ?unexpectedMonCount@@3HA   662a0510     teleport.obj
 0003:0020f514       ?unexpectedMonTotalMs@@3HA 662a0514     teleport.obj
 0003:0020f52c       ?fEnableHighResolutionPatch@@3HA 662a052c     panel.obj
 0003:0020f530       ?serverCubeType@@3HA       662a0530     panel.obj
 0003:0020f534       ?clientCubeType@@3HA       662a0534     panel.obj
 0003:0020f538       ?serverStashType@@3HA      662a0538     panel.obj
 0003:0020f53c       ?clientStashType@@3HA      662a053c     panel.obj
 0003:0020f540       ?serverInvType@@3HA        662a0540     panel.obj
 0003:0020f544       ?clientInvType@@3HA        662a0544     panel.obj
 0003:0020f550       ?fEnableBigStash@@3HA      662a0550     panel.obj
 0003:0020f554       ?dwInvType@@3HA            662a0554     panel.obj
 0003:0020f558       ?dwStashType@@3HA          662a0558     panel.obj
 0003:0020f55c       ?dwCubeType@@3HA           662a055c     panel.obj
 0003:0020f7b4       ?active_UberDiabloRushTweekAI@@3_NA 662a07b4     uber.obj
 0003:0020f7b5       ?active_UberBaalTeleportTweekAI@@3_NA 662a07b5     uber.obj
 0003:0020f7b6       ?active_UberBaalChillingArmorTweekAI@@3_NA 662a07b6     uber.obj
 0003:0020f7b8       ?uberBaalChillingArmorLastFrame@@3HA 662a07b8     uber.obj
 0003:0020f7bc       __cflush                   662a07bc     LIBCMT:_file.obj
 0003:0020f7c0       ___fastflag                662a07c0     LIBCMT:_fpinit_.obj
 0003:0020f7c4       __adjust_fdiv              662a07c4     LIBCMT:_fpinit_.obj
 0003:0020f7e0       __aenvptr                  662a07e0     LIBCMT:dllcrt0.obj
 0003:0020f7e4       __wenvptr                  662a07e4     LIBCMT:dllcrt0.obj
 0003:0020f7e8       ___error_mode              662a07e8     LIBCMT:dllcrt0.obj
 0003:0020f7ec       ___app_type                662a07ec     LIBCMT:dllcrt0.obj
 0003:0020f7f4       ___mbulinfo                662a07f4     LIBCMT:mbctype.obj
 0003:0020f800       ___mbcodepage              662a0800     LIBCMT:mbctype.obj
 0003:0020f804       ___ismbcodepage            662a0804     LIBCMT:mbctype.obj
 0003:0020f808       ___mblcid                  662a0808     LIBCMT:mbctype.obj
 0003:0020f80c       ___locale_changed          662a080c     LIBCMT:setlocal.obj
 0003:0020f810       ___lc_handle               662a0810     LIBCMT:nlsdata2.obj
 0003:0020f828       ___lc_codepage             662a0828     LIBCMT:nlsdata2.obj
 0003:0020f82c       ___lc_collate_cp           662a082c     LIBCMT:nlsdata2.obj
 0003:0020f830       _gpFlsAlloc                662a0830     LIBCMT:tidtable.obj
 0003:0020f834       _gpFlsGetValue             662a0834     LIBCMT:tidtable.obj
 0003:0020f838       _gpFlsSetValue             662a0838     LIBCMT:tidtable.obj
 0003:0020f83c       _gpFlsFree                 662a083c     LIBCMT:tidtable.obj
 0003:0020f840       ___pInvalidArgHandler      662a0840     LIBCMT:invarg.obj
 0003:0020f998       __stdbuf                   662a0998     LIBCMT:_sftbuf.obj
 0003:0020fcc4       ?_pnhHeap@@3P6AHI@ZA       662a0cc4     LIBCMT:handler.obj
 0003:0020fcc8       __newmode                  662a0cc8     LIBCMT:_newmode.obj
 0003:0020fccc       __crtheap                  662a0ccc     LIBCMT:heapinit.obj
 0003:0020fcd0       ___sbh_pHeaderDefer        662a0cd0     LIBCMT:sbheap.obj
 0003:0020fcd8       __maxwait                  662a0cd8     LIBCMT:crtheap.obj
 0003:0020fcdc       __umaskval                 662a0cdc     LIBCMT:crt0dat.obj
 0003:0020fce0       ___argc                    662a0ce0     LIBCMT:crt0dat.obj
 0003:0020fce4       ___argv                    662a0ce4     LIBCMT:crt0dat.obj
 0003:0020fce8       ___wargv                   662a0ce8     LIBCMT:crt0dat.obj
 0003:0020fcec       __environ                  662a0cec     LIBCMT:crt0dat.obj
 0003:0020fcf0       ___initenv                 662a0cf0     LIBCMT:crt0dat.obj
 0003:0020fcf4       __wenviron                 662a0cf4     LIBCMT:crt0dat.obj
 0003:0020fcf8       ___winitenv                662a0cf8     LIBCMT:crt0dat.obj
 0003:0020fcfc       __pgmptr                   662a0cfc     LIBCMT:crt0dat.obj
 0003:0020fd00       __wpgmptr                  662a0d00     LIBCMT:crt0dat.obj
 0003:0020fd04       __exitflag                 662a0d04     LIBCMT:crt0dat.obj
 0003:0020fd08       __C_Termination_Done       662a0d08     LIBCMT:crt0dat.obj
 0003:0020fd0c       __C_Exit_Done              662a0d0c     LIBCMT:crt0dat.obj
 0003:00210138       ___lconv_static_null       662a1138     LIBCMT:lconv.obj
 0003:00210140       ?__pInconsistency@@3P6AXXZA 662a1140     LIBCMT:hooks.obj
 0003:00210164       ___pPurecall               662a1164     LIBCMT:inithelp.obj
 0003:00210168       __outputformat             662a1168     LIBCMT:outputformat.obj
 0003:00210240       __commode                  662a1240     LIBCMT:ncommode.obj
 0003:00210258       ?pArgList@UnDecorator@@0PAVReplicator@@A 662a1258     LIBCMT:undname.obj
 0003:0021025c       ?pZNameList@UnDecorator@@0PAVReplicator@@A 662a125c     LIBCMT:undname.obj
 0003:00210260       ?pTemplateArgList@UnDecorator@@0PAVReplicator@@A 662a1260     LIBCMT:undname.obj
 0003:00210264       ?gName@UnDecorator@@0PBDB  662a1264     LIBCMT:undname.obj
 0003:00210268       ?name@UnDecorator@@0PBDB   662a1268     LIBCMT:undname.obj
 0003:0021026c       ?outputString@UnDecorator@@0PADA 662a126c     LIBCMT:undname.obj
 0003:00210270       ?maxStringLength@UnDecorator@@0HA 662a1270     LIBCMT:undname.obj
 0003:00210274       ?disableFlags@UnDecorator@@0KA 662a1274     LIBCMT:undname.obj
 0003:00210278       ?m_pGetParameter@UnDecorator@@0P6APADJ@ZA 662a1278     LIBCMT:undname.obj
 0003:0021027c       ?fExplicitTemplateParams@UnDecorator@@0_NA 662a127c     LIBCMT:undname.obj
 0003:0021027d       ?fGetTemplateArgumentList@UnDecorator@@0_NA 662a127d     LIBCMT:undname.obj
 0003:00210280       __fmode                    662a1280     LIBCMT:txtmode.obj
 0003:00210288       __debugger_hook_dummy      662a1288     <common>
 0003:0021028c       ___use_sse2_mathfcns       662a128c     <common>
 0003:00210290       ___env_initialized         662a1290     <common>
 0003:00210294       ___onexitend               662a1294     <common>
 0003:00210298       ___onexitbegin             662a1298     <common>
 0003:0021029c       ___mbctype_initialized     662a129c     <common>
 0003:002102a0       ___dyn_tls_init_callback   662a12a0     <common>
 0003:002102a4       ___sbh_cntHeaderList       662a12a4     <common>
 0003:002102a8       ___sbh_pHeaderList         662a12a8     <common>
 0003:002102ac       ___sbh_threshold           662a12ac     <common>
 0003:002102b0       ___sbh_pHeaderScan         662a12b0     <common>
 0003:002102b4       ___sbh_sizeHeaderList      662a12b4     <common>
 0003:002102b8       ___sbh_indGroupDefer       662a12b8     <common>
 0003:002102bc       ___active_heap             662a12bc     <common>
 0003:002102c0       ___sse2_available          662a12c0     <common>
 0003:002102c4       __nhandle                  662a12c4     <common>
 0003:002102e0       ___pioinfo                 662a12e0     <common>
 0003:002103e0       __acmdln                   662a13e0     <common>
 0003:002103e4       __pDestructExceptionObject 662a13e4     <common>
 0003:002103e8       ___piob                    662a13e8     <common>
 0003:00210400       __bufin                    662a1400     <common>
 0003:00211400       __nstream                  662a2400     <common>

 entry point at        0001:00064dc4

 Static symbols

 0001:00000a30       ?initKeyArray@@YAXPAUConfigVar@@HH@Z 66001a30 f   config.obj
 0001:00002090       ?InitValues@@YAXXZ         66003090 f   config.obj
 0001:00002380       ?changeLogPath@@YAHPAD@Z   66003380 f   config.obj
 0001:00002520       ?loadConfig@@YAXPAD@Z      66003520 f   config.obj
 0001:00002c30       ?StoreConfig@@YAHPAUConfigVar@@PAD1@Z 66003c30 f   config.obj
 0001:000041d0       ?parseInt@@YAHPADPAPAD@Z   660051d0 f   config.obj
 0001:00004270       ?parseValues8@@YAXPAD0H@Z  66005270 f   config.obj
 0001:00004340       ?parseValues32@@YAXPAHPADH@Z 66005340 f   config.obj
 0001:00004410       ?parseStringConfig@@YAHPAUConfigVar@@PAD1@Z 66005410 f   config.obj
 0001:00004590       ?loadTagFile@@YAXPAD@Z     66005590 f   config.obj
 0001:00004830       ?loadSymbolFile@@YAXPAD@Z  66005830 f   config.obj
 0001:00004a30       ?isNumber@@YAHPAD@Z        66005a30 f   config.obj
 0001:00005960       ?doPatchCALL@@YAXHHH@Z     66006960 f   install.obj
 0001:000059b0       ?doPatchJMP@@YAXHHH@Z      660069b0 f   install.obj
 0001:00005a00       ?doPatchFILL@@YAXHHH@Z     66006a00 f   install.obj
 0001:00005a50       ?doPatchVALUE@@YAXHHH@Z    66006a50 f   install.obj
 0001:00005c70       ?parseOriginalCode@@YAHPADH0HPAH@Z 66006c70 f   install.obj
 0001:00009950       ?InstallPatchAfterLoad@@YAXXZ 6600a950 f   install.obj
 0001:00009980       ?installD2PatchesAfterLoad@@YAHXZ 6600a980 f   install.obj
 0001:00009ce0       ?installNetworkRecvPatch@@YAHXZ 6600ace0 f   install.obj
 0001:00009d30       ?installPatchToggle@@YAHXZ 6600ad30 f   install.obj
 0001:00009df0       ?installD2Patches@@YAHXZ   6600adf0 f   install.obj
 0001:00013bb0       ?dumpPtr@@YAXPAU_iobuf@@PADHH1H@Z 66014bb0 f   install.obj
 0001:00013e30       ?dump@@YAXXZ               66014e30 f   install.obj
 0001:00014370       ?ReloadDll@@YAHXZ          66015370 f   install.obj
 0001:00014d20       _stat                      66015d20 f   common.obj
 0001:00014d20       _stat                      66015d20 f   common.obj
 0001:000151c0       ?d2msg@@YAXHPA_WH@Z        660161c0 f   common.obj
 0001:00017810       ?comparePet@@YAHPBX0@Z     66018810 f   common.obj
 0001:00017810       ?comparePvp@@YAHPBX0@Z     66018810 f   common.obj
 0001:00017810       ?compareItem@@YAHPBX0@Z    66018810 f   common.obj
 0001:00018510       ?sendPacket43E0Patch_ASM@@YAXXZ 66019510 f   dbg.obj
 0001:00018530       ?sendPacket43E0@@YIXPADHH@Z 66019530 f   dbg.obj
 0001:00018580       ?sendPacket3Patch_ASM@@YAXXZ 66019580 f   dbg.obj
 0001:000185a0       ?sendPacket3@@YIXDFH@Z     660195a0 f   dbg.obj
 0001:000185f0       ?clickMenuItemPatch_ASM@@YAXXZ 660195f0 f   dbg.obj
 0001:00018610       ?clickMenuItem@@YIXH@Z     66019610 f   dbg.obj
 0001:00019270       ?gameStart@@YAXXZ          6601a270 f   loop.obj
 0001:00019740       ?checkTag@@YAXPAD@Z        6601a740 f   loop.obj
 0001:0001a210       ?updateTargetName@@YAXXZ   6601b210 f   map.obj
 0001:0001a5d0       ?selectWaypointTarget@@YAXXZ 6601b5d0 f   map.obj
 0001:0001aba0       ?LoadBmpCellFile@@YAPAUCellFile@@PAD@Z 6601bba0 f   map.obj
 0001:0001ac50       ?InitCellFile@@YAPAUCellFile@@PAU1@@Z 6601bc50 f   map.obj
 0001:0001ad60       ?DeleteCellFile@@YAXPAUCellFile@@@Z 6601bd60 f   map.obj
 0001:0001afc0       ?addCorner@@YAXPAUSC@@HH@Z 6601bfc0 f   map.obj
 0001:0001b300       ?modifyRescueBarTarget@@YAXXZ 6601c300 f   map.obj
 0001:0001b490       ?target_sort@@YAXPAPAUMinimapLevelTarget@@@Z 6601c490 f   map.obj
 0001:0001b560       ?modifySealTarget@@YAXXZ   6601c560 f   map.obj
 0001:0001b9c0       ?modifyTempleTarget@@YAXXZ 6601c9c0 f   map.obj
 0001:0001ba70       ?modifyTeleportTarget@@YAXXZ 6601ca70 f   map.obj
 0001:0001bde0       ?ResetAutomapNodeCellNo@@YAXPAUAutomapNode@@@Z 6601cde0 f   map.obj
 0001:0001c1d0       ?wscolorcpy@@YAPA_WPA_W0E@Z 6601d1d0 f   map.obj
 0001:0001c1d0       ?wscolorcpy@@YAPA_WPA_W0E@Z 6601d1d0 f   map.obj
 0001:0001db20       ?isConnected@@YAHPAUAreaRectInfo@@0PAUtagPOINT@@@Z 6601eb20 f   map.obj
 0001:0001de80       ?drawAreaRectOnMap@@YAXPAUAreaRectInfo@@H@Z 6601ee80 f   map.obj
 0001:0001e000       ?drawAreaRectOnScreen@@YAXPAUAreaRectInfo@@H@Z 6601f000 f   map.obj
 0001:0001e380       ?DrawMinimapPoint@@YAXXZ   6601f380 f   map.obj
 0001:0001f5e0       ?hex@@YAXPAU_iobuf@@HPAXH@Z 660205e0 f   packet.obj
 0001:00021740       ?drawAARect@@YAXPAURouteRect@@@Z 66022740 f   route.obj
 0001:00021af0       ?initRectRoute@@YAHPAUMinimapLevelTarget@@@Z 66022af0 f   route.obj
 0001:00021f40       ?canTeleport@@YAHPAUAreaRectData@@PAURouteRect@@@Z 66022f40 f   route.obj
 0001:000220a0       ?recycleRouteInfo@@YAXPAUMinimapLevelTarget@@@Z 660230a0 f   route.obj
 0001:00022200       ?performRectRoute@@YAXPAUMinimapLevelTarget@@@Z 66023200 f   route.obj
 0001:00022d20       ?recvWaypointMenu@@YIHPADH@Z 66023d20 f   waypoint.obj
 0001:00023bf0       ?setWinTitle@@YAXPAUHWND__@@H@Z 66024bf0 f   winmsg.obj
 0001:00024e30       ?keyDown@@YIHHH@Z          66025e30 f   winmsg.obj
 0001:00025170       ?shouldProcessKey@@YAHHH@Z 66026170 f   winmsg.obj
 0001:00025270       ?keyUp@@YIHHH@Z            66026270 f   winmsg.obj
 0001:000254a0       ?createVersionTextBox@@YAXXZ 660264a0 f   winmsg.obj
 0001:000255b0       ?debugMsDrawUnitStart@@YAXXZ 660265b0 f   winmsg.obj
 0001:00025630       ?beforeDrawControl@@YAXXZ  66026630 f   winmsg.obj
 0001:00025670       ?debugMsDrawControlStart@@YAXXZ 66026670 f   winmsg.obj
 0001:000256b0       ?debugMsDrawControlEnd@@YAXXZ 660266b0 f   winmsg.obj
 0001:00025710       ?shouldSkipDrawUnitAndControl@@YAHXZ 66026710 f   winmsg.obj
 0001:000257b0       ?shouldSkipAllDrawing@@YAHXZ 660267b0 f   winmsg.obj
 0001:00025860       ?skipDrawMenu2@@YAHXZ      66026860 f   winmsg.obj
 0001:000258f0       ?mainMenuSkip@@YAHXZ       660268f0 f   winmsg.obj
 0001:000261e0       ?drawGroundRect@@YAXPAUAreaRectData@@@Z 660271e0 f   env.obj
 0001:00026980       ?checkWeapon@@YAXPAUUnitAny@@@Z 66027980 f   GameMonitor.obj
 0001:00026a80       ?checkItem@@YAXPAUUnitAny@@H@Z 66027a80 f   GameMonitor.obj
 0001:000295a0       ?recvState@@YIXPAE@Z       6602a5a0 f   GameMonitor.obj
 0001:00029d80       ?drawUnitsInfoInRect@@YAXPAUAreaRectData@@@Z 6602ad80 f   GameMonitor.obj
 0001:0002a280       ?drawPlayerName@@YAXPAUUnitAny@@@Z 6602b280 f   GameMonitor.obj
 0001:0002a980       ?drawBossHp@@YAXPAUUnitAny@@HHH@Z 6602b980 f   GameMonitor.obj
 0001:0002b600       ?drawEmit@@YAXPAUUnitAny@@HH@Z 6602c600 f   GameMonitor.obj
 0001:0002b700       ?drawCircle@@YAXPAUUnitAny@@HH@Z 6602c700 f   GameMonitor.obj
 0001:0002b910       ?playerSkillOnTarget@@YIXPAD@Z 6602c910 f   GameMonitor.obj
 0001:0002d830       ?LogMessage@@YIXPA_W@Z     6602e830 f   MessageLog.obj
 0001:00034080       ?rescanMercPointers@@YAXXZ 66035080 f   dangerous.obj
 0001:00035ae0       ?checkQuest@@YAXHHHPAD@Z   66036ae0 f   quest.obj
 0001:00035f10       ?questAlert@@YAXXZ         66036f10 f   quest.obj
 0001:00037240       ?drawQuestState@@YAXPAG0HHH@Z 66038240 f   quest.obj
 0001:000375a0       ?recv28_quest@@YIXPAD@Z    660385a0 f   quest.obj
 0001:00039780       ?switchTo@@YAXH@Z          6603a780 f   bo.obj
 0001:00039880       ?useSkill@@YAHH@Z          6603a880 f   bo.obj
 0001:00039bf0       _time                      6603abf0 f   d2s.obj
 0001:0003ada0       ?hasProp@@YAHPAUUnitAny@@HH@Z 6603bda0 f   DropProtection.obj
 0001:0003b220       ?deleteCharacterCallback@@YIXPAD0@Z 6603c220 f   DropProtection.obj
 0001:0003b2b0       ?canDeleteCharacter@@YIHPAUD2Character@@@Z 6603c2b0 f   DropProtection.obj
 0001:0003bb00       ?skipMenuItem@@YIHPAUMenuItem@@@Z 6603cb00 f   DropProtection.obj
 0001:0003c500       ?findTargetItem@@YAPAUUnitAny@@H@Z 6603d500 f   DropProtection.obj
 0001:0003cbb0       ?doEnchant@@YAHPAUUnitAny@@@Z 6603dbb0 f   enchant.obj
 0001:0003e080       ?sortGameList@@YAXXZ       6603f080 f   mcp.obj
 0001:0003e0c0       ?compareMcp05Game@@YAHPBX0@Z 6603f0c0 f   mcp.obj
 0001:0003e110       ?showGameListDifficulty@@YIXPAXPAD@Z 6603f110 f   mcp.obj
 0001:0003e3a0       ?compareCharTag@@YAHPBX0@Z 6603f3a0 f   login.obj
 0001:0003ea40       ?c2w@@YAXPADPA_W@Z         6603fa40 f   login.obj
 0001:0003ebc0       ?selectChar@@YIXH@Z        6603fbc0 f   login.obj
 0001:00041ad0       ?teamMemberInArea@@YAHH@Z  66042ad0 f   multi.obj
 0001:00041b70       ?interactObject@@YAXXZ     66042b70 f   multi.obj
 0001:000421b0       ?sendStartFollowCmd@@YAHPAUD2Window@@@Z 660431b0 f   multi.obj
 0001:000421e0       ?sendStopFollowCmd@@YAHPAUD2Window@@@Z 660431e0 f   multi.obj
 0001:00043420       ?doTransferClick@@YAHHPAUUnitAny@@HH@Z 66044420 f   multi.obj
 0001:00043a20       ?protect3BB@@YAHXZ         66044a20 f   multi.obj
 0001:00043cf0       ?recvCommand77@@YIXPAD@Z   66044cf0 f   multi.obj
 0001:00043f00       ?recvCommand78@@YIXPAD@Z   66044f00 f   multi.obj
 0001:000441c0       ?checkItems@@YAXHH@Z       660451c0 f   NpcTrade.obj
 0001:00044300       ?checkItem@@YAXPAUUnitAny@@H@Z 66045300 f   NpcTrade.obj
 0001:00044ea0       ?CheckInvite@@YAHXZ        66045ea0 f   party.obj
 0001:00044ef0       ?invitePlayerLater@@YAXHPADH@Z 66045ef0 f   party.obj
 0001:000451f0       ?autoPartyBugMF@@YAHXZ     660461f0 f   party.obj
 0001:000452e0       ?recv5A@@YGXPAD@Z          660462e0 f   party.obj
 0001:000457d0       ?setLootPermit@@YAXHPAD@Z  660467d0 f   party.obj
 0001:00045960       ?recvCommand5B@@YIXPAE@Z   66046960 f   party.obj
 0001:00045a30       ?assignPlayer@@YIXPAD@Z    66046a30 f   party.obj
 0001:00045b70       ?recv8C@@YIXPAD@Z          66046b70 f   party.obj
 0001:00046f50       ?canPutIn@@YAHPADHHHH@Z    66047f50 f   QuickSwapItem.obj
 0001:000477c0       ?updateCubeInvMap@@YAXXZ   660487c0 f   QuickSwapItem.obj
 0001:00047d10       ?dropItemToGound@@YAHXZ    66048d10 f   QuickSwapItem.obj
 0001:00047d80       ?updateInv@@YAXPAUInventoryType@@H@Z 66048d80 f   QuickSwapItem.obj
 0001:00047e30       ?putIntoSimpleItemStack@@YAHXZ 66048e30 f   QuickSwapItem.obj
 0001:00047ef0       ?findSimpleItemStack@@YAPAUUnitAny@@H@Z 66048ef0 f   QuickSwapItem.obj
 0001:000484d0       ?pickupItem@@YAHPAUUnitAny@@@Z 660494d0 f   QuickSwapItem.obj
 0001:00048560       ?findGemInv@@YAPAUUnitAny@@HH@Z 66049560 f   QuickSwapItem.obj
 0001:000490a0       ?getGlobalBeltSlotPosition@@YIXPAH0@Z 6604a0a0 f   resolution.obj
 0001:00049150       ?getGlobalBeltRecord@@YIXPAH@Z 6604a150 f   resolution.obj
 0001:00049210       ?adjWinRectEx@@YGHHPAUtagRECT@@HHH@Z 6604a210 f   resolution.obj
 0001:00049cc0       ?isAutoSkill@@YAHPAUSkill@@@Z 6604acc0 f   skill.obj
 0001:00049e20       ?checkAutoSkill1@@YAXHH@Z  6604ae20 f   skill.obj
 0001:0004a700       ?updateSkill@@YAXPAUAutoSkillInfo@@H@Z 6604b700 f   skill.obj
 0001:0004ad80       ?processStacking@@YAXXZ    6604bd80 f   skill.obj
 0001:0004aec0       ?canUse@@YAHPAUAutoSkillInfo@@@Z 6604bec0 f   skill.obj
 0001:0004afa0       ?checkUnit@@YAXPAUUnitAny@@@Z 6604bfa0 f   skill.obj
 0001:0004ca40       ?getLvPercent@@YAHPAUUnitAny@@@Z 6604da40 f   Snapshot.obj
 0001:0004d540       ?countGemRunes@@YAXPAUUnitAny@@@Z 6604e540 f   Snapshot.obj
 0001:0004d930       ?isStartEq@@YAHPAUUnitAny@@@Z 6604e930 f   Snapshot.obj
 0001:0004dc20       ?dumpStats@@YAHPAU_iobuf@@PAUStat@@@Z 6604ec20 f   Snapshot.obj
 0001:0004e010       ?dumpInventory@@YAXXZ      6604f010 f   Snapshot.obj
 0001:0004e710       ?dumpUnit@@YAXPAU_iobuf@@PAUUnitAny@@@Z 6604f710 f   Snapshot.obj
 0001:0004f180       ?outputGemRune@@YAXPAU_iobuf@@@Z 66050180 f   Snapshot.obj
 0001:0004f410       ?dumpItem@@YAXPAU_iobuf@@PAUUnitAny@@HH@Z 66050410 f   Snapshot.obj
 0001:000504b0       ?addItem@@YAXPAUUnitAny@@H@Z 660514b0 f   Snapshot.obj
 0001:00050840       ?dumpItems@@YAXPAU_iobuf@@PAUUnitAny@@H@Z 66051840 f   Snapshot.obj
 0001:00050910       ?dumpQuests@@YAXPAU_iobuf@@@Z 66051910 f   Snapshot.obj
 0001:00051080       ?dumpTodo@@YAXPAU_iobuf@@HPADPAUQ@@@Z 66052080 f   Snapshot.obj
 0001:000511a0       ?loadQuests@@YAXXZ         660521a0 f   Snapshot.obj
 0001:00051270       ?dumpWaypoints@@YAXPAU_iobuf@@@Z 66052270 f   Snapshot.obj
 0001:00051410       ?dumpSkills@@YAXPAU_iobuf@@PAUUnitAny@@@Z 66052410 f   Snapshot.obj
 0001:00051520       ?dumpSkill@@YAXPAU_iobuf@@PAUSkill@@@Z 66052520 f   Snapshot.obj
 0001:00051630       ?dumpObject@@YAXPAU_iobuf@@PAUUnitAny@@@Z 66052630 f   Snapshot.obj
 0001:00051790       ?dumpAreatile@@YAXPAU_iobuf@@PAUUnitAny@@@Z 66052790 f   Snapshot.obj
 0001:00052290       ?doDeleteSnapshotFile@@YAXPAD@Z 66053290 f   Snapshot.obj
 0001:00052da0       ?saveItem@@YAXPAU_iobuf@@PAUUnitAny@@@Z 66053da0 f   snap.obj
 0001:00053200       ?formatItems2@@YAHPAU_iobuf@@0H@Z 66054200 f   snap.obj
 0001:000533f0       ?formatItem@@YAXPAU_iobuf@@0HH@Z 660543f0 f   snap.obj
 0001:000540f0       ?isAllAttr@@YAHPAUStatEx@@@Z 660550f0 f   snap.obj
 0001:00054160       ?isAllResist@@YAHPAUStatEx@@@Z 66055160 f   snap.obj
 0001:000541d0       ?isSocketable@@YAHH@Z      660551d0 f   snap.obj
 0001:000552a0       ?checkSummonSkillLevel@@YAXXZ 660562a0 f   summon.obj
 0001:00055400       ?getSummonCount@@YAHH@Z    66056400 f   summon.obj
 0001:00055430       ?needSummon@@YAHXZ         66056430 f   summon.obj
 0001:00055640       ?switchSummonSkill@@YAXH@Z 66056640 f   summon.obj
 0001:00055670       ?checkUnit@@YAXPAUUnitAny@@@Z 66056670 f   summon.obj
 0001:00055990       ?dumpMonsterInfo@@YIXH@Z   66056990 f   summon.obj
 0001:00056180       ?isMonster@@YAHPAUUnitAny@@@Z 66057180 f   teleport.obj
 0001:00056200       ?findMonsters@@YAXH@Z      66057200 f   teleport.obj
 0001:000565d0       ?addMonMap@@YAXHH@Z        660575d0 f   teleport.obj
 0001:00056630       ?resetMonsters@@YAXXZ      66057630 f   teleport.obj
 0001:000566b0       ?calBoundingBox@@YAXXZ     660576b0 f   teleport.obj
 0001:000567f0       ?addPossiblePostions@@YAXPAUAreaRectData@@0PAUtagPOINT@@H@Z 660577f0 f   teleport.obj
 0001:00056c10       ?disM256@@YAHPAUtagPOINT@@0@Z 66057c10 f   teleport.obj
 0001:00056c40       ?hasMon@@YAHHH@Z           66057c40 f   teleport.obj
 0001:00056ca0       ?findValidPosition@@YAHXZ  66057ca0 f   teleport.obj
 0001:00056d80       ?comparePos@@YAHPBX0@Z     66057d80 f   teleport.obj
 0001:00056da0       ?dis@@YAHPAUtagPOINT@@0@Z  66057da0 f   teleport.obj
 0001:00057520       ?findBoss@@YAHHH@Z         66058520 f   teleport.obj
 0001:000575f0       ?getMonDis@@YAHPAUtagPOINT@@@Z 660585f0 f   teleport.obj
 0001:00057650       ?interact@@YAXPAUtagPOINT@@HH@Z 66058650 f   teleport.obj
 0001:00057730       ?interactObj@@YAXPAUUnitAny@@@Z 66058730 f   teleport.obj
 0001:000578f0       ?teleportForward@@YAHXZ    660588f0 f   teleport.obj
 0001:00057d20       ?teleportToSafety@@YAHXZ   66058d20 f   teleport.obj
 0001:00058000       ?savePrevMonsters@@YAXXZ   66059000 f   teleport.obj
 0001:000580d0       ?findSafestPosition@@YAHXZ 660590d0 f   teleport.obj
 0001:00058160       ?tpToBoss@@YAHXZ           66059160 f   teleport.obj
 0001:00058320       ?autoTarget@@YAHXZ         66059320 f   teleport.obj
 0001:00058520       ?telekinesisTarget@@YAHPAUUnitAny@@@Z 66059520 f   teleport.obj
 0001:00058830       ?findTelekinesisPosition@@YAHXZ 66059830 f   teleport.obj
 0001:00058920       ?autoDuranceofHateLevel3@@YAHXZ 66059920 f   teleport.obj
 0001:00058ba0       ?dumpProp@@YAXPAU_iobuf@@PAUItemProp@@@Z 66059ba0 f   txt.obj
 0001:00058d20       ?dumpItemTxt@@YAXXZ        66059d20 f   txt.obj
 0001:00058e90       ?dumpUniqueTxt@@YAXXZ      66059e90 f   txt.obj
 0001:000590a0       ?dumpSetTxt@@YAXXZ         6605a0a0 f   txt.obj
 0001:00059760       ?setStash@@YAXHH@Z         6605a760 f   panel.obj
 0001:000598c0       ?setCube@@YAXH@Z           6605a8c0 f   panel.obj
 0001:00059a40       ?setCharInv@@YAXHH@Z       6605aa40 f   panel.obj
 0001:00059c60       ?loadInvChar8x10@@YAXXZ    6605ac60 f   panel.obj
 0001:00059cc0       ?calDrawOffset@@YAXXZ      6605acc0 f   panel.obj
 0001:00059d50       ?getEquipmentSlotLayout@@YIXPAH0@Z 6605ad50 f   panel.obj
 0001:00059df0       ?getEquipInvDrawOffset@@YAXPAH0PAX@Z 6605adf0 f   panel.obj
 0001:00059ef0       ?getInventoryGridLayout@@YIXPAH0@Z 6605aef0 f   panel.obj
 0001:00059fa0       ?getInventoryPosition@@YIXPAH0@Z 6605afa0 f   panel.obj
 0001:0005a050       ?addSkillPatch@@YIXH@Z     6605b050 f   panel.obj
 0001:0005a0d0       ?recvCommand26@@YIXPAD@Z   6605b0d0 f   panel.obj
 0001:0005a450       ?guessInvType@@YAHHH@Z     6605b450 f   panel.obj
 0001:0005a470       ?guessStashType@@YAHHH@Z   6605b470 f   panel.obj
 0001:0005a490       ?guessCubeType@@YAHHH@Z    6605b490 f   panel.obj
 0001:0005b470       ?SetSkillBaseLevelOnClient@@YAXPAXPAUUnitAny@@HHH@Z 6605c470 f   server.obj
 0001:0005b9e0       ?resetQuest@@YAXPAUWorld@@PAUUnitAny@@H@Z 6605c9e0 f   server.obj
 0001:0005bc40       ?gameStart@@YIXPAUNetClient@@@Z 6605cc40 f   server.obj
 0001:0005bc90       ?createHackmapMsg@@YAXXZ   6605cc90 f   server.obj
 0001:0005bde0       ?serverRecvTest@@YAXPAUWorld@@PAUUnitAny@@H@Z 6605cde0 f   server.obj
 0001:0005bea0       ?necSummon@@YAPAUUnitAny@@PAUNecSummon@@@Z 6605cea0 f   server.obj
 0001:0005c3b0       ?clientChat@@YIXPAD@Z      6605d3b0 f   admin.obj
 0001:0005c910       ?selectUnique@@YIHHH@Z     6605d910 f   admin.obj
 0001:0005c9f0       ?selectSet@@YIHPAHH@Z      6605d9f0 f   admin.obj
 0001:0005dd80       ?dropItem@@YAPAUUnitAny@@PAUWorld@@PAU1@HHHH@Z 6605ed80 f   admin.obj
 0001:0005df20       ?getFreePos@@YAPAUAreaRectData@@PAU1@PAUtagPOINT@@1H@Z 6605ef20 f   admin.obj
 0001:0005df40       ?dropRuneword@@YAPAUUnitAny@@PAUWorld@@PAU1@HHH@Z 6605ef40 f   admin.obj
 0001:0005e190       ?dropUnique@@YAPAUUnitAny@@PAUWorld@@PAU1@HHH@Z 6605f190 f   admin.obj
 0001:0005e2b0       ?dropSet@@YAPAUUnitAny@@PAUWorld@@PAU1@HHH@Z 6605f2b0 f   admin.obj
 0001:0005e380       ?setItemStats@@YAXPAUUnitAny@@PAUd2stats@@@Z 6605f380 f   admin.obj
 0001:0005e490       ?parseStats@@YAPADPADPAUd2stats@@@Z 6605f490 f   admin.obj
 0001:0005fca0       ?setStat@@YAHPAUd2stats@@HHH@Z 66060ca0 f   admin.obj
 0001:0005fd30       ?pickupItemTo@@YAXPAUWorld@@PAUUnitAny@@1H@Z 66060d30 f   admin.obj
 0001:00060ced       _flsall                    66061ced f   LIBCMT:fflush.obj
 0001:00061540       _swap                      66062540 f   LIBCMT:qsort.obj
 0001:00061570       _shortsort                 66062570 f   LIBCMT:qsort.obj
 0001:00061fdf       ?strtoxl@@YAKPAUlocaleinfo_struct@@PBDPAPBDHH@Z 66062fdf f   LIBCMT:strtol.obj
 0001:00063233       _IsRootUNCName             66064233 f   LIBCMT:stati32.obj
 0001:000632ad       __fullpath_helper          660642ad f   LIBCMT:stati32.obj
 0001:000644c9       ?_strupr_s_l_stat@@YAHPADIPAUlocaleinfo_struct@@@Z 660654c9 f   LIBCMT:strupr.obj
 0001:000646e1       ?wcstoxl@@YAKPAUlocaleinfo_struct@@PB_WPAPB_WHH@Z 660656e1 f   LIBCMT:wcstol.obj
 0001:00064cce       ___DllMainCRTStartup       66065cce f   LIBCMT:dllcrt0.obj
 0001:00064de7       ?CPtoLCID@@YAHH@Z          66065de7 f   LIBCMT:mbctype.obj
 0001:00064e16       ?setSBCS@@YAXPAUthreadmbcinfostruct@@@Z 66065e16 f   LIBCMT:mbctype.obj
 0001:00064e7a       ?setSBUpLow@@YAXPAUthreadmbcinfostruct@@@Z 66065e7a f   LIBCMT:mbctype.obj
 0001:000650b1       ?getSystemCP@@YAHH@Z       660660b1 f   LIBCMT:mbctype.obj
 0001:0006573b       __updatetlocinfoEx_nolock  6606673b f   LIBCMT:setlocal.obj
 0001:00066d1d       _write_char                66067d1d f   LIBCMT:output.obj
 0001:00066d50       _write_multi_char          66067d50 f   LIBCMT:output.obj
 0001:00066d76       _write_string              66067d76 f   LIBCMT:output.obj
 0001:00067e67       _fastzero_I                66068e67 f   LIBCMT:p4_memset.obj
 0001:00067f4d       _has_osfxsr_set            66068f4d f   LIBCMT:cpu_disp.obj
 0001:00068dda       _fastcopy_I                66069dda f   LIBCMT:p4_memcpy.obj
 0001:00068ffc       ?__crtLCMapStringA_stat@@YAHPAUlocaleinfo_struct@@KKPBDHPADHHH@Z 66069ffc f   LIBCMT:a_map.obj
 0001:00069664       __initterm                 6606a664 f   LIBCMT:crt0dat.obj
 0001:0006972a       _doexit                    6606a72a f   LIBCMT:crt0dat.obj
 0001:00069a36       __shift                    6606aa36 f   LIBCMT:cvt.obj
 0001:00069a7b       __cftoe2_l                 6606aa7b f   LIBCMT:cvt.obj
 0001:0006a04d       __cftof2_l                 6606b04d f   LIBCMT:cvt.obj
 0001:0006a4e8       __unwind_handler4          6606b4e8 f   LIBCMT:exsup4.obj
 0001:0006b3e8       __onexit_nolock            6606c3e8 f   LIBCMT:onexit.obj
 0001:0006cc4a       _parse_cmdline             6606dc4a f   LIBCMT:stdargv.obj
 0001:0006d238       ?__crtGetStringTypeA_stat@@YAHPAUlocaleinfo_struct@@KPBDHPAGHHH@Z 6606e238 f   LIBCMT:a_str.obj
 0001:0006e88c       _siglookup                 6606f88c f   LIBCMT:winsig.obj
 0001:0006ef94       __unwind_handler           6606ff94 f   LIBCMT:exsup.obj
 0001:0006f8ae       __tzset_nolock             660708ae f   LIBCMT:tzset.obj
 0001:0006fbf4       _cvtdate                   66070bf4 f   LIBCMT:tzset.obj
 0001:0006fdeb       __isindst_nolock           66070deb f   LIBCMT:tzset.obj
 0001:00070154       __tsopen_nolock            66071154 f   LIBCMT:open.obj
 0001:00070ea5       ?x_ismbbtype_l@@YAHPAUlocaleinfo_struct@@IHH@Z 66071ea5 f   LIBCMT:ismbbyte.obj
 0001:00072c7d       __hw_cw                    66073c7d f   LIBCMT:_ieee87_.obj
 0001:00072d0b       ___hw_cw_sse2              66073d0b f   LIBCMT:_ieee87_.obj
 0001:00073ed3       ?strncnt@@YAHPBDH@Z        66074ed3 f   LIBCMT:a_cmp.obj
 0001:00073ef1       ?__crtCompareStringA_stat@@YAHPAUlocaleinfo_struct@@KKPBDH1HH@Z 66074ef1 f   LIBCMT:a_cmp.obj
 0001:0007439d       _findenv                   6607539d f   LIBCMT:setenv.obj
 0001:000743ef       _copy_environ              660753ef f   LIBCMT:setenv.obj
 0001:00074774       ??__Fnomem@?5???2@YAPAXI@Z@YAXXZ 66075774 f   LIBCMT:new.obj
