 d2hackmap

 Timestamp is 6832f896 (Sun May 25 19:01:42 2025)

 Preferred load address is 66000000

 Start         Length     Name                   Class
 0001:00000000 00069334H .text                   CODE
 0001:00069334 00000014H .text$yd                CODE
 0002:00000000 00000218H .idata$5                DATA
 0002:00000218 00000004H .CRT$XCA                DATA
 0002:0000021c 00000004H .CRT$XCZ                DATA
 0002:00000220 00000004H .CRT$XIA                DATA
 0002:00000224 00000014H .CRT$XIC                DATA
 0002:00000238 00000004H .CRT$XIZ                DATA
 0002:0000023c 00000004H .CRT$XPA                DATA
 0002:00000240 00000004H .CRT$XPX                DATA
 0002:00000244 00000004H .CRT$XPXA               DATA
 0002:00000248 00000004H .CRT$XPZ                DATA
 0002:0000024c 00000004H .CRT$XTA                DATA
 0002:00000250 00000004H .CRT$XTZ                DATA
 0002:00000260 00016f00H .rdata                  DATA
 0002:00017160 000000dcH .rdata$r                DATA
 0002:00017240 0000000cH .rdata$sxdata           DATA
 0002:0001724c 00000004H .rtc$IAA                DATA
 0002:00017250 00000004H .rtc$IZZ                DATA
 0002:00017254 00000004H .rtc$TAA                DATA
 0002:00017258 00000004H .rtc$TZZ                DATA
 0002:00017260 00000734H .xdata$x                DATA
 0002:00017994 0000003cH .idata$2                DATA
 0002:000179d0 00000014H .idata$3                DATA
 0002:000179e4 00000218H .idata$4                DATA
 0002:00017bfc 0000095eH .idata$6                DATA
 0002:00018560 000000c7H .edata                  DATA
 0003:00000000 0000a2f8H .data                   DATA
 0003:0000a300 002046e4H .bss                    DATA

  Address         Publics by Value              Rva+Base       Lib:Object

 0000:00000000       __except_list              00000000     <absolute>
 0000:00000003       ___safe_se_handler_count   00000003     <absolute>
 0000:00000000       ___ImageBase               66000000     <linker-defined>
 0001:00000000       ?bitstream_init@@YAXPAUbitstream@@PAX1@Z 66001000 f   bitstream.obj
 0001:00000040       ?bitstream_seek@@YAXPAUbitstream@@H@Z 66001040 f   bitstream.obj
 0001:00000080       ?bitstream_rbit@@YAHPAUbitstream@@H@Z 66001080 f   bitstream.obj
 0001:00000170       ?bitstream_wbit@@YAHPAUbitstream@@IH@Z 66001170 f   bitstream.obj
 0001:00000250       ?bitstream_wbit_done@@YAXPAUbitstream@@@Z 66001250 f   bitstream.obj
 0001:000002d0       ?compareConfigVar@@YAHPBX0@Z 660012d0 f   config.obj
 0001:000002f0       ?compareSymbol@@YAHPBX0@Z  660012f0 f   config.obj
 0001:00000310       ?findConfigVar@@YAPAUConfigVar@@PAD@Z 66001310 f   config.obj
 0001:00000400       ?addConfigVar@@YAXPAUConfigVar@@@Z 66001400 f   config.obj
 0001:00000470       ?FixValues@@YAXXZ          66001470 f   config.obj
 0001:000004b0       ?formatKey@@YAXPADH@Z      660014b0 f   config.obj
 0001:00000550       ?formatKeyW@@YAXPA_WH@Z    66001550 f   config.obj
 0001:00000680       ?setupKey@@YAXPAUToggleVar@@@Z 66001680 f   config.obj
 0001:000006d0       ?addExtraKey@@YAPAUToggleVar@@H@Z 660016d0 f   config.obj
 0001:00000730       ?InitKeyEvent@@YAXXZ       66001730 f   config.obj
 0001:00000ae0       ?AddWarningMessage@@YAXPADH@Z 66001ae0 f   config.obj
 0001:00000c20       ?ShowWarningMessage@@YAXXZ 66001c20 f   config.obj
 0001:00000c80       ?isquote@@YADD@Z           66001c80 f   config.obj
 0001:00000cb0       ?filterSpace@@YAXPAD@Z     66001cb0 f   config.obj
 0001:00000d70       ?splitLine@@YAXPADPAPAD1@Z 66001d70 f   config.obj
 0001:00000e40       ?strchr@@YAPADPADH@Z       66001e40 f i config.obj
 0001:00000e60       ?strrchr@@YAPADPADH@Z      66001e60 f i config.obj
 0001:00000e80       ?findSymbol@@YAPAUSymbol@@PAD@Z 66001e80 f   config.obj
 0001:00000f40       ?doneNameValues@@YAXXZ     66001f40 f   config.obj
 0001:00000ff0       ?addNameValue@@YAXPAD0@Z   66001ff0 f   config.obj
 0001:00001080       ?replaceSymbols@@YAPADPAD@Z 66002080 f   config.obj
 0001:00001420       ?ConvertToWString@@YAHPA_WPADH@Z 66002420 f   config.obj
 0001:00001450       ?ConvertToD2String@@YAXPA_WPADH@Z 66002450 f   config.obj
 0001:000015a0       ?StoreArrayConfig@@YAHPAUConfigVar@@HHPAD1HH@Z 660025a0 f   config.obj
 0001:00001ac0       ?StoreConfig@@YAXPAUConfigVar@@PAD1@Z 66002ac0 f   config.obj
 0001:00002f90       ?LoadConfigFile@@YAHPADH@Z 66003f90 f   config.obj
 0001:00003810       ?strstr@@YAPADPADPBD@Z     66004810 f i config.obj
 0001:00004670       ?ReleaseMem@@YAXXZ         66005670 f   DllMain.obj
 0001:00004690       _DllMain@12                66005690 f   DllMain.obj
 0001:00004860       _QueryInterface@0          66005860 f   DllMain.obj
 0001:00004880       _PatchClient               66005880 f   DllMain.obj
 0001:000048d0       _MainMenuFlushFramebuf@0   660058d0 f   DllMain.obj
 0001:000048f0       _PatchServer@4             660058f0 f   DllMain.obj
 0001:00004930       ?guessEnchantLevel@@YAHXZ  66005930 f   guess.obj
 0001:000049e0       ?guessBOLevel@@YAHH@Z      660059e0 f   guess.obj
 0001:00005210       ?Install_AddConfigVars@@YAXXZ 66006210 f   install.obj
 0001:00005250       ?Install_FixValues@@YAXXZ  66006250 f   install.obj
 0001:00005270       ?get_dll_addr@@YAPAUHINSTANCE__@@PAD@Z 66006270 f   install.obj
 0001:00005300       ?VirtualProtect@@YAKKKK@Z  66006300 f   install.obj
 0001:00005330       ?WriteLocalBYTES@@YAXKPAXH@Z 66006330 f   install.obj
 0001:00005380       ?FillLocalBYTES@@YAXKEH@Z  66006380 f   install.obj
 0001:000053e0       ?InterceptLocalCode2@@YAXEKKH@Z 660063e0 f   install.obj
 0001:00005460       ?InterceptLocalCode@@YAXEKKH@Z 66006460 f   install.obj
 0001:00005490       ?patchCall@@YAHPAD0HHHH0@Z 66006490 f   install.obj
 0001:000054e0       ?patchJmp@@YAHPAD0HHHH0@Z  660064e0 f   install.obj
 0001:00005530       ?patchFill@@YAHPAD0HHHH0@Z 66006530 f   install.obj
 0001:00005580       ?patchValue@@YAHPAD0HHHH0@Z 66006580 f   install.obj
 0001:000055d0       ?installPatch@@YAHP6AXHHH@ZPAD1HHHH1@Z 660065d0 f   install.obj
 0001:00005960       ?removePatches@@YAHPAPAUInstalledPatch@@@Z 66006960 f   install.obj
 0001:000059d0       ?init_d2_ptrs@@YAHH@Z      660069d0 f   install.obj
 0001:000092e0       ?init_d2_ptrs2@@YAHXZ      6600a2e0 f   install.obj
 0001:00009350       ?InstallPatchAfterLoad_ASM@@YAXXZ 6600a350 f   install.obj
 0001:00009640       ?setResolutionPatch@@YAXH@Z 6600a640 f   install.obj
 0001:00009690       ?MonitorPacket@@YAXXZ      6600a690 f   install.obj
 0001:0000b8a0       ?check_d2ptrs@@YAXXZ       6600c8a0 f   install.obj
 0001:00013200       ?Install@@YAHXZ            66014200 f   install.obj
 0001:000137b0       ?patchServer@@YAXXZ        660147b0 f   install.obj
 0001:00013810       @SetReloadFlag@8           66014810 f   install.obj
 0001:00013840       @SetBnetIp@4               66014840 f   install.obj
 0001:00013860       ?unpatchServer@@YAXXZ      66014860 f   install.obj
 0001:000138b0       ?Uninstall@@YAXXZ          660148b0 f   install.obj
 0001:00013af0       ?init_crypt_table@@YAXXZ   66014af0 f   mpq.obj
 0001:00013b90       ?mpq_hashstring@@YAIPBDI@Z 66014b90 f   mpq.obj
 0001:00013c10       ?saveMpqTable@@YAXXZ       66014c10 f   mpq.obj
 0001:00013cc0       ?add_mpq_path@@YIHPAD@Z    66014cc0 f   mpq.obj
 0001:00013df0       ?dump_mpq_path@@YIXH@Z     66014df0 f   mpq.obj
 0001:00013f90       ?storm268_patch_ASM@@YAXXZ 66014f90 f   mpq.obj
 0001:00013fc0       ?common_addConfigVars@@YAXXZ 66014fc0 f   common.obj
 0001:00014000       ?UnicodeFix2@@YAXPA_W@Z    66015000 f   common.obj
 0001:00014090       ?MyMultiByteToWideChar@@YAHIKPBDHPA_WH@Z 66015090 f   common.obj
 0001:000140d0       ?GB2GBK@@YAXPAD@Z          660150d0 f   common.obj
 0001:00014250       ?readFully@@YAHPAU_iobuf@@PADH@Z 66015250 f   common.obj
 0001:000142b0       ?getFileSize@@YAHPBD@Z     660152b0 f   common.obj
 0001:000142e0       ?fileExist@@YAHPBD@Z       660152e0 f   common.obj
 0001:00014300       ?openFile@@YAPAU_iobuf@@PAD0@Z 66015300 f   common.obj
 0001:00014410       ?heap_strdup@@YAPADPAXPAD@Z 66015410 f   common.obj
 0001:00014490       ?loadFile@@YAPADPAXPAU_iobuf@@PAH@Z 66015490 f   common.obj
 0001:000145e0       ?gameMessage@@YAXPADZZ     660155e0 f   common.obj
 0001:000147a0       ?partyMessage@@YAXPADZZ    660157a0 f   common.obj
 0001:00014860       ?gameMessageW@@YAXPA_WZZ   66015860 f   common.obj
 0001:000148b0       ?partyMessageW@@YAXPA_WZZ  660158b0 f   common.obj
 0001:00014900       ?partyMessageWcolor@@YAXHPA_WZZ 66015900 f   common.obj
 0001:00014960       ?get_cpu_usage@@YAHPAH0@Z  66015960 f   common.obj
 0001:00014a40       ?getSkillClass@@YAHH@Z     66015a40 f   common.obj
 0001:00014a90       ?getSkillType@@YAHHH@Z     66015a90 f   common.obj
 0001:00014ae0       ?getSkillLevel@@YAHPAUUnitAny@@H@Z 66015ae0 f   common.obj
 0001:00014c40       ?getUnitRawDistance2@@YAHPAUUnitAny@@0@Z 66015c40 f   common.obj
 0001:00014d50       ?getUnitYardDistance2@@YAMPAUUnitAny@@0@Z 66015d50 f   common.obj
 0001:00014d90       ?saveDistanceMap@@YAXXZ    66015d90 f   common.obj
 0001:00014df0       ?getDistanceM256@@YAHHH@Z  66015df0 f   common.obj
 0001:00014f20       ?getPlayerDistanceM256@@YAHPAUUnitAny@@@Z 66015f20 f   common.obj
 0001:00014fb0       ?getPlayerDistanceRaw@@YAMPAUUnitAny@@@Z 66015fb0 f   common.obj
 0001:00015050       ?getPlayerDistanceYard@@YAMPAUUnitAny@@@Z 66016050 f   common.obj
 0001:00015080       ?getRosterUnit@@YAPAURosterUnit@@H@Z 66016080 f   common.obj
 0001:000150c0       ?getAreatileByTxt@@YAPAUUnitAny@@H@Z 660160c0 f   common.obj
 0001:00015120       ?getPortalToArea@@YAPAUUnitAny@@HPAD@Z 66016120 f   common.obj
 0001:00015260       ?getAreatileTxtToLevel@@YAHH@Z 66016260 f   common.obj
 0001:000152c0       ?getSinglePlayerWorld@@YAPAUWorld@@XZ 660162c0 f   common.obj
 0001:000152f0       ?encodeItem@@YAHPAUUnitAny@@PADH@Z 660162f0 f   common.obj
 0001:00015330       ?hasSkill@@YAHH@Z          66016330 f   common.obj
 0001:000153b0       ?selectSkill@@YAXHH@Z      660163b0 f   common.obj
 0001:00015400       ?switchLeftSkill@@YAXH@Z   66016400 f   common.obj
 0001:00015420       ?switchRightSkill@@YAXH@Z  66016420 f   common.obj
 0001:00015440       ?getSinglePlayerUnit@@YAPAUUnitAny@@HH@Z 66016440 f   common.obj
 0001:00015510       ?SendPacket@@YAXPAEH@Z     66016510 f   common.obj
 0001:000155a0       ?LeftClickType@@YAHHPAUUnitAny@@HH@Z 660165a0 f   common.obj
 0001:00015680       ?LeftClickPos@@YAHHH@Z     66016680 f   common.obj
 0001:000156a0       ?LeftClickUnit@@YAHPAUUnitAny@@@Z 660166a0 f   common.obj
 0001:000156c0       ?ShiftLeftClickUnit@@YAHPAUUnitAny@@@Z 660166c0 f   common.obj
 0001:00015710       ?ShiftLeftClickPos@@YAHHH@Z 66016710 f   common.obj
 0001:00015760       ?RightSkill@@YAHPAUUnitAny@@HH@Z 66016760 f   common.obj
 0001:000157b0       ?RightSkillPos@@YAHHH@Z    660167b0 f   common.obj
 0001:000157d0       ?RightSkillUnit@@YAHPAUUnitAny@@@Z 660167d0 f   common.obj
 0001:00015800       ?canUseSkillNow@@YAHPAUUnitAny@@H@Z 66016800 f   common.obj
 0001:00015820       ?skillUnusableAsm@@YAHPAUUnitAny@@PAUSkill@@@Z 66016820 f   common.obj
 0001:00015840       ?skillUnusable@@YAHPAUUnitAny@@PAUSkill@@@Z 66016840 f   common.obj
 0001:00015880       ?useBelt@@YAXHH@Z          66016880 f   common.obj
 0001:00015900       ?GameControlStart@@YAHH@Z  66016900 f   common.obj
 0001:00015990       ?GameControlEnd@@YAHH@Z    66016990 f   common.obj
 0001:00015a10       ?GameControl@@YAXH@Z       66016a10 f   common.obj
 0001:00015a30       ?getGameControlKey@@YAHH@Z 66016a30 f   common.obj
 0001:00015a80       ?StandStillPatch_ASM@@YAXXZ 66016a80 f   common.obj
 0001:00015aa0       ?SetBottomAlertMsg1@@YAXPA_WHHH@Z 66016aa0 f   common.obj
 0001:00015b40       ?SetBottomAlertMsg2@@YAXPA_WHHH@Z 66016b40 f   common.obj
 0001:00015be0       ?SetBottomAlertMsg3@@YAXPA_WHHH@Z 66016be0 f   common.obj
 0001:00015c80       ?DrawCenterAlertMsg@@YAXXZ 66016c80 f   common.obj
 0001:00015e90       ?sqrt@@YAMM@Z              66016e90 f i common.obj
 0001:00015eb0       _sqrtf                     66016eb0 f i common.obj
 0001:00015ed0       ?GetAreaLevel@@YAHXZ       66016ed0 f   common.obj
 0001:00015f30       ?GetPetByType@@YAPAUPetUnit@@PAUUnitAny@@H@Z 66016f30 f   common.obj
 0001:00015f80       ?GetUnitFromIdSafe@@YAPAUUnitAny@@KK@Z 66016f80 f   common.obj
 0001:00015ff0       ?GetUnitPet@@YAPAUUnitAny@@PAU1@@Z 66016ff0 f   common.obj
 0001:00016030       ?getPlayerClass@@YAHH@Z    66017030 f   common.obj
 0001:00016070       ?GetUnitMagicStat@@YAKPAUUnitAny@@K@Z 66017070 f   common.obj
 0001:000160c0       ?GetUnitResist@@YAHPAUUnitAny@@K@Z 660170c0 f   common.obj
 0001:00016110       ?CheckUnitSelect@@YAHPAUUnitAny@@@Z 66017110 f   common.obj
 0001:00016240       ?GetItemILvlAfterCube@@YAHHHH@Z 66017240 f   common.obj
 0001:000162f0       ?GetItemAlvl@@YAHHHH@Z     660172f0 f   common.obj
 0001:00016370       ?GetTextWidth@@YAKPA_W@Z   66017370 f   common.obj
 0001:00016390       ?DrawD2Text@@YAXKPA_WHHKK@Z 66017390 f   common.obj
 0001:000163d0       ?DrawCenterText@@YAXKPA_WHHKHK@Z 660173d0 f   common.obj
 0001:00016420       ?drawBgText@@YAHPA_WHHHH@Z 66017420 f   common.obj
 0001:000164a0       ?drawBgTextMiddle@@YAHPA_WHHHH@Z 660174a0 f   common.obj
 0001:00016510       ?drawBgTextLeft@@YAHPA_WHHHH@Z 66017510 f   common.obj
 0001:00016570       ?ExitGame@@YAXXZ           66017570 f   common.obj
 0001:000165a0       ?GetGameLanguage@@YAHXZ    660175a0 f   common.obj
 0001:00016660       ?getFcrFrame@@YAHHPAUUnitAny@@@Z 66017660 f   common.obj
 0001:00016920       ?IsFullWindow@@YAHXZ       66017920 f   common.obj
 0001:000169e0       ?getUnitOwnerId@@YAHPAUUnitAny@@@Z 660179e0 f   common.obj
 0001:00016bb0       ?testPvpFlag@@YAHH@Z       66017bb0 f   common.obj
 0001:00016dc0       ?sameParty@@YAHH@Z         66017dc0 f   common.obj
 0001:00016de0       ?isInRect@@YA_NPAUAreaRectData@@HH@Z 66017de0 f   common.obj
 0001:00016e50       ?testPosition@@YAPAUAreaRectData@@PAU1@HH@Z 66017e50 f   common.obj
 0001:00016e80       ?portalToLevel@@YAHPAUWorld@@PAUUnitAny@@H@Z 66017e80 f   common.obj
 0001:00017030       ?hasPortalInRect@@YAHPAUAreaRectData@@H@Z 66018030 f   common.obj
 0001:000170a0       ?hasPortalNearby@@YAHPAUAreaRectData@@H@Z 660180a0 f   common.obj
 0001:00017110       ?hasPortalInLevel@@YAHPAUDrlgLevel@@H@Z 66018110 f   common.obj
 0001:00017170       ?unitHasItem@@YAHPAUUnitAny@@H@Z 66018170 f   common.obj
 0001:000171e0       ?sendPacketToClient@@YAXPAUNetClient@@PADH@Z 660181e0 f   common.obj
 0001:00017200       ?sendChatMessageToServer@@YAXPADZZ 66018200 f   common.obj
 0001:000172c0       ?sendMessageToClient@@YAXPAUNetClient@@HHPAD1@Z 660182c0 f   common.obj
 0001:00017460       ?getCharStatsTxt@@YAPAUCharStatsTxt@@H@Z 66018460 f   common.obj
 0001:00017470       ?getStatMaxValue@@YAHH@Z   66018470 f   common.obj
 0001:000174d0       ?cpLocaleName@@YAHPA_W0H@Z 660184d0 f   common.obj
 0001:00017570       ?acpLocaleName@@YAHPADPA_WH@Z 66018570 f   common.obj
 0001:00017620       ?d2client_SetAutomapParty@@YIXK@Z 66018620 f   d2callstub.obj
 0001:00017630       ?d2client_SetAutomapNames@@YIXK@Z 66018630 f   d2callstub.obj
 0001:00017640       ?d2client_ChatInput@@YIKPAUD2MSG@@@Z 66018640 f   d2callstub.obj
 0001:00017650       ?d2client_CheckUiStatus@@YIHH@Z 66018650 f   d2callstub.obj
 0001:00017660       ?d2client_InitAutomapLayer@@YIPAUAutomapLayer@@H@Z 66018660 f   d2callstub.obj
 0001:00017670       ?d2common_GetUniqueItemTxt@@YIPAUUniqueItemTxt@@H@Z 66018670 f   d2callstub.obj
 0001:000176a0       ?d2common_GetItemStatCostTxt@@YIPAUItemStatCostTxt@@H@Z 660186a0 f   d2callstub.obj
 0001:000176d0       ?d2common_GetPropertiesTxt@@YIPAUPropertiesTxt@@H@Z 660186d0 f   d2callstub.obj
 0001:00017700       ?d2common_GetSetItemTxt@@YIPAUSetItemTxt@@H@Z 66018700 f   d2callstub.obj
 0001:00017730       ?d2common_GetItemTypeTxt@@YIPAUItemTypeTxt@@H@Z 66018730 f   d2callstub.obj
 0001:00017760       ?d2common_GetRuneWordTxt@@YIPAURuneWordTxt@@H@Z 66018760 f   d2callstub.obj
 0001:00017790       ?d2common_GetRuneWordTxtIndex@@YIHH@Z 66018790 f   d2callstub.obj
 0001:000177d0       ?d2client_LoadUiImage@@YIPAUCellFile@@PAD@Z 660187d0 f   d2callstub.obj
 0001:000177e0       ?SaveGame@@YAHXZ           660187e0 f   dbg.obj
 0001:00017830       ?DoTest@@YAHXZ             66018830 f   dbg.obj
 0001:00017850       ?installAlwaysDebugPatches@@YAHXZ 66018850 f   dbg.obj
 0001:00017860       ?installDebugPatches@@YAHXZ 66018860 f   dbg.obj
 0001:00017a50       ?loop_addConfigVars@@YAXXZ 66018a50 f   loop.obj
 0001:00017a90       ?ToggleIMEInput@@YAXH@Z    66018a90 f   loop.obj
 0001:00017ae0       ?GameLoopPatch@@YAXXZ      66018ae0 f   loop.obj
 0001:000186a0       ?GameEndPatch@@YAXXZ       660196a0 f   loop.obj
 0001:000188a0       ?GameLoopPatch_ASM@@YAXXZ  660198a0 f   loop.obj
 0001:000188b0       ?GameEndPatch_ASM@@YAXXZ   660198b0 f   loop.obj
 0001:000188c0       ?automap_addConfigVars@@YAXXZ 660198c0 f   map.obj
 0001:00018900       ?automap_initConfigVars@@YAXXZ 66019900 f   map.obj
 0001:00018c10       ?automap_initKeyEvent@@YAXXZ 66019c10 f   map.obj
 0001:00018c90       ?draw2map@@YAXPAUtagPOINT@@HH@Z 66019c90 f   map.obj
 0001:00018d00       ?tile2map@@YAXPAUtagPOINT@@HH@Z 66019d00 f   map.obj
 0001:00018d50       ?addMapTarget@@YAXHHHPA_W0@Z 66019d50 f   map.obj
 0001:00018e30       ?automap_fixValues@@YAXXZ  66019e30 f   map.obj
 0001:00018e90       ?AutoMapNewGame@@YAXXZ     66019e90 f   map.obj
 0001:00018f90       ?PrevMapTarget@@YAHXZ      66019f90 f   map.obj
 0001:000191d0       ?NextMapTarget@@YAHXZ      6601a1d0 f   map.obj
 0001:00019270       ?incMapTargetIf@@YAXH@Z    6601a270 f   map.obj
 0001:000192a0       ?AutoMapNewLevel@@YAXXZ    6601a2a0 f   map.obj
 0001:00019480       ?addMinimapTarget@@YAXPAUAreaRectInfo@@HHHHHH@Z 6601a480 f   map.obj
 0001:00019580       ?bitmap2dc6@@YAPAUCellFile@@PAEHH@Z 6601a580 f   map.obj
 0001:000197b0       ?InitCellFiles@@YAXXZ      6601a7b0 f   map.obj
 0001:00019ab0       ?DeleteCellFiles@@YAXXZ    6601aab0 f   map.obj
 0001:00019bc0       ?InitAutomapLayer@@YAXH@Z  6601abc0 f   map.obj
 0001:00019be0       ?mapReveal@@YAXPAUAreaRectInfo@@@Z 6601abe0 f   map.obj
 0001:00019c30       ?mapHide@@YAXPAUAreaRectInfo@@@Z 6601ac30 f   map.obj
 0001:00019c80       ?addSecretCowLevelCorners@@YAXPAUDrlgLevel@@@Z 6601ac80 f   map.obj
 0001:00019e30       ?RevealAutomapLevel@@YAXPAUDrlgLevel@@H@Z 6601ae30 f   map.obj
 0001:0001a940       ?RevealLevelPlayerIn@@YAHXZ 6601b940 f   map.obj
 0001:0001a980       ?RevealCurAct@@YAHXZ       6601b980 f   map.obj
 0001:0001ab30       ?RemoveMyAutomapNodes@@YAXXZ 6601bb30 f   map.obj
 0001:0001ac00       ?DrawAutomapNodePatch@@YGXPAUCellContext@@HHPAUtagRECT@@H@Z 6601bc00 f   map.obj
 0001:0001af80       ?AddShrinePatch_ASM@@YAXXZ 6601bf80 f   map.obj
 0001:0001afb0       ?OverrideShrinePatch@@YIXPAUAutomapNode@@0@Z 6601bfb0 f   map.obj
 0001:0001b010       ?OverrideShrinePatch_ASM@@YAXXZ 6601c010 f   map.obj
 0001:0001b030       ?DrawAutomapNode@@YAXPAUCellFile@@HHD@Z 6601c030 f   map.obj
 0001:0001b1b0       ?DrawAutomapBlob@@YIXHHHPAUUnitAny@@@Z 6601c1b0 f   map.obj
 0001:0001b330       ?ForceDrawBlob_ASM@@YAXXZ  6601c330 f   map.obj
 0001:0001b340       ?DrawBlobPath_ASM@@YAXXZ   6601c340 f   map.obj
 0001:0001b350       ?DrawPartyPlayerBlobPatch_ASM@@YAXXZ 6601c350 f   map.obj
 0001:0001b360       ?HostilePlayerPatch@@YIEPAUUnitAny@@@Z 6601c360 f   map.obj
 0001:0001b3a0       ?HostilePlayerColor_ASM@@YAXXZ 6601c3a0 f   map.obj
 0001:0001b3b0       ?DrawPlayerTextPatch@@YIEPAUUnitAny@@@Z 6601c3b0 f   map.obj
 0001:0001b410       ?DrawPlayerTextPatch_ASM@@YAXXZ 6601c410 f   map.obj
 0001:0001b430       ?MonsterBlobDesc@@YIXPAUUnitAny@@@Z 6601c430 f   map.obj
 0001:0001b920       ?MonsterBlobDescPatch_ASM@@YAXXZ 6601c920 f   map.obj
 0001:0001b940       ?MonsterBlobCol@@YIEPAUUnitAny@@@Z 6601c940 f   map.obj
 0001:0001ba70       ?CorpseBlobCol@@YIEPAUUnitAny@@@Z 6601ca70 f   map.obj
 0001:0001bb20       ?ObjectBlobCol@@YIEPAUUnitAny@@@Z 6601cb20 f   map.obj
 0001:0001bce0       ?MissileBlobCol@@YIEPAUUnitAny@@@Z 6601cce0 f   map.obj
 0001:0001bde0       ?MixedBlobColPatch@@YIEPAUUnitAny@@@Z 6601cde0 f   map.obj
 0001:0001be90       ?MixedBlobColPatch_ASM@@YAXXZ 6601ce90 f   map.obj
 0001:0001beb0       ?AddRectToMinimap@@YAHPAUAreaRectInfo@@H@Z 6601ceb0 f   map.obj
 0001:0001cb00       ?drawActiveRectAreaOnMinimap@@YAXXZ 6601db00 f   map.obj
 0001:0001cc60       ?drawScreenAreaOnMinimap@@YAXXZ 6601dc60 f   map.obj
 0001:0001cd80       ?MinimapPatch@@YAXXZ       6601dd80 f   map.obj
 0001:0001d060       ?MinimapPatch_ASM@@YAXXZ   6601e060 f   map.obj
 0001:0001d070       ?InitScrollLock@@YAXH@Z    6601e070 f   map.obj
 0001:0001d0a0       ?SetScrollMapPos@@YAXHH@Z  6601e0a0 f   map.obj
 0001:0001d100       ?MiniMapScroll@@YAHH@Z     6601e100 f   map.obj
 0001:0001d130       ?CenterMap@@YAHXZ          6601e130 f   map.obj
 0001:0001d150       ?ShakeScreenPatch@@YGXPAH0@Z 6601e150 f   map.obj
 0001:0001d1f0       ?ScrollScreenEnd@@YAHH@Z   6601e1f0 f   map.obj
 0001:0001d230       ?ScrollScreenStart@@YAHH@Z 6601e230 f   map.obj
 0001:0001d300       ?DrawScrollOffset@@YAXPA_WH@Z 6601e300 f   map.obj
 0001:0001d350       ?recvObjectState@@YIXPAD@Z 6601e350 f   map.obj
 0001:0001d3e0       ?RecvPacket0EPatch_ASM@@YAXXZ 6601e3e0 f   map.obj
 0001:0001d3f0       ?packet_addConfigVars@@YAXXZ 6601e3f0 f   packet.obj
 0001:0001d430       ?packet_initConfigVars@@YAXXZ 6601e430 f   packet.obj
 0001:0001d460       ?packet_FixValues@@YAXXZ   6601e460 f   packet.obj
 0001:0001d4a0       ?ResetPacketHandlerTimer@@YAXXZ 6601e4a0 f   packet.obj
 0001:0001d4b0       ?PacketNewGame@@YAXXZ      6601e4b0 f   packet.obj
 0001:0001d4c0       ?FixSocketTimeOut_ASM@@YAXXZ 6601e4c0 f   packet.obj
 0001:0001d4d0       ?FixSocketErrRet_ASM@@YAXXZ 6601e4d0 f   packet.obj
 0001:0001d4f0       ?dump9c@@YAXPAEH@Z         6601e4f0 f   packet.obj
 0001:0001d650       ?GamePacketReceivedInterceptPatch_ASM@@YAXXZ 6601e650 f   packet.obj
 0001:0001d680       ?dumpRecvPacket@@YIXPAEH@Z 6601e680 f   packet.obj
 0001:0001e230       ?GamePacketSendInterceptPatch_ASM@@YAXXZ 6601f230 f   packet.obj
 0001:0001e290       ?dumpSendPacket@@YIXPAH@Z  6601f290 f   packet.obj
 0001:0001e940       ?showResetProtectMsg@@YAXXZ 6601f940 f   packet.obj
 0001:0001e9b0       ?activeBufferItem@@YAHHHH@Z 6601f9b0 f   packet.obj
 0001:0001ea20       ?ResetSkillPatch_ASM@@YAXXZ 6601fa20 f   packet.obj
 0001:0001ea40       ?packetDebug@@YAXXZ        6601fa40 f   packet.obj
 0001:0001ea50       ?blockSendPacket@@YIHPAH@Z 6601fa50 f   packet.obj
 0001:0001f0e0       ?initSendPacketCheckTable@@YAXXZ 660200e0 f   packet.obj
 0001:0001f170       ?autoroute_addConfigVars@@YAXXZ 66020170 f   route.obj
 0001:0001f1b0       ?autoroute_fixValues@@YAXXZ 660201b0 f   route.obj
 0001:0001f1d0       ?AutoRouteNewGame@@YAXXZ   660201d0 f   route.obj
 0001:0001f200       ?AutoRouteLocateSource@@YAHH@Z 66020200 f   route.obj
 0001:0001f3a0       ?minimapDebug@@YAXXZ       660203a0 f   route.obj
 0001:0001f4f0       ?AutoRouteDrawScreenPath@@YAXXZ 660204f0 f   route.obj
 0001:0001f7b0       ?AutoRouteDrawMinimapPath@@YAXXZ 660207b0 f   route.obj
 0001:0001fe50       ?markNextPathInvalid@@YAXH@Z 66020e50 f   route.obj
 0001:0001fec0       ?AutoTeleportGetTarget@@YAHPAUtagPOINT@@PAH11@Z 66020ec0 f   route.obj
 0001:00020020       ?RerouteRectPath@@YAHXZ    66021020 f   route.obj
 0001:00020b80       ?AutoMapRoute@@YAXXZ       66021b80 f   route.obj
 0001:00020c70       ?waypoint_initConfigVars@@YAXXZ 66021c70 f   waypoint.obj
 0001:00020cf0       ?waypointExist@@YAHH@Z     66021cf0 f   waypoint.obj
 0001:00020d30       ?hasWaypoint@@YAHH@Z       66021d30 f   waypoint.obj
 0001:00020d90       ?WaypointNewGame@@YAXXZ    66021d90 f   waypoint.obj
 0001:00020db0       ?isWaypointTxt@@YAHH@Z     66021db0 f   waypoint.obj
 0001:00020f70       ?findWaypoint@@YAPAUUnitAny@@H@Z 66021f70 f   waypoint.obj
 0001:000211b0       ?takeWaypointToLevel@@YAXPAUUnitAny@@H@Z 660221b0 f   waypoint.obj
 0001:00021200       ?takeWaypointToLvl@@YAHHH@Z 66022200 f   waypoint.obj
 0001:00021240       ?RecvCommand_63_Patch_ASM@@YAXXZ 66022240 f   waypoint.obj
 0001:00021330       ?winmsg_addConfigVars@@YAXXZ 66022330 f   winmsg.obj
 0001:00021370       ?winmsg_initConfigVars@@YAXXZ 66022370 f   winmsg.obj
 0001:00021480       ?WinMessageFixValues@@YAXXZ 66022480 f   winmsg.obj
 0001:00021510       ?WinMessage_initKeyEvent@@YAXXZ 66022510 f   winmsg.obj
 0001:00021950       ?IsKeyDown@@YAHH@Z         66022950 f   winmsg.obj
 0001:00021970       ?LockMouse@@YAHXZ          66022970 f   winmsg.obj
 0001:00021b30       ?switchSkillStart@@YAHH@Z  66022b30 f   winmsg.obj
 0001:00021cb0       ?switchSkillEnd@@YAHH@Z    66022cb0 f   winmsg.obj
 0001:00021e30       ?GameSound@@YAHH@Z         66022e30 f   winmsg.obj
 0001:00021e70       ?FullScreen@@YAHXZ         66022e70 f   winmsg.obj
 0001:00021f60       ?AttractNPC@@YAHXZ         66022f60 f   winmsg.obj
 0001:00022000       ?SwitchWindow@@YAHH@Z      66023000 f   winmsg.obj
 0001:00022060       ?WinMessageNewGame@@YAXXZ  66023060 f   winmsg.obj
 0001:000222a0       ?WinMessageEndGame@@YAXXZ  660232a0 f   winmsg.obj
 0001:000222d0       ?refreshScreenSaver@@YAXXZ 660232d0 f   winmsg.obj
 0001:00022310       ?refreshMenuScreenSaver@@YAXXZ 66023310 f   winmsg.obj
 0001:00022350       ?winActiveMsg@@YAXH@Z      66023350 f   winmsg.obj
 0001:00022480       ?hasCTA@@YAHXZ             66023480 f   winmsg.obj
 0001:00022520       ?WinMessageRunLoop@@YAXXZ  66023520 f   winmsg.obj
 0001:000227f0       ?WinMessage@@YAHHHPAUHWND__@@HHH@Z 660237f0 f   winmsg.obj
 0001:00023650       ?WinMessagePatch_ASM@@YAXXZ 66024650 f   winmsg.obj
 0001:00023660       ?KeydownPatch_ASM@@YAXXZ   66024660 f   winmsg.obj
 0001:00023680       ?KeyupPatch_ASM@@YAXXZ     66024680 f   winmsg.obj
 0001:000236a0       ?ReceiveSwapWeapon_ASM@@YAXXZ 660246a0 f   winmsg.obj
 0001:000236e0       ?ShowVersion_Patch_ASM@@YAXXZ 660246e0 f   winmsg.obj
 0001:00023780       ?SetCursorPosPatch_ASM@@YAXXZ 66024780 f   winmsg.obj
 0001:000237a0       ?DrawLeftBackImagePatch_ASM@@YAXXZ 660247a0 f   winmsg.obj
 0001:000237c0       ?DrawRightBackImagePatch_ASM@@YAXXZ 660247c0 f   winmsg.obj
 0001:000237e0       ?DrawGroundAndUnitPatch_ASM@@YAXXZ 660247e0 f   winmsg.obj
 0001:00023840       ?DrawControlsPatch_ASM@@YAXXZ 66024840 f   winmsg.obj
 0001:00023930       ?SkipDrawUnitAndControlPatch_ASM@@YAXXZ 66024930 f   winmsg.obj
 0001:000239b0       ?SkipAllDrawingPatch_ASM@@YAXXZ 660249b0 f   winmsg.obj
 0001:00023a50       ?SkipDrawMenuPatch2_ASM@@YAXXZ 66024a50 f   winmsg.obj
 0001:00023ad0       ?SkipDrawMenuPatch_ASM@@YAXXZ 66024ad0 f   winmsg.obj
 0001:00023b90       ?NoHidePatch_ASM@@YAXXZ    66024b90 f   winmsg.obj
 0001:00023bc0       ?env_addConfigVars@@YAXXZ  66024bc0 f   env.obj
 0001:00023c00       ?env_initConfigVars@@YAXXZ 66024c00 f   env.obj
 0001:00023c50       ?ChangeVisualEffect@@YAHXZ 66024c50 f   env.obj
 0001:00023cd0       ?WeatherPatch_ASM@@YAXXZ   66024cd0 f   env.obj
 0001:00023ce0       ?LightingPatch_ASM@@YAXXZ  66024ce0 f   env.obj
 0001:00023d20       ?InfravisionPatch@@YIKPAUUnitAny@@@Z 66024d20 f   env.obj
 0001:00024190       ?InfravisionPatch_ASM@@YAXXZ 66025190 f   env.obj
 0001:000241b0       ?drawMyGround@@YAXXZ       660251b0 f   env.obj
 0001:00024350       ?SkipDrawGroundPatch_ASM@@YAXXZ 66025350 f   env.obj
 0001:00024370       ?gamemonitor_addConfigVars@@YAXXZ 66025370 f   GameMonitor.obj
 0001:000243b0       ?gamemonitor_initConfigVars@@YAXXZ 660253b0 f   GameMonitor.obj
 0001:000243f0       ?usePotion@@YAXH@Z         660253f0 f   GameMonitor.obj
 0001:000244d0       ?updateCurStashPage@@YAXXZ 660254d0 f   GameMonitor.obj
 0001:00024690       ?recheckSelfItems@@YAXXZ   66025690 f   GameMonitor.obj
 0001:00024db0       ?setKDCountDown@@YAXH@Z    66025db0 f   GameMonitor.obj
 0001:00024dd0       ?setKBCountDown@@YAXHH@Z   66025dd0 f   GameMonitor.obj
 0001:00024e00       ?setCountDownEndTime@@YAXPAUCountDown@@@Z 66025e00 f   GameMonitor.obj
 0001:00024ee0       ?setupCountdown@@YAXPAUCountDown@@@Z 66025ee0 f   GameMonitor.obj
 0001:00024f30       ?onRightSkillMap@@YAXHH@Z  66025f30 f   GameMonitor.obj
 0001:000250e0       ?onRightSkillUnit@@YAXHH@Z 660260e0 f   GameMonitor.obj
 0001:00025240       ?GameMonitorNewGame@@YAXXZ 66026240 f   GameMonitor.obj
 0001:000252f0       ?GameMonitorEndGame@@YAXXZ 660262f0 f   GameMonitor.obj
 0001:00025310       ?ShowGameCount@@YAXXZ      66026310 f   GameMonitor.obj
 0001:000255a0       ?SetKills@@YIXK@Z          660265a0 f   GameMonitor.obj
 0001:000255f0       ?KillCountPatch_ASM@@YAXXZ 660265f0 f   GameMonitor.obj
 0001:00025610       ?UnitModeChangePatch_ASM@@YAXXZ 66026610 f   GameMonitor.obj
 0001:00025650       ?drawSimpleItemStackInfo@@YAXPAUUnitAny@@HH@Z 66026650 f   GameMonitor.obj
 0001:000258a0       ?DrawMonitorInfo@@YAXXZ    660268a0 f   GameMonitor.obj
 0001:00026e60       ?SetState@@YGXKH@Z         66027e60 f   GameMonitor.obj
 0001:00027190       ?RecvCommand_A7_Patch_ASM@@YAXXZ 66028190 f   GameMonitor.obj
 0001:00027310       ?RecvCommand_A8_Patch_ASM@@YAXXZ 66028310 f   GameMonitor.obj
 0001:00027360       ?RecvCommand_A9_Patch_ASM@@YAXXZ 66028360 f   GameMonitor.obj
 0001:000273b0       ?itemAction@@YAXPAUbitstream@@PAD@Z 660283b0 f   GameMonitor.obj
 0001:00027520       ?changeStashPage@@YAXH@Z   66028520 f   GameMonitor.obj
 0001:00027630       ?itemAction9C@@YIXPAD@Z    66028630 f   GameMonitor.obj
 0001:000276b0       ?itemAction9D@@YIXPAD@Z    660286b0 f   GameMonitor.obj
 0001:00027730       ?updateItemSkill@@YIXPAD@Z 66028730 f   GameMonitor.obj
 0001:000277c0       ?RecvCommand_9C_Patch_ASM@@YAXXZ 660287c0 f   GameMonitor.obj
 0001:000277d0       ?RecvCommand_9D_Patch_ASM@@YAXXZ 660287d0 f   GameMonitor.obj
 0001:000277e0       ?RecvCommand_22_Patch_ASM@@YAXXZ 660287e0 f   GameMonitor.obj
 0001:000277f0       ?drawUnitsInfo@@YAXXZ      660287f0 f   GameMonitor.obj
 0001:000281f0       ?info_AddConfigVars@@YAXXZ 660291f0 f   info.obj
 0001:00028230       ?infoNewGame@@YAXXZ        66029230 f   info.obj
 0001:00028250       ?wsprintfW2@@YAPA_WPA_WPADZZ 66029250 f   info.obj
 0001:000282b0       ?DrawGameInfoPatch@@YIXH@Z 660292b0 f   info.obj
 0001:00028570       ?DrawPetHeadPatch@@YIXHPAUUnitAny@@@Z 66029570 f   info.obj
 0001:000285f0       ?DrawPetHeadPatch_ASM@@YAXXZ 660295f0 f   info.obj
 0001:00028600       ?getGameWinId@@YAHH@Z      66029600 f   info.obj
 0001:00028660       ?DrawPartyHeadPatch@@YIXHPAURosterUnit@@@Z 66029660 f   info.obj
 0001:00028b60       ?StartDrawPartyHeadPatch_ASM@@YAXXZ 66029b60 f   info.obj
 0001:00028b80       ?DrawPartyHeadPatch_ASM@@YAXXZ 66029b80 f   info.obj
 0001:00028ba0       ?DrawSkeletonHeadPatch@@YIXHH@Z 66029ba0 f   info.obj
 0001:00028cc0       ?DrawSkeletonHeadPatch_ASM@@YAXXZ 66029cc0 f   info.obj
 0001:00028cd0       ?UpdateExp@@YAXXZ          66029cd0 f   info.obj
 0001:00028ef0       ?InitExp@@YAXXZ            66029ef0 f   info.obj
 0001:00028f20       ?UpdateExp_ASM@@YAXXZ      66029f20 f   info.obj
 0001:00028f60       ?info_FixValues@@YAXXZ     66029f60 f   info.obj
 0001:00029040       ?DrawClientPatch@@YAXXZ    6602a040 f   info.obj
 0001:000291c0       ?DrawClientPatch_ASM@@YAXXZ 6602a1c0 f   info.obj
 0001:000291e0       ?ShowLifeWithMyPattern@@YGKKHH@Z 6602a1e0 f   info.obj
 0001:00029260       ?ShowManaWithMyPattern@@YGKKHH@Z 6602a260 f   info.obj
 0001:000292e0       ?ShowLifePatch_ASM@@YAXXZ  6602a2e0 f   info.obj
 0001:00029300       ?ShowManaPatch_ASM@@YAXXZ  6602a300 f   info.obj
 0001:00029320       ?SetLifeManaShow@@YAHXZ    6602a320 f   info.obj
 0001:00029360       ?GetViewEquUnit@@YAPAUUnitAny@@XZ 6602a360 f   info.obj
 0001:00029390       ?GetViewStatUnit@@YAPAUUnitAny@@XZ 6602a390 f   info.obj
 0001:000293c0       ?SetViewUnit@@YAXXZ        6602a3c0 f   info.obj
 0001:000294b0       ?ViewUnit@@YAHH@Z          6602a4b0 f   info.obj
 0001:00029550       ?GetViewingStatsPlayerPatch1_ASM@@YAXXZ 6602a550 f   info.obj
 0001:00029560       ?GetViewingStatsPlayerPatch2_ASM@@YAXXZ 6602a560 f   info.obj
 0001:00029570       ?GetUnitDrawEquipItemPatch_ASM@@YAXXZ 6602a570 f   info.obj
 0001:00029580       ?GetUnitDrawItemDescPath_ASM@@YAXXZ 6602a580 f   info.obj
 0001:00029590       ?GetUnitTestHasItem_ASM@@YAXXZ 6602a590 f   info.obj
 0001:000295b0       ?GetUnitText@@YIPA_WPA_WPAUUnitAny@@@Z 6602a5b0 f   info.obj
 0001:00029650       ?ViewDrawInvItemPatch@@YAPAUUnitAny@@XZ 6602a650 f   info.obj
 0001:000296d0       ?GetUnitDrawInvItemPatch_ASM@@YAXXZ 6602a6d0 f   info.obj
 0001:000296e0       ?GetUnitProtectClickEquipPatch_ASM@@YAXXZ 6602a6e0 f   info.obj
 0001:00029720       ?GetUnitProtectClickInvPatch_ASM@@YAXXZ 6602a720 f   info.obj
 0001:00029750       ?DrawDefaultFontText@@YAXPA_WHHKHK@Z 6602a750 f   info.obj
 0001:00029780       ?SwitchStatPage@@YAHH@Z    6602a780 f   info.obj
 0001:000297d0       ?DrawUnitStat@@YAXHHHHPAD00KHH@Z 6602a7d0 f   info.obj
 0001:000298b0       ?ViewUnitStatPatch@@YIXPAUUnitAny@@@Z 6602a8b0 f   info.obj
 0001:00029cb0       ?ViewUnitStatPatch_ASM@@YAXXZ 6602acb0 f   info.obj
 0001:00029cd0       ?ViewPetStatPatch@@YIXPAUUnitAny@@@Z 6602acd0 f   info.obj
 0001:00029f40       ?ViewPetStatPatch_ASM@@YAXXZ 6602af40 f   info.obj
 0001:00029f60       ?messagelog_AddConfigVars@@YAXXZ 6602af60 f   MessageLog.obj
 0001:00029fa0       ?OpenFileNew@@YAPAXPAD@Z   6602afa0 f   MessageLog.obj
 0001:00029fd0       ?OpenFileWrite@@YAPAXPAD@Z 6602afd0 f   MessageLog.obj
 0001:0002a000       ?WriteFile@@YAKPAX0K@Z     6602b000 f   MessageLog.obj
 0001:0002a030       ?LogMessage@@YIXPA_W@Z     6602b030 f   MessageLog.obj
 0001:0002a4d0       ?MessageLogPatch1_ASM@@YAXXZ 6602b4d0 f   MessageLog.obj
 0001:0002a4f0       ?MessageLogPatch2_ASM@@YAXXZ 6602b4f0 f   MessageLog.obj
 0001:0002a510       ?MessageLogExitGame@@YAXXZ 6602b510 f   MessageLog.obj
 0001:0002a800       ?item_addConfigVars@@YAXXZ 6602b800 f   item.obj
 0001:0002a840       ?item_initConfigVars@@YAXXZ 6602b840 f   item.obj
 0001:0002a8d0       ?item_NewGame@@YAXXZ       6602b8d0 f   item.obj
 0001:0002a8f0       ?wcs_insert@@YAPA_WPA_W0@Z 6602b8f0 f   item.obj
 0001:0002a9c0       ?GetItemIndex@@YAHH@Z      6602b9c0 f   item.obj
 0001:0002aa10       ?CheckItemVisible@@YAHPAUUnitAny@@@Z 6602ba10 f   item.obj
 0001:0002ab10       ?GetItemColour@@YAEPAUUnitAny@@H@Z 6602bb10 f   item.obj
 0001:0002adb0       ?SwitchItemMode@@YAHXZ     6602bdb0 f   item.obj
 0001:0002ae60       ?trimspaces@@YAXPA_W@Z     6602be60 f   item.obj
 0001:0002af20       ?ColourD2String@@YIPA_WPA_WK@Z 6602bf20 f   item.obj
 0001:0002afb0       ?ItemHaveLevel@@YAHE@Z     6602bfb0 f   item.obj
 0001:0002b010       ?ItemNamePatch@@YIXPA_WPAUUnitAny@@PAUItemTxt@@@Z 6602c010 f   item.obj
 0001:0002bbe0       ?ItemNamePatch_ASM@@YAXXZ  6602cbe0 f   item.obj
 0001:0002bc00       ?OpenCubeStringPatch@@YIPA_WPA_WK@Z 6602cc00 f   item.obj
 0001:0002bc60       ?OpenCubeStringPatch_ASM@@YAXXZ 6602cc60 f   item.obj
 0001:0002bc70       ?PermShowItemsPatch1@@YAHXZ 6602cc70 f   item.obj
 0001:0002bca0       ?PermShowItemsPatch2@@YAHXZ 6602cca0 f   item.obj
 0001:0002bcf0       ?PermShowItemsPatch3@@YAHXZ 6602ccf0 f   item.obj
 0001:0002bd60       ?PermShowItemsPatch1_ASM@@YAXXZ 6602cd60 f   item.obj
 0001:0002bd70       ?PermShowItemsPatch2_ASM@@YAXXZ 6602cd70 f   item.obj
 0001:0002bd90       ?PermShowItemsPatch3_ASM@@YAXXZ 6602cd90 f   item.obj
 0001:0002bdb0       ?PermShowItemsPatch4_ASM@@YAXXZ 6602cdb0 f   item.obj
 0001:0002bdc0       ?ItemDescPath@@YIXPA_WHHHH@Z 6602cdc0 f   item.obj
 0001:0002bec0       ?SocketViewCallRoutine@@YIXPAUUnitAny@@KP6GX0K@Z@Z 6602cec0 f   item.obj
 0001:0002bed0       ?ItemSocketViewPatch@@YGXP6GXPAUUnitAny@@K@Z0K@Z 6602ced0 f   item.obj
 0001:0002bfa0       ?ItemSocketViewPatch_ASM@@YAXXZ 6602cfa0 f   item.obj
 0001:0002bfb0       ?SocketItemStatViewPatch_ASM@@YAXXZ 6602cfb0 f   item.obj
 0001:0002bfd0       ?GetItemExtStatListPatch@@YGPAUStatList@@PAUUnitAny@@KK@Z 6602cfd0 f   item.obj
 0001:0002c000       ?ItemBasicStatPatch_ASM@@YAXXZ 6602d000 f   item.obj
 0001:0002c030       ?SetPropInfo@@YAXHHHPAUItemProp@@@Z 6602d030 f   item.obj
 0001:0002c4b0       ?GetStatRange@@YAPA_WPA_WKK@Z 6602d4b0 f   item.obj
 0001:0002c8a0       ?GetItemPropStringPatch@@YIKPA_WPAUStatEx@@K@Z 6602d8a0 f   item.obj
 0001:0002c970       ?GetItemPropStringPatch_ASM@@YAXXZ 6602d970 f   item.obj
 0001:0002c990       ?StrcatItemPropStringPatch@@YIXPA_W0K@Z 6602d990 f   item.obj
 0001:0002cab0       ?StrcatItemPropStringPatch_ASM@@YAXXZ 6602dab0 f   item.obj
 0001:0002cac0       ?StrcatSocketStringPatch@@YIPA_WPA_W@Z 6602dac0 f   item.obj
 0001:0002caf0       ?StrcatSocketStringPatch_ASM@@YAXXZ 6602daf0 f   item.obj
 0001:0002cb00       ?StrcatDefenseStringPatch@@YIPA_WPA_W@Z 6602db00 f   item.obj
 0001:0002cda0       ?StrcatDefenseStringPatch_ASM@@YAXXZ 6602dda0 f   item.obj
 0001:0002cdb0       ?StrcatDamageStringPatch@@YIPA_WPA_W@Z 6602ddb0 f   item.obj
 0001:0002cfd0       ?StrcatDamageStringPatch_ASM1@@YAXXZ 6602dfd0 f   item.obj
 0001:0002cfe0       ?StrcatDamageStringPatch_ASM2@@YAXXZ 6602dfe0 f   item.obj
 0001:0002d000       ?ShowSocketProtectInfo@@YAXXZ 6602e000 f   item.obj
 0001:0002d070       ?SocketProtectPatch_ASM@@YAXXZ 6602e070 f   item.obj
 0001:0002d090       ?SocketProtectPatch1_ASM@@YAXXZ 6602e090 f   item.obj
 0001:0002d0d0       ?SocketProtectPatch2_ASM@@YAXXZ 6602e0d0 f   item.obj
 0001:0002d110       ?searchStat@@YAHPAUUnitAny@@HPAH@Z 6602e110 f   item.obj
 0001:0002d1e0       ?drawInvItemInfo@@YAXPAUUnitAny@@HH@Z 6602e1e0 f   item.obj
 0001:0002de60       ?drawInvItemPatch@@YIHPAUDrawCellFileArgs@@PAUUnitAny@@@Z 6602ee60 f   item.obj
 0001:0002dec0       ?DrawInvItemPatch_ASM@@YAXXZ 6602eec0 f   item.obj
 0001:0002dee0       ?activeBufferItem@@YIXHHH@Z 6602eee0 f   item.obj
 0001:0002e000       ?ActiveBufferItemPatch_ASM@@YAXXZ 6602f000 f   item.obj
 0001:0002e020       ?ItemExtInfoNewGame@@YAXXZ 6602f020 f   ItemExtInfo.obj
 0001:0002e030       ?ConvertToColorString@@YAXPAEPADH@Z 6602f030 f   ItemExtInfo.obj
 0001:0002e1d0       ?LoadExtInfo@@YAHXZ        6602f1d0 f   ItemExtInfo.obj
 0001:0002f1d0       ?UnLoadExtInfo@@YAXXZ      660301d0 f   ItemExtInfo.obj
 0001:0002f3b0       ?SetExtInfoPos@@YAXHHHH@Z  660303b0 f   ItemExtInfo.obj
 0001:0002f4a0       ?ShowItemExtInfo@@YAXXZ    660304a0 f   ItemExtInfo.obj
 0001:0002f7c0       ?DrawHoverPatch_ASM@@YAXXZ 660307c0 f   ItemExtInfo.obj
 0001:0002f7d0       ?dangerous_addConfigVars@@YAXXZ 660307d0 f   dangerous.obj
 0001:0002f810       ?dangerous_initConfigVars@@YAXXZ 66030810 f   dangerous.obj
 0001:0002f830       ?ProtectAction@@YAXPA_WHE@Z 66030830 f   dangerous.obj
 0001:0002f9d0       ?ChickenLifeNewGame@@YAXXZ 660309d0 f   dangerous.obj
 0001:0002fcb0       ?ChickenLifeLoop@@YAXXZ    66030cb0 f   dangerous.obj
 0001:000303e0       ?isCowKing@@YAHPAUMonsterData@@@Z 660313e0 f   dangerous.obj
 0001:00030490       ?checkBossMonster@@YAXPAUUnitAny@@@Z 66031490 f   dangerous.obj
 0001:00030550       ?CheckDangerousPlayer@@YAXPAUUnitAny@@@Z 66031550 f   dangerous.obj
 0001:00030600       ?TestMonsterOnScreen@@YAHPAUUnitAny@@0@Z 66031600 f   dangerous.obj
 0001:00030680       ?CheckDangerousMonster@@YAXPAUUnitAny@@@Z 66031680 f   dangerous.obj
 0001:00030770       ?quest_addConfigVars@@YAXXZ 66031770 f   quest.obj
 0001:000307b0       ?ReSetTimer@@YAHXZ         660317b0 f   quest.obj
 0001:000307d0       ?QuestNewAct@@YAXXZ        660317d0 f   quest.obj
 0001:000307e0       ?QuestNewLevel@@YAXXZ      660317e0 f   quest.obj
 0001:00030fa0       ?quest_FixValues@@YAXXZ    66031fa0 f   quest.obj
 0001:00031070       ?QuestNewGame@@YAXXZ       66032070 f   quest.obj
 0001:000311c0       ?QuestRunLoop@@YAXXZ       660321c0 f   quest.obj
 0001:00031520       ?BugKDProtect@@YIXK@Z      66032520 f   quest.obj
 0001:00031780       ?BugKBProtect@@YIXPAE@Z    66032780 f   quest.obj
 0001:00031cd0       ?RecvCommand_89_Patch_ASM@@YAXXZ 66032cd0 f   quest.obj
 0001:00031cf0       ?RecvCommand_5D_Patch_ASM@@YAXXZ 66032cf0 f   quest.obj
 0001:00031d00       ?CheckUnitKM@@YAXXZ        66032d00 f   quest.obj
 0001:00031dd0       ?getMouseQuestId@@YAHHH@Z  66032dd0 f   quest.obj
 0001:00031eb0       ?DrawQuestPagePatch@@YIXHH@Z 66032eb0 f   quest.obj
 0001:00032390       ?DrawQuestPagePatch_ASM@@YAXXZ 66033390 f   quest.obj
 0001:000323a0       ?PacketA4@@YIXPAD@Z        660333a0 f   quest.obj
 0001:00032520       ?Packet4D@@YIXPAD@Z        66033520 f   quest.obj
 0001:00032560       ?RecvCommand_A4_Patch_ASM@@YAXXZ 66033560 f   quest.obj
 0001:00032570       ?RecvCommand_4D_Patch_ASM@@YAXXZ 66033570 f   quest.obj
 0001:00032580       ?UnicodeFix@@YAXPA_WPAK@Z  66033580 f   unicode.obj
 0001:00032770       ?D2Lang_Unicode2WinPatch@@YIPBDPADPA_WH@Z 66033770 f   unicode.obj
 0001:000327b0       ?D2Lang_Win2UnicodePatch@@YIPA_WPA_WPBDH@Z 660337b0 f   unicode.obj
 0001:000327e0       ?EditDeleteSelect@@YAXPAUD2EditBox@@@Z 660337e0 f   unicode.obj
 0001:00032910       ?ChannelEnterCharPatch@@YIKPAUD2EditBox@@E@Z 66033910 f   unicode.obj
 0001:00032c40       ?UnicodeToUTF_8@@YAXPADPA_W@Z 66033c40 f   unicode.obj
 0001:00032cb0       ?MultiByteFix@@YGXPAD@Z    66033cb0 f   unicode.obj
 0001:00032ea0       ?MultiByteFixPatch_ASM@@YAXXZ 66033ea0 f   unicode.obj
 0001:00032eb0       ?IsPritableCharacterPatch_ASM@@YAXXZ 66033eb0 f   unicode.obj
 0001:00032ed0       ?lifebar_addConfigVars@@YAXXZ 66033ed0 f   lifebar.obj
 0001:00032f10       ?lifebar_initConfigVars@@YAXXZ 66033f10 f   lifebar.obj
 0001:00032f30       ?lifebarNewGame@@YAXXZ     66033f30 f   lifebar.obj
 0001:00032f40       ?MonsterNamePatch@@YIJPA_WJPAUUnitAny@@JJ@Z 66033f40 f   lifebar.obj
 0001:00033a50       ?MonsterNamePatch_ASM@@YAXXZ 66034a50 f   lifebar.obj
 0001:00033a70       ?MonsterDescCommaPatch1_ASM@@YAXXZ 66034a70 f   lifebar.obj
 0001:00033a80       ?MonsterDescCommaPatch2_ASM@@YAXXZ 66034a80 f   lifebar.obj
 0001:00033a90       ?MonsterDescCommaPatch3@@YIXPA_WPAUMonsterTxt@@@Z 66034a90 f   lifebar.obj
 0001:00033b20       ?MonsterDescCommaPatch3_ASM@@YAXXZ 66034b20 f   lifebar.obj
 0001:00033b30       ?LifeBarPatch_ASM@@YAXXZ   66034b30 f   lifebar.obj
 0001:00033b50       ?MonsterDeathPatch_ASM@@YAXXZ 66034b50 f   lifebar.obj
 0001:00033b70       ?CalculateHighestTC@@YAXHG@Z 66034b70 f   lifebar.obj
 0001:00033db0       ?InitTCList@@YAXXZ         66034db0 f   lifebar.obj
 0001:00033e30       ?GetTcLevel@@YAPAUMonTC@@GH@Z 66034e30 f   lifebar.obj
 0001:00033ec0       ?GetPlayerHpPercent@@YAHPAUUnitAny@@@Z 66034ec0 f   lifebar.obj
 0001:00033f00       ?PlayerNamePatch@@YIXPA_WPAUUnitAny@@@Z 66034f00 f   lifebar.obj
 0001:00034070       ?PlayerNamePatch_ASM@@YAXXZ 66035070 f   lifebar.obj
 0001:00034090       ?AutoWarCryNewGame@@YAXXZ  66035090 f   bo.obj
 0001:00034100       ?AutoWarCryRunLoop@@YAXXZ  66035100 f   bo.obj
 0001:00034860       ?d2s_init@@YAXPAUd2s_file@@@Z 66035860 f   d2s.obj
 0001:00034ac0       ?d2s_write@@YAHPAUd2s_file@@PADH@Z 66035ac0 f   d2s.obj
 0001:00034be0       ?d2s_checksum@@YAXPADH@Z   66035be0 f   d2s.obj
 0001:00034c60       ?d2s_generate@@YAHPAU_iobuf@@PAUUnitAny@@1PAGPAD1@Z 66035c60 f   d2s.obj
 0001:00035880       ?DropProtection_addConfigVars@@YAXXZ 66036880 f   DropProtection.obj
 0001:000358c0       ?DropProtection_initConfigVars@@YAXXZ 660368c0 f   DropProtection.obj
 0001:00035940       ?DropProtection@@YAHPAUUnitAny@@@Z 66036940 f   DropProtection.obj
 0001:00035d50       ?canHireMerc@@YAHXZ        66036d50 f   DropProtection.obj
 0001:00035eb0       ?DropProtectionPacketBlock@@YAHPAEH@Z 66036eb0 f   DropProtection.obj
 0001:00036010       ?ClickHireMercMenuItemPatch_ASM@@YAXXZ 66037010 f   DropProtection.obj
 0001:00036030       ?unicode2win@@YAXPADPA_WH@Z 66037030 f   DropProtection.obj
 0001:00036090       ?DeleteCharacter_Patch_ASM@@YAXXZ 66037090 f   DropProtection.obj
 0001:00036120       ?DeleteSelectedCharacter_Patch_ASM@@YAXXZ 66037120 f   DropProtection.obj
 0001:000366f0       ?ClickMenuItem_Patch_ASM@@YAXXZ 660376f0 f   DropProtection.obj
 0001:00036810       ?playerHasRune@@YAHH@Z     66037810 f   DropProtection.obj
 0001:00036860       ?isValidRuneword@@YIHPAUUnitAny@@@Z 66037860 f   DropProtection.obj
 0001:00037200       ?AutoEnchantNewGame@@YAXXZ 66038200 f   enchant.obj
 0001:00037260       ?checkUnit@@YAHPAUUnitAny@@@Z 66038260 f   enchant.obj
 0001:00037560       ?AutoEnchantRunLoop@@YAXXZ 66038560 f   enchant.obj
 0001:000378d0       ?AutoEnchantPlayerNeedHelp@@YAXH@Z 660388d0 f   enchant.obj
 0001:00037910       ?check3bb@@YAXXZ           66038910 f   enchant.obj
 0001:00037bd0       ?GamePacketPlaySound@@YIXPAE@Z 66038bd0 f   enchant.obj
 0001:00037c30       ?RecvCommand_2C_Patch_ASM@@YAXXZ 66038c30 f   enchant.obj
 0001:00037c40       ?GameChat_addConfigVars@@YAXXZ 66038c40 f   chat.obj
 0001:00037c80       ?chat_initConfigVars@@YAXXZ 66038c80 f   chat.obj
 0001:00037c90       ?setClipboard@@YAHPAUHWND__@@PA_WH@Z 66038c90 f   chat.obj
 0001:00037d60       ?processChatPaste@@YAXXZ   66038d60 f   chat.obj
 0001:00037e90       ?sendQuickMessage@@YAHPAUMessageKey@@@Z 66038e90 f   chat.obj
 0001:00037f40       ?addQuickMessage@@YAXHPA_WH@Z 66038f40 f   chat.obj
 0001:00038050       ?SendChatMessageW@@YAXPA_W@Z 66039050 f   chat.obj
 0001:00038110       ?SendChatMessage@@YAXPAD@Z 66039110 f   chat.obj
 0001:000381c0       ?WisperPatch@@YAXXZ        660391c0 f   chat.obj
 0001:000381e0       ?WisperPatch_ASM@@YAXXZ    660391e0 f   chat.obj
 0001:000381f0       ?CheckD2WinEditBox@@YAXXZ  660391f0 f   chat.obj
 0001:00038250       ?InputLinePatch@@YAHE@Z    66039250 f   chat.obj
 0001:000382f0       ?InputLinePatch1_ASM@@YAXXZ 660392f0 f   chat.obj
 0001:00038310       ?EditBoxCallBack@@YGHPAUD2EditBox@@HPAD@Z 66039310 f   chat.obj
 0001:00038310       ?Filterbox_InputHandler@@YGHPAUD2EditBox@@HPAD@Z 66039310 f   mcp.obj
 0001:00038320       ?InitD2EditBox@@YAHXZ      66039320 f   chat.obj
 0001:000383f0       ?InputLinePatch2_ASM@@YAXXZ 660393f0 f   chat.obj
 0001:00038410       ?SelectTextPatch1@@YGHPAD@Z 66039410 f   chat.obj
 0001:000384f0       ?SelectTextPatch1_ASM@@YAXXZ 660394f0 f   chat.obj
 0001:00038510       ?SelectTextPatch2@@YGHPAD@Z 66039510 f   chat.obj
 0001:000385c0       ?SelectTextPatch2_ASM@@YAXXZ 660395c0 f   chat.obj
 0001:000385e0       ?ResetGameList@@YAXXZ      660395e0 f   mcp.obj
 0001:00038600       ?gameFilter_addConfigVars@@YAXXZ 66039600 f   mcp.obj
 0001:00038640       ?D2MCPPacketHandler_05_Patch@@YIHPAEH@Z 66039640 f   mcp.obj
 0001:000388d0       ?D2MCPPacketHandler_05_Patch_ASM@@YAXXZ 660398d0 f   mcp.obj
 0001:000388f0       ?Filterbox_ReturnHandler@@YGHPA_W@Z 660398f0 f   mcp.obj
 0001:00038960       ?CreateFilterBox@@YAXXZ    66039960 f   mcp.obj
 0001:000389e0       ?CreateGameBoxPatch_ASM@@YAXXZ 660399e0 f   mcp.obj
 0001:000389f0       ?DestroyGamelistPatch@@YGXPAUD2EditBox@@@Z 660399f0 f   mcp.obj
 0001:00038a30       ?GameListRefreshTimePatch_ASM@@YAXXZ 66039a30 f   mcp.obj
 0001:00038a70       ?DrawGameListPatch@@YAXXZ  66039a70 f   mcp.obj
 0001:00038c00       ?DrawGameListPatch_ASM@@YAXXZ 66039c00 f   mcp.obj
 0001:00038c10       ?SortGameList_Patch_ASM@@YAXXZ 66039c10 f   mcp.obj
 0001:00038ca0       ?ShowGameListDifficulty_Patch_ASM@@YAXXZ 66039ca0 f   mcp.obj
 0001:00038d50       ?clearCharacterTag@@YAXXZ  66039d50 f   login.obj
 0001:00038d80       ?addCharacterTag@@YAXPAD0@Z 66039d80 f   login.obj
 0001:00038ed0       ?getCharTag@@YAPADPAD@Z    66039ed0 f   login.obj
 0001:00038f90       ?doneCharacterTag@@YAXXZ   66039f90 f   login.obj
 0001:00038fd0       ?drawCharTags@@YAXXZ       66039fd0 f   login.obj
 0001:00039100       ?login_initConfigVars@@YAXXZ 6603a100 f   login.obj
 0001:00039110       ?addAccount@@YAXHPAD0@Z    6603a110 f   login.obj
 0001:00039260       ?isLoginScreen@@YAPAUD2EditBox@@XZ 6603a260 f   login.obj
 0001:00039310       ?getLastUser@@YAPADXZ      6603a310 f   login.obj
 0001:00039380       ?inputUserPassword@@YAHPAULoginInfo@@@Z 6603a380 f   login.obj
 0001:00039510       ?autoLogin@@YAXXZ          6603a510 f   login.obj
 0001:000395e0       ?LastBNet_Patch@@YGHPAD0H0H@Z 6603a5e0 f   login.obj
 0001:00039630       ?SelectCharPatch_ASM@@YAXXZ 6603a630 f   login.obj
 0001:00039750       ?autoSelectChar@@YAXXZ     6603a750 f   login.obj
 0001:00039870       ?saveCharMenu@@YAXXZ       6603a870 f   login.obj
 0001:00039c40       ?OpenCharMenuPatch_ASM@@YAXXZ 6603ac40 f   login.obj
 0001:00039c50       ?misc_addConfigVars@@YAXXZ 6603ac50 f   misc.obj
 0001:00039c90       ?ULCPatch_ASM@@YAXXZ       6603ac90 f   misc.obj
 0001:00039cb0       ?OutTownSelectPatch@@YIHPAUUnitAny@@@Z 6603acb0 f   misc.obj
 0001:00039cf0       ?OutTownSelectPatch_ASM1@@YAXXZ 6603acf0 f   misc.obj
 0001:00039d20       ?CheckOutTownSelected@@YGHPAUUnitAny@@@Z 6603ad20 f   misc.obj
 0001:00039d80       ?OutTownSelectPatch_ASM2@@YAXXZ 6603ad80 f   misc.obj
 0001:00039da0       ?NPCMessageLoopPatch_ASM@@YAXXZ 6603ada0 f   misc.obj
 0001:00039de0       ?NPCQuestMessageStartPatch_ASM@@YAXXZ 6603ade0 f   misc.obj
 0001:00039e00       ?NPCQuestMessageEndPatch1_ASM@@YAXXZ 6603ae00 f   misc.obj
 0001:00039e20       ?NPCQuestMessageEndPatch2_ASM@@YAXXZ 6603ae20 f   misc.obj
 0001:00039e30       ?NsPassingActBugFixPatch_ASM@@YAXXZ 6603ae30 f   misc.obj
 0001:00039e40       ?SetGoldPatch@@YIHH@Z      6603ae40 f   misc.obj
 0001:00039ec0       ?SetGoldPatch_ASM@@YAXXZ   6603aec0 f   misc.obj
 0001:00039ed0       ?SetDefaultGoldPatch_ASM@@YAXXZ 6603aed0 f   misc.obj
 0001:00039ee0       ?multiclient_addConfigVars@@YAXXZ 6603aee0 f   multi.obj
 0001:00039f20       ?multiclient_initConfigVars@@YAXXZ 6603af20 f   multi.obj
 0001:00039f50       ?multiclient_FixValues@@YAXXZ 6603af50 f   multi.obj
 0001:00039f80       ?MultiClientNewGame@@YAXXZ 6603af80 f   multi.obj
 0001:0003a040       ?MultiClientEndGame@@YAXXZ 6603b040 f   multi.obj
 0001:0003a060       ?makeRuntimeInfoPath@@YAHPADH@Z 6603b060 f   multi.obj
 0001:0003a130       ?saveRuntimeInfo@@YAHPAUHWND__@@@Z 6603b130 f   multi.obj
 0001:0003a2d0       ?loadRuntimeInfo@@YAHPAUD2Window@@H@Z 6603b2d0 f   multi.obj
 0001:0003aa10       ?isLocalPlayer@@YAHH@Z     6603ba10 f   multi.obj
 0001:0003aa80       ?refresh_clients@@YAXXZ    6603ba80 f   multi.obj
 0001:0003ac40       ?multiclient_winactive@@YAXXZ 6603bc40 f   multi.obj
 0001:0003ad80       ?getGameWindowHwnd@@YAPAUHWND__@@H@Z 6603bd80 f   multi.obj
 0001:0003adc0       ?canRemoteControl@@YAHXZ   6603bdc0 f   multi.obj
 0001:0003aeb0       ?leader_click_object@@YAXHH@Z 6603beb0 f   multi.obj
 0001:0003af70       ?send_multi_quest_info@@YAXH@Z 6603bf70 f   multi.obj
 0001:0003afa0       ?recv_multi_quest_info@@YAXH@Z 6603bfa0 f   multi.obj
 0001:0003aff0       ?multiclient_recv_info@@YAXH@Z 6603bff0 f   multi.obj
 0001:0003b3b0       ?multiclient_send_info@@YAXH@Z 6603c3b0 f   multi.obj
 0001:0003b400       ?follower_click_object@@YAXHH@Z 6603c400 f   multi.obj
 0001:0003b560       ?MultiClientLoop@@YAXXZ    6603c560 f   multi.obj
 0001:0003bfd0       ?follower_left_click_xy@@YAXHH@Z 6603cfd0 f   multi.obj
 0001:0003c010       ?follower_right_click_xy@@YAXHH@Z 6603d010 f   multi.obj
 0001:0003c050       ?follower_left_click_unit@@YAXHH@Z 6603d050 f   multi.obj
 0001:0003c090       ?follower_right_client_unit@@YAXHH@Z 6603d090 f   multi.obj
 0001:0003c0d0       ?refresh_followers@@YAXH@Z 6603d0d0 f   multi.obj
 0001:0003c1f0       ?toggle_follower@@YAXH@Z   6603d1f0 f   multi.obj
 0001:0003c300       ?follower_stop_follow@@YAXXZ 6603d300 f   multi.obj
 0001:0003c3a0       ?findClosetPortal@@YAPAUUnitAny@@XZ 6603d3a0 f   multi.obj
 0001:0003c520       ?talkToNpc@@YAXXZ          6603d520 f   multi.obj
 0001:0003c6b0       ?follower_cmd@@YAXH@Z      6603d6b0 f   multi.obj
 0001:0003ca50       ?MultiClientStartFollow@@YAHH@Z 6603da50 f   multi.obj
 0001:0003cb30       ?MultiClientStopFollow@@YAHXZ 6603db30 f   multi.obj
 0001:0003cbd0       ?MultiClientStartFollow1@@YAHXZ 6603dbd0 f   multi.obj
 0001:0003cbf0       ?MultiClientStartFollow2@@YAHXZ 6603dbf0 f   multi.obj
 0001:0003cc10       ?MultiClientToggleFollow@@YAHXZ 6603dc10 f   multi.obj
 0001:0003cc40       ?MultiClientTalkToNpc@@YAHXZ 6603dc40 f   multi.obj
 0001:0003cd10       ?leader_back_to_town@@YAHXZ 6603dd10 f   multi.obj
 0001:0003cdc0       ?MultiClientEnterDoor@@YAHXZ 6603ddc0 f   multi.obj
 0001:0003cf60       ?MultiClientStartClick@@YAHH@Z 6603df60 f   multi.obj
 0001:0003cf80       ?MultiClientStopClick@@YAHH@Z 6603df80 f   multi.obj
 0001:0003cfa0       ?MultiClientInitClick@@YAHXZ 6603dfa0 f   multi.obj
 0001:0003d000       ?transferClick@@YAHHPAUUnitAny@@HH@Z 6603e000 f   multi.obj
 0001:0003d210       ?canTranferClick@@YAHXZ    6603e210 f   multi.obj
 0001:0003d270       ?shouldLeftClick@@YIHPAH@Z 6603e270 f   multi.obj
 0001:0003d550       ?shouldRightClick@@YIHPAH@Z 6603e550 f   multi.obj
 0001:0003d690       ?LeftClick_Patch_ASM@@YAXXZ 6603e690 f   multi.obj
 0001:0003d6b0       ?RightClick_Patch_ASM@@YAXXZ 6603e6b0 f   multi.obj
 0001:0003d6d0       ?NpcTrade_AddConfigVars@@YAXXZ 6603e6d0 f   NpcTrade.obj
 0001:0003d710       ?NpcTradeNewGame@@YAXXZ    6603e710 f   NpcTrade.obj
 0001:0003d720       ?drawNpcTradeInfo@@YAXH@Z  6603e720 f   NpcTrade.obj
 0001:0003e230       ?NpcTradeLoop@@YAXXZ       6603f230 f   NpcTrade.obj
 0001:0003e490       ?NpcTradePatch_ASM@@YAXXZ  6603f490 f   NpcTrade.obj
 0001:0003e4c0       ?PartyHelp_addConfigVars@@YAXXZ 6603f4c0 f   party.obj
 0001:0003e500       ?PartyHelpNewGame@@YAXXZ   6603f500 f   party.obj
 0001:0003e600       ?PartyHelpEndGame@@YAXXZ   6603f600 f   party.obj
 0001:0003e610       ?ResponseInvite@@YAXXZ     6603f610 f   party.obj
 0001:0003e6b0       ?CheckInvite@@YAHXZ        6603f6b0 f   party.obj
 0001:0003e700       ?AutoParty@@YGXPAE@Z       6603f700 f   party.obj
 0001:0003e7e0       ?RecvCommand_5A_Patch_ASM@@YAXXZ 6603f7e0 f   party.obj
 0001:0003e7f0       ?AutoInvite@@YIXPAE@Z      6603f7f0 f   party.obj
 0001:0003e8b0       ?RecvCommand_5B_Patch_ASM@@YAXXZ 6603f8b0 f   party.obj
 0001:0003e8c0       ?quick_addConfigVars@@YAXXZ 6603f8c0 f   quick.obj
 0001:0003e900       ?quick_NewGame@@YAXXZ      6603f900 f   quick.obj
 0001:0003e920       ?quick_EndGame@@YAXXZ      6603f920 f   quick.obj
 0001:0003e930       ?skillCount@@YAHH@Z        6603f930 f   quick.obj
 0001:0003e990       ?BackToTown@@YAHXZ         6603f990 f   quick.obj
 0001:0003ea70       ?QuickToLevel@@YAHXZ       6603fa70 f   quick.obj
 0001:0003eac0       ?quickLoop@@YAXXZ          6603fac0 f   quick.obj
 0001:0003eba0       ?AutoBackToTown@@YIXPAE@Z  6603fba0 f   quick.obj
 0001:0003ecd0       ?RecvCommand_60_Patch_ASM@@YAXXZ 6603fcd0 f   quick.obj
 0001:0003ece0       ?SaveGameName@@YAXXZ       6603fce0 f   quick.obj
 0001:0003ed80       ?QuickExitGame@@YAHXZ      6603fd80 f   quick.obj
 0001:0003edb0       ?QuickNextGame@@YAHH@Z     6603fdb0 f   quick.obj
 0001:0003f000       ?NextGameNamePatch@@YIXPAUD2EditBox@@P6GH0HPAD@Z@Z 66040000 f   quick.obj
 0001:0003f040       ?NextGamePasswordPatch@@YIXPAUD2EditBox@@P6GH0HPAD@Z@Z 66040040 f   quick.obj
 0001:0003f080       ?NextGameDecriptionPatch@@YIXPAUD2EditBox@@P6GH0HPAD@Z@Z 66040080 f   quick.obj
 0001:0003f0c0       ?SelectGamePatch@@YIPAXPAUD2EditBox@@PA_W@Z 660400c0 f   quick.obj
 0001:0003f160       ?quickswap_addConfigVars@@YAXXZ 66040160 f   QuickSwapItem.obj
 0001:0003f1a0       ?putIntoCubeIndirect@@YAHXZ 660401a0 f   QuickSwapItem.obj
 0001:0003f280       ?putItem@@YAHPAUInventoryBIN@@PADH@Z 66040280 f   QuickSwapItem.obj
 0001:0003f470       ?putIntoInv@@YAHXZ         66040470 f   QuickSwapItem.obj
 0001:0003f4c0       ?putIntoStash@@YAHXZ       660404c0 f   QuickSwapItem.obj
 0001:0003f520       ?MoveItem@@YAXPAUD2MSG@@@Z 66040520 f   QuickSwapItem.obj
 0001:00040330       ?RButtonUpHandlerPatch@@YGXPAUD2MSG@@@Z 66041330 f   QuickSwapItem.obj
 0001:00040370       ?RButtonUpHandlerPatch_ASM@@YAXXZ 66041370 f   QuickSwapItem.obj
 0001:00040390       ?RButtonInTradePatch_ASM@@YAXXZ 66041390 f   QuickSwapItem.obj
 0001:000403a0       ?CtrlClickHandlerPatch_ASM@@YAXXZ 660413a0 f   QuickSwapItem.obj
 0001:000403d0       ?clickCubeTransformButton@@YAXXZ 660413d0 f   QuickSwapItem.obj
 0001:00040420       ?autoCubeTransform@@YAHXZ  66041420 f   QuickSwapItem.obj
 0001:00040940       ?Resolution_AddConfigVars@@YAXXZ 66041940 f   resolution.obj
 0001:00040980       ?changeResolution@@YAXH@Z  66041980 f   resolution.obj
 0001:00040990       ?resolution_init@@YAXXZ    66041990 f   resolution.obj
 0001:000409e0       ?resolution_uninit@@YAXXZ  660419e0 f   resolution.obj
 0001:00040a30       ?fitWindowToResolution@@YAXXZ 66041a30 f   resolution.obj
 0001:00040b70       ?fitResolution@@YAXXZ      66041b70 f   resolution.obj
 0001:00040e50       ?SetBitBlockWidthAndHeightPatch_ASM@@YAXXZ 66041e50 f   resolution.obj
 0001:00040e60       ?SetCelDisplayLeftAndRightPatch_ASM@@YAXXZ 66041e60 f   resolution.obj
 0001:00040e80       ?IsNeedResizeWindowPatchH_ASM@@YAXXZ 66041e80 f   resolution.obj
 0001:00040e80       ?IsNeedRestoreDownWindowPatchH_ASM@@YAXXZ 66041e80 f   resolution.obj
 0001:00040e90       ?IsNeedRestoreDownWindowPatchW_ASM@@YAXXZ 66041e90 f   resolution.obj
 0001:00040e90       ?IsNeedResizeWindowPatchW_ASM@@YAXXZ 66041e90 f   resolution.obj
 0001:00040ea0       ?SetDisplayWidthAndHeightPatch_ASM@@YAXXZ 66041ea0 f   resolution.obj
 0001:00040ec0       ?SetGeneralDisplayWidthAndHeightPatch_ASM@@YAXXZ 66041ec0 f   resolution.obj
 0001:00040ee0       ?GetGlobalBeltSlotPositionPatch_ASM@@YAXXZ 66041ee0 f   resolution.obj
 0001:00040f90       ?GetGlobalBeltRecordPatch_ASM@@YAXXZ 66041f90 f   resolution.obj
 0001:00041060       ?AdjustWindowRectExPatch_ASM@@YAXXZ 66042060 f   resolution.obj
 0001:000411b0       ?ClearFramebufPatch_ASM@@YAXXZ 660421b0 f   resolution.obj
 0001:000411d0       ?DrawLeftOrbImagePatch_ASM@@YAXXZ 660421d0 f   resolution.obj
 0001:00041200       ?DrawLeftOrbPatch_ASM@@YAXXZ 66042200 f   resolution.obj
 0001:00041220       ?DrawRightOrbImagePatch_ASM@@YAXXZ 66042220 f   resolution.obj
 0001:00041250       ?DrawRightOrbPatch_ASM@@YAXXZ 66042250 f   resolution.obj
 0001:00041270       ?FillLeftOrbPatch_ASM@@YAXXZ 66042270 f   resolution.obj
 0001:00041290       ?FillRightOrbPatch_ASM@@YAXXZ 66042290 f   resolution.obj
 0001:000412b0       ?DrawLeftSkillButtonPatch_ASM@@YAXXZ 660422b0 f   resolution.obj
 0001:000412d0       ?DrawRightSkillButtonPatch_ASM@@YAXXZ 660422d0 f   resolution.obj
 0001:000412f0       ?DisplayHPTextPatch_ASM@@YAXXZ 660422f0 f   resolution.obj
 0001:00041310       ?DisplayManaTextPatch_ASM@@YAXXZ 66042310 f   resolution.obj
 0001:00041330       ?DrawGroundHeightPatch_ASM@@YAXXZ 66042330 f   resolution.obj
 0001:00041360       ?BottomBoundPatch_ASM@@YAXXZ 66042360 f   resolution.obj
 0001:00041380       ?installResolutionPatches@@YAHXZ 66042380 f   resolution.obj
 0001:00041830       ?autoskill_addConfigVars@@YAXXZ 66042830 f   skill.obj
 0001:00041870       ?autoskill_initConfigVars@@YAXXZ 66042870 f   skill.obj
 0001:000419d0       ?AutoSkillNewGame@@YAXXZ   660429d0 f   skill.obj
 0001:00041a40       ?checkAutoSkill@@YAXXZ     66042a40 f   skill.obj
 0001:00041d80       ?checkAutoSkillStatus@@YAXXZ 66042d80 f   skill.obj
 0001:00041e40       ?stackThrowing@@YAXXZ      66042e40 f   skill.obj
 0001:00041f00       ?AutoSkillNow@@YAHXZ       66042f00 f   skill.obj
 0001:00041f30       ?AutoSkillRunLoop@@YAXXZ   66042f30 f   skill.obj
 0001:000433a0       ?autoSkillDimVision@@YIXPAD@Z 660443a0 f   skill.obj
 0001:000433f0       ?Snapshot_AddConfigVars@@YAXXZ 660443f0 f   Snapshot.obj
 0001:00043430       ?hex@@YAXPAU_iobuf@@HPAXH@Z 66044430 f   Snapshot.obj
 0001:000435c0       ?LoadLogNames@@YAXPAU_iobuf@@@Z 660445c0 f   Snapshot.obj
 0001:00043c30       ?getSnapshotPath@@YAXPAD00000D@Z 66044c30 f   Snapshot.obj
 0001:00044130       ?openDbgFile@@YAPAU_iobuf@@PAD@Z 66045130 f   Snapshot.obj
 0001:00044360       ?SnapshotNewGame@@YAXXZ    66045360 f   Snapshot.obj
 0001:00044540       ?SnapshotEndGame@@YAXXZ    66045540 f   Snapshot.obj
 0001:00044860       ?dumpStat@@YAXPAU_iobuf@@HHPAH@Z 66045860 f   Snapshot.obj
 0001:00044d50       ?countAllGemRunes@@YAXXZ   66045d50 f   Snapshot.obj
 0001:000451c0       ?dumpStatList@@YAHPAU_iobuf@@PAUStatList@@H@Z 660461c0 f   Snapshot.obj
 0001:00045800       ?loadWaypoints@@YAXPADH@Z  66046800 f   Snapshot.obj
 0001:000458b0       ?saveWaypoints@@YAXPADH@Z  660468b0 f   Snapshot.obj
 0001:00049000       ?dumpUnit2@@YAXPAU_iobuf@@PAUUnitAny@@@Z 6604a000 f   Snapshot.obj
 0001:000491e0       ?dumpMap@@YAXXZ            6604a1e0 f   Snapshot.obj
 0001:00049750       ?saveMercInfo@@YIXPAD@Z    6604a750 f   Snapshot.obj
 0001:00049890       ?RecvCommand_81_Patch_ASM@@YAXXZ 6604a890 f   Snapshot.obj
 0001:000498a0       ?removeSnapshot@@YAXPAD00@Z 6604a8a0 f   Snapshot.obj
 0001:00049ae0       ?dumpServerQuest@@YAXPAU_iobuf@@@Z 6604aae0 f   Snapshot.obj
 0001:00049d60       ?DoSnapshot@@YAHXZ         6604ad60 f   Snapshot.obj
 0001:0004a320       ?AutoSummonNewGame@@YAXXZ  6604b320 f   summon.obj
 0001:0004a410       ?checkSkeletonCount@@YAXXZ 6604b410 f   summon.obj
 0001:0004a5e0       ?AutoSummonRunLoop@@YAXXZ  6604b5e0 f   summon.obj
 0001:0004ae00       ?addUnit@@YIXPAUUnitAny@@@Z 6604be00 f   summon.obj
 0001:0004ae80       ?AddUnitPatch_ASM@@YAXXZ   6604be80 f   summon.obj
 0001:0004aea0       ?RemoveUnitPatch1_ASM@@YAXXZ 6604bea0 f   summon.obj
 0001:0004aec0       ?RemoveUnitPatch2_ASM@@YAXXZ 6604bec0 f   summon.obj
 0001:0004aee0       ?RecvCommand_69_Patch_ASM@@YAXXZ 6604bee0 f   summon.obj
 0001:0004af10       ?RecvCommand_7A_Patch_ASM@@YAXXZ 6604bf10 f   summon.obj
 0001:0004af40       ?RecvCommand_21_Patch_ASM@@YAXXZ 6604bf40 f   summon.obj
 0001:0004af60       ?autoteleport_addConfigVars@@YAXXZ 6604bf60 f   teleport.obj
 0001:0004afa0       ?autoteleport_initConfigVars@@YAXXZ 6604bfa0 f   teleport.obj
 0001:0004afc0       ?autoteleport_fixValues@@YAXXZ 6604bfc0 f   teleport.obj
 0001:0004afe0       ?AutoTeleportStart@@YAHXZ  6604bfe0 f   teleport.obj
 0001:0004b080       ?AutoTeleportEnd@@YAHXZ    6604c080 f   teleport.obj
 0001:0004b100       ?AutoTeleport@@YAHXZ       6604c100 f   teleport.obj
 0001:0004cf50       ?abs@@YAJJ@Z               6604df50 f i teleport.obj
 0001:0004d550       ?dumpRunewordTxt@@YAXXZ    6604e550 f   txt.obj
 0001:0004d8c0       ?dumpTxt@@YAXXZ            6604e8c0 f   txt.obj
 0001:0004de90       ?panel_addConfigVars@@YAXXZ 6604ee90 f   panel.obj
 0001:0004ded0       ?printPanelConf@@YAPADHPAD0@Z 6604eed0 f   panel.obj
 0001:0004e000       ?panelNewGame@@YAXXZ       6604f000 f   panel.obj
 0001:0004e190       ?panelEndGame@@YAXXZ       6604f190 f   panel.obj
 0001:0004e1c0       ?modifyStashGrid@@YAXXZ    6604f1c0 f   panel.obj
 0001:0004e6c0       ?MpqLoadPatch@@YIXPAD0@Z   6604f6c0 f   panel.obj
 0001:0004e7a0       ?MqpLoadPathPatch_ASM@@YAXXZ 6604f7a0 f   panel.obj
 0001:0004e7c0       ?ModifyStashImagePatch_ASM@@YAXXZ 6604f7c0 f   panel.obj
 0001:0004e7d0       ?ModifyCubeImagePatch_ASM@@YAXXZ 6604f7d0 f   panel.obj
 0001:0004e800       ?ModifyInvCharImagePatch_ASM@@YAXXZ 6604f800 f   panel.obj
 0001:0004e840       ?ChooseInvCharImagePatch_ASM@@YAXXZ 6604f840 f   panel.obj
 0001:0004e870       ?CalDrawOffsetPatch_ASM@@YAXXZ 6604f870 f   panel.obj
 0001:0004e900       ?GetEquipmentSlotLayoutPatch_ASM@@YAXXZ 6604f900 f   panel.obj
 0001:0004eaa0       ?GetInventoryGridLayoutPatch_ASM@@YAXXZ 6604faa0 f   panel.obj
 0001:0004eb50       ?GetInventoryPositionPatch_ASM@@YAXXZ 6604fb50 f   panel.obj
 0001:0004ec00       ?AddSkillPatch_ASM@@YAXXZ  6604fc00 f   panel.obj
 0001:0004ec80       ?RecvCommand_26_Patch_ASM@@YAXXZ 6604fc80 f   panel.obj
 0001:0004f080       ?installPanelPatches@@YAHXZ 66050080 f   panel.obj
 0001:0004f220       ?uninstallBigstashPatches@@YAHXZ 66050220 f   panel.obj
 0001:0004f240       ?installBigstashPatches@@YAHXZ 66050240 f   panel.obj
 0001:0004f700       ?server_addConfigVars@@YAXXZ 66050700 f   server.obj
 0001:0004f740       ?client_unassign_stat@@YAHHH@Z 66050740 f   server.obj
 0001:0004f820       ?client_mouse_stat@@YAHHH@Z 66050820 f   server.obj
 0001:0004f8f0       ?getSkillDescTxt@@YAPAXH@Z 660508f0 f   server.obj
 0001:0004f900       ?getSkillTreeButtonY@@YAHH@Z 66050900 f   server.obj
 0001:0004f910       ?getSkillTreeButtonX@@YAHH@Z 66050910 f   server.obj
 0001:0004f920       ?client_mouse_skillBtn@@YAHHH@Z 66050920 f   server.obj
 0001:0004fa20       ?client_unassign_skill@@YAHHH@Z 66050a20 f   server.obj
 0001:0004fb00       ?client_reset_quest@@YAHH@Z 66050b00 f   server.obj
 0001:0004fb30       ?UndoStr@@YAXPAUUnitAny@@H@Z 66050b30 f   server.obj
 0001:0004fbd0       ?UndoDex@@YAXPAUUnitAny@@H@Z 66050bd0 f   server.obj
 0001:0004fc70       ?UndoVit@@YAXPAUUnitAny@@H@Z 66050c70 f   server.obj
 0001:0004fd70       ?UndoEne@@YAXPAUUnitAny@@H@Z 66050d70 f   server.obj
 0001:0004fe40       ?getClient@@YAPAXPAUUnitAny@@@Z 66050e40 f   server.obj
 0001:0004fe70       ?UndoSkill@@YAXPAUUnitAny@@HH@Z 66050e70 f   server.obj
 0001:00050050       ?getQuest@@YAPAGPAUWorld@@PAUUnitAny@@@Z 66051050 f   server.obj
 0001:00050090       ?serverUndo@@YAHPAUWorld@@PAUUnitAny@@PAD2@Z 66051090 f   server.obj
 0001:00050780       ?ModifyStashGridPatch_ASM@@YAXXZ 66051780 f   server.obj
 0001:00050790       ?compileRunesTxt@@YGPAXHPADPAUTxtField@@PAHH@Z 66051790 f   server.obj
 0001:000507f0       ?NoMonsterDropPatch_ASM@@YAXXZ 660517f0 f   server.obj
 0001:000508c0       ?GameStartPatch_ASM@@YAXXZ 660518c0 f   server.obj
 0001:00050a60       ?DoServerTest@@YAHXZ       66051a60 f   server.obj
 0001:00050b40       ?installServerPatches@@YAHXZ 66051b40 f   server.obj
 0001:00050ff0       ?RepeatAdminCmd@@YAHXZ     66051ff0 f   admin.obj
 0001:00051060       ?ClientChatPatch_ASM@@YAXXZ 66052060 f   admin.obj
 0001:00051100       ?setCharLv@@YAXPAUWorld@@PAUUnitAny@@H@Z 66052100 f   admin.obj
 0001:000511a0       ?maxCharStat@@YAXPAUWorld@@PAUUnitAny@@@Z 660521a0 f   admin.obj
 0001:00051270       ?enableAllWaypoints@@YAXPAUUnitAny@@@Z 66052270 f   admin.obj
 0001:000512f0       ?passGame@@YAHPAUWorld@@PAUUnitAny@@H@Z 660522f0 f   admin.obj
 0001:00051510       ?itemIndex2txt@@YAHH@Z     66052510 f   admin.obj
 0001:000515a0       ?SelectUniquePatch_ASM@@YAXXZ 660525a0 f   admin.obj
 0001:00051670       ?SelectSetPatch_ASM@@YAXXZ 66052670 f   admin.obj
 0001:00051700       ?getItemTxtByCode@@YAHH@Z  66052700 f   admin.obj
 0001:000517b0       ?getRunewordTxt@@YAPAURuneWordTxt@@H@Z 660527b0 f   admin.obj
 0001:000517f0       ?pickupItem@@YAXPAUWorld@@PAUUnitAny@@1H@Z 660527f0 f   admin.obj
 0001:00051850       ?invToHand@@YAXPAUWorld@@PAUUnitAny@@1@Z 66052850 f   admin.obj
 0001:00051890       ?handToBody@@YAXPAUWorld@@PAUUnitAny@@1H@Z 66052890 f   admin.obj
 0001:00051920       ?putItemIntoSocket@@YAXPAUWorld@@PAUUnitAny@@11@Z 66052920 f   admin.obj
 0001:00051960       ?autoPortal@@YAHPAUWorld@@PAUUnitAny@@@Z 66052960 f   admin.obj
 0001:00051d90       ?MonsterSleepPatch_ASM@@YAXXZ 66052d90 f   admin.obj
 0001:00051db0       ?skipServerPacket15@@YIHPAUWorld@@PAUUnitAny@@PADH@Z 66052db0 f   admin.obj
 0001:00054a40       ?ServerRecvPacket15Patch_ASM@@YAXXZ 66055a40 f   admin.obj
 0001:00054a70       ?uber_addConfigVars@@YAXXZ 66055a70 f   uber.obj
 0001:00054ab0       ?resetUberQuest@@YAXXZ     66055ab0 f   uber.obj
 0001:00054b20       ?openPandPortal@@YIHPAUWorld@@PAUUnitAny@@@Z 66055b20 f   uber.obj
 0001:00054be0       ?openPandFinalPortal@@YIHPAUWorld@@PAUUnitAny@@@Z 66055be0 f   uber.obj
 0001:00054c20       ?spawnSuperUnique@@YAHPAUWorld@@PAUAreaRectData@@HHHHHH@Z 66055c20 f   uber.obj
 0001:00054c50       ?monsterUseSkill@@YAXPAUWorld@@PAUUnitAny@@HH1HH@Z 66055c50 f   uber.obj
 0001:00054c90       ?spawnUber@@YGXPAUWorld@@PAUAreaRectData@@@Z 66055c90 f   uber.obj
 0001:00054ee0       ?GetNbMonsters@@YAHPAUDrlgLevel@@@Z 66055ee0 f   uber.obj
 0001:00054f70       ?GetNbMonstersRadius@@YAHPAUDrlgLevel@@UtagPOINT@@H@Z 66055f70 f   uber.obj
 0001:00055030       ?CastSummonMonster@@YAHPAUWorld@@PAUUnitAny@@HHPAHHH@Z 66056030 f   uber.obj
 0001:00055160       ?randf@@YANXZ              66056160 f   uber.obj
 0001:00055180       ?RandInCircle@@YAXPAUtagPOINT@@H@Z 66056180 f   uber.obj
 0001:000551e0       ?uberMephAI@@YIXPAUWorld@@PAUUnitAny@@PAUAIParam@@@Z 660561e0 f   uber.obj
 0001:00055270       ?uberDiabloAI@@YIXPAUWorld@@PAUUnitAny@@PAUAIParam@@@Z 66056270 f   uber.obj
 0001:000553c0       ?uberBaalAI@@YIXPAUWorld@@PAUUnitAny@@PAUAIParam@@@Z 660563c0 f   uber.obj
 0001:00055590       ?installUberQuestPatches@@YAHXZ 66056590 f   uber.obj
 0001:000556b6       ??0_LocaleUpdate@@QAE@PAUlocaleinfo_struct@@@Z 660566b6 f i LIBCMT:stricmp.obj
 0001:0005573d       ___ascii_stricmp           6605673d f   LIBCMT:stricmp.obj
 0001:00055776       __stricmp_l                66056776 f   LIBCMT:stricmp.obj
 0001:0005584b       __stricmp                  6605684b f   LIBCMT:stricmp.obj
 0001:0005589d       __flush                    6605689d f   LIBCMT:fflush.obj
 0001:00055905       __fflush_nolock            66056905 f   LIBCMT:fflush.obj
 0001:00055a27       _fflush                    66056a27 f   LIBCMT:fflush.obj
 0001:00055a7a       __flushall                 66056a7a f   LIBCMT:fflush.obj
 0001:00055a83       _fprintf                   66056a83 f   LIBCMT:fprintf.obj
 0001:00055b9f       _bsearch                   66056b9f f   LIBCMT:bsearch.obj
 0001:00055c61       @__security_check_cookie@4 66056c61 f   LIBCMT:secchk.obj
 0001:00055c70       _sprintf                   66056c70 f   LIBCMT:sprintf.obj
 0001:00055cf0       _memset                    66056cf0 f   LIBCMT:memset.obj
 0001:00055d6a       __fclose_nolock            66056d6a f   LIBCMT:fclose.obj
 0001:00055de1       _fclose                    66056de1 f   LIBCMT:fclose.obj
 0001:00055e5d       _fputs                     66056e5d f   LIBCMT:fputs.obj
 0001:00055f70       _strncpy                   66056f70 f   LIBCMT:strncpy.obj
 0001:000560b0       _strchr                    660570b0 f   LIBCMT:strchr.obj
 0001:000560b6       ___from_strstr_to_strchr   660570b6     LIBCMT:strchr.obj
 0001:00056170       _strrchr                   66057170 f   LIBCMT:strrchr.obj
 0001:00056260       _qsort                     66057260 f   LIBCMT:qsort.obj
 0001:000564ad       _realloc                   660574ad f   LIBCMT:realloc.obj
 0001:000566d0       _memcpy                    660576d0 f   LIBCMT:memcpy.obj
 0001:00056a35       __isalpha_l                66057a35 f i LIBCMT:_ctype.obj
 0001:00056a8b       _isalpha                   66057a8b f i LIBCMT:_ctype.obj
 0001:00056abb       __isdigit_l                66057abb f i LIBCMT:_ctype.obj
 0001:00056b0c       _isdigit                   66057b0c f i LIBCMT:_ctype.obj
 0001:00056b3a       __isspace_l                66057b3a f i LIBCMT:_ctype.obj
 0001:00056b8b       _isspace                   66057b8b f i LIBCMT:_ctype.obj
 0001:00056bb9       __isalnum_l                66057bb9 f i LIBCMT:_ctype.obj
 0001:00056c0f       _isalnum                   66057c0f f i LIBCMT:_ctype.obj
 0001:00056e6e       _strtol                    66057e6e f   LIBCMT:strtol.obj
 0001:00056e99       _strtoul                   66057e99 f   LIBCMT:strtol.obj
 0001:00056ec5       __toupper_l                66057ec5 f   LIBCMT:toupper.obj
 0001:00056fdb       _toupper                   66057fdb f   LIBCMT:toupper.obj
 0001:00057007       __memicmp_l                66058007 f   LIBCMT:memicmp.obj
 0001:000570dc       __memicmp                  660580dc f   LIBCMT:memicmp.obj
 0001:0005713b       ___iob_func                6605813b f   LIBCMT:_file.obj
 0001:00057141       ___initstdio               66058141 f   LIBCMT:_file.obj
 0001:000571f2       ___endstdio                660581f2 f   LIBCMT:_file.obj
 0001:00057212       __lock_file                66058212 f   LIBCMT:_file.obj
 0001:00057253       __lock_file2               66058253 f   LIBCMT:_file.obj
 0001:00057285       __unlock_file              66058285 f   LIBCMT:_file.obj
 0001:000572c1       __unlock_file2             660582c1 f   LIBCMT:_file.obj
 0001:000572f0       __initp_misc_winxfltr      660582f0 f   LIBCMT:winxfltr.obj
 0001:000572f0       __fpclear                  660582f0 f   LIBCMT:_fpinit_.obj
 0001:000572f1       __cfltcvt_init             660582f1 f   LIBCMT:_fpinit_.obj
 0001:00057351       __fpmath                   66058351 f   LIBCMT:_fpinit_.obj
 0001:00057380       __except_handler4          66058380 f   LIBCMT:chandler4.obj
 0001:0005750c       _V6_HeapAlloc              6605850c f   LIBCMT:malloc.obj
 0001:0005755b       _malloc                    6605855b f   LIBCMT:malloc.obj
 0001:00057630       _strstr                    66058630 f   LIBCMT:strstr.obj
 0001:000576b6       _fgets                     660586b6 f   LIBCMT:fgets.obj
 0001:000577fe       __fseek_nolock             660587fe f   LIBCMT:fseek.obj
 0001:00057888       _fseek                     66058888 f   LIBCMT:fseek.obj
 0001:0005790d       __fread_nolock_s           6605890d f   LIBCMT:fread.obj
 0001:00057b17       _fread_s                   66058b17 f   LIBCMT:fread.obj
 0001:00057bad       _fread                     66058bad f   LIBCMT:fread.obj
 0001:00057bca       _strtok                    66058bca f   LIBCMT:strtok.obj
 0001:00057c90       __ftol2_sse                66058c90 f   LIBCMT:ftol2.obj
 0001:00057c99       __ftol2_pentium4           66058c99 f   LIBCMT:ftol2.obj
 0001:00057cac       __ftol2_sse_excpt          66058cac f   LIBCMT:ftol2.obj
 0001:00057cc6       __ftol2                    66058cc6 f   LIBCMT:ftol2.obj
 0001:00057d3b       ??3@YAXPAX@Z               66058d3b f   LIBCMT:delete.obj
 0001:00057d46       ??0bad_alloc@std@@QAE@XZ   66058d46 f i LIBCMT:new.obj
 0001:00057d61       ??1bad_alloc@std@@UAE@XZ   66058d61 f i LIBCMT:new.obj
 0001:00057d6c       ??_Gbad_alloc@std@@UAEPAXI@Z 66058d6c f i LIBCMT:new.obj
 0001:00057d6c       ??_Ebad_alloc@std@@UAEPAXI@Z 66058d6c f i LIBCMT:new.obj
 0001:00057d93       ??0bad_alloc@std@@QAE@ABV01@@Z 66058d93 f i LIBCMT:new.obj
 0001:00057db0       ??2@YAPAXI@Z               66058db0 f   LIBCMT:new.obj
 0001:00057e15       _free                      66058e15 f   LIBCMT:free.obj
 0001:00057f7d       __stat64i32                66058f7d f   LIBCMT:stati32.obj
 0001:00058351       __fwrite_nolock            66059351 f   LIBCMT:fwrite.obj
 0001:000584b3       _fwrite                    660594b3 f   LIBCMT:fwrite.obj
 0001:00058535       __fsopen                   66059535 f   LIBCMT:fopen.obj
 0001:000585f9       _fopen                     660595f9 f   LIBCMT:fopen.obj
 0001:00058610       __snprintf                 66059610 f   LIBCMT:snprintf.obj
 0001:000586bf       __ftell_nolock             660596bf f   LIBCMT:ftell.obj
 0001:0005885c       _ftell                     6605985c f   LIBCMT:ftell.obj
 0001:000588d0       __chkstk                   660598d0 f   LIBCMT:chkstk.obj
 0001:000588d0       __alloca_probe             660598d0     LIBCMT:chkstk.obj
 0001:00058900       __CIsqrt                   66059900 f   LIBCMT:_sqrt_.obj
 0001:00058914       _sqrt                      66059914     LIBCMT:_sqrt_.obj
 0001:000589ba       __vsnprintf_l              660599ba f   LIBCMT:vsnprint.obj
 0001:00058a6d       __vsnprintf                66059a6d f   LIBCMT:vsnprint.obj
 0001:00058a8a       __strdup                   66059a8a f   LIBCMT:strdup.obj
 0001:00058adf       _fputc                     66059adf f   LIBCMT:fputc.obj
 0001:00058beb       _rand                      66059beb f   LIBCMT:rand.obj
 0001:00058c0d       _rename                    66059c0d f   LIBCMT:rename.obj
 0001:00058c40       _memmove                   66059c40 f   LIBCMT:memmove.obj
 0001:00058fa5       __isleadbyte_l             66059fa5 f i LIBCMT:_wctype.obj
 0001:00058fdd       _isleadbyte                66059fdd f i LIBCMT:_wctype.obj
 0001:00058ff0       _iswspace                  66059ff0 f i LIBCMT:_wctype.obj
 0001:00059003       __get_printf_count_output  6605a003 f   LIBCMT:printf.obj
 0001:00059019       __time64                   6605a019 f   LIBCMT:time64.obj
 0001:0005906a       __freea                    6605a06a f i LIBCMT:strupr.obj
 0001:00059208       __strupr_s_l               6605a208 f   LIBCMT:strupr.obj
 0001:0005923d       __strupr                   6605a23d f   LIBCMT:strupr.obj
 0001:0005949c       _wcstol                    6605a49c f   LIBCMT:wcstol.obj
 0001:000594d0       __allshr                   6605a4d0 f   LIBCMT:llshr.obj
 0001:00059500       _sin                       6605a500 f   LIBCMT:_sin_.obj
 0001:00059540       __CIsin                    6605a540 f   LIBCMT:_sin_.obj
 0001:0005957b       __CIsin_default            6605a57b f   LIBCMT:_sin_.obj
 0001:0005958f       __sin_default              6605a58f     LIBCMT:_sin_.obj
 0001:00059630       _cos                       6605a630 f   LIBCMT:_cos_.obj
 0001:00059670       __CIcos                    6605a670 f   LIBCMT:_cos_.obj
 0001:000596ab       __CIcos_default            6605a6ab f   LIBCMT:_cos_.obj
 0001:000596bf       __cos_default              6605a6bf     LIBCMT:_cos_.obj
 0001:00059759       __CRT_INIT@12              6605a759 f   LIBCMT:dllcrt0.obj
 0001:00059984       __DllMainCRTStartup@12     6605a984 f   LIBCMT:dllcrt0.obj
 0001:00059bcd       ___updatetmbcinfo          6605abcd f   LIBCMT:mbctype.obj
 0001:00059ced       __setmbcp_nolock           6605aced f   LIBCMT:mbctype.obj
 0001:00059ed2       __setmbcp                  6605aed2 f   LIBCMT:mbctype.obj
 0001:0005a06c       ___initmbctable            6605b06c f   LIBCMT:mbctype.obj
 0001:0005a08a       ___freetlocinfo            6605b08a f   LIBCMT:setlocal.obj
 0001:0005a1d3       ___addlocaleref            6605b1d3 f   LIBCMT:setlocal.obj
 0001:0005a262       ___removelocaleref         6605b262 f   LIBCMT:setlocal.obj
 0001:0005a339       ___updatetlocinfo          6605b339 f   LIBCMT:setlocal.obj
 0001:0005a3af       __encode_pointer           6605b3af f   LIBCMT:tidtable.obj
 0001:0005a421       __encoded_null             6605b421 f   LIBCMT:tidtable.obj
 0001:0005a42a       __decode_pointer           6605b42a f   LIBCMT:tidtable.obj
 0001:0005a49c       ___crtTlsAlloc@4           6605b49c f   LIBCMT:tidtable.obj
 0001:0005a4a5       ___set_flsgetvalue         6605b4a5 f   LIBCMT:tidtable.obj
 0001:0005a4d9       __mtterm                   6605b4d9 f   LIBCMT:tidtable.obj
 0001:0005a516       __initptd                  6605b516 f   LIBCMT:tidtable.obj
 0001:0005a5fd       __getptd_noexit            6605b5fd f   LIBCMT:tidtable.obj
 0001:0005a676       __getptd                   6605b676 f   LIBCMT:tidtable.obj
 0001:0005a690       __freefls@4                6605b690 f   LIBCMT:tidtable.obj
 0001:0005a7bf       __freeptd                  6605b7bf f   LIBCMT:tidtable.obj
 0001:0005a82d       __mtinit                   6605b82d f   LIBCMT:tidtable.obj
 0001:0005a9ba       __tolower_l                6605b9ba f   LIBCMT:tolower.obj
 0001:0005aacf       _tolower                   6605bacf f   LIBCMT:tolower.obj
 0001:0005aafb       __initp_misc_invarg        6605bafb f   LIBCMT:invarg.obj
 0001:0005ab0a       __invoke_watson            6605bb0a f   LIBCMT:invarg.obj
 0001:0005ac32       __invalid_parameter        6605bc32 f   LIBCMT:invarg.obj
 0001:0005ac58       __get_errno_from_oserr     6605bc58 f   LIBCMT:dosmap.obj
 0001:0005ac9a       __errno                    6605bc9a f   LIBCMT:dosmap.obj
 0001:0005acad       ___doserrno                6605bcad f   LIBCMT:dosmap.obj
 0001:0005acc0       __dosmaperr                6605bcc0 f   LIBCMT:dosmap.obj
 0001:0005ace3       __write_nolock             6605bce3 f   LIBCMT:write.obj
 0001:0005b416       __write                    6605c416 f   LIBCMT:write.obj
 0001:0005b4f2       __fileno                   6605c4f2 f   LIBCMT:fileno.obj
 0001:0005b524       __commit                   6605c524 f   LIBCMT:commit.obj
 0001:0005b605       __mtinitlocks              6605c605 f   LIBCMT:mlock.obj
 0001:0005b650       __mtdeletelocks            6605c650 f   LIBCMT:mlock.obj
 0001:0005b6a7       __unlock                   6605c6a7 f   LIBCMT:mlock.obj
 0001:0005b6be       __mtinitlocknum            6605c6be f   LIBCMT:mlock.obj
 0001:0005b781       __lock                     6605c781 f   LIBCMT:mlock.obj
 0001:0005b7b4       __SEH_prolog4              6605c7b4 f   LIBCMT:sehprolg4.obj
 0001:0005b7f9       __SEH_epilog4              6605c7f9 f   LIBCMT:sehprolg4.obj
 0001:0005b80d       __stbuf                    6605c80d f   LIBCMT:_sftbuf.obj
 0001:0005b8a9       __ftbuf                    6605c8a9 f   LIBCMT:_sftbuf.obj
 0001:0005b983       __output_l                 6605c983 f   LIBCMT:output.obj
 0001:0005c51b       __ioinit                   6605d51b f   LIBCMT:ioinit.obj
 0001:0005c76f       __ioterm                   6605d76f f   LIBCMT:ioinit.obj
 0001:0005c7bd       ___report_gsfailure        6605d7bd f   LIBCMT:gs_report.obj
 0001:0005c8c3       __flsbuf                   6605d8c3 f   LIBCMT:_flsbuf.obj
 0001:0005ca7e       __VEC_memzero              6605da7e f   LIBCMT:p4_memset.obj
 0001:0005cb5d       __get_sse2_info            6605db5d f   LIBCMT:cpu_disp.obj
 0001:0005cbbf       ___sse2_available_init     6605dbbf f   LIBCMT:cpu_disp.obj
 0001:0005cbcc       __close_nolock             6605dbcc f   LIBCMT:close.obj
 0001:0005cc68       __close                    6605dc68 f   LIBCMT:close.obj
 0001:0005cd35       __freebuf                  6605dd35 f   LIBCMT:_freebuf.obj
 0001:0005cd70       _strlen                    6605dd70 f   LIBCMT:strlen.obj
 0001:0005cdfb       __initp_heap_handler       6605ddfb f   LIBCMT:handler.obj
 0001:0005ce0a       __callnewh                 6605de0a f   LIBCMT:handler.obj
 0001:0005ce32       __heap_init                6605de32 f   LIBCMT:heapinit.obj
 0001:0005ce62       __heap_term                6605de62 f   LIBCMT:heapinit.obj
 0001:0005ced6       ___sbh_find_block          6605ded6 f   LIBCMT:sbheap.obj
 0001:0005cf06       ___sbh_free_block          6605df06 f   LIBCMT:sbheap.obj
 0001:0005d21c       ___sbh_alloc_new_region    6605e21c f   LIBCMT:sbheap.obj
 0001:0005d2cc       ___sbh_alloc_new_group     6605e2cc f   LIBCMT:sbheap.obj
 0001:0005d3d4       ___sbh_resize_block        6605e3d4 f   LIBCMT:sbheap.obj
 0001:0005d6b5       ___sbh_alloc_block         6605e6b5 f   LIBCMT:sbheap.obj
 0001:0005da21       __VEC_memcpy               6605ea21 f   LIBCMT:p4_memcpy.obj
 0001:0005db04       __isctype_l                6605eb04 f   LIBCMT:isctype.obj
 0001:0005df61       ___crtLCMapStringA         6605ef61 f   LIBCMT:a_map.obj
 0001:0005dfb0       ___ascii_memicmp           6605efb0 f   LIBCMT:_memicmp.obj
 0001:0005e009       __malloc_crt               6605f009 f   LIBCMT:crtheap.obj
 0001:0005e04e       __calloc_crt               6605f04e f   LIBCMT:crtheap.obj
 0001:0005e09a       __realloc_crt              6605f09a f   LIBCMT:crtheap.obj
 0001:0005e0e8       __recalloc_crt             6605f0e8 f   LIBCMT:crtheap.obj
 0001:0005e13a       __fcloseall                6605f13a f   LIBCMT:closeall.obj
 0001:0005e1d9       __crt_waiting_on_module_handle 6605f1d9 f   LIBCMT:crt0dat.obj
 0001:0005e209       __amsg_exit                6605f209 f   LIBCMT:crt0dat.obj
 0001:0005e232       ___crtCorExitProcess       6605f232 f   LIBCMT:crt0dat.obj
 0001:0005e25d       ___crtExitProcess          6605f25d f   LIBCMT:crt0dat.obj
 0001:0005e275       __lockexit                 6605f275 f   LIBCMT:crt0dat.obj
 0001:0005e27e       __unlockexit               6605f27e f   LIBCMT:crt0dat.obj
 0001:0005e2a4       __initterm_e               6605f2a4 f   LIBCMT:crt0dat.obj
 0001:0005e2c8       __cinit                    6605f2c8 f   LIBCMT:crt0dat.obj
 0001:0005e479       __exit                     6605f479 f   LIBCMT:crt0dat.obj
 0001:0005e48f       __cexit                    6605f48f f   LIBCMT:crt0dat.obj
 0001:0005e49e       __init_pointers            6605f49e f   LIBCMT:crt0dat.obj
 0001:0005e4ec       __forcdecpt_l              6605f4ec f   LIBCMT:cvt.obj
 0001:0005e55f       __cropzeros_l              6605f55f f   LIBCMT:cvt.obj
 0001:0005e5e1       __positive                 6605f5e1 f   LIBCMT:cvt.obj
 0001:0005e5fd       __fassign_l                6605f5fd f   LIBCMT:cvt.obj
 0001:0005e63f       __fassign                  6605f63f f   LIBCMT:cvt.obj
 0001:0005e678       __forcdecpt                6605f678 f   LIBCMT:cvt.obj
 0001:0005e68b       __cropzeros                6605f68b f   LIBCMT:cvt.obj
 0001:0005e80d       __cftoe_l                  6605f80d f   LIBCMT:cvt.obj
 0001:0005e8dd       __cftoe                    6605f8dd f   LIBCMT:cvt.obj
 0001:0005e8fd       __cftoa_l                  6605f8fd f   LIBCMT:cvt.obj
 0001:0005ed67       __cftof_l                  6605fd67 f   LIBCMT:cvt.obj
 0001:0005ee22       __cftog_l                  6605fe22 f   LIBCMT:cvt.obj
 0001:0005ef1c       __cfltcvt_l                6605ff1c f   LIBCMT:cvt.obj
 0001:0005efa4       __cfltcvt                  6605ffa4 f   LIBCMT:cvt.obj
 0001:0005efc7       __initp_misc_cfltcvt_tab   6605ffc7 f   LIBCMT:cmiscdat.obj
 0001:0005efe8       __setdefaultprecision      6605ffe8 f   LIBCMT:fp8.obj
 0001:0005f013       __ms_p5_test_fdiv          66060013 f   LIBCMT:_testfdiv_.obj
 0001:0005f051       __ms_p5_mp_test_fdiv       66060051 f   LIBCMT:_testfdiv_.obj
 0001:0005f07c       __local_unwind4            6606007c f   LIBCMT:exsup4.obj
 0001:0005f152       __seh_longjmp_unwind4@4    66060152 f   LIBCMT:exsup4.obj
 0001:0005f16e       @_EH4_CallFilterFunc@8     6606016e f   LIBCMT:exsup4.obj
 0001:0005f185       @_EH4_TransferToHandler@8  66060185 f   LIBCMT:exsup4.obj
 0001:0005f19e       @_EH4_GlobalUnwind@4       6606019e f   LIBCMT:exsup4.obj
 0001:0005f1b8       @_EH4_LocalUnwind@16       660601b8 f   LIBCMT:exsup4.obj
 0001:0005f1d0       __ValidateImageBase        660601d0 f   LIBCMT:pesect.obj
 0001:0005f210       __FindPESection            66060210 f   LIBCMT:pesect.obj
 0001:0005f260       __IsNonwritableInCurrentImage 66060260 f   LIBCMT:pesect.obj
 0001:0005f31d       __NMSG_WRITE               6606031d f   LIBCMT:crt0msg.obj
 0001:0005f4c8       __FF_MSGBANNER             660604c8 f   LIBCMT:crt0msg.obj
 0001:0005f501       __filbuf                   66060501 f   LIBCMT:_filbuf.obj
 0001:0005f62c       __lseek_nolock             6606062c f   LIBCMT:lseek.obj
 0001:0005f6a1       __lseek                    660606a1 f   LIBCMT:lseek.obj
 0001:0005f77d       __read_nolock              6606077d f   LIBCMT:read.obj
 0001:0005fd3f       __read                     66060d3f f   LIBCMT:read.obj
 0001:0005fe3c       _memcpy_s                  66060e3c f   LIBCMT:memcpy_s.obj
 0001:0005feb9       ??0exception@std@@QAE@ABQBDH@Z 66060eb9 f   LIBCMT:stdexcpt.obj
 0001:0005fed6       ??0exception@std@@QAE@ABV01@@Z 66060ed6 f   LIBCMT:stdexcpt.obj
 0001:0005ff33       ??1exception@std@@UAE@XZ   66060f33 f   LIBCMT:stdexcpt.obj
 0001:0005ff49       ?what@exception@std@@UBEPBDXZ 66060f49 f   LIBCMT:stdexcpt.obj
 0001:0005ff56       ??_Gexception@std@@UAEPAXI@Z 66060f56 f i LIBCMT:stdexcpt.obj
 0001:0005ff56       ??_Eexception@std@@UAEPAXI@Z 66060f56 f i LIBCMT:stdexcpt.obj
 0001:0005ff77       ??1type_info@@UAE@XZ       66060f77 f   LIBCMT:typinfo.obj
 0001:0005ff87       ??_Gtype_info@@UAEPAXI@Z   66060f87 f i LIBCMT:typinfo.obj
 0001:0005ff87       ??_Etype_info@@UAEPAXI@Z   66060f87 f i LIBCMT:typinfo.obj
 0001:00060062       ___onexitinit              66061062 f   LIBCMT:onexit.obj
 0001:00060093       __onexit                   66061093 f   LIBCMT:onexit.obj
 0001:000600cf       _atexit                    660610cf f   LIBCMT:onexit.obj
 0001:000600e6       __CxxThrowException@8      660610e6 f   LIBCMT:throw.obj
 0001:00060132       __fullpath                 66061132 f   LIBCMT:fullpath.obj
 0001:0006023c       ___dtoxmode                6606123c f   LIBCMT:stat.obj
 0001:000602f9       ___loctotime64_t           660612f9 f   LIBCMT:dtoxtm64.obj
 0001:00060564       __getdrive                 66061564 f   LIBCMT:drive.obj
 0001:0006062d       __mbctolower_l             6606162d f   LIBCMT:mbtolwr.obj
 0001:000606d3       __mbctolower               660616d3 f   LIBCMT:mbtolwr.obj
 0001:000606e6       __mbspbrk_l                660616e6 f   LIBCMT:mbspbrk.obj
 0001:000607b3       __mbspbrk                  660617b3 f   LIBCMT:mbspbrk.obj
 0001:000607ca       __openfile                 660617ca f   LIBCMT:_open.obj
 0001:00060a93       __getstream                66061a93 f   LIBCMT:stream.obj
 0001:00060bd0       __trandisp1                66061bd0 f   LIBCMT:_87disp_.obj
 0001:00060c37       __trandisp2                66061c37 f   LIBCMT:_87disp_.obj
 0001:00060cc3       __rttospopde               66061cc3     LIBCMT:_87disp_.obj
 0001:00060cc8       __rttospop                 66061cc8     LIBCMT:_87disp_.obj
 0001:00060cca       __rtnospop                 66061cca     LIBCMT:_87disp_.obj
 0001:00060ccc       __rttosnpop                66061ccc     LIBCMT:_87disp_.obj
 0001:00060ccd       __rtnospopde               66061ccd     LIBCMT:_87disp_.obj
 0001:00060cd4       __rtzeropop                66061cd4     LIBCMT:_87disp_.obj
 0001:00060cd6       __rtzeronpop               66061cd6     LIBCMT:_87disp_.obj
 0001:00060cdb       __rtonepop                 66061cdb     LIBCMT:_87disp_.obj
 0001:00060cdd       __rtonenpop                66061cdd     LIBCMT:_87disp_.obj
 0001:00060ce2       __tosnan1                  66061ce2     LIBCMT:_87disp_.obj
 0001:00060d0d       __nosnan2                  66061d0d     LIBCMT:_87disp_.obj
 0001:00060d0f       __tosnan2                  66061d0f     LIBCMT:_87disp_.obj
 0001:00060d37       __nan2                     66061d37     LIBCMT:_87disp_.obj
 0001:00060d76       __rtindfpop                66061d76     LIBCMT:_87disp_.obj
 0001:00060d78       __rtindfnpop               66061d78     LIBCMT:_87disp_.obj
 0001:00060d89       __rttosnpopde              66061d89     LIBCMT:_87disp_.obj
 0001:00060d93       __rtchsifneg               66061d93     LIBCMT:_87disp_.obj
 0001:00060da0       __startTwoArgErrorHandling 66061da0 f   LIBCMT:_genexcep_.obj
 0001:00060db7       __startOneArgErrorHandling 66061db7 f   LIBCMT:_genexcep_.obj
 0001:00060e00       __twoToTOS                 66061e00 f   LIBCMT:_common_.obj
 0001:00060e15       __load_CW                  66061e15 f   LIBCMT:_common_.obj
 0001:00060e2c       __convertTOStoQNaN         66061e2c f   LIBCMT:_common_.obj
 0001:00060e45       __fload_withFB             66061e45 f   LIBCMT:_common_.obj
 0001:00060e88       __checkTOS_withFB          66061e88 f   LIBCMT:_common_.obj
 0001:00060e9e       __fast_exit                66061e9e f   LIBCMT:_common_.obj
 0001:00060eab       __math_exit                66061eab f   LIBCMT:_common_.obj
 0001:00060ed5       __check_overflow_exit      66061ed5 f   LIBCMT:_common_.obj
 0001:00060ee9       __check_range_exit         66061ee9 f   LIBCMT:_common_.obj
 0001:00060f8c       _strcpy_s                  66061f8c f   LIBCMT:strcpy_s.obj
 0001:00060ff4       __iswctype_l               66061ff4 f   LIBCMT:iswctype.obj
 0001:0006107e       _iswctype                  6606207e f   LIBCMT:iswctype.obj
 0001:00061100       __aulldiv                  66062100 f   LIBCMT:ulldiv.obj
 0001:00061168       _strnlen                   66062168 f   LIBCMT:strlen_s.obj
 0001:00061190       __alloca_probe_16          66062190 f   LIBCMT:alloca16.obj
 0001:000611a6       __alloca_probe_8           660621a6     LIBCMT:alloca16.obj
 0001:000611bc       __wchartodigit             660621bc f   LIBCMT:wchtodig.obj
 0001:00061397       __sse2_mathfcns_init       66062397 f   LIBCMT:_mathfcns_.obj
 0001:000613b0       __CIsin_pentium4           660623b0 f   LIBCMT:_sin_pentium4_.obj
 0001:000613c8       __sin_pentium4             660623c8     LIBCMT:_sin_pentium4_.obj
 0001:00061580       __CIcos_pentium4           66062580 f   LIBCMT:_cos_pentium4_.obj
 0001:00061598       __cos_pentium4             66062598     LIBCMT:_cos_pentium4_.obj
 0001:0006172c       __setenvp                  6606272c f   LIBCMT:stdenvp.obj
 0001:000619a4       __setargv                  660629a4 f   LIBCMT:stdargv.obj
 0001:00061a5f       ___crtGetEnvironmentStringsA 66062a5f f   LIBCMT:a_env.obj
 0001:00061b96       __RTC_Initialize           66062b96 f   LIBCMT:_initsect_.obj
 0001:00061bbc       __RTC_Terminate            66062bbc f   LIBCMT:_initsect_.obj
 0001:00061be2       __XcptFilter               66062be2 f   LIBCMT:winxfltr.obj
 0001:00061d42       ___CppXcptFilter           66062d42 f   LIBCMT:winxfltr.obj
 0001:00061d62       ___security_init_cookie    66062d62 f   LIBCMT:gs_support.obj
 0001:00061fb2       ___crtGetStringTypeA       66062fb2 f   LIBCMT:a_str.obj
 0001:00061ff4       ___free_lc_time            66062ff4 f   LIBCMT:inittime.obj
 0001:00062189       ___free_lconv_num          66063189 f   LIBCMT:initnum.obj
 0001:000621ce       ___free_lconv_mon          660631ce f   LIBCMT:initmon.obj
 0001:0006225c       ____lc_codepage_func       6606325c f   LIBCMT:initctyp.obj
 0001:00062282       _strcat_s                  66063282 f   LIBCMT:strcat_s.obj
 0001:00062300       _strcspn                   66063300 f   LIBCMT:strcspn.obj
 0001:00062346       _strncpy_s                 66063346 f   LIBCMT:strncpy_s.obj
 0001:00062400       _strcmp                    66063400 f   LIBCMT:strcmp.obj
 0001:00062488       _strncmp                   66063488 f   LIBCMT:strncmp.obj
 0001:00062550       _strpbrk                   66063550 f   LIBCMT:strpbrk.obj
 0001:00062590       __crt_debugger_hook        66063590 f   LIBCMT:dbghook.obj
 0001:00062598       __putwch_nolock            66063598 f   LIBCMT:putwch.obj
 0001:0006265d       __mbtowc_l                 6606365d f   LIBCMT:mbtowc.obj
 0001:00062774       _mbtowc                    66063774 f   LIBCMT:mbtowc.obj
 0001:0006278e       __isatty                   6606378e f   LIBCMT:isatty.obj
 0001:000627f2       __lseeki64_nolock          660637f2 f   LIBCMT:lseeki64.obj
 0001:00062877       __lseeki64                 66063877 f   LIBCMT:lseeki64.obj
 0001:00062990       __set_osfhnd               66063990 f   LIBCMT:osfinfo.obj
 0001:00062a11       __free_osfhnd              66063a11 f   LIBCMT:osfinfo.obj
 0001:00062a97       __get_osfhandle            66063a97 f   LIBCMT:osfinfo.obj
 0001:00062b0e       ___lock_fhandle            66063b0e f   LIBCMT:osfinfo.obj
 0001:00062bae       __unlock_fhandle           66063bae f   LIBCMT:osfinfo.obj
 0001:00062bd5       __alloc_osfhnd             66063bd5 f   LIBCMT:osfinfo.obj
 0001:00062d6f       __initp_misc_initcrit      66063d6f f   LIBCMT:initcrit.obj
 0001:00062d7e       ___crtInitCritSecAndSpinCount 66063d7e f   LIBCMT:initcrit.obj
 0001:00062dde       __wctomb_s_l               66063dde f   LIBCMT:wctomb.obj
 0001:00062f4a       _wctomb_s                  66063f4a f   LIBCMT:wctomb.obj
 0001:00062f70       __aulldvrm                 66063f70 f   LIBCMT:ulldvrm.obj
 0001:00063005       __getbuf                   66064005 f   LIBCMT:_getbuf.obj
 0001:0006304e       ___ansicp                  6606404e f   LIBCMT:convrtcp.obj
 0001:00063097       ___convertcp               66064097 f   LIBCMT:convrtcp.obj
 0001:0006324b       __calloc_impl              6606424b f   LIBCMT:calloc_impl.obj
 0001:00063369       __recalloc                 66064369 f   LIBCMT:recalloc.obj
 0001:000633e4       ?terminate@@YAXXZ          660643e4 f   LIBCMT:hooks.obj
 0001:0006341d       __initp_eh_hooks           6606441d f   LIBCMT:hooks.obj
 0001:0006342e       __initp_misc_winsig        6606442e f   LIBCMT:winsig.obj
 0001:00063483       ___get_sigabrt             66064483 f   LIBCMT:winsig.obj
 0001:00063490       _raise                     66064490 f   LIBCMT:winsig.obj
 0001:00063640       __initp_misc_rand_s        66064640 f   LIBCMT:rand_s.obj
 0001:0006364f       __initp_misc_purevirt      6606464f f   LIBCMT:inithelp.obj
 0001:0006365e       __atodbl_l                 6606465e f   LIBCMT:atodbl.obj
 0001:00063706       __atoflt_l                 66064706 f   LIBCMT:atodbl.obj
 0001:000637ae       __fptostr                  660647ae f   LIBCMT:_fptostr.obj
 0001:0006386d       ___dtold                   6606486d f   LIBCMT:_cfout_.obj
 0001:0006392a       __fltout2                  6606492a f   LIBCMT:_cfout_.obj
 0001:000639c0       __alldvrm                  660649c0 f   LIBCMT:lldvrm.obj
 0001:00063aa0       __aullshr                  66064aa0 f   LIBCMT:ullshr.obj
 0001:00063abf       __fptrap                   66064abf f   LIBCMT:crt0fp.obj
 0001:00063ac8       __controlfp_s              66064ac8 f   LIBCMT:_contrlfp_.obj
 0001:00063b34       __global_unwind2           66064b34 f   LIBCMT:exsup.obj
 0001:00063b99       __local_unwind2            66064b99 f   LIBCMT:exsup.obj
 0001:00063c1d       __abnormal_termination     66064c1d f   LIBCMT:exsup.obj
 0001:00063c40       __NLG_Notify1              66064c40 f   LIBCMT:exsup.obj
 0001:00063c49       __NLG_Notify               66064c49 f   LIBCMT:exsup.obj
 0001:00063c60       __NLG_Dispatch             66064c60     LIBCMT:exsup.obj
 0001:00063c60       __NLG_Dispatch2            66064c60     LIBCMT:exsup.obj
 0001:00063c68       __NLG_Call                 66064c68 f   LIBCMT:exsup.obj
 0001:00063c6a       __NLG_Return2              66064c6a     LIBCMT:exsup.obj
 0001:00063c6b       ___crtMessageBoxA          66064c6b f   LIBCMT:crtmbox.obj
 0001:00063dd4       __set_error_mode           66064dd4 f   LIBCMT:errmode.obj
 0001:00063e1f       ?_Type_info_dtor@type_info@@CAXPAV1@@Z 66064e1f f   LIBCMT:typname.obj
 0001:00063e8f       __msize                    66064e8f f   LIBCMT:msize.obj
 0001:00063f32       __validdrive               66064f32 f   LIBCMT:getcwd.obj
 0001:00063f6b       __getdcwd_nolock           66064f6b f   LIBCMT:getcwd.obj
 0001:000640a2       __getcwd                   660650a2 f   LIBCMT:getcwd.obj
 0001:000640eb       _calloc                    660650eb f   LIBCMT:calloc.obj
 0001:0006412b       __mbsicmp_l                6606512b f   LIBCMT:mbsicmp.obj
 0001:00064351       __mbsicmp                  66065351 f   LIBCMT:mbsicmp.obj
 0001:00064368       __mbsrchr_l                66065368 f   LIBCMT:mbsrchr.obj
 0001:00064424       __mbsrchr                  66065424 f   LIBCMT:mbsrchr.obj
 0001:0006443b       __set_daylight             6606543b f i LIBCMT:tzset.obj
 0001:0006444c       __set_dstbias              6606544c f i LIBCMT:tzset.obj
 0001:0006445d       __set_timezone             6606545d f i LIBCMT:tzset.obj
 0001:00064b83       ___tzset                   66065b83 f   LIBCMT:tzset.obj
 0001:00064bd2       __isindst                  66065bd2 f   LIBCMT:tzset.obj
 0001:00064c13       __get_daylight             66065c13 f   LIBCMT:timeset.obj
 0001:00064c4c       __get_dstbias              66065c4c f   LIBCMT:timeset.obj
 0001:00064c85       __get_timezone             66065c85 f   LIBCMT:timeset.obj
 0001:00064cbe       ___daylight                66065cbe f   LIBCMT:timeset.obj
 0001:00064cc4       ___dstbias                 66065cc4 f   LIBCMT:timeset.obj
 0001:00064cca       ___timezone                66065cca f   LIBCMT:timeset.obj
 0001:00064cd0       ___tzname                  66065cd0 f   LIBCMT:timeset.obj
 0001:00064ce0       __allmul                   66065ce0 f   LIBCMT:llmul.obj
 0001:00065433       __sopen_helper             66066433 f   LIBCMT:open.obj
 0001:000654ff       __sopen_s                  660664ff f   LIBCMT:open.obj
 0001:0006551f       __mbsnbicmp_l              6606651f f   LIBCMT:mbsnbicm.obj
 0001:0006574a       __mbsnbicmp                6606674a f   LIBCMT:mbsnbicm.obj
 0001:00065764       __mbsnbcmp_l               66066764 f   LIBCMT:mbsnbcmp.obj
 0001:000658ce       __mbsnbcmp                 660668ce f   LIBCMT:mbsnbcmp.obj
 0001:000658e8       __87except                 660668e8 f   LIBCMT:_87except_.obj
 0001:00065a27       ___crtGetStringTypeW       66066a27 f   LIBCMT:w_str.obj
 0001:00065ab8       __ismbblead                66066ab8 f   LIBCMT:ismbbyte.obj
 0001:00065ad0       _atol                      66066ad0 f   LIBCMT:atox.obj
 0001:00065ae6       __strnicmp_l               66066ae6 f   LIBCMT:strnicmp.obj
 0001:00065bd8       __strnicmp                 66066bd8 f   LIBCMT:strnicmp.obj
 0001:00065c36       ___initconout              66066c36 f   LIBCMT:initcon.obj
 0001:00065c55       ___termcon                 66066c55 f   LIBCMT:initcon.obj
 0001:00065c82       _abort                     66066c82 f   LIBCMT:abort.obj
 0001:00065d99       __ld12tod                  66066d99 f   LIBCMT:_intrncvt_.obj
 0001:000662dd       __ld12tof                  660672dd f   LIBCMT:_intrncvt_.obj
 0001:00066821       ___strgtold12_l            66067821 f   LIBCMT:_strgtold_.obj
 0001:00066f1c       _$I10_OUTPUT               66067f1c f   LIBCMT:_x10fout_.obj
 0001:0006796e       __control87                6606896e f i LIBCMT:_ieee87_.obj
 0001:00067c7d       __getenv_helper_nolock     66068c7d f   LIBCMT:getenv.obj
 0001:00067d04       __chsize_nolock            66068d04 f   LIBCMT:chsize.obj
 0001:00067eba       __setmode_nolock           66068eba f   LIBCMT:setmode.obj
 0001:00067f76       __get_fmode                66068f76 f   LIBCMT:setmode.obj
 0001:00067faf       __raise_exc_ex             66068faf f   LIBCMT:_fpexcept_.obj
 0001:0006828b       __raise_exc                6606928b f   LIBCMT:_fpexcept_.obj
 0001:000682ae       __handle_exc               660692ae f   LIBCMT:_fpexcept_.obj
 0001:00068490       __set_errno_from_matherr   66069490 f   LIBCMT:_fpexcept_.obj
 0001:000684bd       __matherr                  660694bd f   LIBCMT:_matherr_.obj
 0001:000684c0       __statfp                   660694c0 f   LIBCMT:_fpctrl_.obj
 0001:000684d0       __clrfp                    660694d0 f   LIBCMT:_fpctrl_.obj
 0001:000684e1       __ctrlfp                   660694e1 f   LIBCMT:_fpctrl_.obj
 0001:0006850a       __set_statfp               6606950a f   LIBCMT:_fpctrl_.obj
 0001:00068562       ___set_fpsr_sse2           66069562 f   LIBCMT:_fpctrl_.obj
 0001:000685e0       ___ascii_strnicmp          660695e0 f   LIBCMT:_strnicm.obj
 0001:00068641       ___mtold12                 66069641 f   LIBCMT:_mantold_.obj
 0001:0006880f       __mbsnbicoll_l             6606980f f   LIBCMT:mbsnbico.obj
 0001:000688fd       __mbsnbicoll               660698fd f   LIBCMT:mbsnbico.obj
 0001:00068917       ___wtomb_environ           66069917 f   LIBCMT:wtombenv.obj
 0001:000689ae       __set_exp                  660699ae f   LIBCMT:_util_.obj
 0001:000689da       __decomp                   660699da f   LIBCMT:_util_.obj
 0001:00068e21       ___crtCompareStringA       66069e21 f   LIBCMT:a_cmp.obj
 0001:00068e63       __strnicoll_l              66069e63 f   LIBCMT:strnicol.obj
 0001:00069009       ___crtsetenv               6606a009 f   LIBCMT:setenv.obj
 0001:00069254       __mbschr_l                 6606a254 f   LIBCMT:mbschr.obj
 0001:00069310       __mbschr                   6606a310 f   LIBCMT:mbschr.obj
 0001:00069328       _ImmAssociateContext@8     6606a328 f   imm32:IMM32.dll
 0001:0006932e       _RtlUnwind@16              6606a32e f   kernel32:KERNEL32.dll
 0002:00000000       __imp__ImmAssociateContext@8 6606b000     imm32:IMM32.dll
 0002:00000004       \177IMM32_NULL_THUNK_DATA  6606b004     imm32:IMM32.dll
 0002:00000008       __imp__IsBadReadPtr@8      6606b008     kernel32:KERNEL32.dll
 0002:0000000c       __imp__MultiByteToWideChar@24 6606b00c     kernel32:KERNEL32.dll
 0002:00000010       __imp__QueryPerformanceFrequency@4 6606b010     kernel32:KERNEL32.dll
 0002:00000014       __imp__HeapCreate@12       6606b014     kernel32:KERNEL32.dll
 0002:00000018       __imp__HeapDestroy@4       6606b018     kernel32:KERNEL32.dll
 0002:0000001c       __imp__QueryPerformanceCounter@4 6606b01c     kernel32:KERNEL32.dll
 0002:00000020       __imp__GetCommandLineA@0   6606b020     kernel32:KERNEL32.dll
 0002:00000024       __imp__GetModuleFileNameA@12 6606b024     kernel32:KERNEL32.dll
 0002:00000028       __imp__DeleteFileA@4       6606b028     kernel32:KERNEL32.dll
 0002:0000002c       __imp__DisableThreadLibraryCalls@4 6606b02c     kernel32:KERNEL32.dll
 0002:00000030       __imp__LoadLibraryA@4      6606b030     kernel32:KERNEL32.dll
 0002:00000034       __imp__GetModuleHandleA@4  6606b034     kernel32:KERNEL32.dll
 0002:00000038       __imp__VirtualProtect@16   6606b038     kernel32:KERNEL32.dll
 0002:0000003c       __imp__WriteProcessMemory@20 6606b03c     kernel32:KERNEL32.dll
 0002:00000040       __imp__GetCurrentProcess@0 6606b040     kernel32:KERNEL32.dll
 0002:00000044       __imp__GetProcAddress@8    6606b044     kernel32:KERNEL32.dll
 0002:00000048       __imp__IsBadWritePtr@8     6606b048     kernel32:KERNEL32.dll
 0002:0000004c       __imp__LCMapStringA@24     6606b04c     kernel32:KERNEL32.dll
 0002:00000050       __imp__GetProcessTimes@20  6606b050     kernel32:KERNEL32.dll
 0002:00000054       __imp__GetSystemTimeAsFileTime@4 6606b054     kernel32:KERNEL32.dll
 0002:00000058       __imp__IsBadCodePtr@4      6606b058     kernel32:KERNEL32.dll
 0002:0000005c       __imp__WideCharToMultiByte@32 6606b05c     kernel32:KERNEL32.dll
 0002:00000060       __imp__Sleep@4             6606b060     kernel32:KERNEL32.dll
 0002:00000064       __imp__GetTickCount@0      6606b064     kernel32:KERNEL32.dll
 0002:00000068       __imp__GetLocalTime@4      6606b068     kernel32:KERNEL32.dll
 0002:0000006c       __imp__CreateFileA@28      6606b06c     kernel32:KERNEL32.dll
 0002:00000070       __imp__WriteFile@20        6606b070     kernel32:KERNEL32.dll
 0002:00000074       __imp__SetFilePointer@16   6606b074     kernel32:KERNEL32.dll
 0002:00000078       __imp__CloseHandle@4       6606b078     kernel32:KERNEL32.dll
 0002:0000007c       __imp__GetFileSize@8       6606b07c     kernel32:KERNEL32.dll
 0002:00000080       __imp__GetCurrentProcessId@0 6606b080     kernel32:KERNEL32.dll
 0002:00000084       __imp__GlobalFree@4        6606b084     kernel32:KERNEL32.dll
 0002:00000088       __imp__GlobalUnlock@4      6606b088     kernel32:KERNEL32.dll
 0002:0000008c       __imp__GlobalLock@4        6606b08c     kernel32:KERNEL32.dll
 0002:00000090       __imp__GlobalAlloc@8       6606b090     kernel32:KERNEL32.dll
 0002:00000094       __imp__HeapAlloc@12        6606b094     kernel32:KERNEL32.dll
 0002:00000098       __imp__HeapFree@12         6606b098     kernel32:KERNEL32.dll
 0002:0000009c       __imp__GetFileAttributesA@4 6606b09c     kernel32:KERNEL32.dll
 0002:000000a0       __imp__CompareStringW@24   6606b0a0     kernel32:KERNEL32.dll
 0002:000000a4       __imp__CompareStringA@24   6606b0a4     kernel32:KERNEL32.dll
 0002:000000a8       __imp__GetProcessHeap@0    6606b0a8     kernel32:KERNEL32.dll
 0002:000000ac       __imp__SetEndOfFile@4      6606b0ac     kernel32:KERNEL32.dll
 0002:000000b0       __imp__GetTimeZoneInformation@4 6606b0b0     kernel32:KERNEL32.dll
 0002:000000b4       __imp__HeapSize@12         6606b0b4     kernel32:KERNEL32.dll
 0002:000000b8       __imp__InitializeCriticalSectionAndSpinCount@8 6606b0b8     kernel32:KERNEL32.dll
 0002:000000bc       __imp__SetStdHandle@8      6606b0bc     kernel32:KERNEL32.dll
 0002:000000c0       __imp__WriteConsoleW@20    6606b0c0     kernel32:KERNEL32.dll
 0002:000000c4       __imp__GetConsoleOutputCP@0 6606b0c4     kernel32:KERNEL32.dll
 0002:000000c8       __imp__WriteConsoleA@20    6606b0c8     kernel32:KERNEL32.dll
 0002:000000cc       __imp__GetLocaleInfoA@16   6606b0cc     kernel32:KERNEL32.dll
 0002:000000d0       __imp__GetStringTypeW@16   6606b0d0     kernel32:KERNEL32.dll
 0002:000000d4       __imp__GetStringTypeA@20   6606b0d4     kernel32:KERNEL32.dll
 0002:000000d8       __imp__GetEnvironmentStringsW@0 6606b0d8     kernel32:KERNEL32.dll
 0002:000000dc       __imp__FreeEnvironmentStringsW@4 6606b0dc     kernel32:KERNEL32.dll
 0002:000000e0       __imp__GetEnvironmentStrings@0 6606b0e0     kernel32:KERNEL32.dll
 0002:000000e4       __imp__FreeEnvironmentStringsA@4 6606b0e4     kernel32:KERNEL32.dll
 0002:000000e8       __imp__GetCurrentDirectoryA@8 6606b0e8     kernel32:KERNEL32.dll
 0002:000000ec       __imp__GetFullPathNameA@16 6606b0ec     kernel32:KERNEL32.dll
 0002:000000f0       __imp__RaiseException@16   6606b0f0     kernel32:KERNEL32.dll
 0002:000000f4       __imp__ReadFile@20         6606b0f4     kernel32:KERNEL32.dll
 0002:000000f8       __imp__RtlUnwind@16        6606b0f8     kernel32:KERNEL32.dll
 0002:000000fc       __imp__CreateDirectoryA@8  6606b0fc     kernel32:KERNEL32.dll
 0002:00000100       __imp__HeapReAlloc@16      6606b100     kernel32:KERNEL32.dll
 0002:00000104       __imp__GetLastError@0      6606b104     kernel32:KERNEL32.dll
 0002:00000108       __imp__EnterCriticalSection@4 6606b108     kernel32:KERNEL32.dll
 0002:0000010c       __imp__LeaveCriticalSection@4 6606b10c     kernel32:KERNEL32.dll
 0002:00000110       __imp__FindClose@4         6606b110     kernel32:KERNEL32.dll
 0002:00000114       __imp__FileTimeToSystemTime@8 6606b114     kernel32:KERNEL32.dll
 0002:00000118       __imp__FileTimeToLocalFileTime@8 6606b118     kernel32:KERNEL32.dll
 0002:0000011c       __imp__GetDriveTypeA@4     6606b11c     kernel32:KERNEL32.dll
 0002:00000120       __imp__FindFirstFileA@8    6606b120     kernel32:KERNEL32.dll
 0002:00000124       __imp__MoveFileA@8         6606b124     kernel32:KERNEL32.dll
 0002:00000128       __imp__GetCurrentThreadId@0 6606b128     kernel32:KERNEL32.dll
 0002:0000012c       __imp__GetCPInfo@8         6606b12c     kernel32:KERNEL32.dll
 0002:00000130       __imp__InterlockedIncrement@4 6606b130     kernel32:KERNEL32.dll
 0002:00000134       __imp__InterlockedDecrement@4 6606b134     kernel32:KERNEL32.dll
 0002:00000138       __imp__GetACP@0            6606b138     kernel32:KERNEL32.dll
 0002:0000013c       __imp__GetOEMCP@0          6606b13c     kernel32:KERNEL32.dll
 0002:00000140       __imp__IsValidCodePage@4   6606b140     kernel32:KERNEL32.dll
 0002:00000144       __imp__GetModuleHandleW@4  6606b144     kernel32:KERNEL32.dll
 0002:00000148       __imp__TlsGetValue@4       6606b148     kernel32:KERNEL32.dll
 0002:0000014c       __imp__TlsAlloc@0          6606b14c     kernel32:KERNEL32.dll
 0002:00000150       __imp__TlsSetValue@8       6606b150     kernel32:KERNEL32.dll
 0002:00000154       __imp__TlsFree@4           6606b154     kernel32:KERNEL32.dll
 0002:00000158       __imp__SetLastError@4      6606b158     kernel32:KERNEL32.dll
 0002:0000015c       __imp__TerminateProcess@8  6606b15c     kernel32:KERNEL32.dll
 0002:00000160       __imp__UnhandledExceptionFilter@4 6606b160     kernel32:KERNEL32.dll
 0002:00000164       __imp__SetUnhandledExceptionFilter@4 6606b164     kernel32:KERNEL32.dll
 0002:00000168       __imp__IsDebuggerPresent@0 6606b168     kernel32:KERNEL32.dll
 0002:0000016c       __imp__GetConsoleCP@0      6606b16c     kernel32:KERNEL32.dll
 0002:00000170       __imp__GetConsoleMode@8    6606b170     kernel32:KERNEL32.dll
 0002:00000174       __imp__FlushFileBuffers@4  6606b174     kernel32:KERNEL32.dll
 0002:00000178       __imp__DeleteCriticalSection@4 6606b178     kernel32:KERNEL32.dll
 0002:0000017c       __imp__SetHandleCount@4    6606b17c     kernel32:KERNEL32.dll
 0002:00000180       __imp__GetStdHandle@4      6606b180     kernel32:KERNEL32.dll
 0002:00000184       __imp__GetFileType@4       6606b184     kernel32:KERNEL32.dll
 0002:00000188       __imp__GetStartupInfoA@4   6606b188     kernel32:KERNEL32.dll
 0002:0000018c       __imp__VirtualFree@12      6606b18c     kernel32:KERNEL32.dll
 0002:00000190       __imp__VirtualAlloc@16     6606b190     kernel32:KERNEL32.dll
 0002:00000194       __imp__LCMapStringW@24     6606b194     kernel32:KERNEL32.dll
 0002:00000198       __imp__ExitProcess@4       6606b198     kernel32:KERNEL32.dll
 0002:0000019c       __imp__SetEnvironmentVariableA@8 6606b19c     kernel32:KERNEL32.dll
 0002:000001a0       \177KERNEL32_NULL_THUNK_DATA 6606b1a0     kernel32:KERNEL32.dll
 0002:000001a4       __imp__GetWindowRect@8     6606b1a4     user32:USER32.dll
 0002:000001a8       __imp__AdjustWindowRectEx@16 6606b1a8     user32:USER32.dll
 0002:000001ac       __imp__SetWindowPos@28     6606b1ac     user32:USER32.dll
 0002:000001b0       __imp__GetClassNameA@12    6606b1b0     user32:USER32.dll
 0002:000001b4       __imp__OpenClipboard@4     6606b1b4     user32:USER32.dll
 0002:000001b8       __imp__EmptyClipboard@0    6606b1b8     user32:USER32.dll
 0002:000001bc       __imp__SetClipboardData@8  6606b1bc     user32:USER32.dll
 0002:000001c0       __imp__CloseClipboard@0    6606b1c0     user32:USER32.dll
 0002:000001c4       __imp__SetCursorPos@8      6606b1c4     user32:USER32.dll
 0002:000001c8       __imp__GetKeyState@4       6606b1c8     user32:USER32.dll
 0002:000001cc       __imp__PostMessageA@16     6606b1cc     user32:USER32.dll
 0002:000001d0       __imp__SetWindowTextA@8    6606b1d0     user32:USER32.dll
 0002:000001d4       __imp__GetWindowLongA@8    6606b1d4     user32:USER32.dll
 0002:000001d8       __imp__SetWindowLongA@12   6606b1d8     user32:USER32.dll
 0002:000001dc       __imp__ShowWindow@8        6606b1dc     user32:USER32.dll
 0002:000001e0       __imp__GetWindowPlacement@8 6606b1e0     user32:USER32.dll
 0002:000001e4       __imp__GetClipCursor@4     6606b1e4     user32:USER32.dll
 0002:000001e8       __imp__GetClientRect@8     6606b1e8     user32:USER32.dll
 0002:000001ec       __imp__ClientToScreen@8    6606b1ec     user32:USER32.dll
 0002:000001f0       __imp__ClipCursor@4        6606b1f0     user32:USER32.dll
 0002:000001f4       __imp__GetDesktopWindow@0  6606b1f4     user32:USER32.dll
 0002:000001f8       __imp__GetWindowInfo@8     6606b1f8     user32:USER32.dll
 0002:000001fc       __imp__SendMessageA@16     6606b1fc     user32:USER32.dll
 0002:00000200       __imp__wvsprintfW@12       6606b200     user32:USER32.dll
 0002:00000204       __imp__wvsprintfA@12       6606b204     user32:USER32.dll
 0002:00000208       __imp__MessageBoxA@16      6606b208     user32:USER32.dll
 0002:0000020c       __imp__wsprintfW           6606b20c     user32:USER32.dll
 0002:00000210       __imp__SetForegroundWindow@4 6606b210     user32:USER32.dll
 0002:00000214       \177USER32_NULL_THUNK_DATA 6606b214     user32:USER32.dll
 0002:00000218       ___xc_a                    6606b218     LIBCMT:crt0init.obj
 0002:0000021c       ___xc_z                    6606b21c     LIBCMT:crt0init.obj
 0002:00000220       ___xi_a                    6606b220     LIBCMT:crt0init.obj
 0002:00000238       ___xi_z                    6606b238     LIBCMT:crt0init.obj
 0002:0000023c       ___xp_a                    6606b23c     LIBCMT:crt0init.obj
 0002:00000248       ___xp_z                    6606b248     LIBCMT:crt0init.obj
 0002:0000024c       ___xt_a                    6606b24c     LIBCMT:crt0init.obj
 0002:00000250       ___xt_z                    6606b250     LIBCMT:crt0init.obj
 0002:00000f18       __real@408f400000000000    6606bf18     config.obj
 0002:00001168       __real@4014000000000000    6606c168     guess.obj
 0002:00001170       __real@4052c00000000000    6606c170     guess.obj
 0002:00001178       __real@4039000000000000    6606c178     guess.obj
 0002:00001180       __real@3fe0000000000000    6606c180     guess.obj
 0002:00001188       __real@4008000000000000    6606c188     guess.obj
 0002:00001190       __real@4040000000000000    6606c190     guess.obj
 0002:00001198       __real@4059000000000000    6606c198     guess.obj
 0002:000011a0       __real@4010000000000000    6606c1a0     guess.obj
 0002:00008d50       __real@4022000000000000    66073d50     common.obj
 0002:00008d58       __real@4070000000000000    66073d58     common.obj
 0002:00008d60       __real@3fd999999999999a    66073d60     common.obj
 0002:0000c410       __real@4024000000000000    66077410     GameMonitor.obj
 0002:0000d6d0       __real@3ff8000000000000    660786d0     item.obj
 0002:0000dfc0       __real@4028000000000000    66078fc0     dangerous.obj
 0002:0000dfc8       __real@4020000000000000    66078fc8     dangerous.obj
 0002:0001148c       __real@41200000            6607c48c     skill.obj
 0002:00011490       __real@41e80000            6607c490     skill.obj
 0002:00011494       __real@41d00000            6607c494     skill.obj
 0002:00011498       __real@41c00000            6607c498     skill.obj
 0002:0001149c       __real@41f00000            6607c49c     skill.obj
 0002:000114a0       __real@41f80000            6607c4a0     skill.obj
 0002:000114a4       __real@41000000            6607c4a4     skill.obj
 0002:000114a8       __real@41a00000            6607c4a8     skill.obj
 0002:000114ac       __real@41980000            6607c4ac     skill.obj
 0002:000114b0       __real@40a00000            6607c4b0     skill.obj
 0002:000114b8       __real@0000000000000000    6607c4b8     skill.obj
 0002:000114c0       __real@42040000            6607c4c0     skill.obj
 0002:00012b78       __real@40c3880000000000    6607db78     Snapshot.obj
 0002:00012b80       __real@40a0000000000000    6607db80     Snapshot.obj
 0002:00012f28       __real@401c000000000000    6607df28     teleport.obj
 0002:00012f30       __real@412e848000000000    6607df30     teleport.obj
 0002:00014420       __real@40f0000000000000    6607f420     uber.obj
 0002:00014428       __real@401921fb3fa6defc    6607f428     uber.obj
 0002:00014450       __FPinit                   6607f450     LIBCMT:_fpinit_.obj
 0002:00014454       __FPmtinit                 6607f454     LIBCMT:_fpinit_.obj
 0002:00014458       __FPmtterm                 6607f458     LIBCMT:_fpinit_.obj
 0002:0001445c       ??_C@_0P@GHFPNOJB@bad?5allocation?$AA@ 6607f45c     LIBCMT:new.obj
 0002:00014470       ??_7bad_alloc@std@@6B@     6607f470     LIBCMT:new.obj
 0002:00014478       ??_C@_03LLEJOLGL@?4?1?2?$AA@ 6607f478     LIBCMT:stati32.obj
 0002:0001447c       ??_C@_02EAOCEIGI@?$DP?$CK?$AA@ 6607f47c     LIBCMT:stati32.obj
 0002:00014480       __pRawDllMain              6607f480     LIBCMT:dllcrt0.obj
 0002:00014480       __pDefaultRawDllMain       6607f480     LIBCMT:dllcrt0.obj
 0002:00014508       ??_C@_01NEMOKFLO@?$DN?$AA@ 6607f508     LIBCMT:setlocal.obj
 0002:0001450a       ??_C@_00CNPNBAHC@?$AA@     6607f50a     LIBCMT:setlocal.obj
 0002:0001450c       ??_C@_0O@NLDKAIKN@EncodePointer?$AA@ 6607f50c     LIBCMT:tidtable.obj
 0002:0001451c       ??_C@_1BK@DBDEIDLH@?$AAK?$AAE?$AAR?$AAN?$AAE?$AAL?$AA3?$AA2?$AA?4?$AAD?$AAL?$AAL?$AA?$AA@ 6607f51c     LIBCMT:tidtable.obj
 0002:00014538       ??_C@_0O@KBPMFGHI@DecodePointer?$AA@ 6607f538     LIBCMT:tidtable.obj
 0002:00014548       ??_C@_07PEJMOBNF@FlsFree?$AA@ 6607f548     LIBCMT:tidtable.obj
 0002:00014550       ??_C@_0M@JCPCPOEF@FlsSetValue?$AA@ 6607f550     LIBCMT:tidtable.obj
 0002:0001455c       ??_C@_0M@GDNOONDI@FlsGetValue?$AA@ 6607f55c     LIBCMT:tidtable.obj
 0002:00014568       ??_C@_08KNHFBNJ@FlsAlloc?$AA@ 6607f568     LIBCMT:tidtable.obj
 0002:00014574       ??_C@_1O@CEDCILHN@?$AA?$CI?$AAn?$AAu?$AAl?$AAl?$AA?$CJ?$AA?$AA@ 6607f574     LIBCMT:output.obj
 0002:00014584       ??_C@_06OJHGLDPL@?$CInull?$CJ?$AA@ 6607f584     LIBCMT:output.obj
 0002:00014590       ___lookuptable             6607f590     LIBCMT:output.obj
 0002:000145f4       ??_C@_13NOLLCAOD@?$AA?$AA?$AA?$AA@ 6607f5f4     LIBCMT:a_map.obj
 0002:000145f8       ??_C@_0P@MIGLKIOC@CorExitProcess?$AA@ 6607f5f8     LIBCMT:crt0dat.obj
 0002:00014608       ??_C@_1BI@BGOHAHKC@?$AAm?$AAs?$AAc?$AAo?$AAr?$AAe?$AAe?$AA?4?$AAd?$AAl?$AAl?$AA?$AA@ 6607f608     LIBCMT:crt0dat.obj
 0002:00014620       ??_C@_05KLBDPFGC@e?$CL000?$AA@ 6607f620     LIBCMT:cvt.obj
 0002:00014628       __real@4150017ec0000000    6607f628     LIBCMT:_testfdiv_.obj
 0002:00014630       __real@4147ffff80000000    6607f630     LIBCMT:_testfdiv_.obj
 0002:00014638       ??_C@_0BK@NHEOCAHP@IsProcessorFeaturePresent?$AA@ 6607f638     LIBCMT:_testfdiv_.obj
 0002:00014654       ??_C@_08CPNIBGIE@KERNEL32?$AA@ 6607f654     LIBCMT:_testfdiv_.obj
 0002:00014660       ??_C@_0P@GGKDKEEG@runtime?5error?5?$AA@ 6607f660     LIBCMT:crt0msg.obj
 0002:00014670       ??_C@_02PCIJFNDE@?$AN?6?$AA@ 6607f670     LIBCMT:crt0msg.obj
 0002:00014674       ??_C@_0O@MJNIPGOH@TLOSS?5error?$AN?6?$AA@ 6607f674     LIBCMT:crt0msg.obj
 0002:00014684       ??_C@_0N@BONNPDHF@SING?5error?$AN?6?$AA@ 6607f684     LIBCMT:crt0msg.obj
 0002:00014694       ??_C@_0P@MBDAJNE@DOMAIN?5error?$AN?6?$AA@ 6607f694     LIBCMT:crt0msg.obj
 0002:000146a8       ??_C@_0JL@DFDOOABL@R6034?$AN?6An?5application?5has?5made?5a@ 6607f6a8     LIBCMT:crt0msg.obj
 0002:00014748       ??_C@_0PH@EPAFIJ@R6033?$AN?6?9?5Attempt?5to?5use?5MSIL?5cod@ 6607f748     LIBCMT:crt0msg.obj
 0002:00014840       ??_C@_0DD@BKEEABMM@R6032?$AN?6?9?5not?5enough?5space?5for?5lo@ 6607f840     LIBCMT:crt0msg.obj
 0002:00014878       ??_C@_0GD@OFKILIED@R6031?$AN?6?9?5Attempt?5to?5initialize?5t@ 6607f878     LIBCMT:crt0msg.obj
 0002:000148dc       ??_C@_0BP@LPMHJOKI@R6030?$AN?6?9?5CRT?5not?5initialized?$AN?6?$AA@ 6607f8dc     LIBCMT:crt0msg.obj
 0002:000148fc       ??_C@_0CF@KJDAIALP@R6028?$AN?6?9?5unable?5to?5initialize?5he@ 6607f8fc     LIBCMT:crt0msg.obj
 0002:00014924       ??_C@_0DF@GAKBPDFP@R6027?$AN?6?9?5not?5enough?5space?5for?5lo@ 6607f924     LIBCMT:crt0msg.obj
 0002:0001495c       ??_C@_0DF@IBLNNAIG@R6026?$AN?6?9?5not?5enough?5space?5for?5st@ 6607f95c     LIBCMT:crt0msg.obj
 0002:00014994       ??_C@_0CG@IOHKGFNJ@R6025?$AN?6?9?5pure?5virtual?5function?5c@ 6607f994     LIBCMT:crt0msg.obj
 0002:000149bc       ??_C@_0DF@JIJJFJDC@R6024?$AN?6?9?5not?5enough?5space?5for?5_o@ 6607f9bc     LIBCMT:crt0msg.obj
 0002:000149f4       ??_C@_0CJ@EGEJHFME@R6019?$AN?6?9?5unable?5to?5open?5console?5@ 6607f9f4     LIBCMT:crt0msg.obj
 0002:00014a20       ??_C@_0CB@GNHNIELH@R6018?$AN?6?9?5unexpected?5heap?5error?$AN?6@ 6607fa20     LIBCMT:crt0msg.obj
 0002:00014a44       ??_C@_0CN@FOLDKNG@R6017?$AN?6?9?5unexpected?5multithread?5@ 6607fa44     LIBCMT:crt0msg.obj
 0002:00014a74       ??_C@_0CM@FAHFJNHO@R6016?$AN?6?9?5not?5enough?5space?5for?5th@ 6607fa74     LIBCMT:crt0msg.obj
 0002:00014aa0       ??_C@_0JG@LBKMGKLD@?$AN?6This?5application?5has?5requested@ 6607faa0     LIBCMT:crt0msg.obj
 0002:00014b38       ??_C@_0CM@FLCNIPKK@R6009?$AN?6?9?5not?5enough?5space?5for?5en@ 6607fb38     LIBCMT:crt0msg.obj
 0002:00014b64       ??_C@_0CK@KMMJOAPP@R6008?$AN?6?9?5not?5enough?5space?5for?5ar@ 6607fb64     LIBCMT:crt0msg.obj
 0002:00014b90       ??_C@_0CN@LEKKICBM@R6002?$AN?6?9?5floating?5point?5support?5@ 6607fb90     LIBCMT:crt0msg.obj
 0002:00014bc0       ??_C@_0CF@GOGNBNAK@Microsoft?5Visual?5C?$CL?$CL?5Runtime?5Lib@ 6607fbc0     LIBCMT:crt0msg.obj
 0002:00014be8       ??_C@_02PHMGELLB@?6?6?$AA@ 6607fbe8     LIBCMT:crt0msg.obj
 0002:00014bec       ??_C@_03KHICJKCI@?4?4?4?$AA@ 6607fbec     LIBCMT:crt0msg.obj
 0002:00014bf0       ??_C@_0BH@DNAGHKFM@?$DMprogram?5name?5unknown?$DO?$AA@ 6607fbf0     LIBCMT:crt0msg.obj
 0002:00014c08       ??_C@_0BK@OFGJDLJJ@Runtime?5Error?$CB?6?6Program?3?5?$AA@ 6607fc08     LIBCMT:crt0msg.obj
 0002:00014c28       ??_7exception@std@@6B@     6607fc28     LIBCMT:stdexcpt.obj
 0002:00014c30       ??_C@_0BC@EOODALEL@Unknown?5exception?$AA@ 6607fc30     LIBCMT:stdexcpt.obj
 0002:00014c48       ??_7type_info@@6B@         6607fc48     LIBCMT:typinfo.obj
 0002:00014c6c       ??_C@_04PNGHFIJN@?4com?$AA@ 6607fc6c     LIBCMT:stat.obj
 0002:00014c74       ??_C@_04NEEFLLOK@?4bat?$AA@ 6607fc74     LIBCMT:stat.obj
 0002:00014c7c       ??_C@_04CPCBDHLK@?4cmd?$AA@ 6607fc7c     LIBCMT:stat.obj
 0002:00014c84       ??_C@_04JLMDILM@?4exe?$AA@ 6607fc84     LIBCMT:stat.obj
 0002:00014cb8       __DEFAULT_CW_in_mem        6607fcb8     LIBCMT:_common_.obj
 0002:00014cba       __pi_by_2_to_61            6607fcba     LIBCMT:_common_.obj
 0002:00015e50       __XcptActTab               66080e50     LIBCMT:winxfltr.obj
 0002:00015ec8       ___newctype                66080ec8     LIBCMT:ctype.obj
 0002:000161c8       __wctype                   660811c8     LIBCMT:ctype.obj
 0002:000163d0       ___newclmap                660813d0     LIBCMT:ctype.obj
 0002:00016550       ___newcumap                66081550     LIBCMT:ctype.obj
 0002:000166d0       ??_C@_08JCCMCCIL@HH?3mm?3ss?$AA@ 660816d0     LIBCMT:strftime.obj
 0002:000166dc       ??_C@_0BE@CKGJFCPC@dddd?0?5MMMM?5dd?0?5yyyy?$AA@ 660816dc     LIBCMT:strftime.obj
 0002:000166f0       ??_C@_08BPBNCDIB@MM?1dd?1yy?$AA@ 660816f0     LIBCMT:strftime.obj
 0002:000166fc       ??_C@_02CJNFDJBF@PM?$AA@   660816fc     LIBCMT:strftime.obj
 0002:00016700       ??_C@_02DEDBPAFC@AM?$AA@   66081700     LIBCMT:strftime.obj
 0002:00016704       ??_C@_08EDHMEBNP@December?$AA@ 66081704     LIBCMT:strftime.obj
 0002:00016710       ??_C@_08HCHEGEOA@November?$AA@ 66081710     LIBCMT:strftime.obj
 0002:0001671c       ??_C@_07JJNFCEND@October?$AA@ 6608171c     LIBCMT:strftime.obj
 0002:00016724       ??_C@_09BHHEALKD@September?$AA@ 66081724     LIBCMT:strftime.obj
 0002:00016730       ??_C@_06LBBHFDDG@August?$AA@ 66081730     LIBCMT:strftime.obj
 0002:00016738       ??_C@_04MIEPOIFP@July?$AA@ 66081738     LIBCMT:strftime.obj
 0002:00016740       ??_C@_04CNLMGBGM@June?$AA@ 66081740     LIBCMT:strftime.obj
 0002:00016748       ??_C@_05DMJDNLEJ@April?$AA@ 66081748     LIBCMT:strftime.obj
 0002:00016750       ??_C@_05HPCKOFNC@March?$AA@ 66081750     LIBCMT:strftime.obj
 0002:00016758       ??_C@_08GNJGEPFN@February?$AA@ 66081758     LIBCMT:strftime.obj
 0002:00016764       ??_C@_07CGJPFGJA@January?$AA@ 66081764     LIBCMT:strftime.obj
 0002:0001676c       ??_C@_03MKABNOCG@Dec?$AA@  6608176c     LIBCMT:strftime.obj
 0002:00016770       ??_C@_03JPJOFNIA@Nov?$AA@  66081770     LIBCMT:strftime.obj
 0002:00016774       ??_C@_03BMAOKBAD@Oct?$AA@  66081774     LIBCMT:strftime.obj
 0002:00016778       ??_C@_03GGCAPAJC@Sep?$AA@  66081778     LIBCMT:strftime.obj
 0002:0001677c       ??_C@_03IFJFEIGA@Aug?$AA@  6608177c     LIBCMT:strftime.obj
 0002:00016780       ??_C@_03LBGABGKK@Jul?$AA@  66081780     LIBCMT:strftime.obj
 0002:00016784       ??_C@_03IDFGHECI@Jun?$AA@  66081784     LIBCMT:strftime.obj
 0002:00016788       ??_C@_03CNMDKL@May?$AA@    66081788     LIBCMT:strftime.obj
 0002:0001678c       ??_C@_03LEOLGMJP@Apr?$AA@  6608178c     LIBCMT:strftime.obj
 0002:00016790       ??_C@_03ODNJBKGA@Mar?$AA@  66081790     LIBCMT:strftime.obj
 0002:00016794       ??_C@_03HJBDCHOM@Feb?$AA@  66081794     LIBCMT:strftime.obj
 0002:00016798       ??_C@_03JIHJHPIE@Jan?$AA@  66081798     LIBCMT:strftime.obj
 0002:0001679c       ??_C@_08INBOOONO@Saturday?$AA@ 6608179c     LIBCMT:strftime.obj
 0002:000167a8       ??_C@_06JECMNKMI@Friday?$AA@ 660817a8     LIBCMT:strftime.obj
 0002:000167b0       ??_C@_08HACCIKIA@Thursday?$AA@ 660817b0     LIBCMT:strftime.obj
 0002:000167bc       ??_C@_09DLIGFAKA@Wednesday?$AA@ 660817bc     LIBCMT:strftime.obj
 0002:000167c8       ??_C@_07BAAGCFCM@Tuesday?$AA@ 660817c8     LIBCMT:strftime.obj
 0002:000167d0       ??_C@_06JLEDEDGH@Monday?$AA@ 660817d0     LIBCMT:strftime.obj
 0002:000167d8       ??_C@_06OOPIFAJ@Sunday?$AA@ 660817d8     LIBCMT:strftime.obj
 0002:000167e0       ??_C@_03FEFJNEK@Sat?$AA@   660817e0     LIBCMT:strftime.obj
 0002:000167e4       ??_C@_03IDIOELNC@Fri?$AA@  660817e4     LIBCMT:strftime.obj
 0002:000167e8       ??_C@_03IOFIKPDN@Thu?$AA@  660817e8     LIBCMT:strftime.obj
 0002:000167ec       ??_C@_03MHOMLAJA@Wed?$AA@  660817ec     LIBCMT:strftime.obj
 0002:000167f0       ??_C@_03NAGEINEP@Tue?$AA@  660817f0     LIBCMT:strftime.obj
 0002:000167f4       ??_C@_03PDAGKDH@Mon?$AA@   660817f4     LIBCMT:strftime.obj
 0002:000167f8       ??_C@_03KOEHGMDN@Sun?$AA@  660817f8     LIBCMT:strftime.obj
 0002:00016800       ___lookuptable_s           66081800     LIBCMT:outputs.obj
 0002:0001685c       ??_C@_0BI@DFKBFLJE@GetProcessWindowStation?$AA@ 6608185c     LIBCMT:crtmbox.obj
 0002:00016874       ??_C@_0BK@CIDNPOGP@GetUserObjectInformationA?$AA@ 66081874     LIBCMT:crtmbox.obj
 0002:00016890       ??_C@_0BD@HHGDFDBJ@GetLastActivePopup?$AA@ 66081890     LIBCMT:crtmbox.obj
 0002:000168a4       ??_C@_0BA@HNOPNCHB@GetActiveWindow?$AA@ 660818a4     LIBCMT:crtmbox.obj
 0002:000168b4       ??_C@_0M@CHKKJDAI@MessageBoxA?$AA@ 660818b4     LIBCMT:crtmbox.obj
 0002:000168c0       ??_C@_0L@NDEGIDAG@USER32?4DLL?$AA@ 660818c0     LIBCMT:crtmbox.obj
 0002:000168cc       ??_C@_02CLFPBFFP@TZ?$AA@   660818cc     LIBCMT:tzset.obj
 0002:000168d0       ___dnames                  660818d0     LIBCMT:timeset.obj
 0002:000168e8       ___mnames                  660818e8     LIBCMT:timeset.obj
 0002:00016910       ??_C@_07GPDNMNG@CONOUT$?$AA@ 66081910     LIBCMT:initcon.obj
 0002:00016918       ??_C@_06IMKFLFPG@1?$CDQNAN?$AA@ 66081918     LIBCMT:_x10fout_.obj
 0002:00016920       ??_C@_05DNEBIAHO@1?$CDINF?$AA@ 66081920     LIBCMT:_x10fout_.obj
 0002:00016928       ??_C@_05PHHOCPM@1?$CDIND?$AA@ 66081928     LIBCMT:_x10fout_.obj
 0002:00016930       ??_C@_06PGGFOGJG@1?$CDSNAN?$AA@ 66081930     LIBCMT:_x10fout_.obj
 0002:00016938       ??_C@_0BK@CFCOFLF@?5Complete?5Object?5Locator?8?$AA@ 66081938     LIBCMT:undname.obj
 0002:00016954       ??_C@_0BN@MECKDCOJ@?5Class?5Hierarchy?5Descriptor?8?$AA@ 66081954     LIBCMT:undname.obj
 0002:00016974       ??_C@_0BD@LGICGFMM@?5Base?5Class?5Array?8?$AA@ 66081974     LIBCMT:undname.obj
 0002:00016988       ??_C@_0BM@LDKODKLH@?5Base?5Class?5Descriptor?5at?5?$CI?$AA@ 66081988     LIBCMT:undname.obj
 0002:000169a4       ??_C@_0BC@DAFEJGAK@?5Type?5Descriptor?8?$AA@ 660819a4     LIBCMT:undname.obj
 0002:000169b8       ??_C@_0BM@PMGGMLDN@?$GAlocal?5static?5thread?5guard?8?$AA@ 660819b8     LIBCMT:undname.obj
 0002:000169d4       ??_C@_0CL@FGIJHLCE@?$GAmanaged?5vector?5copy?5constructor@ 660819d4     LIBCMT:undname.obj
 0002:00016a00       ??_C@_0CJ@GJELGAMM@?$GAvector?5vbase?5copy?5constructor?5i@ 66081a00     LIBCMT:undname.obj
 0002:00016a2c       ??_C@_0CD@CGAJBKEJ@?$GAvector?5copy?5constructor?5iterato@ 66081a2c     LIBCMT:undname.obj
 0002:00016a50       ??_C@_0CB@PDBIFEP@?$GAdynamic?5atexit?5destructor?5for?5?8@ 66081a50     LIBCMT:undname.obj
 0002:00016a74       ??_C@_0BL@CLIPGLGB@?$GAdynamic?5initializer?5for?5?8?$AA@ 66081a74     LIBCMT:undname.obj
 0002:00016a90       ??_C@_0CM@FCBBDIGB@?$GAeh?5vector?5vbase?5copy?5constructo@ 66081a90     LIBCMT:undname.obj
 0002:00016abc       ??_C@_0CG@HLDDJMAG@?$GAeh?5vector?5copy?5constructor?5iter@ 66081abc     LIBCMT:undname.obj
 0002:00016ae4       ??_C@_0CF@IMGKMJNO@?$GAmanaged?5vector?5destructor?5itera@ 66081ae4     LIBCMT:undname.obj
 0002:00016b0c       ??_C@_0CG@CFDHKGGD@?$GAmanaged?5vector?5constructor?5iter@ 66081b0c     LIBCMT:undname.obj
 0002:00016b34       ??_C@_0BN@CKNJLHMB@?$GAplacement?5delete?$FL?$FN?5closure?8?$AA@ 66081b34     LIBCMT:undname.obj
 0002:00016b54       ??_C@_0BL@CNOONJFP@?$GAplacement?5delete?5closure?8?$AA@ 66081b54     LIBCMT:undname.obj
 0002:00016b70       ??_C@_0P@HJKNJFNN@?$GAomni?5callsig?8?$AA@ 66081b70     LIBCMT:undname.obj
 0002:00016b80       ??_C@_09LBNFPBCA@?5delete?$FL?$FN?$AA@ 66081b80     LIBCMT:undname.obj
 0002:00016b8c       ??_C@_06FHBGPFGH@?5new?$FL?$FN?$AA@ 66081b8c     LIBCMT:undname.obj
 0002:00016b94       ??_C@_0CE@IIHCMGGL@?$GAlocal?5vftable?5constructor?5closu@ 66081b94     LIBCMT:undname.obj
 0002:00016bb8       ??_C@_0BA@KKLDJDLB@?$GAlocal?5vftable?8?$AA@ 66081bb8     LIBCMT:undname.obj
 0002:00016bc8       ??_C@_05KHLCHHI@?$GARTTI?$AA@ 66081bc8     LIBCMT:undname.obj
 0002:00016bd0       ??_C@_03KLGMFNMG@?$GAEH?$AA@ 66081bd0     LIBCMT:undname.obj
 0002:00016bd4       ??_C@_0BA@KBCDOMBN@?$GAudt?5returning?8?$AA@ 66081bd4     LIBCMT:undname.obj
 0002:00016be4       ??_C@_0BL@LLKPOHJI@?$GAcopy?5constructor?5closure?8?$AA@ 66081be4     LIBCMT:undname.obj
 0002:00016c00       ??_C@_0CH@OOJPLCPH@?$GAeh?5vector?5vbase?5constructor?5ite@ 66081c00     LIBCMT:undname.obj
 0002:00016c28       ??_C@_0CA@GCEOPDGL@?$GAeh?5vector?5destructor?5iterator?8?$AA@ 66081c28     LIBCMT:undname.obj
 0002:00016c48       ??_C@_0CB@JONCMFFK@?$GAeh?5vector?5constructor?5iterator?8@ 66081c48     LIBCMT:undname.obj
 0002:00016c6c       ??_C@_0BL@NILFHHPC@?$GAvirtual?5displacement?5map?8?$AA@ 66081c6c     LIBCMT:undname.obj
 0002:00016c88       ??_C@_0CE@IKBNEHA@?$GAvector?5vbase?5constructor?5iterat@ 66081c88     LIBCMT:undname.obj
 0002:00016cac       ??_C@_0BN@LFPFMEDL@?$GAvector?5destructor?5iterator?8?$AA@ 66081cac     LIBCMT:undname.obj
 0002:00016ccc       ??_C@_0BO@PFGOCPJJ@?$GAvector?5constructor?5iterator?8?$AA@ 66081ccc     LIBCMT:undname.obj
 0002:00016cec       ??_C@_0BN@IMDCHIKM@?$GAscalar?5deleting?5destructor?8?$AA@ 66081cec     LIBCMT:undname.obj
 0002:00016d0c       ??_C@_0BO@OBMKPJIG@?$GAdefault?5constructor?5closure?8?$AA@ 66081d0c     LIBCMT:undname.obj
 0002:00016d2c       ??_C@_0BN@DEGPLNFK@?$GAvector?5deleting?5destructor?8?$AA@ 66081d2c     LIBCMT:undname.obj
 0002:00016d4c       ??_C@_0BD@JDLKDPAB@?$GAvbase?5destructor?8?$AA@ 66081d4c     LIBCMT:undname.obj
 0002:00016d60       ??_C@_08OBABFOLI@?$GAstring?8?$AA@ 66081d60     LIBCMT:undname.obj
 0002:00016d6c       ??_C@_0BF@KDPPACIK@?$GAlocal?5static?5guard?8?$AA@ 66081d6c     LIBCMT:undname.obj
 0002:00016d84       ??_C@_08LLFFHHDJ@?$GAtypeof?8?$AA@ 66081d84     LIBCMT:undname.obj
 0002:00016d90       ??_C@_07FEEIOKP@?$GAvcall?8?$AA@ 66081d90     LIBCMT:undname.obj
 0002:00016d98       ??_C@_09BLBHBJP@?$GAvbtable?8?$AA@ 66081d98     LIBCMT:undname.obj
 0002:00016da4       ??_C@_09IFPLHPGF@?$GAvftable?8?$AA@ 66081da4     LIBCMT:undname.obj
 0002:00016db0       ??_C@_02MHEGNOJ@?$FO?$DN?$AA@ 66081db0     LIBCMT:undname.obj
 0002:00016db4       ??_C@_02DHLNPPGH@?$HM?$DN?$AA@ 66081db4     LIBCMT:undname.obj
 0002:00016db8       ??_C@_02FGJGFEAB@?$CG?$DN?$AA@ 66081db8     LIBCMT:undname.obj
 0002:00016dbc       ??_C@_03CDNPDDLA@?$DM?$DM?$DN?$AA@ 66081dbc     LIBCMT:undname.obj
 0002:00016dc0       ??_C@_03IKFCCPFF@?$DO?$DO?$DN?$AA@ 66081dc0     LIBCMT:undname.obj
 0002:00016dc4       ??_C@_02FENAOKFI@?$CF?$DN?$AA@ 66081dc4     LIBCMT:undname.obj
 0002:00016dc8       ??_C@_02FJEHGPIO@?1?$DN?$AA@ 66081dc8     LIBCMT:undname.obj
 0002:00016dcc       ??_C@_02FKMDLLOA@?9?$DN?$AA@ 66081dcc     LIBCMT:undname.obj
 0002:00016dd0       ??_C@_02FOEOMHFC@?$CL?$DN?$AA@ 66081dd0     LIBCMT:undname.obj
 0002:00016dd4       ??_C@_02FPIMKNGF@?$CK?$DN?$AA@ 66081dd4     LIBCMT:undname.obj
 0002:00016dd8       ??_C@_02NONPIBCD@?$HM?$HM?$AA@ 66081dd8     LIBCMT:undname.obj
 0002:00016ddc       ??_C@_02PPKAJPJL@?$CG?$CG?$AA@ 66081ddc     LIBCMT:undname.obj
 0002:00016de0       ??_C@_01DNKMNLPK@?$HM?$AA@ 66081de0     LIBCMT:undname.obj
 0002:00016de4       ??_C@_01JKBOJNNK@?$FO?$AA@ 66081de4     LIBCMT:undname.obj
 0002:00016de8       ??_C@_01PJKLJHI@?$HO?$AA@  66081de8     LIBCMT:undname.obj
 0002:00016dec       ??_C@_02HCKGKOFO@?$CI?$CJ?$AA@ 66081dec     LIBCMT:undname.obj
 0002:00016df0       ??_C@_01IHBHIGKO@?0?$AA@   66081df0     LIBCMT:undname.obj
 0002:00016df4       ??_C@_02EEKDKGMJ@?$DO?$DN?$AA@ 66081df4     LIBCMT:undname.obj
 0002:00016df8       ??_C@_01PPODPGHN@?$DO?$AA@ 66081df8     LIBCMT:undname.obj
 0002:00016dfc       ??_C@_02EHCHHCKH@?$DM?$DN?$AA@ 66081dfc     LIBCMT:undname.obj
 0002:00016e00       ??_C@_01MNNFJEPP@?$DM?$AA@ 66081e00     LIBCMT:undname.obj
 0002:00016e04       ??_C@_01FGNFDNOH@?$CF?$AA@ 66081e04     LIBCMT:undname.obj
 0002:00016e08       ??_C@_01KMDKNFGN@?1?$AA@   66081e08     LIBCMT:undname.obj
 0002:00016e0c       ??_C@_03MNHNFDLC@?9?$DO?$CK?$AA@ 66081e0c     LIBCMT:undname.obj
 0002:00016e10       ??_C@_01HNPIGOCE@?$CG?$AA@ 66081e10     LIBCMT:undname.obj
 0002:00016e14       ??_C@_01MIFGBAGJ@?$CL?$AA@ 66081e14     LIBCMT:undname.obj
 0002:00016e18       ??_C@_01JOAMLHOP@?9?$AA@   66081e18     LIBCMT:undname.obj
 0002:00016e1c       ??_C@_02BAABKJLB@?9?9?$AA@ 66081e1c     LIBCMT:undname.obj
 0002:00016e20       ??_C@_02ECNGHCIF@?$CL?$CL?$AA@ 66081e20     LIBCMT:undname.obj
 0002:00016e24       ??_C@_01NBENCBCI@?$CK?$AA@ 66081e24     LIBCMT:undname.obj
 0002:00016e28       ??_C@_02HBOOOICD@?9?$DO?$AA@ 66081e28     LIBCMT:undname.obj
 0002:00016e2c       ??_C@_08LHJFAFGD@operator?$AA@ 66081e2c     LIBCMT:undname.obj
 0002:00016e38       ??_C@_02GPECMEKF@?$FL?$FN?$AA@ 66081e38     LIBCMT:undname.obj
 0002:00016e3c       ??_C@_02FDNJECIE@?$CB?$DN?$AA@ 66081e3c     LIBCMT:undname.obj
 0002:00016e40       ??_C@_02EGOFBIJA@?$DN?$DN?$AA@ 66081e40     LIBCMT:undname.obj
 0002:00016e44       ??_C@_01DCLJPIOD@?$CB?$AA@ 66081e44     LIBCMT:undname.obj
 0002:00016e48       ??_C@_02FODMEDOG@?$DM?$DM?$AA@ 66081e48     LIBCMT:undname.obj
 0002:00016e4c       ??_C@_02GPIOPFAK@?$DO?$DO?$AA@ 66081e4c     LIBCMT:undname.obj
 0002:00016e50       ??_C@_07FPCDHGMM@?5delete?$AA@ 66081e50     LIBCMT:undname.obj
 0002:00016e58       ??_C@_04NIHEBCM@?5new?$AA@ 66081e58     LIBCMT:undname.obj
 0002:00016e60       ??_C@_0M@GFIIJFMG@__unaligned?$AA@ 66081e60     LIBCMT:undname.obj
 0002:00016e6c       ??_C@_0L@PILCLIHE@__restrict?$AA@ 66081e6c     LIBCMT:undname.obj
 0002:00016e78       ??_C@_07JOMMBBKO@__ptr64?$AA@ 66081e78     LIBCMT:undname.obj
 0002:00016e80       ??_C@_09HIJEGCPM@__clrcall?$AA@ 66081e80     LIBCMT:undname.obj
 0002:00016e8c       ??_C@_0L@JMKHOMEK@__fastcall?$AA@ 66081e8c     LIBCMT:undname.obj
 0002:00016e98       ??_C@_0L@NPHFGOKO@__thiscall?$AA@ 66081e98     LIBCMT:undname.obj
 0002:00016ea4       ??_C@_09IFJBGAPI@__stdcall?$AA@ 66081ea4     LIBCMT:undname.obj
 0002:00016eb0       ??_C@_08GHMPAG@__pascal?$AA@ 66081eb0     LIBCMT:undname.obj
 0002:00016ebc       ??_C@_07KOLFKCDI@__cdecl?$AA@ 66081ebc     LIBCMT:undname.obj
 0002:00016ec4       ??_C@_08EHJDFFNH@__based?$CI?$AA@ 66081ec4     LIBCMT:undname.obj
 0002:00017050       ??_C@_0L@KDOEJCKC@_nextafter?$AA@ 66082050     LIBCMT:_fpexcept_.obj
 0002:0001705c       ??_C@_05JGDBENOH@_logb?$AA@ 6608205c     LIBCMT:_fpexcept_.obj
 0002:00017064       ??_C@_03ONILCKOB@_yn?$AA@  66082064     LIBCMT:_fpexcept_.obj
 0002:00017068       ??_C@_03NAKIGLHK@_y1?$AA@  66082068     LIBCMT:_fpexcept_.obj
 0002:0001706c       ??_C@_03MJLDFKDL@_y0?$AA@  6608206c     LIBCMT:_fpexcept_.obj
 0002:00017070       ??_C@_05GKKHEGJL@frexp?$AA@ 66082070     LIBCMT:_fpexcept_.obj
 0002:00017078       ??_C@_04KEPJIHGP@fmod?$AA@ 66082078     LIBCMT:_fpexcept_.obj
 0002:00017080       ??_C@_06MEIMCGCF@_hypot?$AA@ 66082080     LIBCMT:_fpexcept_.obj
 0002:00017088       ??_C@_05KBKMEMPO@_cabs?$AA@ 66082088     LIBCMT:_fpexcept_.obj
 0002:00017090       ??_C@_05CEJMAHNP@ldexp?$AA@ 66082090     LIBCMT:_fpexcept_.obj
 0002:00017098       ??_C@_04EHEDPDJG@modf?$AA@ 66082098     LIBCMT:_fpexcept_.obj
 0002:000170a0       ??_C@_04ODHECPBC@fabs?$AA@ 660820a0     LIBCMT:_fpexcept_.obj
 0002:000170a8       ??_C@_05PBJFFIGL@floor?$AA@ 660820a8     LIBCMT:_fpexcept_.obj
 0002:000170b0       ??_C@_04GFPJNGEK@ceil?$AA@ 660820b0     LIBCMT:_fpexcept_.obj
 0002:000170b8       ??_C@_03IIINPABG@tan?$AA@  660820b8     LIBCMT:_fpexcept_.obj
 0002:000170bc       ??_C@_03LALBNOCG@cos?$AA@  660820bc     LIBCMT:_fpexcept_.obj
 0002:000170c0       ??_C@_03BLEJJJBH@sin?$AA@  660820c0     LIBCMT:_fpexcept_.obj
 0002:000170c4       ??_C@_04EIAKFFMI@sqrt?$AA@ 660820c4     LIBCMT:_fpexcept_.obj
 0002:000170cc       ??_C@_05KNGEOGJB@atan2?$AA@ 660820cc     LIBCMT:_fpexcept_.obj
 0002:000170d4       ??_C@_04MLLJIGOK@atan?$AA@ 660820d4     LIBCMT:_fpexcept_.obj
 0002:000170dc       ??_C@_04PDIFKINK@acos?$AA@ 660820dc     LIBCMT:_fpexcept_.obj
 0002:000170e4       ??_C@_04FIHNOPOL@asin?$AA@ 660820e4     LIBCMT:_fpexcept_.obj
 0002:000170ec       ??_C@_04FJHINJAO@tanh?$AA@ 660820ec     LIBCMT:_fpexcept_.obj
 0002:000170f4       ??_C@_04HPJJNFIM@cosh?$AA@ 660820f4     LIBCMT:_fpexcept_.obj
 0002:000170fc       ??_C@_04COOMCNPB@sinh?$AA@ 660820fc     LIBCMT:_fpexcept_.obj
 0002:00017104       ??_C@_05HGHHAHAP@log10?$AA@ 66082104     LIBCMT:_fpexcept_.obj
 0002:0001710c       ??_C@_03MGHMBJCF@log?$AA@  6608210c     LIBCMT:_fpexcept_.obj
 0002:00017110       ??_C@_03JGHBODFD@pow?$AA@  66082110     LIBCMT:_fpexcept_.obj
 0002:00017114       ??_C@_03KHJOGHMM@exp?$AA@  66082114     LIBCMT:_fpexcept_.obj
 0002:00017118       __load_config_used         66082118     LIBCMT:loadcfg.obj
 0002:00017160       ??_R4bad_alloc@std@@6B@    66082160     LIBCMT:new.obj
 0002:00017174       ??_R3bad_alloc@std@@8      66082174     LIBCMT:new.obj
 0002:00017184       ??_R2bad_alloc@std@@8      66082184     LIBCMT:new.obj
 0002:00017190       ??_R1A@?0A@EA@bad_alloc@std@@8 66082190     LIBCMT:new.obj
 0002:000171ac       ??_R1A@?0A@EA@exception@std@@8 660821ac     LIBCMT:new.obj
 0002:000171c8       ??_R3exception@std@@8      660821c8     LIBCMT:new.obj
 0002:000171d8       ??_R2exception@std@@8      660821d8     LIBCMT:new.obj
 0002:000171e0       ??_R4exception@std@@6B@    660821e0     LIBCMT:stdexcpt.obj
 0002:000171f4       ??_R4type_info@@6B@        660821f4     LIBCMT:typinfo.obj
 0002:00017208       ??_R3type_info@@8          66082208     LIBCMT:typinfo.obj
 0002:00017218       ??_R2type_info@@8          66082218     LIBCMT:typinfo.obj
 0002:00017220       ??_R1A@?0A@EA@type_info@@8 66082220     LIBCMT:typinfo.obj
 0002:00017240       ___safe_se_handler_table   66082240     <linker-defined>
 0002:0001724c       ___rtc_iaa                 6608224c     LIBCMT:_initsect_.obj
 0002:00017250       ___rtc_izz                 66082250     LIBCMT:_initsect_.obj
 0002:00017254       ___rtc_taa                 66082254     LIBCMT:_initsect_.obj
 0002:00017258       ___rtc_tzz                 66082258     LIBCMT:_initsect_.obj
 0002:0001744c       __TI2?AVbad_alloc@std@@    6608244c     LIBCMT:new.obj
 0002:0001745c       __CTA2?AVbad_alloc@std@@   6608245c     LIBCMT:new.obj
 0002:00017468       __CT??_R0?AVbad_alloc@std@@@8??0bad_alloc@std@@QAE@ABV01@@Z12 66082468     LIBCMT:new.obj
 0002:00017484       __CT??_R0?AVexception@std@@@8??0exception@std@@QAE@ABV01@@Z12 66082484     LIBCMT:new.obj
 0002:00017994       __IMPORT_DESCRIPTOR_KERNEL32 66082994     kernel32:KERNEL32.dll
 0002:000179a8       __IMPORT_DESCRIPTOR_USER32 660829a8     user32:USER32.dll
 0002:000179bc       __IMPORT_DESCRIPTOR_IMM32  660829bc     imm32:IMM32.dll
 0002:000179d0       __NULL_IMPORT_DESCRIPTOR   660829d0     kernel32:KERNEL32.dll
 0003:00000000       ?szRuntimePath@@3PADA      66084000     config.obj
 0003:00000100       ?fShowCheckInfo@@3HA       66084100     config.obj
 0003:00000104       ?fLoadItemColours@@3HA     66084104     config.obj
 0003:00000600       ?dwGameWindowId@@3HA       66084600     DllMain.obj
 0003:00000608       ?dwGameLng@@3HA            66084608     install.obj
 0003:0000060c       ?fFixSocketError@@3HA      6608460c     install.obj
 0003:00000610       ?tReloadDll@@3UToggleVar@@A 66084610     install.obj
 0003:00000640       ?tReloadConfig@@3UToggleVar@@A 66084640     install.obj
 0003:00000670       ?tInstallPatches@@3UToggleVar@@A 66084670     install.obj
 0003:0000083c       ?dwPetListChangeCount@@3HA 6608483c     common.obj
 0003:00000840       ?skillTypes@@3PAY0BO@HA    66084840     common.obj
 0003:00000b88       ?tShowTestInfo@@3UToggleVar@@A 66084b88     dbg.obj
 0003:00000bc0       ?fPlayerInTown@@3HA        66084bc0     loop.obj
 0003:00000bc4       ?actlvls@@3PAHA            66084bc4     loop.obj
 0003:00000bdc       ?dwCurrentLevel@@3HA       66084bdc     loop.obj
 0003:00000be0       ?dwLeftSkill@@3HA          66084be0     loop.obj
 0003:00000be4       ?dwRightSkill@@3HA         66084be4     loop.obj
 0003:00000be8       ?fCanUseLeftSkill@@3HA     66084be8     loop.obj
 0003:00000bec       ?fCanUseRightSkill@@3HA    66084bec     loop.obj
 0003:00000bf0       ?dwSlowMs@@3HA             66084bf0     loop.obj
 0003:00000bf4       ?dwSlowSkipMs@@3HA         66084bf4     loop.obj
 0003:00000d3c       ?dwAutoRevealMode@@3HA     66084d3c     map.obj
 0003:00000d40       ?tRevealAct@@3UToggleVar@@A 66084d40     map.obj
 0003:00000d70       ?tRevealLevel@@3UToggleVar@@A 66084d70     map.obj
 0003:00000da0       ?tPrevMapTarget@@3UToggleVar@@A 66084da0     map.obj
 0003:00000dd0       ?tNextMapTarget@@3UToggleVar@@A 66084dd0     map.obj
 0003:00000e00       ?tAutomapLevelNames@@3UToggleVar@@A 66084e00     map.obj
 0003:00000e30       ?tAutoMap@@3UToggleVar@@A  66084e30     map.obj
 0003:00000e60       ?tMiniShrine@@3UToggleVar@@A 66084e60     map.obj
 0003:00000e90       ?tAutomapActiveRect@@3UToggleVar@@A 66084e90     map.obj
 0003:00000ec0       ?tAutomapReadyRect@@3UToggleVar@@A 66084ec0     map.obj
 0003:00000ef0       ?tAutomapScreenArea@@3UToggleVar@@A 66084ef0     map.obj
 0003:00000f20       ?nAutomapActiveRectColors@@3EA 66084f20     map.obj
 0003:00000f21       ?nAutomapReadyRectColors@@3EA 66084f21     map.obj
 0003:00000f22       ?nAutomapScreenColors@@3EA 66084f22     map.obj
 0003:00000f23       ?nMinimapSize@@3EA         66084f23     map.obj
 0003:00000f24       ?routeLineColor@@3EA       66084f24     map.obj
 0003:00000f25       ?fAutomapPartyDefault@@3EA 66084f25     map.obj
 0003:00000f26       ?fAutomapNamesDefault@@3EA 66084f26     map.obj
 0003:00000f27       ?nHostileMissileColor@@3EA 66084f27     map.obj
 0003:00000f28       ?tMinimapDirectLineToggle@@3UToggleVar@@A 66084f28     map.obj
 0003:00000f58       ?tMinimapDebugToggle@@3UToggleVar@@A 66084f58     map.obj
 0003:00000f88       ?tAutomapCorpse@@3UToggleVar@@A 66084f88     map.obj
 0003:00000fb8       ?tAutomapMonsters@@3UToggleVar@@A 66084fb8     map.obj
 0003:00000fe8       ?tAutomapChests@@3UToggleVar@@A 66084fe8     map.obj
 0003:00001018       ?tAutomapMissiles@@3UToggleVar@@A 66085018     map.obj
 0003:00001048       ?tAutomapItems@@3UToggleVar@@A 66085048     map.obj
 0003:00001078       ?nGuidedMissileColor@@3EA  66085078     map.obj
 0003:00001079       ?nTracerMissileColor@@3EA  66085079     map.obj
 0003:0000107a       ?nOtherMissileColor@@3EA   6608507a     map.obj
 0003:0000107b       ?nClosedChestColor@@3EA    6608507b     map.obj
 0003:0000107c       ?nLockedChestColor@@3EA    6608507c     map.obj
 0003:0000107d       ?nNormalCorpseColor@@3EA   6608507d     map.obj
 0003:0000107e       ?nBossCorpseColor@@3EA     6608507e     map.obj
 0003:0000107f       ?nMinionCorpseColor@@3EA   6608507f     map.obj
 0003:00001080       ?nChampionCorpseColor@@3EA 66085080     map.obj
 0003:00001081       ?nMonsterNormalColor@@3EA  66085081     map.obj
 0003:00001082       ?nMonsterBossColor@@3EA    66085082     map.obj
 0003:00001083       ?nMonsterMinionColor@@3EA  66085083     map.obj
 0003:00001084       ?nMonsterChampColor@@3EA   66085084     map.obj
 0003:00001085       ?nSuperUniqueColor@@3EA    66085085     map.obj
 0003:00001086       ?nNeutralPlayerColor@@3EA  66085086     map.obj
 0003:00001087       ?nHostilePlayerColor@@3EA  66085087     map.obj
 0003:00001088       ?nFriendMinionColor@@3EA   66085088     map.obj
 0003:00001089       ?nPlayerMinionColor@@3EA   66085089     map.obj
 0003:0000108a       ?nPartyTextColour@@3EA     6608508a     map.obj
 0003:0000108b       ?nNeutralTextColour@@3EA   6608508b     map.obj
 0003:0000108c       ?nHostileTextColour@@3EA   6608508c     map.obj
 0003:0000108d       ?nMonsterTextCol@@3EA      6608508d     map.obj
 0003:00001090       ?tBossNameToggle@@3UToggleVar@@A 66085090     map.obj
 0003:000010c0       ?tScreenshake@@3UToggleVar@@A 660850c0     map.obj
 0003:000010f0       ?tCenterMap@@3UToggleVar@@A 660850f0     map.obj
 0003:00001120       ?nScrollMode@@3HA          66085120     map.obj
 0003:00001124       ?dwDuranceOfHateLevel3TeleportShift@@3PAHA 66085124     map.obj
 0003:00002520       ?dwSocketTimeOutSec@@3HA   66086520     packet.obj
 0003:00002524       ?dwSocketTimeOut@@3HA      66086524     packet.obj
 0003:00002528       ?dwAddStatMaxCount@@3HA    66086528     packet.obj
 0003:0000252c       ?tPacketHandler@@3UToggleVar@@A 6608652c     packet.obj
 0003:0000255c       ?tDoTest@@3UToggleVar@@A   6608655c     packet.obj
 0003:0000258c       ?tNecTeleportAttract@@3UToggleVar@@A 6608658c     packet.obj
 0003:000026f8       ?tAutomapRouteInfo@@3UToggleVar@@A 660866f8     route.obj
 0003:00002728       ?tScreenRouteGuide@@3UToggleVar@@A 66086728     route.obj
 0003:00002758       ?tReroute@@3UToggleVar@@A  66086758     route.obj
 0003:00002918       ?fWinActive@@3HA           66086918     winmsg.obj
 0003:0000291c       ?dwQuickSwapItemDelayMs@@3HA 6608691c     winmsg.obj
 0003:00002920       ?dwAutoCallToArm@@3HA      66086920     winmsg.obj
 0003:00002924       ?tLockMouseToggle@@3UToggleVar@@A 66086924     winmsg.obj
 0003:00002954       ?tAutoHideMinimapToggle@@3UToggleVar@@A 66086954     winmsg.obj
 0003:00002984       ?tAutoMinimapTeleportToggle@@3UToggleVar@@A 66086984     winmsg.obj
 0003:000029b4       ?tFullScreen@@3UToggleVar@@A 660869b4     winmsg.obj
 0003:000029e4       ?tFullScreenNoCaption@@3UToggleVar@@A 660869e4     winmsg.obj
 0003:00002a14       ?tResizeWindowBar@@3UToggleVar@@A 66086a14     winmsg.obj
 0003:00002a44       ?tAttractNPC@@3UToggleVar@@A 66086a44     winmsg.obj
 0003:00002a74       ?tEnableScreenSaver@@3UToggleVar@@A 66086a74     winmsg.obj
 0003:00002aa4       ?tEnableMenuScreenSaver@@3UToggleVar@@A 66086aa4     winmsg.obj
 0003:00002ad4       ?tNoHide@@3UToggleVar@@A   66086ad4     winmsg.obj
 0003:00002b04       ?tSaveGame@@3UToggleVar@@A 66086b04     winmsg.obj
 0003:00003138       ?newTextBoxData@@3PAKA     66087138     winmsg.obj
 0003:00003168       ?tChangeVisualEffect@@3UToggleVar@@A 66087168     env.obj
 0003:00003198       ?tWeather@@3UToggleVar@@A  66087198     env.obj
 0003:000031c8       ?tHiddenCorpse@@3UToggleVar@@A 660871c8     env.obj
 0003:000031f8       ?tSkipDrawToggle@@3UToggleVar@@A 660871f8     env.obj
 0003:00003388       ?simpleItemStackTxt@@3HA   66087388     GameMonitor.obj
 0003:0000338c       ?simpleItemStackIdx@@3HA   6608738c     GameMonitor.obj
 0003:00003390       ?simpleItemStackStatId@@3HA 66087390     GameMonitor.obj
 0003:00003394       ?changeStashPageCmd@@3HA   66087394     GameMonitor.obj
 0003:00003398       ?changeStashPageCmdOffset@@3HA 66087398     GameMonitor.obj
 0003:0000339c       ?changeStashPageCmdValue@@3HA 6608739c     GameMonitor.obj
 0003:000033a0       ?changeStashPageValueOffset@@3HA 660873a0     GameMonitor.obj
 0003:000033e8       ?bossHp@@3HA               660873e8     GameMonitor.obj
 0003:000033ec       ?tCountDown@@3UToggleVar@@A 660873ec     GameMonitor.obj
 0003:0000341c       ?tDrawMultiPageStashCount@@3UToggleVar@@A 6608741c     GameMonitor.obj
 0003:0000344c       ?dwGameMonitorX@@3HA       6608744c     GameMonitor.obj
 0003:00003450       ?dwGameMonitorY@@3HA       66087450     GameMonitor.obj
 0003:00003454       ?dwCountDownFontSize@@3HA  66087454     GameMonitor.obj
 0003:00003458       ?dwCountDownGap@@3HA       66087458     GameMonitor.obj
 0003:0000345c       ?dwCountDownFlashSecond@@3HA 6608745c     GameMonitor.obj
 0003:00003460       ?tKillCount@@3UToggleVar@@A 66087460     GameMonitor.obj
 0003:00003490       ?tGetHitCount@@3UToggleVar@@A 66087490     GameMonitor.obj
 0003:000034c0       ?tNecAutomapCorpsesToggle@@3UToggleVar@@A 660874c0     GameMonitor.obj
 0003:000034f0       ?tDrawBossHpToggle@@3UToggleVar@@A 660874f0     GameMonitor.obj
 0003:00003520       ?bossLineColor@@3HA        66087520     GameMonitor.obj
 0003:00003524       ?tDrawPlayerNameToggle@@3UToggleVar@@A 66087524     GameMonitor.obj
 0003:00003554       ?dwDrawPlayerNameDy@@3HA   66087554     GameMonitor.obj
 0003:00003be8       ?countDowns@@3PAPAUCountDown@@A 66087be8     GameMonitor.obj
 0003:00003c50       ?tServerIp@@3UToggleVar@@A 66087c50     info.obj
 0003:00003c80       ?tGameTime@@3UToggleVar@@A 66087c80     info.obj
 0003:00003cb0       ?tClock@@3UToggleVar@@A    66087cb0     info.obj
 0003:00003ce0       ?tLayerLevelNo@@3UToggleVar@@A 66087ce0     info.obj
 0003:00003d10       ?tAreaLevel@@3UToggleVar@@A 66087d10     info.obj
 0003:00003d40       ?tPermShowOrb@@3UToggleVar@@A 66087d40     info.obj
 0003:00003d70       ?tShowExp@@3UToggleVar@@A  66087d70     info.obj
 0003:00003da0       ?tShowPing@@3UToggleVar@@A 66087da0     info.obj
 0003:00003dd0       ?tShowPartyPosition@@3UToggleVar@@A 66087dd0     info.obj
 0003:00003e00       ?tShowPartyLevel@@3UToggleVar@@A 66087e00     info.obj
 0003:00003e30       ?tViewEquipmentKey@@3UToggleVar@@A 66087e30     info.obj
 0003:00003e60       ?tViewPlayerStatsKey@@3UToggleVar@@A 66087e60     info.obj
 0003:00003e90       ?tShowBaseStat@@3UToggleVar@@A 66087e90     info.obj
 0003:00003ec0       ?tFirstPlayerStat@@3UToggleVar@@A 66087ec0     info.obj
 0003:00003ef0       ?tNextPlayerStat@@3UToggleVar@@A 66087ef0     info.obj
 0003:00003f20       ?tPrevPlayerStat@@3UToggleVar@@A 66087f20     info.obj
 0003:00004210       ?szOrbPattern@@3PADA       66088210     info.obj
 0003:00004214       ?viewStatUnit@@3UViewUnitInfo@@A 66088214     info.obj
 0003:00004224       ?viewEquUnit@@3UViewUnitInfo@@A 66088224     info.obj
 0003:00004308       ?tLogMessage@@3UToggleVar@@A 66088308     MessageLog.obj
 0003:00004338       ?dwMessageFileSize@@3HA    66088338     MessageLog.obj
 0003:00004398       ?anGoldGoodCol@@3PADA      66088398     item.obj
 0003:0000439c       ?anGoldPoorCol@@3PADA      6608839c     item.obj
 0003:000043a0       ?tSwitchItemMode@@3UToggleVar@@A 660883a0     item.obj
 0003:000043d0       ?dwItemShowMode@@3HA       660883d0     item.obj
 0003:000043d4       ?nQuestItemColour@@3EA     660883d4     item.obj
 0003:000043d5       ?nDefaultExtInfoColour@@3EA 660883d5     item.obj
 0003:000043d8       ?tRuneNumbers@@3UToggleVar@@A 660883d8     item.obj
 0003:00004408       ?tSocketNumbers@@3UToggleVar@@A 66088408     item.obj
 0003:00004438       ?tItemLevel@@3UToggleVar@@A 66088438     item.obj
 0003:00004468       ?tItemValue@@3UToggleVar@@A 66088468     item.obj
 0003:00004498       ?tItemIndex@@3UToggleVar@@A 66088498     item.obj
 0003:000044c8       ?tItemFileIndex@@3UToggleVar@@A 660884c8     item.obj
 0003:000044f8       ?tUnitNumber@@3UToggleVar@@A 660884f8     item.obj
 0003:00004528       ?tItemQLevel@@3UToggleVar@@A 66088528     item.obj
 0003:00004558       ?tItemMLevel@@3UToggleVar@@A 66088558     item.obj
 0003:00004588       ?tItemALevel@@3UToggleVar@@A 66088588     item.obj
 0003:000045b8       ?tAfterCube@@3UToggleVar@@A 660885b8     item.obj
 0003:000045e8       ?tLifePerLevel@@3UToggleVar@@A 660885e8     item.obj
 0003:00004618       ?dwItemValueNpc@@3PAHA     66088618     item.obj
 0003:0000462c       ?tShowBaseED@@3UToggleVar@@A 6608862c     item.obj
 0003:0000465c       ?tShowIdentifiedItem@@3UToggleVar@@A 6608865c     item.obj
 0003:0000468c       ?tHiddenItems@@3UToggleVar@@A 6608868c     item.obj
 0003:000046bc       ?tPermShowItems@@3UToggleVar@@A 660886bc     item.obj
 0003:000046ec       ?tLockAltToggle@@3UToggleVar@@A 660886ec     item.obj
 0003:0000471c       ?tItemBasicStat@@3UToggleVar@@A 6608871c     item.obj
 0003:0000474c       ?tViewSocketable@@3UToggleVar@@A 6608874c     item.obj
 0003:0000477c       ?tViewSocketBase@@3UToggleVar@@A 6608877c     item.obj
 0003:000047ac       ?tShowItemVariableProp@@3UToggleVar@@A 660887ac     item.obj
 0003:000047dc       ?tSocketProtect@@3UToggleVar@@A 660887dc     item.obj
 0003:0000480c       ?tRunewordProtect@@3UToggleVar@@A 6608880c     item.obj
 0003:0000483c       ?tDrawInvItemInfo@@3UToggleVar@@A 6608883c     item.obj
 0003:0000486c       ?tItemExtInfo@@3UToggleVar@@A 6608886c     item.obj
 0003:0000489c       ?maxTownPortalCount@@3HA   6608889c     item.obj
 0003:000048a0       ?maxIdentifyPortalCount@@3HA 660888a0     item.obj
 0003:000048a4       ?batchSimpleItemStackCount@@3HA 660888a4     item.obj
 0003:000048a8       ?tDrawSimpleItemStackCount@@3UToggleVar@@A 660888a8     item.obj
 0003:00005170       ?dwAutoPotionCheckMs@@3HA  66089170     dangerous.obj
 0003:00005174       ?dwHirePotionDelayMs@@3HA  66089174     dangerous.obj
 0003:00005178       ?dwManaPotionDelayMs@@3HA  66089178     dangerous.obj
 0003:0000517c       ?nChickenLifeAction@@3HA   6608917c     dangerous.obj
 0003:00005180       ?tHealingPotion@@3UToggleVar@@A 66089180     dangerous.obj
 0003:000051b0       ?tManaPotion@@3UToggleVar@@A 660891b0     dangerous.obj
 0003:000051e0       ?tChickenLife@@3UToggleVar@@A 660891e0     dangerous.obj
 0003:00005210       ?tChickenHostile@@3UToggleVar@@A 66089210     dangerous.obj
 0003:00005240       ?tChickenHostileNearby@@3UToggleVar@@A 66089240     dangerous.obj
 0003:00005270       ?tChickenDangerousMonster@@3UToggleVar@@A 66089270     dangerous.obj
 0003:000052a0       ?tAutoPotion@@3UToggleVar@@A 660892a0     dangerous.obj
 0003:000052d0       ?dwChickenLifeForcedClevel@@3HA 660892d0     dangerous.obj
 0003:000052d4       ?dwChickenLifeEnterGame@@3HA 660892d4     dangerous.obj
 0003:000052d8       ?nDangerousMonsterAction@@3HA 660892d8     dangerous.obj
 0003:000058a0       ?dwBarbrianLeft@@3HA       660898a0     quest.obj
 0003:000058a4       ?dwBugAlertTimes@@3HA      660898a4     quest.obj
 0003:000058a8       ?tBugKCountess@@3UToggleVar@@A 660898a8     quest.obj
 0003:000058d8       ?tBugKM@@3UToggleVar@@A    660898d8     quest.obj
 0003:00005908       ?tBugKD@@3UToggleVar@@A    66089908     quest.obj
 0003:00005938       ?tBugKB@@3UToggleVar@@A    66089938     quest.obj
 0003:00005968       ?tBugAutoQuit@@3UToggleVar@@A 66089968     quest.obj
 0003:00005998       ?tBugAutoQuitHell@@3UToggleVar@@A 66089998     quest.obj
 0003:000059c8       ?tBugAutoQuitHellAct1@@3UToggleVar@@A 660899c8     quest.obj
 0003:000059f8       ?tBugAutoQuitHellAct3@@3UToggleVar@@A 660899f8     quest.obj
 0003:00005a28       ?tBugAutoQuitHellAct4@@3UToggleVar@@A 66089a28     quest.obj
 0003:00005a58       ?tBugAutoQuitHellAct5@@3UToggleVar@@A 66089a58     quest.obj
 0003:00005a88       ?tBugAutoQuitAct5@@3UToggleVar@@A 66089a88     quest.obj
 0003:00005ab8       ?tBugAllHellAlert@@3UToggleVar@@A 66089ab8     quest.obj
 0003:00005ae8       ?tAlertNoBug@@3UToggleVar@@A 66089ae8     quest.obj
 0003:00005e70       ?tMonsterLevel@@3UToggleVar@@A 66089e70     lifebar.obj
 0003:00005ea0       ?tMonsterTC@@3UToggleVar@@A 66089ea0     lifebar.obj
 0003:00005ed0       ?tMonsterRuneTC@@3UToggleVar@@A 66089ed0     lifebar.obj
 0003:00005f00       ?tMonsterResists@@3UToggleVar@@A 66089f00     lifebar.obj
 0003:00005f30       ?tMonsterHPPercent@@3UToggleVar@@A 66089f30     lifebar.obj
 0003:00005f60       ?tMonsterDistance@@3UToggleVar@@A 66089f60     lifebar.obj
 0003:00005f90       ?tMonsterID@@3UToggleVar@@A 66089f90     lifebar.obj
 0003:00005fc0       ?tSPMonsterHP@@3UToggleVar@@A 66089fc0     lifebar.obj
 0003:00005ff0       ?tSPMonsterExp@@3UToggleVar@@A 66089ff0     lifebar.obj
 0003:00006020       ?nLifeBarTrans@@3EA        6608a020     lifebar.obj
 0003:00006021       ?nLifeBarColour@@3EA       6608a021     lifebar.obj
 0003:00006024       ?tPlayerLevel@@3UToggleVar@@A 6608a024     lifebar.obj
 0003:00006054       ?tPlayerDistance@@3UToggleVar@@A 6608a054     lifebar.obj
 0003:00006084       ?tPlayerHPPercent@@3UToggleVar@@A 6608a084     lifebar.obj
 0003:00006400       ?tDropProtectionToggle@@3UToggleVar@@A 6608a400     DropProtection.obj
 0003:00006430       ?tResetProtectionToggle@@3UToggleVar@@A 6608a430     DropProtection.obj
 0003:00006598       ?tWisperNotice@@3UToggleVar@@A 6608a598     chat.obj
 0003:000065c8       ?tInputLine@@3UToggleVar@@A 6608a5c8     chat.obj
 0003:000065f8       ?tUseCustomFont@@3UToggleVar@@A 6608a5f8     chat.obj
 0003:00006628       ?tQuickMessagePasteOnly@@3UToggleVar@@A 6608a628     chat.obj
 0003:000068a8       ?tOutTownSelect@@3UToggleVar@@A 6608a8a8     misc.obj
 0003:000068d8       ?tULCMask@@3UToggleVar@@A  6608a8d8     misc.obj
 0003:00006990       ?tMultiClient@@3UToggleVar@@A 6608a990     multi.obj
 0003:000069c0       ?tMultiClientToggleFollow@@3UToggleVar@@A 6608a9c0     multi.obj
 0003:000069f0       ?tMultiClientStartFollow1@@3UToggleVar@@A 6608a9f0     multi.obj
 0003:00006a20       ?tMultiClientStartFollow2@@3UToggleVar@@A 6608aa20     multi.obj
 0003:00006a50       ?tMultiClientStopFollow@@3UToggleVar@@A 6608aa50     multi.obj
 0003:00006a80       ?tMultiClientEnterDoor@@3UToggleVar@@A 6608aa80     multi.obj
 0003:00006ab0       ?tMultiClientRetreat@@3UToggleVar@@A 6608aab0     multi.obj
 0003:00006ae0       ?tMultiClientClick@@3UToggleVar@@A 6608aae0     multi.obj
 0003:00006b10       ?tMultiClientClick2@@3UToggleVar@@A 6608ab10     multi.obj
 0003:00006b40       ?tMultiClientTalkToNpc@@3UToggleVar@@A 6608ab40     multi.obj
 0003:00006b70       ?dwMultiClientGroupSize1@@3HA 6608ab70     multi.obj
 0003:00006b74       ?dwMultiClientGroupSize2@@3HA 6608ab74     multi.obj
 0003:00006b78       ?dwAutoFollowDistance@@3HA 6608ab78     multi.obj
 0003:00006b7c       ?dwAutoFollowMaxDistance@@3HA 6608ab7c     multi.obj
 0003:00006b80       ?dwAutoFollowMoveDistance@@3HA 6608ab80     multi.obj
 0003:00006b84       ?dwAutoFollowCheckInterval@@3HA 6608ab84     multi.obj
 0003:00006b88       ?dwAutoFollowClickObjectDelayMs@@3HA 6608ab88     multi.obj
 0003:00006b8c       ?dwWaitTeamEnterPortalMaxDelayMs@@3HA 6608ab8c     multi.obj
 0003:00006b90       ?tNecNoAttackInHell@@3UToggleVar@@A 6608ab90     multi.obj
 0003:00006f5c       ?tNpcTradeShowInfo@@3UToggleVar@@A 6608af5c     NpcTrade.obj
 0003:00006fd8       ?mAutoPartyDelays@@3HA     6608afd8     party.obj
 0003:00006fdc       ?tAutoParty@@3UToggleVar@@A 6608afdc     party.obj
 0003:0000700c       ?tAutoInvite@@3UToggleVar@@A 6608b00c     party.obj
 0003:0000703c       ?tAutoPermit@@3UToggleVar@@A 6608b03c     party.obj
 0003:00007120       ?nTownportalAlertNums@@3HA 6608b120     quick.obj
 0003:00007130       ?tBackToTown@@3UToggleVar@@A 6608b130     quick.obj
 0003:00007160       ?tQuickToLevel@@3UToggleVar@@A 6608b160     quick.obj
 0003:00007190       ?tExitGame@@3UToggleVar@@A 6608b190     quick.obj
 0003:000071c0       ?tQuickNextGame@@3UToggleVar@@A 6608b1c0     quick.obj
 0003:000071f0       ?tQuickNextGame2@@3UToggleVar@@A 6608b1f0     quick.obj
 0003:00007490       ?tRightClickSwap@@3UToggleVar@@A 6608b490     QuickSwapItem.obj
 0003:000074c0       ?tQuickDropToggle@@3UToggleVar@@A 6608b4c0     QuickSwapItem.obj
 0003:000074f0       ?tEnableGemAutoMerge@@3UToggleVar@@A 6608b4f0     QuickSwapItem.obj
 0003:000075d4       ?tHighResolution@@3UToggleVar@@A 6608b5d4     resolution.obj
 0003:00007630       ?tAutoPickupToggle@@3UToggleVar@@A 6608b630     skill.obj
 0003:00007660       ?tAutoEnchant@@3UToggleVar@@A 6608b660     skill.obj
 0003:00007690       ?dwRenewEnchantMs@@3HA     6608b690     skill.obj
 0003:00007694       ?dwAutoEnchantMana@@3HA    6608b694     skill.obj
 0003:00007698       ?dwRenewEnchantMana@@3HA   6608b698     skill.obj
 0003:0000769c       ?dwAutoEnchantPlayerLevel@@3HA 6608b69c     skill.obj
 0003:000076a0       ?tAutoWarCry@@3UToggleVar@@A 6608b6a0     skill.obj
 0003:000076d0       ?tAutoBackgroundSkill@@3UToggleVar@@A 6608b6d0     skill.obj
 0003:00007700       ?tAutoForegroundSkillToggle@@3UToggleVar@@A 6608b700     skill.obj
 0003:00007730       ?tAutoForegroundSkill@@3UToggleVar@@A 6608b730     skill.obj
 0003:00007760       ?dwAutoSkillCheckInterval@@3HA 6608b760     skill.obj
 0003:00007764       ?dwAutoSkillIdleDelay@@3HA 6608b764     skill.obj
 0003:00007768       ?dwAutoThrowMinQuantity@@3HA 6608b768     skill.obj
 0003:0000776c       ?dwAutoStaticFieldHPPercent@@3HA 6608b76c     skill.obj
 0003:00007770       ?tAutoSummon@@3UToggleVar@@A 6608b770     skill.obj
 0003:000077a0       ?tAutoSummonRevive@@3UToggleVar@@A 6608b7a0     skill.obj
 0003:000077d0       ?tShowSummonInfo@@3UToggleVar@@A 6608b7d0     skill.obj
 0003:00007800       ?dwAutoSummonMana@@3HA     6608b800     skill.obj
 0003:00007804       ?dwSwitchSkillMs@@3HA      6608b804     skill.obj
 0003:00007808       ?dwAutoSummonSkeletonLevelAdjust@@3HA 6608b808     skill.obj
 0003:0000780c       ?dwAutoSummonSkeletonMageLevelAdjust@@3HA 6608b80c     skill.obj
 0003:00007810       ?dwAutoSummonReviveLevelAdjust@@3HA 6608b810     skill.obj
 0003:00007814       ?tAutoForegroundSkill2@@3UToggleVar@@A 6608b814     skill.obj
 0003:00007e38       ?szSnapshotPath@@3PADA     6608be38     Snapshot.obj
 0003:00007f38       ?szSnapshotNamesPath@@3PADA 6608bf38     Snapshot.obj
 0003:00008038       ?tDoSnapshot@@3UToggleVar@@A 6608c038     Snapshot.obj
 0003:00008068       ?tSnapshot@@3UToggleVar@@A 6608c068     Snapshot.obj
 0003:00008098       ?tSnapshotNewGame@@3UToggleVar@@A 6608c098     Snapshot.obj
 0003:000080c8       ?tSnapshotEndGame@@3UToggleVar@@A 6608c0c8     Snapshot.obj
 0003:000080f8       ?tSnapshotLog@@3UToggleVar@@A 6608c0f8     Snapshot.obj
 0003:00008128       ?tSnapshotSaveD2s@@3UToggleVar@@A 6608c128     Snapshot.obj
 0003:000088d0       ?tServerTest@@3UToggleVar@@A 6608c8d0     server.obj
 0003:00008900       ?tRepeatAdminCmd@@3UToggleVar@@A 6608c900     server.obj
 0003:00008954       ?fEnableAdminCmd@@3HA      6608c954     server.obj
 0003:0000895c       ?adminCmdPrefix@@3PADA     6608c95c     server.obj
 0003:00008d0c       ?UberMephistoNbMinions@@3HA 6608cd0c     uber.obj
 0003:00008d10       ?UberMephistoMinions@@3PAHA 6608cd10     uber.obj
 0003:00008d28       ?UberMephistoSpawnPercent@@3HA 6608cd28     uber.obj
 0003:00008d2c       ?UberMephistoSpawnRadius@@3HA 6608cd2c     uber.obj
 0003:00008d30       ?UberBaalNbMinions@@3HA    6608cd30     uber.obj
 0003:00008d34       ?UberBaalMinions@@3PAHA    6608cd34     uber.obj
 0003:00008d3c       ?UberBaalSpawnPercent@@3HA 6608cd3c     uber.obj
 0003:00008d40       ?UberBaalSpawnRadius@@3HA  6608cd40     uber.obj
 0003:00008d44       ?UberDiabloNbMinions@@3HA  6608cd44     uber.obj
 0003:00008d48       ?UberDiabloMinions@@3PAHA  6608cd48     uber.obj
 0003:00008d4c       ?UberDiabloSpawnPercent@@3HA 6608cd4c     uber.obj
 0003:00008d50       ?UberDiabloSpawnRadius@@3HA 6608cd50     uber.obj
 0003:00008d54       ?uberBaalChillingArmorTimer@@3HA 6608cd54     uber.obj
 0003:00008e08       ?szVersion@@3PADA          6608ce08     version.obj
 0003:00008e0c       ?compileTime@@3PADA        6608ce0c     version.obj
 0003:00008e10       ___security_cookie         6608ce10     LIBCMT:gs_cookie.obj
 0003:00008e14       ___security_cookie_complement 6608ce14     LIBCMT:gs_cookie.obj
 0003:00008e20       __iob                      6608ce20     LIBCMT:_file.obj
 0003:000090a0       __fltused                  6608d0a0     LIBCMT:_fpinit_.obj
 0003:000090a4       __ldused                   6608d0a4     LIBCMT:_fpinit_.obj
 0003:000090b4       ??_R0?AVbad_alloc@std@@@8  6608d0b4     LIBCMT:new.obj
 0003:000090d0       ??_R0?AVexception@std@@@8  6608d0d0     LIBCMT:new.obj
 0003:00009118       ___initialmbcinfo          6608d118     LIBCMT:mbctype.obj
 0003:00009338       __mbctype                  6608d338     LIBCMT:mbctype.obj
 0003:00009440       __mbcasemap                6608d440     LIBCMT:mbctype.obj
 0003:00009540       ___ptmbcinfo               6608d540     LIBCMT:mbctype.obj
 0003:0000963c       ___globallocalestatus      6608d63c     LIBCMT:glstatus.obj
 0003:00009640       ___clocalestr              6608d640     LIBCMT:nlsdata2.obj
 0003:00009648       ___initiallocinfo          6608d648     LIBCMT:nlsdata2.obj
 0003:00009720       ___ptlocinfo               6608d720     LIBCMT:nlsdata2.obj
 0003:00009724       ___lc_clike                6608d724     LIBCMT:nlsdata2.obj
 0003:00009728       ___initiallocalestructinfo 6608d728     LIBCMT:nlsdata2.obj
 0003:00009730       ___flsindex                6608d730     LIBCMT:tidtable.obj
 0003:00009734       ___getvalueindex           6608d734     LIBCMT:tidtable.obj
 0003:000099c8       ___nullstring              6608d9c8     LIBCMT:output.obj
 0003:000099cc       ___wnullstring             6608d9cc     LIBCMT:output.obj
 0003:000099d0       ___badioinfo               6608d9d0     LIBCMT:ioinit.obj
 0003:00009a10       __amblksiz                 6608da10     LIBCMT:heapinit.obj
 0003:00009a20       __aexit_rtn                6608da20     LIBCMT:crt0dat.obj
 0003:00009a24       __cfltcvt_tab              6608da24     LIBCMT:cmiscdat.obj
 0003:00009b08       __lookuptrailbytes         6608db08     LIBCMT:read.obj
 0003:00009c10       ??_R0?AVtype_info@@@8      6608dc10     LIBCMT:typinfo.obj
 0003:00009c30       __indefinite               6608dc30     LIBCMT:_87disp_.obj
 0003:00009c3a       __piby2                    6608dc3a     LIBCMT:_87disp_.obj
 0003:00009c60       __First_FPE_Indx           6608dc60     LIBCMT:winxfltr.obj
 0003:00009c64       __Num_FPE                  6608dc64     LIBCMT:winxfltr.obj
 0003:00009c68       __XcptActTabSize           6608dc68     LIBCMT:winxfltr.obj
 0003:00009c6c       __XcptActTabCount          6608dc6c     LIBCMT:winxfltr.obj
 0003:00009c70       __pctype                   6608dc70     LIBCMT:ctype.obj
 0003:00009c74       __pwctype                  6608dc74     LIBCMT:ctype.obj
 0003:00009c78       ___lc_time_c               6608dc78     LIBCMT:strftime.obj
 0003:00009d30       ___lc_time_curr            6608dd30     LIBCMT:strftime.obj
 0003:00009d34       ___lconv_static_decimal    6608dd34     LIBCMT:lconv.obj
 0003:00009d38       ___lconv_c                 6608dd38     LIBCMT:lconv.obj
 0003:00009d68       ___lconv                   6608dd68     LIBCMT:lconv.obj
 0003:00009d6c       ___mb_cur_max              6608dd6c     LIBCMT:nlsdata1.obj
 0003:00009d70       ___decimal_point           6608dd70     LIBCMT:nlsdata1.obj
 0003:00009d74       ___decimal_point_length    6608dd74     LIBCMT:nlsdata1.obj
 0003:00009d90       __NLG_Destination          6608dd90     LIBCMT:exsup.obj
 0003:00009dc0       __timezone                 6608ddc0     LIBCMT:timeset.obj
 0003:00009dc4       __daylight                 6608ddc4     LIBCMT:timeset.obj
 0003:00009dc8       __dstbias                  6608ddc8     LIBCMT:timeset.obj
 0003:00009e50       __tzname                   6608de50     LIBCMT:timeset.obj
 0003:00009e58       __lpdays                   6608de58     LIBCMT:days.obj
 0003:00009e8c       __days                     6608de8c     LIBCMT:days.obj
 0003:00009ec0       __coninpfh                 6608dec0     LIBCMT:initcon.obj
 0003:00009ec4       __confh                    6608dec4     LIBCMT:initcon.obj
 0003:00009ec8       ___abort_behavior          6608dec8     LIBCMT:abort.obj
 0003:00009fe8       __matherr_flag             6608dfe8     LIBCMT:_matherr_.obj
 0003:0000a010       __pow10pos                 6608e010     LIBCMT:_constpow_.obj
 0003:0000a170       __pow10neg                 6608e170     LIBCMT:_constpow_.obj
 0003:0000a2d0       __d_inf                    6608e2d0     LIBCMT:_util_.obj
 0003:0000a2d8       __d_ind                    6608e2d8     LIBCMT:_util_.obj
 0003:0000a2e0       __d_max                    6608e2e0     LIBCMT:_util_.obj
 0003:0000a2e8       __d_min                    6608e2e8     LIBCMT:_util_.obj
 0003:0000a2f0       __d_mzero                  6608e2f0     LIBCMT:_util_.obj
 0003:0000a300       ?tmpSymbols@@3PAUSymbol@@A 6608e300     config.obj
 0003:0000a704       ?logfp@@3PAU_iobuf@@A      6608e704     config.obj
 0003:0000a708       ?tKeyEventMap@@3PAPAUToggleVar@@A 6608e708     config.obj
 0003:0000c710       ?warningMsgs@@3PAUWarningMsg@@A 66090710     config.obj
 0003:0000c718       ?pSymbols@@3PAUSymbol@@A   66090718     config.obj
 0003:0000c71c       ?nSymbols@@3HA             6609071c     config.obj
 0003:0000c720       ?capSymbols@@3HA           66090720     config.obj
 0003:0000c724       ?nTmpSymbols@@3HA          66090724     config.obj
 0003:0000c728       ?fSymbolSorted@@3HA        66090728     config.obj
 0003:0000c730       ?configVarCap@@3HA         66090730     config.obj
 0003:0000c734       ?configVarCount@@3HA       66090734     config.obj
 0003:0000c738       ?loadingConfigs@@3PAULoadingConfig@@A 66090738     config.obj
 0003:0000c740       ?hInstDLL@@3PAUHINSTANCE__@@A 66090740     DllMain.obj
 0003:0000c744       ?dllHeap@@3PAXA            66090744     DllMain.obj
 0003:0000c748       ?confHeap@@3PAXA           66090748     DllMain.obj
 0003:0000c74c       ?gameHeap@@3PAXA           6609074c     DllMain.obj
 0003:0000c750       ?fIsSinglePlayer@@3HA      66090750     DllMain.obj
 0003:0000c754       ?fIsTcpIp@@3HA             66090754     DllMain.obj
 0003:0000c758       ?fIsRealmServer@@3HA       66090758     DllMain.obj
 0003:0000c75c       ?fIsRealmClient@@3HA       6609075c     DllMain.obj
 0003:0000c760       ?szDllPath@@3PADA          66090760     DllMain.obj
 0003:0000c868       ?szPluginPath@@3PADA       66090868     DllMain.obj
 0003:0000c970       ?reloadStorage@@3PADA      66090970     DllMain.obj
 0003:0000c974       ?reloadStorageSize@@3HA    66090974     DllMain.obj
 0003:0000c978       ?storm_pmpq_load_flag@@3PAHA 66090978     install.obj
 0003:0000c97c       ?storm_pmpq_crypt_table@@3PAHA 6609097c     install.obj
 0003:0000c980       ?storm_regQueryValue@@3P6GHPAD0H0H@ZA 66090980     install.obj
 0003:0000c984       ?storm_snprintf@@3P6AHPADHHZZA 66090984     install.obj
 0003:0000c988       ?storm_processWinMessage372@@3P6GHHPAUHWND__@@HPAUD2MSG@@@ZA 66090988     install.obj
 0003:0000c98c       ?storm_processWinMessage@@3P6GHPAUHWND__@@HHHPAX1@ZA 6609098c     install.obj
 0003:0000c990       ?storm_openMpq@@3P6GHPBDHHPAX@ZA 66090990     install.obj
 0003:0000c994       ?storm_mpq_open_block@@3P6GHPADPAUmpq_block@@@ZA 66090994     install.obj
 0003:0000c998       ?storm_mpq_open_block_from@@3P6GHPAXPADHPAUmpq_block@@@ZA 66090998     install.obj
 0003:0000c99c       ?storm_mpq_read_block@@3P6GHPAUmpq_block@@HPADH@ZA 6609099c     install.obj
 0003:0000c9a0       ?storm_mk_abs_path@@3P6GPADPADPAX@ZA 660909a0     install.obj
 0003:0000c9a4       ?storm_mpq_hashstring@@3P6GHH@ZA 660909a4     install.obj
 0003:0000c9a8       ?storm_mpq_uncompress@@3P6GHPAXPAH0H@ZA 660909a8     install.obj
 0003:0000c9ac       ?fog_Ord10218@@3P6IHXZA    660909ac     install.obj
 0003:0000c9b0       ?fog_getMCPPacket@@3P6GHPAXPADH@ZA 660909b0     install.obj
 0003:0000c9b4       ?fog_Ord10089@@3P6IHH@ZA   660909b4     install.obj
 0003:0000c9b8       ?fog_uninit@@3P6GHXZA      660909b8     install.obj
 0003:0000c9bc       ?fog_realloc@@3P6IPAXHPAXHPADHH@ZA 660909bc     install.obj
 0003:0000c9c0       ?fog_allocMemory@@3P6IPAXHHPADHH@ZA 660909c0     install.obj
 0003:0000c9c4       ?fog_getCriticalSection@@3P6IPAUCriticalSection@@HPADHH@ZA 660909c4     install.obj
 0003:0000c9c8       ?fog_setCriticalSection@@3P6IHPAUCriticalSection@@PADHH@ZA 660909c8     install.obj
 0003:0000c9cc       ?fog_freeMemory@@3P6IHHPAXPADHH@ZA 660909cc     install.obj
 0003:0000c9d0       ?fog_Ord10101@@3P6IHHH@ZA  660909d0     install.obj
 0003:0000c9d4       ?fog_mpq_open_block@@3P6IHPADPAUmpq_block@@@ZA 660909d4     install.obj
 0003:0000c9d8       ?fog_initBitStream@@3P6GPAUFogBits@@PAU1@PADH@ZA 660909d8     install.obj
 0003:0000c9dc       ?fog_writeBitStream@@3P6GXPAUFogBits@@HH@ZA 660909dc     install.obj
 0003:0000c9e0       ?fog_setBit@@3P6GXPAXH@ZA  660909e0     install.obj
 0003:0000c9e4       ?fog_clearBit@@3P6GXPAXH@ZA 660909e4     install.obj
 0003:0000c9e8       ?fog_getBitStreamBytes@@3P6GHPAUFogBits@@@ZA 660909e8     install.obj
 0003:0000c9ec       ?fog_alignBitStreamToByte@@3P6GHPAUFogBits@@@ZA 660909ec     install.obj
 0003:0000c9f0       ?fog_Ord10019@@3P6IHPADPAX0H@ZA 660909f0     install.obj
 0003:0000c9f4       ?fog_FogValidateCriticalSection@@3P6IHPAUCriticalSection@@H@ZA 660909f4     install.obj
 0003:0000c9f8       ?fog_reportError@@3P6AXPAXHH@ZA 660909f8     install.obj
 0003:0000c9fc       ?fog_setLogFilePrefix@@3P6IHPAD@ZA 660909fc     install.obj
 0003:0000ca00       ?fog_getEIP@@3P6GHXZA      66090a00     install.obj
 0003:0000ca04       ?fog_getClientID@@3P6GHPAUClientInfos@@H@ZA 66090a04     install.obj
 0003:0000ca08       ?fog_getClientInfo@@3P6GPAUClientInfo@@PAUClientInfos@@H@ZA 66090a08     install.obj
 0003:0000ca0c       ?fog_enableNTFeature@@3P6GHPAH@ZA 66090a0c     install.obj
 0003:0000ca10       ?fog_exit@@3P6GXH@ZA       66090a10     install.obj
 0003:0000ca14       ?d2win_pDrawHoverY@@3PAHA  66090a14     install.obj
 0003:0000ca18       ?d2win_pmusic_volumn@@3PAHA 66090a18     install.obj
 0003:0000ca1c       ?d2win_pRunningFlag@@3PAHA 66090a1c     install.obj
 0003:0000ca20       ?d2win_pclientProcessMessageFunc@@3PAPAXA 66090a20     install.obj
 0003:0000ca24       ?d2win_pFocusedControl@@3PAPAUD2EditBox@@A 66090a24     install.obj
 0003:0000ca28       ?d2win_pvar_214A0@@3PAPAXA 66090a28     install.obj
 0003:0000ca2c       ?d2win_DrawMainMenu@@3P6IPAXXZA 66090a2c     install.obj
 0003:0000ca30       ?d2win_CreateTextBox@@3P6GPAXPAK@ZA 66090a30     install.obj
 0003:0000ca34       ?d2win_DestroyListBox@@3P6GXPAUD2EditBox@@@ZA 66090a34     install.obj
 0003:0000ca38       ?d2win_processMessage@@3P6GHPAUHWND__@@HHH@ZA 66090a38     install.obj
 0003:0000ca3c       ?d2win_CreateEditBox@@3P6IPAUD2EditBox@@HHHHHHPAUCellFile@@KKKPAX@ZA 66090a3c     install.obj
 0003:0000ca40       ?d2win_DestroyEditBox@@3P6IHPAUD2EditBox@@@ZA 66090a40     install.obj
 0003:0000ca44       ?d2win_AddEditBoxChar@@3P6IKPAUD2EditBox@@E@ZA 66090a44     install.obj
 0003:0000ca48       ?d2win_SetEditBoxText@@3P6IPAXPAUD2EditBox@@PA_W@ZA 66090a48     install.obj
 0003:0000ca4c       ?d2win_SetEditBoxProc@@3P6IXPAUD2EditBox@@P6GH0HPAD@Z@ZA 66090a4c     install.obj
 0003:0000ca50       ?d2win_SelectEditBoxText@@3P6IXPAUD2EditBox@@@ZA 66090a50     install.obj
 0003:0000ca54       ?d2win_GetEditBoxText@@3P6IPA_WPAUD2EditBox@@@ZA 66090a54     install.obj
 0003:0000ca58       ?d2win_DrawHover@@3P6IXXZA 66090a58     install.obj
 0003:0000ca5c       ?d2win_SetTextFont@@3P6IHH@ZA 66090a5c     install.obj
 0003:0000ca60       ?d2win_DrawText@@3P6IXPA_WJJHH@ZA 66090a60     install.obj
 0003:0000ca64       ?d2win_GetTextPixelLen@@3P6IHPA_W@ZA 66090a64     install.obj
 0003:0000ca68       ?d2win_DrawUnitLifeBar@@3P6IHPA_WJJHKK@ZA 66090a68     install.obj
 0003:0000ca6c       ?d2win_GetTextAreaSize@@3P6IHPA_WPAH1@ZA 66090a6c     install.obj
 0003:0000ca70       ?d2win_DrawHoverText@@3P6IXPA_WJJHH@ZA 66090a70     install.obj
 0003:0000ca74       ?d2win_initMPQ@@3P6IHXZA   66090a74     install.obj
 0003:0000ca78       ?d2win_uninit@@3P6GHXZA    66090a78     install.obj
 0003:0000ca7c       ?d2win_addLineToList@@3P6IXPAUD2EditBox@@PAD@ZA 66090a7c     install.obj
 0003:0000ca80       ?d2win_PrintLineOnTextBox@@3P6IXPAXPADH@ZA 66090a80     install.obj
 0003:0000ca84       ?d2win_setLineEndText@@3P6IXPAUD2EditBox@@PADPAXH@ZA 66090a84     install.obj
 0003:0000ca88       ?d2win_ToggleSound@@3P6GXXZA 66090a88     install.obj
 0003:0000ca8c       ?d2sound_pmusic_volumn@@3PAHA 66090a8c     install.obj
 0003:0000ca90       ?d2sound_get_music_volumn@@3P6AHXZA 66090a90     install.obj
 0003:0000ca94       ?d2sound_set_music_volumn@@3P6IHH@ZA 66090a94     install.obj
 0003:0000ca98       ?d2net_pclientInfos@@3PAPAUClientInfos@@A 66090a98     install.obj
 0003:0000ca9c       ?d2net_pUnkNetFlag@@3PAKA  66090a9c     install.obj
 0003:0000caa0       ?d2net_ppacketSizes@@3PAHA 66090aa0     install.obj
 0003:0000caa4       ?d2net_SendPacket@@3P6GXHHPAE@ZA 66090aa4     install.obj
 0003:0000caa8       ?d2net_getPacketSize@@3P6IXPADHPAH@ZA 66090aa8     install.obj
 0003:0000caac       ?d2net_initNetwork@@3P6GHHH@ZA 66090aac     install.obj
 0003:0000cab0       ?d2net_SendToClient@@3P6GHHHPAXH@ZA 66090ab0     install.obj
 0003:0000cab4       ?d2net_uninit@@3P6GHXZA    66090ab4     install.obj
 0003:0000cab8       ?d2net_getWorldId@@3P6GHH@ZA 66090ab8     install.obj
 0003:0000cabc       ?d2multi_plastRefreshMs2@@3PAHA 66090abc     install.obj
 0003:0000cac0       ?d2multi_plastRefreshMs1@@3PAHA 66090ac0     install.obj
 0003:0000cac4       ?d2multi_pnGames@@3PAHA    66090ac4     install.obj
 0003:0000cac8       ?d2multi_pGameDescription@@3PAPAUD2EditBox@@A 66090ac8     install.obj
 0003:0000cacc       ?d2multi_pGamePassword@@3PAPAUD2EditBox@@A 66090acc     install.obj
 0003:0000cad0       ?d2multi_pGameName@@3PAPAUD2EditBox@@A 66090ad0     install.obj
 0003:0000cad4       ?d2multi_pGameListControl@@3PAPAUD2EditBox@@A 66090ad4     install.obj
 0003:0000cad8       ?d2multi_pmcp05_games2@@3PAUMcp05Game@@A 66090ad8     install.obj
 0003:0000cadc       ?d2multi_pEditboxPreferences@@3PAPAXA 66090adc     install.obj
 0003:0000cae0       ?d2multi_pmcp05_games@@3PAUMcp05Game@@A 66090ae0     install.obj
 0003:0000cae4       ?d2multi_reset_games@@3P6GHXZA 66090ae4     install.obj
 0003:0000cae8       ?d2multi_add_game@@3P6GHXZA 66090ae8     install.obj
 0003:0000caec       ?d2multi_show_games@@3P6GHXZA 66090aec     install.obj
 0003:0000caf0       ?d2multi_num2str@@3P6AHHPADH@ZA 66090af0     install.obj
 0003:0000caf4       ?d2multi_num2str1058@@3P6GHHH@ZA 66090af4     install.obj
 0003:0000caf8       ?d2mcpclient_pmcp05_type@@3PAHA 66090af8     install.obj
 0003:0000cafc       ?d2mcpclient_pmcp05_gameName2@@3PADA 66090afc     install.obj
 0003:0000cb00       ?d2mcpclient_pmcp05_gameName@@3PADA 66090b00     install.obj
 0003:0000cb04       ?d2mcpclient_pmcp05_off08@@3PAHA 66090b04     install.obj
 0003:0000cb08       ?d2mcpclient_pmcp05_nPlayers@@3PAHA 66090b08     install.obj
 0003:0000cb0c       ?d2mcpclient_pmcp05_idx@@3PAHA 66090b0c     install.obj
 0003:0000cb10       ?d2mcpclient_pmcp05_seqId@@3PAHA 66090b10     install.obj
 0003:0000cb14       ?d2mcpclient_pmcp05_buf@@3PAUMcp05Buf@@A 66090b14     install.obj
 0003:0000cb18       ?d2mcpclient_pmcpSrc@@3PAPAXA 66090b18     install.obj
 0003:0000cb1c       ?d2mcpclient_pAccountInfo@@3PAUD2AccountInfo@@A 66090b1c     install.obj
 0003:0000cb20       ?d2mcpclient_pmpc05_seqId@@3PAFA 66090b20     install.obj
 0003:0000cb24       ?d2mcpclient_processOnePacket@@3P6GHXZA 66090b24     install.obj
 0003:0000cb28       ?d2mcpclient_getMcp05Buf@@3P6GPAUMcp05Buf@@XZA 66090b28     install.obj
 0003:0000cb2c       ?d2mcpclient_mcpPacket05@@3P6IHPAUMCPPacket05@@H@ZA 66090b2c     install.obj
 0003:0000cb30       ?d2launch_pcharCount@@3PAHA 66090b30     install.obj
 0003:0000cb34       ?d2launch_pD2Characters@@3PAPAUD2Character@@A 66090b34     install.obj
 0003:0000cb38       ?d2launch_plaunchNumChildren@@3PAHA 66090b38     install.obj
 0003:0000cb3c       ?d2launch_plaunchChildren@@3PAPAXA 66090b3c     install.obj
 0003:0000cb40       ?d2launch_pSelectedCharIndex@@3PAHA 66090b40     install.obj
 0003:0000cb44       ?d2launch_pcreateTextBoxParam11F0@@3PAPAKA 66090b44     install.obj
 0003:0000cb48       ?d2launch_DeleteCharacter@@3P6IXPAD@ZA 66090b48     install.obj
 0003:0000cb4c       ?d2launch_DeleteSelectedCharacter@@3P6GHH@ZA 66090b4c     install.obj
 0003:0000cb50       ?d2launch_sprintf@@3P6AHPAD0ZZA 66090b50     install.obj
 0003:0000cb54       ?d2lang_strcat@@3P6IPA_WPA_W0@ZA 66090b54     install.obj
 0003:0000cb58       ?d2lang_initLanguage@@3P6IHHPADH@ZA 66090b58     install.obj
 0003:0000cb5c       ?d2lang_uninit@@3P6GHXZA   66090b5c     install.obj
 0003:0000cb60       ?d2lang_GetLocaleText@@3P6IPA_WH@ZA 66090b60     install.obj
 0003:0000cb64       ?d2gfx_pWinState@@3PAHA    66090b64     install.obj
 0003:0000cb68       ?d2gfx_pDrawGoundH1@@3PAHA 66090b68     install.obj
 0003:0000cb6c       ?d2gfx_pDrawGoundH2@@3PAHA 66090b6c     install.obj
 0003:0000cb70       ?d2gfx_pcallbackTable@@3PAPAXA 66090b70     install.obj
 0003:0000cb74       ?d2gfx_pResolutionMode@@3PAHA 66090b74     install.obj
 0003:0000cb78       ?d2gfx_DrawRectangle@@3P6GXJJJJHH@ZA 66090b78     install.obj
 0003:0000cb7c       ?d2gfx_DrawLine@@3P6GXHHHHHH@ZA 66090b7c     install.obj
 0003:0000cb80       ?d2gfx_getResolutionMode@@3P6GHXZA 66090b80     install.obj
 0003:0000cb84       ?d2gfx_DrawCellFile@@3P6GHPAUCellContext@@HHKHPAE@ZA 66090b84     install.obj
 0003:0000cb88       ?d2gfx_drawSomething@@3P6GXPAXHHHHH@ZA 66090b88     install.obj
 0003:0000cb8c       ?d2gfx_FillOrb@@3P6GXHHHHHH@ZA 66090b8c     install.obj
 0003:0000cb90       ?d2gfx_DrawAutomapNode@@3P6GXPAUCellContext@@HHPAUtagRECT@@K@ZA 66090b90     install.obj
 0003:0000cb94       ?d2gfx_drawShadow@@3P6GXPAXHH@ZA 66090b94     install.obj
 0003:0000cb98       ?d2gfx_clearFramebuf@@3P6GXHHHH@ZA 66090b98     install.obj
 0003:0000cb9c       ?d2gfx_flushFramebuf@@3P6GXXZA 66090b9c     install.obj
 0003:0000cba0       ?d2gfx_Ordinal10043@@3P6GXXZA 66090ba0     install.obj
 0003:0000cba4       ?d2gfx_MinimizeWindows@@3P6GXK@ZA 66090ba4     install.obj
 0003:0000cba8       ?d2gfx_GetHwnd@@3P6GPAUHWND__@@XZA 66090ba8     install.obj
 0003:0000cbac       ?d2gfx_drawGroundPiece@@3P6GXPAX0HHHHHHH@ZA 66090bac     install.obj
 0003:0000cbb0       ?d2gdi_pcriticalSection@@3PAPAUCriticalSection@@A 66090bb0     install.obj
 0003:0000cbb4       ?d2gdi_pFrameBuf@@3PAPAXA  66090bb4     install.obj
 0003:0000cbb8       ?d2gdi_pDisplayRight@@3PAHA 66090bb8     install.obj
 0003:0000cbbc       ?d2gdi_pFrameBufHeight@@3PAHA 66090bbc     install.obj
 0003:0000cbc0       ?d2gdi_pgdiobj@@3PAPAXA    66090bc0     install.obj
 0003:0000cbc4       ?d2gdi_ppalette@@3PAPAUHPALETTE__@@A 66090bc4     install.obj
 0003:0000cbc8       ?d2gdi_pFrameBufWidth@@3PAHA 66090bc8     install.obj
 0003:0000cbcc       ?d2gdi_phwnd@@3PAPAUHWND__@@A 66090bcc     install.obj
 0003:0000cbd0       ?d2gdi_pColorMap@@3PAHA    66090bd0     install.obj
 0003:0000cbd4       ?d2gdi_initCriticalSection@@3P6IHPAX0@ZA 66090bd4     install.obj
 0003:0000cbd8       ?d2game_pDropChioceProb@@3PAHA 66090bd8     install.obj
 0003:0000cbdc       ?d2game_pDropChioces@@3PAHA 66090bdc     install.obj
 0003:0000cbe0       ?d2game_pworldHash@@3PAPAUWorldHash@@A 66090be0     install.obj
 0003:0000cbe4       ?d2game_pcriticalSection@@3PAUCriticalSection@@A 66090be4     install.obj
 0003:0000cbe8       ?d2game_pSPUnitOffsets@@3PAHA 66090be8     install.obj
 0003:0000cbec       ?d2game_psgptDataTables@@3PAPAUD2DataTables@@A 66090bec     install.obj
 0003:0000cbf0       ?d2game_MonsterMove@@3P6IXPAUWorld@@PAUUnitAny@@1HHHHH@ZA 66090bf0     install.obj
 0003:0000cbf4       ?d2game_MonsterUseSkill@@3P6IXPAUWorld@@PAUUnitAny@@HH1HH@ZA 66090bf4     install.obj
 0003:0000cbf8       ?d2game_SpawnMonster@@3P6IPAUUnitAny@@HHPAUWorld@@PAUAreaRectData@@HHHH@ZA 66090bf8     install.obj
 0003:0000cbfc       ?d2game_SpawnMonsterEF10@@3P6IPAUUnitAny@@PAUSpawnMon@@@ZA 66090bfc     install.obj
 0003:0000cc00       ?d2game_MakeD2S@@3P6IHPAUUnitAny@@PAUWorld@@PADPAHHHH@ZA 66090c00     install.obj
 0003:0000cc04       ?d2game_playerUpgrade@@3P6GHPAUWorld@@@ZA 66090c04     install.obj
 0003:0000cc08       ?d2game_CreateUnit@@3P6IPAUUnitAny@@HHHHPAUWorld@@PAUAreaRectData@@HHH@ZA 66090c08     install.obj
 0003:0000cc0c       ?d2game_GetUnit@@3P6IHPAUWorld@@H@ZA 66090c0c     install.obj
 0003:0000cc10       ?d2game_isUnitDead@@3P6GHXZA 66090c10     install.obj
 0003:0000cc14       ?d2game_swapWeapon@@3P6GHPAUWorld@@PAH@ZA 66090c14     install.obj
 0003:0000cc18       ?d2game_pickupItem@@3P6GHHPAH@ZA 66090c18     install.obj
 0003:0000cc1c       ?d2game_putItemInSocketD4A70@@3P6GHPAUWorld@@PAUUnitAny@@HPAHHHHH@ZA 66090c1c     install.obj
 0003:0000cc20       ?d2game_recv19_invToHand@@3P6IHPAUWorld@@PAUUnitAny@@PADH@ZA 66090c20     install.obj
 0003:0000cc24       ?d2game_recv16_pickup@@3P6IHPAUWorld@@PAUUnitAny@@PADH@ZA 66090c24     install.obj
 0003:0000cc28       ?d2game_pickup@@3P6IHPAUWorld@@HPAUUnitAny@@H@ZA 66090c28     install.obj
 0003:0000cc2c       ?d2game_recv60_swapWeapon@@3P6IHPAUWorld@@PAUUnitAny@@PADH@ZA 66090c2c     install.obj
 0003:0000cc30       ?d2game_recv1A_handToBody@@3P6IHPAUWorld@@PAUUnitAny@@PADH@ZA 66090c30     install.obj
 0003:0000cc34       ?d2game_recv28_socket@@3P6IHPAUWorld@@PAUUnitAny@@PADH@ZA 66090c34     install.obj
 0003:0000cc38       ?d2game_itemNotInInv@@3P6IHHHPAUUnitAny@@@ZA 66090c38     install.obj
 0003:0000cc3c       ?d2game_processPacket@@3P6GHPAUWorld@@H@ZA 66090c3c     install.obj
 0003:0000cc40       ?d2game_recv40_quest@@3P6IHPAUWorld@@PAUUnitAny@@PADH@ZA 66090c40     install.obj
 0003:0000cc44       ?d2game_passClassicB9F20@@3P6IHPAUWorld@@PAUUnitAny@@H@ZA 66090c44     install.obj
 0003:0000cc48       ?d2game_passClassicB9A30@@3P6IHXZA 66090c48     install.obj
 0003:0000cc4c       ?d2game_BaalAI@@3P6IXPAUWorld@@PAUUnitAny@@PAX@ZA 66090c4c     install.obj
 0003:0000cc50       ?d2game_UberBaalAI@@3P6IXPAUWorld@@PAUUnitAny@@PAX@ZA 66090c50     install.obj
 0003:0000cc54       ?d2game_DiabloAI@@3P6IXPAUWorld@@PAUUnitAny@@PAX@ZA 66090c54     install.obj
 0003:0000cc58       ?d2game_UberDiabloAI@@3P6IXPAUWorld@@PAUUnitAny@@PAX@ZA 66090c58     install.obj
 0003:0000cc5c       ?d2game_NecSummon@@3P6IPAUUnitAny@@XZA 66090c5c     install.obj
 0003:0000cc60       ?d2game_LinkPortal@@3P6GPAUUnitAny@@PAUWorld@@PAU1@HH@ZA 66090c60     install.obj
 0003:0000cc64       ?d2game_fun_8EBC0@@3P6GHPAUWorld@@PAX@ZA 66090c64     install.obj
 0003:0000cc68       ?d2game_SetSkillBaseLevelOnClient@@3P6IXPAXPAUUnitAny@@HHH@ZA 66090c68     install.obj
 0003:0000cc6c       ?d2game_sendPacket@@3P6GHPADH@ZA 66090c6c     install.obj
 0003:0000cc70       ?d2game_MephAI@@3P6IXPAUWorld@@PAUUnitAny@@PAX@ZA 66090c70     install.obj
 0003:0000cc74       ?d2game_UberMephAI@@3P6IXPAUWorld@@PAUUnitAny@@PAX@ZA 66090c74     install.obj
 0003:0000cc78       ?d2game_fun_769A0@@3P6GHPAUWorld@@HH@ZA 66090c78     install.obj
 0003:0000cc7c       ?d2game_OpenPandPortal@@3P6IXPAUWorld@@PAUUnitAny@@@ZA 66090c7c     install.obj
 0003:0000cc80       ?d2game_OpenPandFinalPortal@@3P6IXPAUWorld@@PAUUnitAny@@@ZA 66090c80     install.obj
 0003:0000cc84       ?d2game_passExpansion599E0@@3P6IXPAUWorld@@PAUUnitAny@@H@ZA 66090c84     install.obj
 0003:0000cc88       ?d2game_passExpansion58BE0@@3P6IXPAUUnitAny@@@ZA 66090c88     install.obj
 0003:0000cc8c       ?d2game_fun_4E2A0@@3P6IXPAUWorld@@PAUUnitAny@@H@ZA 66090c8c     install.obj
 0003:0000cc90       ?d2game_getNetClient@@3P6IPAUNetClient@@H@ZA 66090c90     install.obj
 0003:0000cc94       ?d2game_processClientQuestReq@@3P6GHPAUWorld@@PAUUnitAny@@@ZA 66090c94     install.obj
 0003:0000cc98       ?d2game_sendQuestToClient@@3P6GHPAUWorld@@@ZA 66090c98     install.obj
 0003:0000cc9c       ?d2game_processGame@@3P6GHXZA 66090c9c     install.obj
 0003:0000cca0       ?d2game_isBusy@@3P6GHH@ZA  66090ca0     install.obj
 0003:0000cca4       ?d2game_Ord10024@@3P6GHHH@ZA 66090ca4     install.obj
 0003:0000cca8       ?d2game_endAllGames@@3P6AHH@ZA 66090ca8     install.obj
 0003:0000ccac       ?d2game_Ord10038@@3P6GHXZA 66090cac     install.obj
 0003:0000ccb0       ?d2game_SendDatabaseCharacter@@3P6GHHPAXHHHHPAUPlayerInfo@@H@ZA 66090cb0     install.obj
 0003:0000ccb4       ?d2game_removeClientFromGame@@3P6GHH@ZA 66090cb4     install.obj
 0003:0000ccb8       ?d2game_SaveGame@@3P6GXPAUWorld@@@ZA 66090cb8     install.obj
 0003:0000ccbc       ?d2game_NewEmptyGame@@3P6GHPAD00HDDDPAF@ZA 66090cbc     install.obj
 0003:0000ccc0       ?d2game_getWorld@@3P6GPAUWorld@@XZA 66090cc0     install.obj
 0003:0000ccc4       ?d2game_getWorldByID@@3P6GPAUWorld@@H@ZA 66090cc4     install.obj
 0003:0000ccc8       ?d2game_uninit@@3P6GHXZA   66090cc8     install.obj
 0003:0000cccc       ?d2game_setWorldHash@@3P6GHPAUWorldHash@@PAH@ZA 66090ccc     install.obj
 0003:0000ccd0       ?d2game_initCallbackTable@@3P6GHPAX@ZA 66090cd0     install.obj
 0003:0000ccd4       ?d2game_SpawnSuperUnique@@3P6IHPAUWorld@@PAUAreaRectData@@HHHHHH@ZA 66090cd4     install.obj
 0003:0000ccd8       ?d2game_Game235C0@@3P6GXPAUWorld@@PAUAreaRectData@@@ZA 66090cd8     install.obj
 0003:0000ccdc       ?d2game_DropItem1880@@3P6GXPAUWorld@@HHHH@ZA 66090cdc     install.obj
 0003:0000cce0       ?d2game_DropItem1490@@3P6GPAUUnitAny@@PAUWorld@@PAXH@ZA 66090ce0     install.obj
 0003:0000cce4       ?d2game_GetFreeXY@@3P6GPAUAreaRectData@@PAU1@PAUtagPOINT@@H@ZA 66090ce4     install.obj
 0003:0000cce8       ?d2game_GetUnitLevel@@3P6GHH@ZA 66090ce8     install.obj
 0003:0000ccec       ?d2game_hasDroppedUnique@@3P6IHH@ZA 66090cec     install.obj
 0003:0000ccf0       ?d2game_exit@@3P6GHH@ZA    66090cf0     install.obj
 0003:0000ccf4       ?d2game_getWorld_2130@@3P6GPAUWorld@@XZA 66090cf4     install.obj
 0003:0000ccf8       ?d2game_TestPosition@@3P6IPAUAreaRectData@@XZA 66090cf8     install.obj
 0003:0000ccfc       ?d2game_random@@3P6IHPAUD2Seed@@@ZA 66090cfc     install.obj
 0003:0000cd00       ?d2common_pnCubeMain@@3PAHA 66090d00     install.obj
 0003:0000cd04       ?d2common_ppCubeMainTxt@@3PAPAXA 66090d04     install.obj
 0003:0000cd08       ?d2common_pnMapCache@@3PAHA 66090d08     install.obj
 0003:0000cd0c       ?d2common_ppMapCache@@3PAPAXA 66090d0c     install.obj
 0003:0000cd10       ?d2common_ppLvlSubCache@@3PAPAXA 66090d10     install.obj
 0003:0000cd14       ?d2common_pnLvlSub@@3PAHA  66090d14     install.obj
 0003:0000cd18       ?d2common_ppLvlSubTxt@@3PAPAXA 66090d18     install.obj
 0003:0000cd1c       ?d2common_pnLvlMaze@@3PAHA 66090d1c     install.obj
 0003:0000cd20       ?d2common_ppLvlMazeTxt@@3PAPAXA 66090d20     install.obj
 0003:0000cd24       ?d2common_pnLvlWarp@@3PAHA 66090d24     install.obj
 0003:0000cd28       ?d2common_ppLvlWarpTxt@@3PAPAXA 66090d28     install.obj
 0003:0000cd2c       ?d2common_pnLvlTypes@@3PAHA 66090d2c     install.obj
 0003:0000cd30       ?d2common_pnWaypoints@@3PAHA 66090d30     install.obj
 0003:0000cd34       ?d2common_ppWaypoints@@3PAPAXA 66090d34     install.obj
 0003:0000cd38       ?d2common_ppLvlTypesTxt@@3PAPAXA 66090d38     install.obj
 0003:0000cd3c       ?d2common_ppArenaTxt@@3PAPAXA 66090d3c     install.obj
 0003:0000cd40       ?d2common_pnCharTemplate@@3PAHA 66090d40     install.obj
 0003:0000cd44       ?d2common_ppCharTemplateTxt@@3PAPAXA 66090d44     install.obj
 0003:0000cd48       ?d2common_pnLvlSubExtraStuff@@3PAHA 66090d48     install.obj
 0003:0000cd4c       ?d2common_ppLvlSubExtraStuff@@3PAPAXA 66090d4c     install.obj
 0003:0000cd50       ?d2common_pExpFieldRuntimeData@@3PAPAXA 66090d50     install.obj
 0003:0000cd54       ?d2common_ppExpFieldD2@@3PAPAXA 66090d54     install.obj
 0003:0000cd58       ?d2common_pnDifficultyLevels@@3PAHA 66090d58     install.obj
 0003:0000cd5c       ?d2common_ppDifficultyLevelsTxt@@3PAPAXA 66090d5c     install.obj
 0003:0000cd60       ?d2common_ppExperienceTxt@@3PAPAXA 66090d60     install.obj
 0003:0000cd64       ?d2common_ppAnimTables@@3PAPAXA 66090d64     install.obj
 0003:0000cd68       ?d2common_pItemStatCostStuff@@3PAPAXA 66090d68     install.obj
 0003:0000cd6c       ?d2common_pnLvlPrest@@3PAHA 66090d6c     install.obj
 0003:0000cd70       ?d2common_ppLvlPrestTxt@@3PAPAXA 66090d70     install.obj
 0003:0000cd74       ?d2common_ppLvlDefsBin@@3PAPAXA 66090d74     install.obj
 0003:0000cd78       ?d2common_pnLevels@@3PAHA  66090d78     install.obj
 0003:0000cd7c       ?d2common_ppLevelsTxt@@3PAPAXA 66090d7c     install.obj
 0003:0000cd80       ?d2common_pnMonUMod@@3PAHA 66090d80     install.obj
 0003:0000cd84       ?d2common_ppMonUModTxt@@3PAPAXA 66090d84     install.obj
 0003:0000cd88       ?d2common_ppMonUModLink@@3PAPAXA 66090d88     install.obj
 0003:0000cd8c       ?d2common_pnMonTypeNesting@@3PAHA 66090d8c     install.obj
 0003:0000cd90       ?d2common_ppMonTypeNesting@@3PAPAXA 66090d90     install.obj
 0003:0000cd94       ?d2common_pnMonType@@3PAHA 66090d94     install.obj
 0003:0000cd98       ?d2common_ppMonTypeTxt@@3PAPAXA 66090d98     install.obj
 0003:0000cd9c       ?d2common_ppMonTypeLink@@3PAPAXA 66090d9c     install.obj
 0003:0000cda0       ?d2common_pnMonProp@@3PAHA 66090da0     install.obj
 0003:0000cda4       ?d2common_ppMonPropTxt@@3PAPAXA 66090da4     install.obj
 0003:0000cda8       ?d2common_ppMonPropLink@@3PAPAXA 66090da8     install.obj
 0003:0000cdac       ?d2common_pnUniqueItems@@3PAHA 66090dac     install.obj
 0003:0000cdb0       ?d2common_ppUniqueItemsTxt@@3PAPAXA 66090db0     install.obj
 0003:0000cdb4       ?d2common_ppUniqueItemsLink@@3PAPAXA 66090db4     install.obj
 0003:0000cdb8       ?d2common_pnSetItems@@3PAHA 66090db8     install.obj
 0003:0000cdbc       ?d2common_ppSetItemsTxt@@3PAPAXA 66090dbc     install.obj
 0003:0000cdc0       ?d2common_ppSetItemsLink@@3PAPAXA 66090dc0     install.obj
 0003:0000cdc4       ?d2common_pnSets@@3PAHA    66090dc4     install.obj
 0003:0000cdc8       ?d2common_ppSetsTxt@@3PAPAXA 66090dc8     install.obj
 0003:0000cdcc       ?d2common_ppSetsLink@@3PAPAXA 66090dcc     install.obj
 0003:0000cdd0       ?d2common_ppItemTypeNesting@@3PAPAXA 66090dd0     install.obj
 0003:0000cdd4       ?d2common_pnItemTypeNesting@@3PAHA 66090dd4     install.obj
 0003:0000cdd8       ?d2common_pnItemTypes@@3PAHA 66090dd8     install.obj
 0003:0000cddc       ?d2common_ppItemTypesTxt@@3PAPAXA 66090ddc     install.obj
 0003:0000cde0       ?d2common_ppItemTypesLink@@3PAPAXA 66090de0     install.obj
 0003:0000cde4       ?d2common_pnPetTypes@@3PAHA 66090de4     install.obj
 0003:0000cde8       ?d2common_ppPetTypesLink@@3PAPAXA 66090de8     install.obj
 0003:0000cdec       ?d2common_ppPetTypesTxt@@3PAPAXA 66090dec     install.obj
 0003:0000cdf0       ?d2common_pnMonEquip@@3PAHA 66090df0     install.obj
 0003:0000cdf4       ?d2common_ppMonEquipTxt@@3PAPAXA 66090df4     install.obj
 0003:0000cdf8       ?d2common_pnOpStatNesting@@3PAHA 66090df8     install.obj
 0003:0000cdfc       ?d2common_ppOpStatNesting@@3PAPAXA 66090dfc     install.obj
 0003:0000ce00       ?d2common_pnItemStatCost@@3PAHA 66090e00     install.obj
 0003:0000ce04       ?d2common_ppItemStatCostLink@@3PAPAXA 66090e04     install.obj
 0003:0000ce08       ?d2common_ppItemStatCostTxt@@3PAPAUItemStatCostTxt@@A 66090e08     install.obj
 0003:0000ce0c       ?d2common_pnCharStats@@3PAHA 66090e0c     install.obj
 0003:0000ce10       ?d2common_ppCharStatsTxt@@3PAPAXA 66090e10     install.obj
 0003:0000ce14       ?d2common_pnOverlay@@3PAHA 66090e14     install.obj
 0003:0000ce18       ?d2common_ppOverlayLink@@3PAPAXA 66090e18     install.obj
 0003:0000ce1c       ?d2common_ppOverlayTxt@@3PAPAXA 66090e1c     install.obj
 0003:0000ce20       ?d2common_ppPassiveSkillList@@3PAPAXA 66090e20     install.obj
 0003:0000ce24       ?d2common_pnPassiveSkillCount@@3PAHA 66090e24     install.obj
 0003:0000ce28       ?d2common_ppPlayerSkillList@@3PAPAXA 66090e28     install.obj
 0003:0000ce2c       ?d2common_pnPlayerSkillCount@@3PAHA 66090e2c     install.obj
 0003:0000ce30       ?d2common_ppPlayerSkillCount@@3PAPAXA 66090e30     install.obj
 0003:0000ce34       ?d2common_pnSkills@@3PAHA  66090e34     install.obj
 0003:0000ce38       ?d2common_ppSkillsLink@@3PAPAXA 66090e38     install.obj
 0003:0000ce3c       ?d2common_ppSkillsTxt@@3PAPAXA 66090e3c     install.obj
 0003:0000ce40       ?d2common_pnSkillDesc@@3PAHA 66090e40     install.obj
 0003:0000ce44       ?d2common_ppSkillDescLink@@3PAPAXA 66090e44     install.obj
 0003:0000ce48       ?d2common_ppSkillDescTxt@@3PAPAXA 66090e48     install.obj
 0003:0000ce4c       ?d2common_pnMonSequences@@3PAHA 66090e4c     install.obj
 0003:0000ce50       ?d2common_ppMonSequences@@3PAPAXA 66090e50     install.obj
 0003:0000ce54       ?d2common_pnMonSeq@@3PAHA  66090e54     install.obj
 0003:0000ce58       ?d2common_ppMonSeqLink@@3PAPAXA 66090e58     install.obj
 0003:0000ce5c       ?d2common_ppMonSeqTxt@@3PAPAXA 66090e5c     install.obj
 0003:0000ce60       ?d2common_pnMonLvl@@3PAHA  66090e60     install.obj
 0003:0000ce64       ?d2common_ppMonLvlTxt@@3PAPAXA 66090e64     install.obj
 0003:0000ce68       ?d2common_pnMissiles@@3PAHA 66090e68     install.obj
 0003:0000ce6c       ?d2common_ppMissilesLink@@3PAPAXA 66090e6c     install.obj
 0003:0000ce70       ?d2common_ppMissilesTxt@@3PAPAXA 66090e70     install.obj
 0003:0000ce74       ?d2common_pSuperUniqueHcIdxList@@3PAPAXA 66090e74     install.obj
 0003:0000ce78       ?d2common_pnSuperUniques@@3PAHA 66090e78     install.obj
 0003:0000ce7c       ?d2common_ppSuperUniquesLink@@3PAPAXA 66090e7c     install.obj
 0003:0000ce80       ?d2common_ppSuperUniquesTxt@@3PAPAXA 66090e80     install.obj
 0003:0000ce84       ?d2common_pnMonPresetEachAct@@3PAHA 66090e84     install.obj
 0003:0000ce88       ?d2common_ppMonPresetActList@@3PAPAXA 66090e88     install.obj
 0003:0000ce8c       ?d2common_ppMonPresetTxt@@3PAPAXA 66090e8c     install.obj
 0003:0000ce90       ?d2common_pnMonPlace@@3PAHA 66090e90     install.obj
 0003:0000ce94       ?d2common_ppMonPlaceLink@@3PAPAXA 66090e94     install.obj
 0003:0000ce98       ?d2common_ppMonPlaceTxt@@3PAPAXA 66090e98     install.obj
 0003:0000ce9c       ?d2common_pnMonStats2@@3PAHA 66090e9c     install.obj
 0003:0000cea0       ?d2common_ppMonStats2Link@@3PAPAXA 66090ea0     install.obj
 0003:0000cea4       ?d2common_ppMonStats2Txt@@3PAPAXA 66090ea4     install.obj
 0003:0000cea8       ?d2common_pnMonSounds@@3PAHA 66090ea8     install.obj
 0003:0000ceac       ?d2common_ppMonSoundsLink@@3PAPAXA 66090eac     install.obj
 0003:0000ceb0       ?d2common_ppMonSoundsTxt@@3PAPAXA 66090eb0     install.obj
 0003:0000ceb4       ?d2common_pnMonStats@@3PAHA 66090eb4     install.obj
 0003:0000ceb8       ?d2common_ppMonStatsLink@@3PAPAXA 66090eb8     install.obj
 0003:0000cebc       ?d2common_ppMonStatsTxt@@3PAPAXA 66090ebc     install.obj
 0003:0000cec0       ?d2common_ppChestTreasureClassList@@3PAPAXA 66090ec0     install.obj
 0003:0000cec4       ?d2common_pnTreasureClassEx@@3PAHA 66090ec4     install.obj
 0003:0000cec8       ?d2common_ppTreasureClassExTxt@@3PAPAXA 66090ec8     install.obj
 0003:0000cecc       ?d2common_ppTreasureClassExLink@@3PAPAXA 66090ecc     install.obj
 0003:0000ced0       ?d2common_ppColorsLink@@3PAPAXA 66090ed0     install.obj
 0003:0000ced4       ?d2common_ppColorsTxt@@3PAPAXA 66090ed4     install.obj
 0003:0000ced8       ?d2common_pnNpcs@@3PAHA    66090ed8     install.obj
 0003:0000cedc       ?d2common_ppNpcsTxt@@3PAPAXA 66090edc     install.obj
 0003:0000cee0       ?d2common_pHireNameListEnd@@3PAPAXA 66090ee0     install.obj
 0003:0000cee4       ?d2common_pHireNameListStart@@3PAPAXA 66090ee4     install.obj
 0003:0000cee8       ?d2common_pnHirelings@@3PAHA 66090ee8     install.obj
 0003:0000ceec       ?d2common_ppHirelingsTxt@@3PAPAXA 66090eec     install.obj
 0003:0000cef0       ?d2common_pnSoundCodes@@3PAHA 66090ef0     install.obj
 0003:0000cef4       ?d2common_ppSoundCodesLink@@3PAPAXA 66090ef4     install.obj
 0003:0000cef8       ?d2common_ppSoundCodesBin@@3PAPAXA 66090ef8     install.obj
 0003:0000cefc       ?d2common_pnColorStates@@3PAHA 66090efc     install.obj
 0003:0000cf00       ?d2common_ppColorStates@@3PAPAXA 66090f00     install.obj
 0003:0000cf04       ?d2common_pnActionStates@@3PAHA 66090f04     install.obj
 0003:0000cf08       ?d2common_ppActionStates@@3PAPAXA 66090f08     install.obj
 0003:0000cf0c       ?d2common_pnTransformStates@@3PAHA 66090f0c     install.obj
 0003:0000cf10       ?d2common_ppTransformStates@@3PAPAXA 66090f10     install.obj
 0003:0000cf14       ?d2common_pnCurseStates@@3PAHA 66090f14     install.obj
 0003:0000cf18       ?d2common_ppCurseStates@@3PAPAXA 66090f18     install.obj
 0003:0000cf1c       ?d2common_pnProgressiveStates@@3PAHA 66090f1c     install.obj
 0003:0000cf20       ?d2common_ppProgressiveStates@@3PAPAXA 66090f20     install.obj
 0003:0000cf24       ?d2common_ppStateMaskArray@@3PAPAXA 66090f24     install.obj
 0003:0000cf28       ?d2common_ppStateMaskFirst@@3PAPAXA 66090f28     install.obj
 0003:0000cf2c       ?d2common_pnStates@@3PAHA  66090f2c     install.obj
 0003:0000cf30       ?d2common_ppStatesLink@@3PAPAXA 66090f30     install.obj
 0003:0000cf34       ?d2common_ppStatesTxt@@3PAPAXA 66090f34     install.obj
 0003:0000cf38       ?d2common_ppHireDescLink@@3PAPAXA 66090f38     install.obj
 0003:0000cf3c       ?d2common_ppHireDescTxt@@3PAPAXA 66090f3c     install.obj
 0003:0000cf40       ?d2common_ppRunesLink@@3PAPAXA 66090f40     install.obj
 0003:0000cf44       ?d2common_pnProperties@@3PAHA 66090f44     install.obj
 0003:0000cf48       ?d2common_ppPropertiesLink@@3PAPAXA 66090f48     install.obj
 0003:0000cf4c       ?d2common_ppPropertiesTxt@@3PAPAXA 66090f4c     install.obj
 0003:0000cf50       ?d2common_pnItemCalcCacheDelta@@3PAHA 66090f50     install.obj
 0003:0000cf54       ?d2common_pnItemCalcCache@@3PAHA 66090f54     install.obj
 0003:0000cf58       ?d2common_ppItemCalcCache@@3PAPAXA 66090f58     install.obj
 0003:0000cf5c       ?d2common_ppItemLink@@3PAPAXA 66090f5c     install.obj
 0003:0000cf60       ?d2common_pnMonAi@@3PAHA   66090f60     install.obj
 0003:0000cf64       ?d2common_ppMonAiLink@@3PAPAXA 66090f64     install.obj
 0003:0000cf68       ?d2common_ppMonAiTxt@@3PAPAXA 66090f68     install.obj
 0003:0000cf6c       ?d2common_pnCompCodes@@3PAHA 66090f6c     install.obj
 0003:0000cf70       ?d2common_ppCompCodesLink@@3PAPAXA 66090f70     install.obj
 0003:0000cf74       ?d2common_ppCompCodesTxt@@3PAPAXA 66090f74     install.obj
 0003:0000cf78       ?d2common_ppEventsLink@@3PAPAXA 66090f78     install.obj
 0003:0000cf7c       ?d2common_ppEventsTxt@@3PAPAXA 66090f7c     install.obj
 0003:0000cf80       ?d2common_ppSkillCodesLink@@3PAPAXA 66090f80     install.obj
 0003:0000cf84       ?d2common_ppSkillCodesBin@@3PAPAXA 66090f84     install.obj
 0003:0000cf88       ?d2common_pnMissCalcCacheDelta@@3PAHA 66090f88     install.obj
 0003:0000cf8c       ?d2common_pnMissCalcCache@@3PAHA 66090f8c     install.obj
 0003:0000cf90       ?d2common_ppMissCalcCache@@3PAPAXA 66090f90     install.obj
 0003:0000cf94       ?d2common_ppMissCalcLink@@3PAPAXA 66090f94     install.obj
 0003:0000cf98       ?d2common_ppMissCalcTxt@@3PAPAXA 66090f98     install.obj
 0003:0000cf9c       ?d2common_pnSkillDescCalcCacheDelta@@3PAHA 66090f9c     install.obj
 0003:0000cfa0       ?d2common_pnSkillDescCalcCache@@3PAHA 66090fa0     install.obj
 0003:0000cfa4       ?d2common_ppSkillDescCalcCache@@3PAPAXA 66090fa4     install.obj
 0003:0000cfa8       ?d2common_pnSkillCalcCacheDelta@@3PAHA 66090fa8     install.obj
 0003:0000cfac       ?d2common_pnSkillCalcCache@@3PAHA 66090fac     install.obj
 0003:0000cfb0       ?d2common_ppSkillCalcCache@@3PAPAXA 66090fb0     install.obj
 0003:0000cfb4       ?d2common_ppSkillCalcLink@@3PAPAXA 66090fb4     install.obj
 0003:0000cfb8       ?d2common_ppSkillCalcTxt@@3PAPAXA 66090fb8     install.obj
 0003:0000cfbc       ?d2common_ppPlrModeLink@@3PAPAXA 66090fbc     install.obj
 0003:0000cfc0       ?d2common_ppPlrModeTxt@@3PAPAXA 66090fc0     install.obj
 0003:0000cfc4       ?d2common_ppMonModeLink@@3PAPAXA 66090fc4     install.obj
 0003:0000cfc8       ?d2common_ppMonModeTxt@@3PAPAXA 66090fc8     install.obj
 0003:0000cfcc       ?d2common_ppHitClassLink@@3PAPAXA 66090fcc     install.obj
 0003:0000cfd0       ?d2common_ppHitClassTxt@@3PAPAXA 66090fd0     install.obj
 0003:0000cfd4       ?d2common_ppElemTypesLink@@3PAPAXA 66090fd4     install.obj
 0003:0000cfd8       ?d2common_ppElemTypesTxt@@3PAPAXA 66090fd8     install.obj
 0003:0000cfdc       ?d2common_ppStorePageLink@@3PAPAXA 66090fdc     install.obj
 0003:0000cfe0       ?d2common_ppStorePageTxt@@3PAPAXA 66090fe0     install.obj
 0003:0000cfe4       ?d2common_ppBodyLocsLink@@3PAPAXA 66090fe4     install.obj
 0003:0000cfe8       ?d2common_ppBodyLocsTxt@@3PAPAXA 66090fe8     install.obj
 0003:0000cfec       ?d2common_ppPlayerClassLink@@3PAPAXA 66090fec     install.obj
 0003:0000cff0       ?d2common_ppPlayerClassTxt@@3PAPAXA 66090ff0     install.obj
 0003:0000cff4       ?d2common_pRuneWordTxt@@3PAPAURuneWordTxt@@A 66090ff4     install.obj
 0003:0000cff8       ?d2common_pRuneWords@@3PAHA 66090ff8     install.obj
 0003:0000cffc       ?d2common_pArmorTxts@@3PAHA 66090ffc     install.obj
 0003:0000d000       ?d2common_pWeaponsTxts@@3PAHA 66091000     install.obj
 0003:0000d004       ?d2common_pItemTxts@@3PAPAUItemTxt@@A 66091004     install.obj
 0003:0000d008       ?d2common_pItemTxtCount@@3PAHA 66091008     install.obj
 0003:0000d00c       ?d2common_pInventoryTxt@@3PAPAUInventoryBIN@@A 6609100c     install.obj
 0003:0000d010       ?d2common_pInventoryTxtCount@@3PAHA 66091010     install.obj
 0003:0000d014       ?d2common_pDataTables@@3PAPAUD2DataTables@@A 66091014     install.obj
 0003:0000d018       ?d2common_compileInventoryTxt@@3P6GPAUInventoryBIN@@H@ZA 66091018     install.obj
 0003:0000d01c       ?d2common_getInventoryPos16@@3P6GXHHPAUEquipmentLayout16@@@ZA 6609101c     install.obj
 0003:0000d020       ?d2common_getInventoryLayout@@3P6GXHHPAUInvLayout@@@ZA 66091020     install.obj
 0003:0000d024       ?d2common_getEquipmentPos@@3P6GXHHPAUEquipmentLayout20@@H@ZA 66091024     install.obj
 0003:0000d028       ?d2common_compileItemStatCostTxt@@3P6GPAXH@ZA 66091028     install.obj
 0003:0000d02c       ?d2common_compileItemTypeTxt@@3P6GPAXH@ZA 6609102c     install.obj
 0003:0000d030       ?d2common_GetItemTxt@@3P6GPAUItemTxt@@H@ZA 66091030     install.obj
 0003:0000d034       ?d2common_getAreaLevel@@3P6GHHHH@ZA 66091034     install.obj
 0003:0000d038       ?d2common_GetLevelTxt@@3P6GPAULevelTxt@@H@ZA 66091038     install.obj
 0003:0000d03c       ?d2common_GetLevelWeather@@3P6GDH@ZA 6609103c     install.obj
 0003:0000d040       ?d2common_GetLevelTxt07@@3P6GDH@ZA 66091040     install.obj
 0003:0000d044       ?d2common_GetLevelTxt06@@3P6GDH@ZA 66091044     install.obj
 0003:0000d048       ?d2common_GetLevelDefTxt@@3P6IPAULevelDefTxt@@H@ZA 66091048     install.obj
 0003:0000d04c       ?d2common_addToRectData1C@@3P6GHPAUUnitAny@@@ZA 6609104c     install.obj
 0003:0000d050       ?d2common_initGameDataTable@@3P6GHHHH@ZA 66091050     install.obj
 0003:0000d054       ?d2common_getLvlOfExp@@3P6GHHH@ZA 66091054     install.obj
 0003:0000d058       ?d2common_CompileTxtFile@@3P6GPAXHPADPAUTxtField@@PAHH@ZA 66091058     install.obj
 0003:0000d05c       ?d2common_uninit@@3P6GHXZA 6609105c     install.obj
 0003:0000d060       ?d2common_GetMinExpToLevel@@3P6GHHH@ZA 66091060     install.obj
 0003:0000d064       ?d2common_getPlayerMaxLvl@@3P6GHH@ZA 66091064     install.obj
 0003:0000d068       ?d2common_compileMonTypeTxt@@3P6GPAXH@ZA 66091068     install.obj
 0003:0000d06c       ?d2common_GetTreasureClasses@@3P6GPAUTreasureClass@@GH@ZA 6609106c     install.obj
 0003:0000d070       ?d2common_GetSuperUniqueTxt@@3P6GPAUSuperUniqueTxt@@H@ZA 66091070     install.obj
 0003:0000d074       ?d2common_SetSkillBaseLevel@@3P6GXPAUUnitAny@@HHHPADH@ZA 66091074     install.obj
 0003:0000d078       ?d2common_getSkillStatus@@3P6GHPAUUnitAny@@PAUSkill@@@ZA 66091078     install.obj
 0003:0000d07c       ?d2common_getMaxSkeletons@@3P6GHPAUUnitAny@@HHH@ZA 6609107c     install.obj
 0003:0000d080       ?d2common_GetSkillCost@@3P6GHPAUUnitAny@@HHH@ZA 66091080     install.obj
 0003:0000d084       ?d2common_GetSkillLevel@@3P6GHPAUUnitAny@@PAUSkill@@H@ZA 66091084     install.obj
 0003:0000d088       ?d2common_CheckCorpseCanUse@@3P6GHPAUUnitAny@@K@ZA 66091088     install.obj
 0003:0000d08c       ?d2common_getSkillBonus@@3P6IHXZA 6609108c     install.obj
 0003:0000d090       ?d2common_getSkillId@@3P6GHHH@ZA 66091090     install.obj
 0003:0000d094       ?d2common_getPlayerSkillCount@@3P6GHH@ZA 66091094     install.obj
 0003:0000d098       ?d2common_setSkillCount@@3P6GXPAUSkill@@H@ZA 66091098     install.obj
 0003:0000d09c       ?d2common_GetDropPos@@3P6GPAUAreaRectData@@PAU1@PAUtagPOINT@@1HHHH@ZA 6609109c     install.obj
 0003:0000d0a0       ?d2common_IsLineBlocked@@3P6GHPAUAreaRectData@@PAUtagPOINT@@1H@ZA 660910a0     install.obj
 0003:0000d0a4       ?d2common_setItemEthereal@@3P6GHPAUUnitAny@@@ZA 660910a4     install.obj
 0003:0000d0a8       ?d2common_GetObjectTxt@@3P6GPAUObjectTxt@@H@ZA 660910a8     install.obj
 0003:0000d0ac       ?d2common_isInTown@@3P6GHPAUAreaRectData@@@ZA 660910ac     install.obj
 0003:0000d0b0       ?d2common_GetLevelIdFromRectData@@3P6GHPAUAreaRectData@@@ZA 660910b0     install.obj
 0003:0000d0b4       ?d2common_Common11084@@3P6GHPAUAreaRectData@@H@ZA 660910b4     install.obj
 0003:0000d0b8       ?d2common_Ord10196@@3P6GHPAUUnitAny@@@ZA 660910b8     install.obj
 0003:0000d0bc       ?d2common_stat_10807@@3P6GHPAUUnitAny@@PAUStatList@@H@ZA 660910bc     install.obj
 0003:0000d0c0       ?d2common_changeUnitStat@@3P6GHPAUUnitAny@@HHH@ZA 660910c0     install.obj
 0003:0000d0c4       ?d2common_AddPlayerStat@@3P6GXPAUUnitAny@@HHH@ZA 660910c4     install.obj
 0003:0000d0c8       ?d2common_addStatList@@3P6GHPAUStatList@@HHH@ZA 660910c8     install.obj
 0003:0000d0cc       ?d2common_changeStatList@@3P6GHPAUStatList@@HHH@ZA 660910cc     install.obj
 0003:0000d0d0       ?d2common_fun39F70@@3P6GHHPAUUnitAny@@@ZA 660910d0     install.obj
 0003:0000d0d4       ?d2common_getStatValue39380@@3P6GHH@ZA 660910d4     install.obj
 0003:0000d0d8       ?d2common_getUnitMaxHP@@3P6GHPAUUnitAny@@@ZA 660910d8     install.obj
 0003:0000d0dc       ?d2common_getUnitMaxMana@@3P6GHPAUUnitAny@@@ZA 660910dc     install.obj
 0003:0000d0e0       ?d2common_getUnitMaxStamina@@3P6GHPAUUnitAny@@@ZA 660910e0     install.obj
 0003:0000d0e4       ?d2common_GetUnitBaseStat@@3P6GHPAUUnitAny@@HG@ZA 660910e4     install.obj
 0003:0000d0e8       ?d2common_GetUnitStat@@3P6GHPAUUnitAny@@HG@ZA 660910e8     install.obj
 0003:0000d0ec       ?d2common_getUnitStatValueB00@@3P6GHPAUItemStatCostTxt@@@ZA 660910ec     install.obj
 0003:0000d0f0       ?d2common_getStatValueWithMinChecked@@3P6GHPAUItemStatCostTxt@@@ZA 660910f0     install.obj
 0003:0000d0f4       ?d2common_GetStatFromStatList@@3P6GHPAUStatList@@KPAUStatEx@@K@ZA 660910f4     install.obj
 0003:0000d0f8       ?d2common_bsearchStat@@3P6GHXZA 660910f8     install.obj
 0003:0000d0fc       ?d2common_removeStat@@3P6GHH@ZA 660910fc     install.obj
 0003:0000d100       ?d2common_GetStatListWithFlag@@3P6GPAUStatList@@PAUUnitAny@@HK@ZA 66091100     install.obj
 0003:0000d104       ?d2common_GetUnitPosX@@3P6GHPAUDynamicPath@@@ZA 66091104     install.obj
 0003:0000d108       ?d2common_GetUnitPosY@@3P6GHPAUDynamicPath@@@ZA 66091108     install.obj
 0003:0000d10c       ?d2common_CheckUnitState@@3P6GHPAUUnitAny@@H@ZA 6609110c     install.obj
 0003:0000d110       ?d2common_setUnitMode@@3P6GHPAUUnitAny@@H@ZA 66091110     install.obj
 0003:0000d114       ?d2common_GetMonsterHpPercent@@3P6GHPAUUnitAny@@@ZA 66091114     install.obj
 0003:0000d118       ?d2common_IsUnitBlocked@@3P6GHPAUUnitAny@@0H@ZA 66091118     install.obj
 0003:0000d11c       ?d2common_getUnitSize@@3P6GHPAUUnitAny@@@ZA 6609111c     install.obj
 0003:0000d120       ?d2common_getLeftSkill@@3P6GPAUSkill@@PAUUnitAny@@@ZA 66091120     install.obj
 0003:0000d124       ?d2common_getCurrentSkill@@3P6GPAUSkill@@PAUUnitAny@@@ZA 66091124     install.obj
 0003:0000d128       ?d2common_getUnitPos@@3P6GXPAUUnitAny@@PAUtagPOINT@@@ZA 66091128     install.obj
 0003:0000d12c       ?d2common_getRectData@@3P6GPAUAreaRectData@@PAUUnitAny@@@ZA 6609112c     install.obj
 0003:0000d130       ?d2common_GetBoxType@@3P6GHPAUUnitAny@@EH@ZA 66091130     install.obj
 0003:0000d134       ?d2common_allocUnit@@3P6GPAUUnitAny@@HH@ZA 66091134     install.obj
 0003:0000d138       ?d2common_setStaticUnitX@@3P6GXPAUUnitAny@@H@ZA 66091138     install.obj
 0003:0000d13c       ?d2common_setStaticUnitY@@3P6GXPAUUnitAny@@H@ZA 6609113c     install.obj
 0003:0000d140       ?d2common_GetPlayerData@@3P6GPAUPlayerData@@PAUUnitAny@@@ZA 66091140     install.obj
 0003:0000d144       ?d2common_getObjectFlags@@3P6GHPAUUnitAny@@@ZA 66091144     install.obj
 0003:0000d148       ?d2common_setObjectFlags@@3P6GHPAUUnitAny@@H@ZA 66091148     install.obj
 0003:0000d14c       ?d2common_InitDrlgLevel@@3P6GXPAUDrlgLevel@@@ZA 6609114c     install.obj
 0003:0000d150       ?d2common_GetDrlgLevel@@3P6IPAUDrlgLevel@@PAUDrlgMisc@@H@ZA 66091150     install.obj
 0003:0000d154       ?d2common_CheckQuestFlag@@3P6GHPAUQuestInfo@@HH@ZA 66091154     install.obj
 0003:0000d158       ?d2common_setQuestFlag@@3P6GXPAUQuestInfo@@HH@ZA 66091158     install.obj
 0003:0000d15c       ?d2common_clearQuestFlag@@3P6GXPAUQuestInfo@@HH@ZA 6609115c     install.obj
 0003:0000d160       ?d2common_copyQuestData@@3P6GPAUQuestInfo@@PAU1@PAFHH@ZA 66091160     install.obj
 0003:0000d164       ?d2common_GetMercInfo@@3P6GHHHHPAX@ZA 66091164     install.obj
 0003:0000d168       ?d2common_setItemSocket@@3P6GHPAUUnitAny@@H@ZA 66091168     install.obj
 0003:0000d16c       ?d2common_GetItemPrice@@3P6GHPAUUnitAny@@0HPAUQuestInfo@@HK@ZA 6609116c     install.obj
 0003:0000d170       ?d2common_EncodeItem@@3P6GHPAUUnitAny@@PADHHHH@ZA 66091170     install.obj
 0003:0000d174       ?d2common_EncodeItemBits@@3P6IHPAUUnitAny@@PAUFogBits@@HHH@ZA 66091174     install.obj
 0003:0000d178       ?d2common_EncodeComplexItem@@3P6GHPAUUnitAny@@PAUFogBits@@HH@ZA 66091178     install.obj
 0003:0000d17c       ?d2common_searchRunewordTxt@@3P6GPAURuneWordTxt@@PAUUnitAny@@@ZA 6609117c     install.obj
 0003:0000d180       ?d2common_getSocketCount@@3P6GHPAUUnitAny@@@ZA 66091180     install.obj
 0003:0000d184       ?d2common_EncodeCompactItem@@3P6GHPAUUnitAny@@H@ZA 66091184     install.obj
 0003:0000d188       ?d2common_countUsedSocketed@@3P6GHXZA 66091188     install.obj
 0003:0000d18c       ?d2common_getItemMaxSocket@@3P6GHPAUUnitAny@@@ZA 6609118c     install.obj
 0003:0000d190       ?d2common_checkItemTypeFlags@@3P6GHPAUUnitAny@@H@ZA 66091190     install.obj
 0003:0000d194       ?d2common_isMagicItem@@3P6GHPAUUnitAny@@@ZA 66091194     install.obj
 0003:0000d198       ?d2common_writeBitStream@@3P6GXPAUFogBits@@@ZA 66091198     install.obj
 0003:0000d19c       ?d2common_getItemSeed@@3P6GPAUD2Seed@@PAUUnitAny@@@ZA 6609119c     install.obj
 0003:0000d1a0       ?d2common_getItemFingerPrint@@3P6GHPAUUnitAny@@@ZA 660911a0     install.obj
 0003:0000d1a4       ?d2common_setItemFingerPrint@@3P6GXPAUUnitAny@@H@ZA 660911a4     install.obj
 0003:0000d1a8       ?d2common_getItemQuality@@3P6GHPAUUnitAny@@@ZA 660911a8     install.obj
 0003:0000d1ac       ?d2common_setItemQuality@@3P6GXPAUUnitAny@@H@ZA 660911ac     install.obj
 0003:0000d1b0       ?d2common_getItemMagicPrefix@@3P6GHPAUUnitAny@@H@ZA 660911b0     install.obj
 0003:0000d1b4       ?d2common_getItemMagicSuffix@@3P6GHPAUUnitAny@@H@ZA 660911b4     install.obj
 0003:0000d1b8       ?d2common_getRarePrefix@@3P6GFPAUUnitAny@@@ZA 660911b8     install.obj
 0003:0000d1bc       ?d2common_getRareSuffix@@3P6GFPAUUnitAny@@@ZA 660911bc     install.obj
 0003:0000d1c0       ?d2common_CheckItemFlag@@3P6GHPAUUnitAny@@KHPAD@ZA 660911c0     install.obj
 0003:0000d1c4       ?d2common_setItemFlag@@3P6GXPAUUnitAny@@HH@ZA 660911c4     install.obj
 0003:0000d1c8       ?d2common_getItemFlag@@3P6GXPAUUnitAny@@@ZA 660911c8     install.obj
 0003:0000d1cc       ?d2common_setItemLevel@@3P6GHPAUUnitAny@@H@ZA 660911cc     install.obj
 0003:0000d1d0       ?d2common_setItemLocation@@3P6GHPAUUnitAny@@D@ZA 660911d0     install.obj
 0003:0000d1d4       ?d2common_getItemTypeB14@@3P6GHPAUUnitAny@@@ZA 660911d4     install.obj
 0003:0000d1d8       ?d2common_getItemCode@@3P6GPADPAUUnitAny@@@ZA 660911d8     install.obj
 0003:0000d1dc       ?d2common_getItemWidthHeight@@3P6GHPAUUnitAny@@PAD1@ZA 660911dc     install.obj
 0003:0000d1e0       ?d2common_getItemType@@3P6GHPAUUnitAny@@@ZA 660911e0     install.obj
 0003:0000d1e4       ?d2common_getItemTypeByTxt@@3P6GHH@ZA 660911e4     install.obj
 0003:0000d1e8       ?d2common_getItemCode1@@3P6GPADPAUUnitAny@@@ZA 660911e8     install.obj
 0003:0000d1ec       ?d2common_isQuestItem@@3P6GHPAUUnitAny@@@ZA 660911ec     install.obj
 0003:0000d1f0       ?d2common_GetItemFileIndex@@3P6GHPAUUnitAny@@@ZA 660911f0     install.obj
 0003:0000d1f4       ?d2common_setItemFileIndex@@3P6GHPAUUnitAny@@H@ZA 660911f4     install.obj
 0003:0000d1f8       ?d2common_getItemData1C_20@@3P6GXPAUUnitAny@@PAX1@ZA 660911f8     install.obj
 0003:0000d1fc       ?d2common_setOwnerId@@3P6GXPAUUnitAny@@H@ZA 660911fc     install.obj
 0003:0000d200       ?d2common_isCompactItem@@3P6IDXZA 66091200     install.obj
 0003:0000d204       ?d2common_getItemFormat@@3P6GHPAUUnitAny@@@ZA 66091204     install.obj
 0003:0000d208       ?d2common_setItemFormat@@3P6GXPAUUnitAny@@F@ZA 66091208     install.obj
 0003:0000d20c       ?d2common_isBitSet@@3P6GHHH@ZA 6609120c     install.obj
 0003:0000d210       ?d2common_putItemIntoSocket10405@@3P6GHPAUUnitInventory@@PAUUnitAny@@H@ZA 66091210     install.obj
 0003:0000d214       ?d2common_setCursorItem@@3P6GHPAUUnitInventory@@PAUUnitAny@@@ZA 66091214     install.obj
 0003:0000d218       ?d2common_isItemInside@@3P6GHPAUUnitInventory@@PAUUnitAny@@@ZA 66091218     install.obj
 0003:0000d21c       ?d2common_CheckInvLocation@@3P6GHPAUUnitInventory@@PAUUnitAny@@HHHPAH2E@ZA 6609121c     install.obj
 0003:0000d220       ?d2common_GetNextItemInInv@@3P6GPAUUnitAny@@PAU1@@ZA 66091220     install.obj
 0003:0000d224       ?d2common_getOwnerInventory@@3P6GPAUUnitInventory@@XZA 66091224     install.obj
 0003:0000d228       ?d2common_createInventory@@3P6GPAUUnitInventory@@PAXPAUUnitAny@@@ZA 66091228     install.obj
 0003:0000d22c       ?d2common_getEquippedItemInfo@@3P6GHPAUUnitInventory@@H@ZA 6609122c     install.obj
 0003:0000d230       ?d2common_createEquippedItem@@3P6GPAUEquippedGears@@XZA 66091230     install.obj
 0003:0000d234       ?d2common_GetFirstItemInInv@@3P6GPAUUnitAny@@PAUUnitInventory@@@ZA 66091234     install.obj
 0003:0000d238       ?d2common_GetCursorItem@@3P6GPAUUnitAny@@PAUUnitInventory@@@ZA 66091238     install.obj
 0003:0000d23c       ?d2common_getFilledSockets@@3P6GHPAUUnitInventory@@@ZA 6609123c     install.obj
 0003:0000d240       ?d2common_subEsp@@3P6GHXZA 66091240     install.obj
 0003:0000d244       ?d2common_exit@@3P6GHH@ZA  66091244     install.obj
 0003:0000d248       ?d2common_GetMonStats2@@3P6IPAXXZA 66091248     install.obj
 0003:0000d24c       ?d2common_GetNearRectDataWithPos@@3P6IPAUAreaRectData@@XZA 6609124c     install.obj
 0003:0000d250       ?d2common_GetCharStatsTxt@@3P6GPAXXZA 66091250     install.obj
 0003:0000d254       ?d2cmp_mpq_path_3010@@3P6IHPAD@ZA 66091254     install.obj
 0003:0000d258       ?d2cmp_InitCellFile@@3P6GXPAXPAPAUCellFile@@PADHH2@ZA 66091258     install.obj
 0003:0000d25c       ?d2cmp_DeleteCellFile@@3P6GXPAUCellFile@@@ZA 6609125c     install.obj
 0003:0000d260       ?d2client_pIsEquipment800x600@@3PAHA 66091260     install.obj
 0003:0000d264       ?d2client_pQuestPage@@3PAHA 66091264     install.obj
 0003:0000d268       ?d2client_plpCritialSection@@3PAPAUCriticalSection@@A 66091268     install.obj
 0003:0000d26c       ?d2client_pworldHash@@3PAPAUWorldHash@@A 6609126c     install.obj
 0003:0000d270       ?d2client_pLastChatMessage@@3PA_WA 66091270     install.obj
 0003:0000d274       ?d2client_pPetUnitList@@3PAPAUPetUnit@@A 66091274     install.obj
 0003:0000d278       ?d2client_pShowManaStr@@3PAHA 66091278     install.obj
 0003:0000d27c       ?d2client_pShowLifeStr@@3PAHA 6609127c     install.obj
 0003:0000d280       ?d2client_pBeltNotEmpty@@3PADA 66091280     install.obj
 0003:0000d284       ?d2client_pscreenDrawXsub@@3PAHA 66091284     install.obj
 0003:0000d288       ?d2client_pScreenBlocked@@3PAHA 66091288     install.obj
 0003:0000d28c       ?d2client_pStandStill@@3PAHA 6609128c     install.obj
 0003:0000d290       ?d2client_pDrlgAct@@3PAPAUDrlgAct@@A 66091290     install.obj
 0003:0000d294       ?d2client_pnotAcceptKeys@@3PAHA 66091294     install.obj
 0003:0000d298       ?d2client_pMButton@@3PAHA  66091298     install.obj
 0003:0000d29c       ?d2client_pInGame@@3PAHA   6609129c     install.obj
 0003:0000d2a0       ?d2client_pDifficulty@@3PAEA 660912a0     install.obj
 0003:0000d2a4       ?d2client_pMercData32@@3PAHA 660912a4     install.obj
 0003:0000d2a8       ?d2client_pFlagUnknownC2F8@@3PAHA 660912a8     install.obj
 0003:0000d2ac       ?d2client_pHasSelectedObject@@3PAHA 660912ac     install.obj
 0003:0000d2b0       ?d2client_pFps@@3PAHA      660912b0     install.obj
 0003:0000d2b4       ?d2client_pAutoMapSize@@3PAUtagPOINT@@A 660912b4     install.obj
 0003:0000d2b8       ?d2client_pMinimapOffset@@3PAUtagPOINT@@A 660912b8     install.obj
 0003:0000d2bc       ?d2client_pInfoPositionY@@3PAHA 660912bc     install.obj
 0003:0000d2c0       ?d2client_pScreenMinimapY@@3PAHA 660912c0     install.obj
 0003:0000d2c4       ?d2client_pScreenMinimapX@@3PAHA 660912c4     install.obj
 0003:0000d2c8       ?d2client_pAutomapPos@@3PAUtagPOINT@@A 660912c8     install.obj
 0003:0000d2cc       ?d2client_pMinimapCellFile@@3PAPAUCellFile@@A 660912cc     install.obj
 0003:0000d2d0       ?d2client_pAutomapLayer@@3PAPAUAutomapLayer@@A 660912d0     install.obj
 0003:0000d2d4       ?d2client_pAutomapLayerList@@3PAPAUAutomapLayer@@A 660912d4     install.obj
 0003:0000d2d8       ?d2client_pMinimapType@@3PAHA 660912d8     install.obj
 0003:0000d2dc       ?d2client_pChatTextLength@@3PAHA 660912dc     install.obj
 0003:0000d2e0       ?d2client_pMapShakeX@@3PAJA 660912e0     install.obj
 0003:0000d2e4       ?d2client_pIsMapShakeOn@@3PAHA 660912e4     install.obj
 0003:0000d2e8       ?d2client_pActiveWeapon@@3PAHA 660912e8     install.obj
 0003:0000d2ec       ?d2client_pStachImage@@3PAPAUCellFile@@A 660912ec     install.obj
 0003:0000d2f0       ?d2client_pPanelTradeStash@@3PAPAUCellFile@@A 660912f0     install.obj
 0003:0000d2f4       ?d2client_pPanelCube@@3PAPAUCellFile@@A 660912f4     install.obj
 0003:0000d2f8       ?d2client_pPanelBank@@3PAPAUCellFile@@A 660912f8     install.obj
 0003:0000d2fc       ?d2client_pNpcTradeCurrentTab@@3PAHA 660912fc     install.obj
 0003:0000d300       ?d2client_pCurrentViewItem@@3PAPAUUnitAny@@A 66091300     install.obj
 0003:0000d304       ?d2client_pRosterUnitList@@3PAPAURosterUnit@@A 66091304     install.obj
 0003:0000d308       ?d2client_pnpcInteract@@3PAPAXA 66091308     install.obj
 0003:0000d30c       ?d2client_pPlayerUnit@@3PAPAUUnitAny@@A 6609130c     install.obj
 0003:0000d310       ?d2client_pGoldInTranBox@@3PAHA 66091310     install.obj
 0003:0000d314       ?d2client_pDrawOffsetY@@3PAHA 66091314     install.obj
 0003:0000d318       ?d2client_pDrawOffsetX@@3PAHA 66091318     install.obj
 0003:0000d31c       ?d2client_pDrawOffset@@3PAUtagPOINT@@A 6609131c     install.obj
 0003:0000d320       ?d2client_pIs800x600@@3PAHA 66091320     install.obj
 0003:0000d324       ?d2client_pGameInfo@@3PAPAUGameStructInfo@@A 66091324     install.obj
 0003:0000d328       ?d2client_pMouseX@@3PAHA   66091328     install.obj
 0003:0000d32c       ?d2client_pMouseY@@3PAHA   6609132c     install.obj
 0003:0000d330       ?d2client_pPanelBtn@@3PAPAUCellFile@@A 66091330     install.obj
 0003:0000d334       ?d2client_pPanelInvChar@@3PAPAUCellFile@@A 66091334     install.obj
 0003:0000d338       ?d2client_pXButton1@@3PAHA 66091338     install.obj
 0003:0000d33c       ?d2client_pXButton2@@3PAHA 6609133c     install.obj
 0003:0000d340       ?d2client_pKeyboardSettingEnd@@3PAUKeyboardSetting@@A 66091340     install.obj
 0003:0000d344       ?d2client_pKeyboardSettingStart@@3PAUKeyboardSetting@@A 66091344     install.obj
 0003:0000d348       ?d2client_pSkillHotKeyLeft@@3PAHA 66091348     install.obj
 0003:0000d34c       ?d2client_pSkillHotKeys@@3PAHA 6609134c     install.obj
 0003:0000d350       ?d2client_pscreenDrawX@@3PAHA 66091350     install.obj
 0003:0000d354       ?d2client_pscreenDrawY@@3PAHA 66091354     install.obj
 0003:0000d358       ?d2client_pCastingDelayEndFrame@@3PAHA 66091358     install.obj
 0003:0000d35c       ?d2client_pExpansion@@3PAHA 6609135c     install.obj
 0003:0000d360       ?d2client_pPing@@3PAHA     66091360     install.obj
 0003:0000d364       ?d2client_pCurFrame@@3PAHA 66091364     install.obj
 0003:0000d368       ?d2client_pTradeRelated@@3PAPAHA 66091368     install.obj
 0003:0000d36c       ?d2client_pGameQuestData@@3PAPAUQuestInfo@@A 6609136c     install.obj
 0003:0000d370       ?d2client_pQuestData@@3PAPAUQuestInfo@@A 66091370     install.obj
 0003:0000d374       ?d2client_pAutomapNodeListBaseAddr@@3PAPAXA 66091374     install.obj
 0003:0000d378       ?d2client_pMapShakeY@@3PAJA 66091378     install.obj
 0003:0000d37c       ?d2client_pUnitTable@@3PAPAUUnitAny@@A 6609137c     install.obj
 0003:0000d380       ?d2client_pWaypointMenuCount@@3PAHA 66091380     install.obj
 0003:0000d384       ?d2client_pWaypointMenuCurTab@@3PAHA 66091384     install.obj
 0003:0000d388       ?d2client_pWaypointMenuItems@@3PAUWaypointMenuItem@@A 66091388     install.obj
 0003:0000d38c       ?d2client_pUiHelpOn@@3PAHA 6609138c     install.obj
 0003:0000d390       ?d2client_pUiBeltOn@@3PAHA 66091390     install.obj
 0003:0000d394       ?d2client_pUiCubeOn@@3PAHA 66091394     install.obj
 0003:0000d398       ?d2client_pUiStashOn@@3PAHA 66091398     install.obj
 0003:0000d39c       ?d2client_pUiMessageLogOn@@3PAHA 6609139c     install.obj
 0003:0000d3a0       ?d2client_pUiPPLTradeOn@@3PAHA 660913a0     install.obj
 0003:0000d3a4       ?d2client_pUiPartyOn@@3PAHA 660913a4     install.obj
 0003:0000d3a8       ?d2client_pUiWaypointOn@@3PAHA 660913a8     install.obj
 0003:0000d3ac       ?d2client_pUiNewQuestOn@@3PAHA 660913ac     install.obj
 0003:0000d3b0       ?d2client_pUiQuestOn@@3PAHA 660913b0     install.obj
 0003:0000d3b4       ?d2client_pUiModItemOn@@3PAHA 660913b4     install.obj
 0003:0000d3b8       ?d2client_pUiShowItemsOn@@3PAHA 660913b8     install.obj
 0003:0000d3bc       ?d2client_pUiNpcTradeOn@@3PAHA 660913bc     install.obj
 0003:0000d3c0       ?d2client_pAutomapOn@@3PAHA 660913c0     install.obj
 0003:0000d3c4       ?d2client_pUiGameMenuOn@@3PAHA 660913c4     install.obj
 0003:0000d3c8       ?d2client_pUiInteractOn@@3PAHA 660913c8     install.obj
 0003:0000d3cc       ?d2client_pUiNewSkillOn@@3PAHA 660913cc     install.obj
 0003:0000d3d0       ?d2client_pUiNewStatOn@@3PAHA 660913d0     install.obj
 0003:0000d3d4       ?d2client_pUiChatOn@@3PAHA 660913d4     install.obj
 0003:0000d3d8       ?d2client_pUiSkillTreeOn@@3PAHA 660913d8     install.obj
 0003:0000d3dc       ?d2client_pUiSelectSkillOn@@3PAHA 660913dc     install.obj
 0003:0000d3e0       ?d2client_pUiCharacterOn@@3PAHA 660913e0     install.obj
 0003:0000d3e4       ?d2client_pUiInventoryOn@@3PAHA 660913e4     install.obj
 0003:0000d3e8       ?d2client_pUiDropGoldWindow@@3PAPAXA 660913e8     install.obj
 0003:0000d3ec       ?d2client_pInfoPositionX@@3PAHA 660913ec     install.obj
 0003:0000d3f0       ?d2client_pExitAppFlag@@3PAHA 660913f0     install.obj
 0003:0000d3f4       ?d2client_pGameControlEnd@@3PAHA 660913f4     install.obj
 0003:0000d3f8       ?d2client_pGameControlStart@@3PAHA 660913f8     install.obj
 0003:0000d3fc       ?d2client_pMercData16@@3PAHA 660913fc     install.obj
 0003:0000d400       ?d2client_pMinimapZoom@@3PAHA 66091400     install.obj
 0003:0000d404       ?d2client_pCurSkillClass@@3PAHA 66091404     install.obj
 0003:0000d408       ?d2client_pCursorInvGridY@@3PAHA 66091408     install.obj
 0003:0000d40c       ?d2client_pCursorInvGridX@@3PAHA 6609140c     install.obj
 0003:0000d410       ?d2client_pLastMousePos@@3PAUtagPOINT@@A 66091410     install.obj
 0003:0000d414       ?d2client_pScreenHeight@@3PAHA 66091414     install.obj
 0003:0000d418       ?d2client_pScreenSize@@3PAUtagPOINT@@A 66091418     install.obj
 0003:0000d41c       ?d2client_pScreenWidth@@3PAHA 6609141c     install.obj
 0003:0000d420       ?d2client_psgptDataTables@@3PAPAUD2DataTables@@A 66091420     install.obj
 0003:0000d424       ?d2client_DrawControls@@3P6GHH@ZA 66091424     install.obj
 0003:0000d428       ?d2client_SetUiStatus@@3P6IHHHK@ZA 66091428     install.obj
 0003:0000d42c       ?d2client_LoadUiImageSubpath@@3P6IPAUCellFile@@XZA 6609142c     install.obj
 0003:0000d430       ?d2client_CheckUiStatusStub@@3P6IHH@ZA 66091430     install.obj
 0003:0000d434       ?d2client_RecvPacket0E@@3P6IXHPAD@ZA 66091434     install.obj
 0003:0000d438       ?d2client_RecvPacket9D@@3P6IXPAD@ZA 66091438     install.obj
 0003:0000d43c       ?d2client_RecvPacket9C@@3P6IXPAD@ZA 6609143c     install.obj
 0003:0000d440       ?d2client_PacketHandler@@3P6GXH@ZA 66091440     install.obj
 0003:0000d444       ?d2client_RecvCommand07@@3P6IXPAE@ZA 66091444     install.obj
 0003:0000d448       ?d2client_RecvCommand08@@3P6IXPAE@ZA 66091448     install.obj
 0003:0000d44c       ?d2client_removeUnitFromHash@@3P6IHPAPAUUnitAny@@HHH@ZA 6609144c     install.obj
 0003:0000d450       ?d2client_addUnitToHash@@3P6GHXZA 66091450     install.obj
 0003:0000d454       ?d2client_GetUnitFromId@@3P6IPAUUnitAny@@HH@ZA 66091454     install.obj
 0003:0000d458       ?d2client_CanUseSkillNow@@3P6GHH@ZA 66091458     install.obj
 0003:0000d45c       ?d2client_processMessageA3C10@@3P6GHPAUD2MSG@@@ZA 6609145c     install.obj
 0003:0000d460       ?d2client_drawFloatingWindow@@3P6GHXZA 66091460     install.obj
 0003:0000d464       ?d2client_drawUnits9EE90@@3P6GHPAX@ZA 66091464     install.obj
 0003:0000d468       ?d2client_drawInventory@@3P6GHXZA 66091468     install.obj
 0003:0000d46c       ?d2client_func_958A0@@3P6GHPAUUnitAny@@@ZA 6609146c     install.obj
 0003:0000d470       ?d2client_DrawAllUnits@@3P6GHXZA 66091470     install.obj
 0003:0000d474       ?d2client_CalcShake@@3P6GXPAH0@ZA 66091474     install.obj
 0003:0000d478       ?d2client_packet9C_4@@3P6IXXZA 66091478     install.obj
 0003:0000d47c       ?d2client_drawEnvironment@@3P6GXPAX0@ZA 6609147c     install.obj
 0003:0000d480       ?d2client_ShowGameMessage@@3P6GXPA_WH@ZA 66091480     install.obj
 0003:0000d484       ?d2client_ShowPartyMessage@@3P6GXPA_WH@ZA 66091484     install.obj
 0003:0000d488       ?d2client_getSkillTreeButtonY@@3P6IHXZA 66091488     install.obj
 0003:0000d48c       ?d2client_getSkillTreeButtonX@@3P6IHXZA 6609148c     install.obj
 0003:0000d490       ?d2client_ChatInputStub@@3P6GXPAUD2MSG@@@ZA 66091490     install.obj
 0003:0000d494       ?d2client_drawInvItem@@3P6GHHH@ZA 66091494     install.obj
 0003:0000d498       ?d2client_drawUnit@@3P6GHPAX@ZA 66091498     install.obj
 0003:0000d49c       ?d2client_shouldDrawUnit@@3P6GHXZA 6609149c     install.obj
 0003:0000d4a0       ?d2client_InitAutomapLayerStub@@3P6IPAUAutomapLayer@@K@ZA 660914a0     install.obj
 0003:0000d4a4       ?d2client_AddAreaRectToMinimap@@3P6GXPAUAreaRectData@@KPAUAutomapLayer@@@ZA 660914a4     install.obj
 0003:0000d4a8       ?d2client_AddAutomapNode@@3P6IXPAUAutomapNode@@PAPAU1@@ZA 660914a8     install.obj
 0003:0000d4ac       ?d2client_SetAutomapPartyStub@@3P6IXK@ZA 660914ac     install.obj
 0003:0000d4b0       ?d2client_SetAutomapNamesStub@@3P6IXK@ZA 660914b0     install.obj
 0003:0000d4b4       ?d2client_NewAutomapNode@@3P6IPAUAutomapNode@@XZA 660914b4     install.obj
 0003:0000d4b8       ?d2client_drawAllHeads@@3P6GHXZA 660914b8     install.obj
 0003:0000d4bc       ?d2client_GetSelectedUnit@@3P6GPAUUnitAny@@XZA 660914bc     install.obj
 0003:0000d4c0       ?d2client_clickHireMercMenu@@3P6GHXZA 660914c0     install.obj
 0003:0000d4c4       ?d2client_drawNpcInteractMenu@@3P6GHXZA 660914c4     install.obj
 0003:0000d4c8       ?d2client_Unknown6150@@3P6GHXZA 660914c8     install.obj
 0003:0000d4cc       ?d2client_GetScreenDrawY@@3P6GJXZA 660914cc     install.obj
 0003:0000d4d0       ?d2client_GetScreenDrawX@@3P6GJXZA 660914d0     install.obj
 0003:0000d4d4       ?d2client_DrawSkillButtonE5E0@@3P6GXHHHHHH@ZA 660914d4     install.obj
 0003:0000d4d8       ?d2client_SkillUnusable@@3P6IXXZA 660914d8     install.obj
 0003:0000d4dc       ?d2client_processWinMessage@@3P6GHPAUHWND__@@HHH@ZA 660914dc     install.obj
 0003:0000d4e0       ?d2client_processMessages@@3P6IXXZA 660914e0     install.obj
 0003:0000d4e4       ?d2client_ShowMap@@3P6IXXZA 660914e4     install.obj
 0003:0000d4e8       ?d2client_LoadUiImageFunc@@3P6GPAUCellFile@@H@ZA 660914e8     install.obj
 0003:0000d4ec       ?d2client_setState_2A750@@3P6IXHHHH@ZA 660914ec     install.obj
 0003:0000d4f0       ?d2client_UseBelt@@3P6IXPAUUnitInventory@@PAUUnitAny@@H@ZA 660914f0     install.obj
 0003:0000d4f4       ?d2client_DrawClient@@3P6IXXZA 660914f4     install.obj
 0003:0000d4f8       ?d2client_DrawSkillButton@@3P6GXPAUSkill@@HHH@ZA 660914f8     install.obj
 0003:0000d4fc       ?d2client_drawHpManaText@@3P6GHXZA 660914fc     install.obj
 0003:0000d500       ?d2client_PlaySound@@3P6IHHHH@ZA 66091500     install.obj
 0003:0000d504       ?d2client_ItemProtect@@3P6GXPAUUnitAny@@K@ZA 66091504     install.obj
 0003:0000d508       ?d2client_GetMonsterOwner@@3P6IHH@ZA 66091508     install.obj
 0003:0000d50c       ?d2client_LeftClickBDE0@@3P6GHXZA 6609150c     install.obj
 0003:0000d510       ?d2client_RightClickBC40@@3P6GHXZA 66091510     install.obj
 0003:0000d514       ?d2client_ShouldClick85E0@@3P6GHXZA 66091514     install.obj
 0003:0000d518       ?d2client_SendPacket3@@3P6IXF@ZA 66091518     install.obj
 0003:0000d51c       ?d2client_sendPacketLen13@@3P6IXHHH@ZA 6609151c     install.obj
 0003:0000d520       ?d2client_SendPacket43E0@@3P6GXPAD@ZA 66091520     install.obj
 0003:0000d524       ?d2client_drawGround@@3P6GHPAX@ZA 66091524     install.obj
 0003:0000d528       ?d2client_drawGroundPiece@@3P6GXHHHHHH@ZA 66091528     install.obj
 0003:0000d52c       ?d2client_SetResolutionMode@@3P6GXXZA 6609152c     install.obj
 0003:0000d530       ?d2client_getNearbyRectData@@3P6GXPAUAreaRectData@@PAPAPAU1@PAH@ZA 66091530     install.obj
 0003:0000d534       ?d2client_Storm511@@3P6GXPAUD2MSG@@@ZA 66091534     install.obj
 0003:0000d538       ?d2client_subEsp@@3P6GHXZA 66091538     install.obj
 0003:0000d53c       ?d2client_getSkillDescTxt@@3P6IPAXXZA 6609153c     install.obj
 0003:0000d540       ?bnclient_pBnChatMessage@@3PAPAKA 66091540     install.obj
 0003:0000d548       ?bnetIp@@3PADA             66091548     install.obj
 0003:0000d550       ?load_dll_error@@3HA       66091550     install.obj
 0003:0000d554       ?fLocalizationSupport@@3HA 66091554     install.obj
 0003:0000d558       ?addr_storm@@3PAUHINSTANCE__@@A 66091558     install.obj
 0003:0000d55c       ?addr_d2client@@3PAUHINSTANCE__@@A 6609155c     install.obj
 0003:0000d560       ?addr_d2common@@3PAUHINSTANCE__@@A 66091560     install.obj
 0003:0000d564       ?addr_d2gfx@@3PAUHINSTANCE__@@A 66091564     install.obj
 0003:0000d568       ?addr_d2win@@3PAUHINSTANCE__@@A 66091568     install.obj
 0003:0000d56c       ?addr_d2lang@@3PAUHINSTANCE__@@A 6609156c     install.obj
 0003:0000d570       ?addr_d2cmp@@3PAUHINSTANCE__@@A 66091570     install.obj
 0003:0000d574       ?addr_bnclient@@3PAUHINSTANCE__@@A 66091574     install.obj
 0003:0000d578       ?addr_d2net@@3PAUHINSTANCE__@@A 66091578     install.obj
 0003:0000d57c       ?addr_fog@@3PAUHINSTANCE__@@A 6609157c     install.obj
 0003:0000d580       ?addr_d2game@@3PAUHINSTANCE__@@A 66091580     install.obj
 0003:0000d584       ?addr_d2launch@@3PAUHINSTANCE__@@A 66091584     install.obj
 0003:0000d588       ?addr_d2gdi@@3PAUHINSTANCE__@@A 66091588     install.obj
 0003:0000d58c       ?addr_d2sound@@3PAUHINSTANCE__@@A 6609158c     install.obj
 0003:0000d590       ?addr_d2multi@@3PAUHINSTANCE__@@A 66091590     install.obj
 0003:0000d594       ?addr_d2mcpclient@@3PAUHINSTANCE__@@A 66091594     install.obj
 0003:0000d598       ?fGameFilter@@3HA          66091598     install.obj
 0003:0000d59c       ?hasPlugY@@3HA             6609159c     install.obj
 0003:0000d5a0       ?pPatchList@@3PAPAUInstalledPatch@@A 660915a0     install.obj
 0003:0000d5b0       ?networkPatch@@3PAUInstalledPatch@@A 660915b0     install.obj
 0003:0000e9c0       ?dwDumpMpqPath@@3HA        660929c0     mpq.obj
 0003:0000ea70       ?singlePlayerWorld@@3PAUWorld@@A 66092a70     common.obj
 0003:0000ea74       ?forceStandStill@@3HA      66092a74     common.obj
 0003:0000f6a0       ?nPet@@3HA                 660936a0     common.obj
 0003:0000f6a4       ?petCap@@3HA               660936a4     common.obj
 0003:0000f6a8       ?dwPetListChangeVerify@@3HA 660936a8     common.obj
 0003:0000f6b0       ?fPartyListValid@@3HA      660936b0     common.obj
 0003:0000f6e8       ?screenDrawY@@3HA          660936e8     loop.obj
 0003:0000f6ec       ?screenDrawX@@3HA          660936ec     loop.obj
 0003:0000f6f0       ?dwChangeLeftSkill@@3HA    660936f0     loop.obj
 0003:0000f6f4       ?dwLoopCount@@3HA          660936f4     loop.obj
 0003:0000f6f8       ?fDebugMs@@3HA             660936f8     loop.obj
 0003:0000f6fc       ?dwLevelChangeMs@@3HA      660936fc     loop.obj
 0003:0000f700       ?dwCpuUser@@3HA            66093700     loop.obj
 0003:0000f704       ?dwCpuKernel@@3HA          66093704     loop.obj
 0003:0000f708       ?dwLoopFPS@@3HA            66093708     loop.obj
 0003:0000f70c       ?dwDrawFPS@@3HA            6609370c     loop.obj
 0003:0000f710       ?dwCurMs@@3HC              66093710     loop.obj
 0003:0000f714       ?dwEnterGameMs@@3HA        66093714     loop.obj
 0003:0000f718       ?fStartingGame@@3HA        66093718     loop.obj
 0003:0000f71c       ?fInGame@@3HA              6609371c     loop.obj
 0003:0000f720       ?dwEnterGameShowDifficultyMs@@3HA 66093720     loop.obj
 0003:0000f724       ?dwCurrentAct@@3HA         66093724     loop.obj
 0003:0000f728       ?dwPlayerX@@3HA            66093728     loop.obj
 0003:0000f72c       ?dwPlayerY@@3HA            6609372c     loop.obj
 0003:0000f730       ?dwPlayerId@@3HA           66093730     loop.obj
 0003:0000f734       ?dwPlayerPartyId@@3HA      66093734     loop.obj
 0003:0000f738       ?dwPlayerClass@@3HA        66093738     loop.obj
 0003:0000f73c       ?pLeftSkill@@3PAUSkill@@A  6609373c     loop.obj
 0003:0000f740       ?pRightSkill@@3PAUSkill@@A 66093740     loop.obj
 0003:0000f744       ?dwLeftSkillStatus@@3HA    66093744     loop.obj
 0003:0000f748       ?dwRightSkillStatus@@3HA   66093748     loop.obj
 0003:0000f74c       ?dwPlayerLevel@@3HA        6609374c     loop.obj
 0003:0000f750       ?dwPlayerHP@@3HA           66093750     loop.obj
 0003:0000f754       ?dwPlayerMaxHP@@3HA        66093754     loop.obj
 0003:0000f758       ?dwPlayerMana@@3HA         66093758     loop.obj
 0003:0000f75c       ?dwPlayerMaxMana@@3HA      6609375c     loop.obj
 0003:0000f760       ?dwPlayerFcrFrame@@3HA     66093760     loop.obj
 0003:0000f764       ?dwPlayerFcrMs@@3HA        66093764     loop.obj
 0003:0000f768       ?dwSlowRestoreMs@@3HA      66093768     loop.obj
 0003:0000f7a8       ?wcsLevelTargetName@@3PA_WA 660937a8     map.obj
 0003:0000f8b4       ?dwRescueBarDy@@3HA        660938b4     map.obj
 0003:0000f8b8       ?dwRescueBarDx@@3HA        660938b8     map.obj
 0003:0000f8d0       ?minimapLevels@@3PAUMinimapLevel@@A 660938d0     map.obj
 0003:00010eb0       ?pCurMapLevel@@3PAUMinimapLevel@@A 66094eb0     map.obj
 0003:00010f9c       ?pMinimapObjectCell@@3PAUCellFile@@A 66094f9c     map.obj
 0003:00010fa0       ?dwRevealMapMs@@3HA        66094fa0     map.obj
 0003:00010fa4       ?dwAutoRevealCLevel@@3HA   66094fa4     map.obj
 0003:00010fa8       ?anMonsterColours@@3PAEA   66094fa8     map.obj
 0003:00011390       ?wszStaffTombLvlDesc@@3PA_WA 66095390     map.obj
 0003:000113f4       ?nCaveNameTextCol@@3EA     660953f4     map.obj
 0003:000113f5       ?nSuperUniqueDescFont@@3EA 660953f5     map.obj
 0003:000113f8       ?aszUnitBlobFiles@@3PAY0DC@DA 660953f8     map.obj
 0003:00011620       ?awszEnchantDescs@@3PAY0BE@_WA 66095620     map.obj
 0003:00011df0       ?awszAuraDescs@@3PAY0BE@_WA 66095df0     map.obj
 0003:00011f08       ?awszImmuneDescs@@3PAY0BE@_WA 66095f08     map.obj
 0003:00011ff8       ?anMonsterCorpseColors@@3PAEA 66095ff8     map.obj
 0003:000123e0       ?anMissileColours@@3PAEA   660963e0     map.obj
 0003:000127c8       ?dwScreenScrollCount@@3HA  660967c8     map.obj
 0003:000127cc       ?dwMinimapScrollCount@@3HA 660967cc     map.obj
 0003:000127d0       ?tScreenScrollKeys@@3PAUToggleVar@@A 660967d0     map.obj
 0003:00012ad0       ?dwScreenScrollOffset@@3PAY01HA 66096ad0     map.obj
 0003:00012b50       ?tMiniMapScrollKeys@@3PAUToggleVar@@A 66096b50     map.obj
 0003:00012e50       ?dwMiniMapScrollOffset@@3PAY01HA 66096e50     map.obj
 0003:000130dc       ?dwSendPacketCount@@3HA    660970dc     packet.obj
 0003:000130e0       ?fMonitorSendCmd@@3PADA    660970e0     packet.obj
 0003:000131e0       ?fMonitorRecvCmd@@3PADA    660971e0     packet.obj
 0003:000133e0       ?dwInteractEntityCount@@3HA 660973e0     packet.obj
 0003:000133ec       ?dwTargetDistanceMs@@3HA   660973ec     route.obj
 0003:000133f0       ?dwTargetDistance@@3HA     660973f0     route.obj
 0003:0001341c       ?pSrcRect@@3PAURouteRect@@A 6609741c     route.obj
 0003:00013420       ?dwTakeWaypointToLevel@@3HA 66097420     waypoint.obj
 0003:00013424       ?waypointBits@@3PADA       66097424     waypoint.obj
 0003:00013430       ?waypointMap@@3PAHA        66097430     waypoint.obj
 0003:00013660       ?mouseL@@3HA               66097660     winmsg.obj
 0003:00013664       ?mouseW@@3HA               66097664     winmsg.obj
 0003:00015a68       ?fSkipPainting@@3HA        66099a68     winmsg.obj
 0003:00015a6c       ?fSkipPaintingMenu@@3HA    66099a6c     winmsg.obj
 0003:00015a70       ?dwQuickSwapItemMs@@3HA    66099a70     winmsg.obj
 0003:00015a74       ?dwScreenBlockMask@@3HA    66099a74     winmsg.obj
 0003:00015a78       ?dwDrawCount@@3HA          66099a78     winmsg.obj
 0003:00015a7c       ?fInMainMenu@@3HA          66099a7c     winmsg.obj
 0003:00015a80       ?fLeftBtnDown@@3HA         66099a80     winmsg.obj
 0003:00015a84       ?fRightBtnDown@@3HA        66099a84     winmsg.obj
 0003:00015a88       ?dwBtnReleaseMs@@3HA       66099a88     winmsg.obj
 0003:00015a8c       ?fUserOperating@@3HA       66099a8c     winmsg.obj
 0003:00015ab8       ?fNoBackgroundImage@@3HA   66099ab8     winmsg.obj
 0003:00015abc       ?dwAutoHideMinimapKey@@3HA 66099abc     winmsg.obj
 0003:00015ac0       ?dwGameControlKeys@@3PAY03HA 66099ac0     winmsg.obj
 0003:00015ec0       ?dwGameSoundKeys@@3PAHA    66099ec0     winmsg.obj
 0003:000160c0       ?tSwitchWindowKeys@@3PAY01UToggleVar@@A 6609a0c0     winmsg.obj
 0003:000166c0       ?dwSwitchSkillKeyCount@@3HA 6609a6c0     winmsg.obj
 0003:000166c4       ?fFullWindows@@3HA         6609a6c4     winmsg.obj
 0003:000166c8       ?dwSwitchSkillKeys@@3PAHA  6609a6c8     winmsg.obj
 0003:00016748       ?dwSwitchSkillLeft@@3PAY173HA 6609a748     winmsg.obj
 0003:00017748       ?dwSwitchSkillRight@@3PAY173HA 6609b748     winmsg.obj
 0003:00018748       ?dwSwitchSkillLeftUp@@3PAY07HA 6609c748     winmsg.obj
 0003:00018b48       ?dwSwitchSkillRightUp@@3PAY07HA 6609cb48     winmsg.obj
 0003:00018f48       ?dwSwitchSkillStandStill@@3PAHA 6609cf48     winmsg.obj
 0003:00018fc8       ?dwSwitchSkillLeftOrg@@3PAHA 6609cfc8     winmsg.obj
 0003:00019048       ?dwSwitchSkillRightOrg@@3PAHA 6609d048     winmsg.obj
 0003:000190c8       ?dwTpSwitchBackground@@3PAHA 6609d0c8     winmsg.obj
 0003:000190e8       ?dwEnterDoorInBackgroundSkill@@3PAY0IM@HA 6609d0e8     winmsg.obj
 0003:0001a068       ?skipMonsters@@3PADA       6609e068     env.obj
 0003:0001a468       ?dwVisualEffectMode@@3HA   6609e468     env.obj
 0003:0001a470       ?afMonsterCorpses@@3PAEA   6609e470     env.obj
 0003:0001a858       ?afMissileCorpses@@3PAEA   6609e858     env.obj
 0003:0001ac40       ?dwNextStackLoc@@3HA       6609ec40     GameMonitor.obj
 0003:0001ac44       ?dwNextStackY@@3HA         6609ec44     GameMonitor.obj
 0003:0001ac48       ?dwNextStackX@@3HA         6609ec48     GameMonitor.obj
 0003:0001ac4c       ?dwNextStackingId@@3HA     6609ec4c     GameMonitor.obj
 0003:0001ac50       ?dwThrowWeaponId@@3HA      6609ec50     GameMonitor.obj
 0003:0001ac60       ?dwNextMPotionId@@3HA      6609ec60     GameMonitor.obj
 0003:0001ac64       ?dwNextHPotionId@@3HA      6609ec64     GameMonitor.obj
 0003:0001ac68       ?beltLayers@@3HA           6609ec68     GameMonitor.obj
 0003:0001ac6c       ?dwNeedPotionType@@3HA     6609ec6c     GameMonitor.obj
 0003:0001ac70       ?beltType@@3PAEA           6609ec70     GameMonitor.obj
 0003:0001ac74       ?beltCount@@3PAEA          6609ec74     GameMonitor.obj
 0003:0001ac78       ?fWerebear@@3HA            6609ec78     GameMonitor.obj
 0003:0001ac7c       ?fWerewolf@@3HA            6609ec7c     GameMonitor.obj
 0003:0001ac80       ?dwOakSageLvl@@3HA         6609ec80     GameMonitor.obj
 0003:0001ac84       ?bossY@@3HA                6609ec84     GameMonitor.obj
 0003:0001ac88       ?bossX@@3HA                6609ec88     GameMonitor.obj
 0003:0001ac8c       ?dwRecheckSelfItemMs@@3HA  6609ec8c     GameMonitor.obj
 0003:0001ac90       ?leftWeapon@@3PAUUnitAny@@A 6609ec90     GameMonitor.obj
 0003:0001ac94       ?rightWeapon@@3PAUUnitAny@@A 6609ec94     GameMonitor.obj
 0003:0001ac98       ?dwTownPortalCount@@3HA    6609ec98     GameMonitor.obj
 0003:0001ac9c       ?dwIdentifyPortalCount@@3HA 6609ec9c     GameMonitor.obj
 0003:0001aca0       ?fUsingBow@@3HA            6609eca0     GameMonitor.obj
 0003:0001aca4       ?fUsingCrossBow@@3HA       6609eca4     GameMonitor.obj
 0003:0001aca8       ?fUsingThrow@@3HA          6609eca8     GameMonitor.obj
 0003:0001acac       ?dwHPotionCount@@3HA       6609ecac     GameMonitor.obj
 0003:0001acb0       ?dwMPotionCount@@3HA       6609ecb0     GameMonitor.obj
 0003:0001acb4       ?dwRPotionCount@@3HA       6609ecb4     GameMonitor.obj
 0003:0001acb8       ?dwArrowCount@@3HA         6609ecb8     GameMonitor.obj
 0003:0001acbc       ?dwCArrowCount@@3HA        6609ecbc     GameMonitor.obj
 0003:0001acc0       ?dwThrowCount@@3HA         6609ecc0     GameMonitor.obj
 0003:0001acc4       ?curStashPage@@3HA         6609ecc4     GameMonitor.obj
 0003:0001acc8       ?nStashPages@@3HA          6609ecc8     GameMonitor.obj
 0003:0001accc       ?fMonitorQuantity@@3HA     6609eccc     GameMonitor.obj
 0003:0001acd0       ?stashPages@@3PAPAUStashPage@@A 6609ecd0     GameMonitor.obj
 0003:0001aed0       ?fMonitorDurability@@3HA   6609eed0     GameMonitor.obj
 0003:0001aed4       ?dwKillSum@@3HA            6609eed4     GameMonitor.obj
 0003:0001aed8       ?dwGameKills@@3HA          6609eed8     GameMonitor.obj
 0003:0001aedc       ?dwLastKills@@3HA          6609eedc     GameMonitor.obj
 0003:0001aee0       ?dwGetHitSum@@3HA          6609eee0     GameMonitor.obj
 0003:0001aee4       ?dwGetHits@@3HA            6609eee4     GameMonitor.obj
 0003:0001aee8       ?dwOrgMode@@3HA            6609eee8     GameMonitor.obj
 0003:0001aeec       ?targetNameColor@@3DA      6609eeec     GameMonitor.obj
 0003:0001aef0       ?fState100HP@@3HA          6609eef0     GameMonitor.obj
 0003:0001aef4       ?fState106ManaMs@@3HA      6609eef4     GameMonitor.obj
 0003:0001aefc       ?dwGuessBOMs@@3HA          6609eefc     GameMonitor.obj
 0003:0001af00       ?dwGuessEnchantMs@@3HA     6609ef00     GameMonitor.obj
 0003:0001d820       ?fViewingTargetUnit@@3HA   660a1820     info.obj
 0003:0001d824       ?currentgameexp@@3HA       660a1824     info.obj
 0003:00092b78       ?dwGoldGoodNum@@3HA        66116b78     item.obj
 0003:00092b7c       ?fSimplifiedPotionName@@3HA 66116b7c     item.obj
 0003:00092b80       ?anRuneColours@@3PAY03DA   66116b80     item.obj
 0003:00092d10       ?anItemColours@@3PAY37163DA 66116d10     item.obj
 0003:001daf10       ?anItemHideLevel@@3PAY07DA 6625ef10     item.obj
 0003:001e0cd0       ?anItemShowCLevel@@3PAY01DA 66264cd0     item.obj
 0003:001e2440       ?wszEtherealItemPrefix@@3PA_WA 66266440     item.obj
 0003:001e247c       ?wszEtherealItemPostfix@@3PA_WA 6626647c     item.obj
 0003:001e24b8       ?dwShowValuableItem@@3HA   662664b8     item.obj
 0003:001e24c0       ?szItemExtInfoCfgName@@3PAY0BAA@DA 662664c0     item.obj
 0003:001e26c0       ?fViewSockFlag@@3HA        662666c0     item.obj
 0003:001e26c4       ?fViewSocketableOn@@3HA    662666c4     item.obj
 0003:001e26c8       ?wszDescText@@3PA_WA       662666c8     item.obj
 0003:001e2ec8       ?pViewingItem@@3PAUUnitAny@@A 66266ec8     item.obj
 0003:001f27f0       ?dwCheckMercMs@@3HA        662767f0     dangerous.obj
 0003:001f280c       ?dwIronGolemLifeAlertPercent@@3HA 6627680c     dangerous.obj
 0003:001f2810       ?dwIronGolemLifeTownPercent@@3HA 66276810     dangerous.obj
 0003:001f2814       ?dwIronGolemLifeExitPercent@@3HA 66276814     dangerous.obj
 0003:001f2818       ?dwIronGolemTownLifePercent@@3HA 66276818     dangerous.obj
 0003:001f281c       ?dwHirePotionMinCLevel@@3HA 6627681c     dangerous.obj
 0003:001f2820       ?dwHirePotionLifePercent@@3HA 66276820     dangerous.obj
 0003:001f2824       ?dwHirePotionColumn@@3HA   66276824     dangerous.obj
 0003:001f2828       ?dwHealingPotionLifePercent@@3HA 66276828     dangerous.obj
 0003:001f282c       ?dwHealingPotionDelayMs@@3HA 6627682c     dangerous.obj
 0003:001f2830       ?dwManaPotionMax@@3HA      66276830     dangerous.obj
 0003:001f2834       ?dwManaPotionValue@@3HA    66276834     dangerous.obj
 0003:001f2838       ?dwManaPotionNTValue@@3HA  66276838     dangerous.obj
 0003:001f283c       ?dwChickenLife@@3HA        6627683c     dangerous.obj
 0003:001f2840       ?dwChickenMaxLife@@3HA     66276840     dangerous.obj
 0003:001f2844       ?dwChickenHostileLife@@3HA 66276844     dangerous.obj
 0003:001f2848       ?dwChickenHostileNearbyLife@@3HA 66276848     dangerous.obj
 0003:001f284c       ?dwChickenLifePercent@@3HA 6627684c     dangerous.obj
 0003:001f2850       ?dwChickenHostileLifePercent@@3HA 66276850     dangerous.obj
 0003:001f2854       ?dwChickenHostileNearbyLifePercent@@3HA 66276854     dangerous.obj
 0003:001f2858       ?dwChickenLifeMinClevel@@3HA 66276858     dangerous.obj
 0003:001f285c       ?fLifeProtectOn@@3HA       6627685c     dangerous.obj
 0003:001f2860       ?fDangerousMonsterActive@@3HA 66276860     dangerous.obj
 0003:001f2868       ?anDangerousMonster@@3PAY01DA 66276868     dangerous.obj
 0003:001f30b0       ?dwUpdateQuestMs@@3HA      662770b0     quest.obj
 0003:001f30b4       ?dwQuestAlertMs@@3HA       662770b4     quest.obj
 0003:001f30b8       ?wszBugKBAlertMessage@@3PA_WA 662770b8     quest.obj
 0003:001f7220       ?afMonsterDeathAnims@@3PAEA 6627b220     lifebar.obj
 0003:001f7640       ?aDropProtectRune@@3PADA   6627b640     DropProtection.obj
 0003:001f7668       ?aDropProtectRuneword@@3PADA 6627b668     DropProtection.obj
 0003:001f7768       ?aDropProtectUnique@@3PADA 6627b768     DropProtection.obj
 0003:001f7968       ?aDropProtectSet@@3PADA    6627b968     DropProtection.obj
 0003:001f7a68       ?dwSimpleItemProtectionCount@@3HA 6627ba68     DropProtection.obj
 0003:001fbe88       ?fAutoEnchantCheckUnit@@3HA 6627fe88     enchant.obj
 0003:001fbe90       ?pD2WinEditBox@@3PAUD2EditBox@@A 6627fe90     chat.obj
 0003:001fbe98       ?chatPasteMs@@3HA          6627fe98     chat.obj
 0003:001fbea0       ?fMyChatOn@@3HA            6627fea0     chat.obj
 0003:001fbf68       ?dwAutoLoginMs@@3HA        6627ff68     login.obj
 0003:001fbf70       ?dwAutoSelectCharMs@@3HA   6627ff70     login.obj
 0003:001fbf80       ?nCurCharTags@@3HA         6627ff80     login.obj
 0003:001fbf98       ?mSkipQuestMessage@@3HA    6627ff98     misc.obj
 0003:001fbfac       ?dwWaitTeamEnterPortalId@@3HA 6627ffac     multi.obj
 0003:001fbfb0       ?dwWaitTeamEnterPortalMs@@3HA 6627ffb0     multi.obj
 0003:001fbff0       ?d2wins@@3PAUD2Window@@A   6627fff0     multi.obj
 0003:001fdb70       ?dwMultiClientMaxWindowId@@3HA 66281b70     multi.obj
 0003:001fdb74       ?d2winLastId@@3HA          66281b74     multi.obj
 0003:001fdb78       ?wszTransferClick@@3PA_WA  66281b78     multi.obj
 0003:001fdbf8       ?fAutoFollowMoving@@3HA    66281bf8     multi.obj
 0003:001fdbfc       ?fTransferClick@@3HA       66281bfc     multi.obj
 0003:001fdc00       ?tMCFormationKeys@@3PAUToggleVar@@A 66281c00     multi.obj
 0003:001fe200       ?aMCFormation@@3PAY0BA@CA  66282200     multi.obj
 0003:001fe400       ?aAutoFollowClickObject@@3PADA 66282400     multi.obj
 0003:001fe800       ?dwTeamMemberCount@@3HA    66282800     multi.obj
 0003:001fe804       ?dwLeaderId@@3HA           66282804     multi.obj
 0003:001fe820       ?wszNpcTradeInfo@@3PA_WA   66282820     NpcTrade.obj
 0003:001ff384       ?dwNpcTradeCheckMs@@3HA    66283384     NpcTrade.obj
 0003:001ff388       ?fCanInvite@@3HA           66283388     party.obj
 0003:001ff38c       ?dwPartyResponseMs@@3HA    6628338c     party.obj
 0003:001ff398       ?fCanExitGame@@3HA         66283398     quick.obj
 0003:001ff39c       ?dwBackToTownTimeout@@3HA  6628339c     quick.obj
 0003:001ff3a8       ?fAutoNextGameName@@3HA    662833a8     quick.obj
 0003:001ff3ac       ?fAutoNextGamePassword@@3HA 662833ac     quick.obj
 0003:001ff3b0       ?fAutoNextGameDescription@@3HA 662833b0     quick.obj
 0003:001ff3b8       ?wszGameName@@3PA_WA       662833b8     quick.obj
 0003:001ff3f8       ?wszGamePassword@@3PA_WA   662833f8     quick.obj
 0003:001ff438       ?wszGameDescription@@3PA_WA 66283438     quick.obj
 0003:001ff8cc       ?fHighRes@@3HA             662838cc     resolution.obj
 0003:0020399c       ?dwAutoSkillReloading@@3HA 6628799c     skill.obj
 0003:002039a0       ?dwRescueBarSafeDistance@@3HA 662879a0     skill.obj
 0003:002039a4       ?fAutoEnchant@@3HA         662879a4     skill.obj
 0003:002039a8       ?aAutoPickupItem@@3PADA    662879a8     skill.obj
 0003:00204560       ?fAutoEnchantUseLeftSkill@@3HA 66288560     skill.obj
 0003:00204564       ?fAutoWarCry@@3HA          66288564     skill.obj
 0003:00204568       ?dwAutoEnchantMonster@@3PADA 66288568     skill.obj
 0003:00204968       ?fAutoWarCryUseLeftSkill@@3HA 66288968     skill.obj
 0003:0020496c       ?dwAutoWarCryRenewPercent@@3HA 6628896c     skill.obj
 0003:00204970       ?dwUseLeftSkillFirst@@3HA  66288970     skill.obj
 0003:00204974       ?dwAutoReloadThrowing@@3HA 66288974     skill.obj
 0003:00204978       ?dwAutoSkillCheckMs@@3HA   66288978     skill.obj
 0003:0020497c       ?dwAutoSkillMode@@3HA      6628897c     skill.obj
 0003:00204980       ?fAutoSkillNow@@3HA        66288980     skill.obj
 0003:00204984       ?fAutoSkill@@3HA           66288984     skill.obj
 0003:00204988       ?aAutoDimVisionMonster@@3PADA 66288988     skill.obj
 0003:00204d88       ?aAutoSkillMonsterType@@3PADA 66288d88     skill.obj
 0003:00205188       ?aAutoSkillDistance@@3PAY01DA 66289188     skill.obj
 0003:00205588       ?fAutoSummon@@3HA          66289588     skill.obj
 0003:0020558c       ?fAutoSummonUseLeftSkill@@3HA 6628958c     skill.obj
 0003:00205590       ?dwAutoSummonStartMs@@3HA  66289590     skill.obj
 0003:00205594       ?dwAutoSummonCheckEnchantMs@@3HA 66289594     skill.obj
 0003:00205598       ?aAutoReviveMonster@@3PADA 66289598     skill.obj
 0003:00205998       ?dwSkeletonCount@@3HA      66289998     skill.obj
 0003:0020599c       ?dwEnchantSkeletonCount@@3HA 6628999c     skill.obj
 0003:002059a0       ?dwSkeletonMaxCount@@3HA   662899a0     skill.obj
 0003:002059a4       ?dwSkeletonMageCount@@3HA  662899a4     skill.obj
 0003:002059a8       ?dwSkeletonMageMaxCount@@3HA 662899a8     skill.obj
 0003:002059ac       ?dwReviveCount@@3HA        662899ac     skill.obj
 0003:002059b0       ?dwReviveMaxCount@@3HA     662899b0     skill.obj
 0003:002059b4       ?dwSkeletonHPPercent@@3HA  662899b4     skill.obj
 0003:002059b8       ?dwSkeletonMageHPPercent@@3HA 662899b8     skill.obj
 0003:00207374       ?dwMercNameId@@3HA         6628b374     Snapshot.obj
 0003:00208378       ?questNames@@3PAPADA       6628c378     Snapshot.obj
 0003:00208440       ?dwMercSeed@@3HA           6628c440     Snapshot.obj
 0003:002085a0       ?dwCheckSkeletonCountMs@@3HA 6628c5a0     summon.obj
 0003:0020c5c8       ?fAutoSummonSwitchSkillTmp@@3HA 662905c8     summon.obj
 0003:0020c5cc       ?fAutoSummonSwitchSkill@@3HA 662905cc     summon.obj
 0003:0020c5d0       ?fAutoSummonNeedCorpse@@3HA 662905d0     summon.obj
 0003:0020c5d4       ?dwNecInfoExpireMs@@3HA    662905d4     summon.obj
 0003:0020c5d8       ?dwNecMana@@3HA            662905d8     summon.obj
 0003:0020c5dc       ?dwTotalMonsterCount@@3HA  662905dc     summon.obj
 0003:0020c5e0       ?dwSkillChangeCount@@3HA   662905e0     summon.obj
 0003:0020ca48       ?maxTpDisRaw@@3HA          66290a48     teleport.obj
 0003:0020cabc       ?dwTpDoneMs@@3HA           66290abc     teleport.obj
 0003:0020cac0       ?dwTpMs@@3HA               66290ac0     teleport.obj
 0003:0020cac4       ?TPfailedRect@@3PAUAreaRectData@@A 66290ac4     teleport.obj
 0003:0020cac8       ?TPtargetRect@@3PAUAreaRectData@@A 66290ac8     teleport.obj
 0003:0020cacc       ?TPtarget@@3UtagPOINT@@A   66290acc     teleport.obj
 0003:0020cb00       ?fAutoTeleporting@@3HA     66290b00     teleport.obj
 0003:0020cb04       ?unexpectedMonCount@@3HA   66290b04     teleport.obj
 0003:0020cb08       ?unexpectedMonTotalMs@@3HA 66290b08     teleport.obj
 0003:0020cb20       ?fEnableHighResolutionPatch@@3HA 66290b20     panel.obj
 0003:0020cb24       ?serverCubeType@@3HA       66290b24     panel.obj
 0003:0020cb28       ?clientCubeType@@3HA       66290b28     panel.obj
 0003:0020cb2c       ?serverStashType@@3HA      66290b2c     panel.obj
 0003:0020cb30       ?clientStashType@@3HA      66290b30     panel.obj
 0003:0020cb34       ?serverInvType@@3HA        66290b34     panel.obj
 0003:0020cb38       ?clientInvType@@3HA        66290b38     panel.obj
 0003:0020cb44       ?fEnableBigStash@@3HA      66290b44     panel.obj
 0003:0020cb48       ?dwInvType@@3HA            66290b48     panel.obj
 0003:0020cb4c       ?dwStashType@@3HA          66290b4c     panel.obj
 0003:0020cb50       ?dwCubeType@@3HA           66290b50     panel.obj
 0003:0020cdac       ?active_UberDiabloRushTweekAI@@3_NA 66290dac     uber.obj
 0003:0020cdad       ?active_UberBaalTeleportTweekAI@@3_NA 66290dad     uber.obj
 0003:0020cdae       ?active_UberBaalChillingArmorTweekAI@@3_NA 66290dae     uber.obj
 0003:0020cdb0       ?uberBaalChillingArmorLastFrame@@3HA 66290db0     uber.obj
 0003:0020cdb4       __cflush                   66290db4     LIBCMT:_file.obj
 0003:0020cdb8       ___fastflag                66290db8     LIBCMT:_fpinit_.obj
 0003:0020cdbc       __adjust_fdiv              66290dbc     LIBCMT:_fpinit_.obj
 0003:0020cdd8       __aenvptr                  66290dd8     LIBCMT:dllcrt0.obj
 0003:0020cddc       __wenvptr                  66290ddc     LIBCMT:dllcrt0.obj
 0003:0020cde0       ___error_mode              66290de0     LIBCMT:dllcrt0.obj
 0003:0020cde4       ___app_type                66290de4     LIBCMT:dllcrt0.obj
 0003:0020cdec       ___mbulinfo                66290dec     LIBCMT:mbctype.obj
 0003:0020cdf8       ___mbcodepage              66290df8     LIBCMT:mbctype.obj
 0003:0020cdfc       ___ismbcodepage            66290dfc     LIBCMT:mbctype.obj
 0003:0020ce00       ___mblcid                  66290e00     LIBCMT:mbctype.obj
 0003:0020ce04       ___locale_changed          66290e04     LIBCMT:setlocal.obj
 0003:0020ce08       ___lc_handle               66290e08     LIBCMT:nlsdata2.obj
 0003:0020ce20       ___lc_codepage             66290e20     LIBCMT:nlsdata2.obj
 0003:0020ce24       ___lc_collate_cp           66290e24     LIBCMT:nlsdata2.obj
 0003:0020ce28       _gpFlsAlloc                66290e28     LIBCMT:tidtable.obj
 0003:0020ce2c       _gpFlsGetValue             66290e2c     LIBCMT:tidtable.obj
 0003:0020ce30       _gpFlsSetValue             66290e30     LIBCMT:tidtable.obj
 0003:0020ce34       _gpFlsFree                 66290e34     LIBCMT:tidtable.obj
 0003:0020ce38       ___pInvalidArgHandler      66290e38     LIBCMT:invarg.obj
 0003:0020cf90       __stdbuf                   66290f90     LIBCMT:_sftbuf.obj
 0003:0020d2bc       ?_pnhHeap@@3P6AHI@ZA       662912bc     LIBCMT:handler.obj
 0003:0020d2c0       __newmode                  662912c0     LIBCMT:_newmode.obj
 0003:0020d2c4       __crtheap                  662912c4     LIBCMT:heapinit.obj
 0003:0020d2c8       ___sbh_pHeaderDefer        662912c8     LIBCMT:sbheap.obj
 0003:0020d2d0       __maxwait                  662912d0     LIBCMT:crtheap.obj
 0003:0020d2d4       __umaskval                 662912d4     LIBCMT:crt0dat.obj
 0003:0020d2d8       ___argc                    662912d8     LIBCMT:crt0dat.obj
 0003:0020d2dc       ___argv                    662912dc     LIBCMT:crt0dat.obj
 0003:0020d2e0       ___wargv                   662912e0     LIBCMT:crt0dat.obj
 0003:0020d2e4       __environ                  662912e4     LIBCMT:crt0dat.obj
 0003:0020d2e8       ___initenv                 662912e8     LIBCMT:crt0dat.obj
 0003:0020d2ec       __wenviron                 662912ec     LIBCMT:crt0dat.obj
 0003:0020d2f0       ___winitenv                662912f0     LIBCMT:crt0dat.obj
 0003:0020d2f4       __pgmptr                   662912f4     LIBCMT:crt0dat.obj
 0003:0020d2f8       __wpgmptr                  662912f8     LIBCMT:crt0dat.obj
 0003:0020d2fc       __exitflag                 662912fc     LIBCMT:crt0dat.obj
 0003:0020d300       __C_Termination_Done       66291300     LIBCMT:crt0dat.obj
 0003:0020d304       __C_Exit_Done              66291304     LIBCMT:crt0dat.obj
 0003:0020d730       ___lconv_static_null       66291730     LIBCMT:lconv.obj
 0003:0020d738       ?__pInconsistency@@3P6AXXZA 66291738     LIBCMT:hooks.obj
 0003:0020d75c       ___pPurecall               6629175c     LIBCMT:inithelp.obj
 0003:0020d760       __outputformat             66291760     LIBCMT:outputformat.obj
 0003:0020d838       __commode                  66291838     LIBCMT:ncommode.obj
 0003:0020d850       ?pArgList@UnDecorator@@0PAVReplicator@@A 66291850     LIBCMT:undname.obj
 0003:0020d854       ?pZNameList@UnDecorator@@0PAVReplicator@@A 66291854     LIBCMT:undname.obj
 0003:0020d858       ?pTemplateArgList@UnDecorator@@0PAVReplicator@@A 66291858     LIBCMT:undname.obj
 0003:0020d85c       ?gName@UnDecorator@@0PBDB  6629185c     LIBCMT:undname.obj
 0003:0020d860       ?name@UnDecorator@@0PBDB   66291860     LIBCMT:undname.obj
 0003:0020d864       ?outputString@UnDecorator@@0PADA 66291864     LIBCMT:undname.obj
 0003:0020d868       ?maxStringLength@UnDecorator@@0HA 66291868     LIBCMT:undname.obj
 0003:0020d86c       ?disableFlags@UnDecorator@@0KA 6629186c     LIBCMT:undname.obj
 0003:0020d870       ?m_pGetParameter@UnDecorator@@0P6APADJ@ZA 66291870     LIBCMT:undname.obj
 0003:0020d874       ?fExplicitTemplateParams@UnDecorator@@0_NA 66291874     LIBCMT:undname.obj
 0003:0020d875       ?fGetTemplateArgumentList@UnDecorator@@0_NA 66291875     LIBCMT:undname.obj
 0003:0020d878       __fmode                    66291878     LIBCMT:txtmode.obj
 0003:0020d880       __debugger_hook_dummy      66291880     <common>
 0003:0020d884       ___use_sse2_mathfcns       66291884     <common>
 0003:0020d888       ___env_initialized         66291888     <common>
 0003:0020d88c       ___onexitend               6629188c     <common>
 0003:0020d890       ___onexitbegin             66291890     <common>
 0003:0020d894       ___mbctype_initialized     66291894     <common>
 0003:0020d898       ___dyn_tls_init_callback   66291898     <common>
 0003:0020d89c       ___sbh_cntHeaderList       6629189c     <common>
 0003:0020d8a0       ___sbh_pHeaderList         662918a0     <common>
 0003:0020d8a4       ___sbh_threshold           662918a4     <common>
 0003:0020d8a8       ___sbh_pHeaderScan         662918a8     <common>
 0003:0020d8ac       ___sbh_sizeHeaderList      662918ac     <common>
 0003:0020d8b0       ___sbh_indGroupDefer       662918b0     <common>
 0003:0020d8b4       ___active_heap             662918b4     <common>
 0003:0020d8b8       ___sse2_available          662918b8     <common>
 0003:0020d8bc       __nhandle                  662918bc     <common>
 0003:0020d8c0       ___pioinfo                 662918c0     <common>
 0003:0020d9c0       __acmdln                   662919c0     <common>
 0003:0020d9c4       __pDestructExceptionObject 662919c4     <common>
 0003:0020d9c8       ___piob                    662919c8     <common>
 0003:0020d9e0       __bufin                    662919e0     <common>
 0003:0020e9e0       __nstream                  662929e0     <common>

 entry point at        0001:00059984

 Static symbols

 0001:00000a20       ?initKeyArray@@YAXPAUConfigVar@@HH@Z 66001a20 f   config.obj
 0001:00002d50       ?parseInt@@YAHPADPAPAD@Z   66003d50 f   config.obj
 0001:00002df0       ?parseValues8@@YAXPAD0H@Z  66003df0 f   config.obj
 0001:00002ec0       ?parseValues32@@YAXPAHPADH@Z 66003ec0 f   config.obj
 0001:00003550       ?InitValues@@YAXXZ         66004550 f   config.obj
 0001:00003830       ?changeLogPath@@YAHPAD@Z   66004830 f   config.obj
 0001:000039d0       ?loadConfig@@YAXPAD@Z      660049d0 f   config.obj
 0001:000041e0       ?loadTagFile@@YAXPAD@Z     660051e0 f   config.obj
 0001:00004390       ?loadSymbolFile@@YAXPAD@Z  66005390 f   config.obj
 0001:00004590       ?isNumber@@YAHPAD@Z        66005590 f   config.obj
 0001:000054c0       ?doPatchCALL@@YAXHHH@Z     660064c0 f   install.obj
 0001:00005510       ?doPatchJMP@@YAXHHH@Z      66006510 f   install.obj
 0001:00005560       ?doPatchFILL@@YAXHHH@Z     66006560 f   install.obj
 0001:000055b0       ?doPatchVALUE@@YAXHHH@Z    660065b0 f   install.obj
 0001:000057d0       ?parseOriginalCode@@YAHPADH0HPAH@Z 660067d0 f   install.obj
 0001:00009370       ?InstallPatchAfterLoad@@YAXXZ 6600a370 f   install.obj
 0001:000093a0       ?installD2PatchesAfterLoad@@YAHXZ 6600a3a0 f   install.obj
 0001:00009700       ?installNetworkRecvPatch@@YAHXZ 6600a700 f   install.obj
 0001:00009750       ?installPatchToggle@@YAHXZ 6600a750 f   install.obj
 0001:00009830       ?installD2Patches@@YAHXZ   6600a830 f   install.obj
 0001:000131b0       ?dumpPtr@@YAXPAU_iobuf@@PADHH1H@Z 660141b0 f   install.obj
 0001:00013430       ?dump@@YAXXZ               66014430 f   install.obj
 0001:00013970       ?ReloadDll@@YAHXZ          66014970 f   install.obj
 0001:000139d0       ?ReloadConfig@@YAHXZ       660149d0 f   install.obj
 0001:00013ad0       _stat                      66014ad0 f   install.obj
 0001:00013ad0       _stat                      66014ad0 f   install.obj
 0001:000146a0       ?d2msg@@YAXHPA_WH@Z        660156a0 f   common.obj
 0001:00016db0       ?comparePet@@YAHPBX0@Z     66017db0 f   common.obj
 0001:00016db0       ?comparePvp@@YAHPBX0@Z     66017db0 f   common.obj
 0001:00016db0       ?compareItem@@YAHPBX0@Z    66017db0 f   common.obj
 0001:00017910       ?sendPacket43E0Patch_ASM@@YAXXZ 66018910 f   dbg.obj
 0001:00017930       ?sendPacket43E0@@YIXPADHH@Z 66018930 f   dbg.obj
 0001:00017980       ?sendPacket3Patch_ASM@@YAXXZ 66018980 f   dbg.obj
 0001:000179a0       ?sendPacket3@@YIXDFH@Z     660189a0 f   dbg.obj
 0001:000179f0       ?clickMenuItemPatch_ASM@@YAXXZ 660189f0 f   dbg.obj
 0001:00017a10       ?clickMenuItem@@YIXH@Z     66018a10 f   dbg.obj
 0001:000182d0       ?gameStart@@YAXXZ          660192d0 f   loop.obj
 0001:00018610       ?checkTag@@YAXPAD@Z        66019610 f   loop.obj
 0001:00019040       ?updateTargetName@@YAXXZ   6601a040 f   map.obj
 0001:00019400       ?selectWaypointTarget@@YAXXZ 6601a400 f   map.obj
 0001:000199d0       ?LoadBmpCellFile@@YAPAUCellFile@@PAD@Z 6601a9d0 f   map.obj
 0001:00019a80       ?InitCellFile@@YAPAUCellFile@@PAU1@@Z 6601aa80 f   map.obj
 0001:00019b90       ?DeleteCellFile@@YAXPAUCellFile@@@Z 6601ab90 f   map.obj
 0001:00019df0       ?addCorner@@YAXPAUSC@@HH@Z 6601adf0 f   map.obj
 0001:0001a130       ?modifyRescueBarTarget@@YAXXZ 6601b130 f   map.obj
 0001:0001a270       ?target_sort@@YAXPAPAUMinimapLevelTarget@@@Z 6601b270 f   map.obj
 0001:0001a340       ?modifySealTarget@@YAXXZ   6601b340 f   map.obj
 0001:0001a7a0       ?modifyTempleTarget@@YAXXZ 6601b7a0 f   map.obj
 0001:0001a850       ?modifyTeleportTarget@@YAXXZ 6601b850 f   map.obj
 0001:0001ab90       ?ResetAutomapNodeCellNo@@YAXPAUAutomapNode@@@Z 6601bb90 f   map.obj
 0001:0001c800       ?isConnected@@YAHPAUAreaRectInfo@@0PAUtagPOINT@@@Z 6601d800 f   map.obj
 0001:0001cb60       ?drawAreaRect@@YAXPAUAreaRectInfo@@H@Z 6601db60 f   map.obj
 0001:0001ce80       ?DrawMinimapPoint@@YAXXZ   6601de80 f   map.obj
 0001:0001e0b0       ?hex@@YAXPAU_iobuf@@HPAXH@Z 6601f0b0 f   packet.obj
 0001:0001fd40       ?drawAARect@@YAXPAURouteRect@@@Z 66020d40 f   route.obj
 0001:000200a0       ?initRectRoute@@YAHPAUMinimapLevelTarget@@@Z 660210a0 f   route.obj
 0001:000204a0       ?canTeleport@@YAHPAUAreaRectData@@PAURouteRect@@@Z 660214a0 f   route.obj
 0001:00020600       ?recycleRouteInfo@@YAXPAUMinimapLevelTarget@@@Z 66021600 f   route.obj
 0001:00020760       ?performRectRoute@@YAXPAUMinimapLevelTarget@@@Z 66021760 f   route.obj
 0001:00021260       ?recvWaypointMenu@@YIHPADH@Z 66022260 f   waypoint.obj
 0001:00022120       ?setWinTitle@@YAXPAUHWND__@@H@Z 66023120 f   winmsg.obj
 0001:00023150       ?keyDown@@YIHHH@Z          66024150 f   winmsg.obj
 0001:00023400       ?shouldProcessKey@@YAHHH@Z 66024400 f   winmsg.obj
 0001:000234c0       ?keyUp@@YIHHH@Z            660244c0 f   winmsg.obj
 0001:000236f0       ?createVersionTextBox@@YAXXZ 660246f0 f   winmsg.obj
 0001:00023800       ?debugMsDrawUnitStart@@YAXXZ 66024800 f   winmsg.obj
 0001:00023880       ?beforeDrawControl@@YAXXZ  66024880 f   winmsg.obj
 0001:000238b0       ?debugMsDrawControlStart@@YAXXZ 660248b0 f   winmsg.obj
 0001:000238f0       ?debugMsDrawControlEnd@@YAXXZ 660248f0 f   winmsg.obj
 0001:00023950       ?shouldSkipDrawUnitAndControl@@YAHXZ 66024950 f   winmsg.obj
 0001:000239d0       ?shouldSkipAllDrawing@@YAHXZ 660249d0 f   winmsg.obj
 0001:00023a70       ?skipDrawMenu2@@YAHXZ      66024a70 f   winmsg.obj
 0001:00023af0       ?mainMenuSkip@@YAHXZ       66024af0 f   winmsg.obj
 0001:00024220       ?drawGroundRect@@YAXPAUAreaRectData@@@Z 66025220 f   env.obj
 0001:000249c0       ?checkWeapon@@YAXPAUUnitAny@@@Z 660259c0 f   GameMonitor.obj
 0001:00024ac0       ?checkItem@@YAXPAUUnitAny@@H@Z 66025ac0 f   GameMonitor.obj
 0001:000271f0       ?recvState@@YIXPAE@Z       660281f0 f   GameMonitor.obj
 0001:00027870       ?drawUnitsInfoInRect@@YAXPAUAreaRectData@@@Z 66028870 f   GameMonitor.obj
 0001:00027bd0       ?drawPlayerName@@YAXPAUUnitAny@@@Z 66028bd0 f   GameMonitor.obj
 0001:00028020       ?drawBossHp@@YAXPAUUnitAny@@@Z 66029020 f   GameMonitor.obj
 0001:0002bb10       ?wscolorcpy@@YAPA_WPA_W0E@Z 6602cb10 f   item.obj
 0001:0002bb10       ?wscolorcpy@@YAPA_WPA_W0E@Z 6602cb10 f   item.obj
 0001:0002faf0       ?rescanMercPointers@@YAXXZ 66030af0 f   dangerous.obj
 0001:00030e00       ?checkQuest@@YAXHHHPAD@Z   66031e00 f   quest.obj
 0001:00031220       ?questAlert@@YAXXZ         66032220 f   quest.obj
 0001:00032240       ?drawQuestState@@YAXPAG0HHH@Z 66033240 f   quest.obj
 0001:00034630       ?switchTo@@YAXH@Z          66035630 f   bo.obj
 0001:00034730       ?useSkill@@YAHH@Z          66035730 f   bo.obj
 0001:00034aa0       _time                      66035aa0 f   d2s.obj
 0001:00035c30       ?hasProp@@YAHPAUUnitAny@@HH@Z 66036c30 f   DropProtection.obj
 0001:000360b0       ?deleteCharacterCallback@@YIXPAD0@Z 660370b0 f   DropProtection.obj
 0001:00036140       ?canDeleteCharacter@@YIHPAUD2Character@@@Z 66037140 f   DropProtection.obj
 0001:00036710       ?skipMenuItem@@YIHPAUMenuItem@@@Z 66037710 f   DropProtection.obj
 0001:00037110       ?findTargetItem@@YAPAUUnitAny@@H@Z 66038110 f   DropProtection.obj
 0001:000377b0       ?doEnchant@@YAHPAUUnitAny@@@Z 660387b0 f   enchant.obj
 0001:00038c30       ?sortGameList@@YAXXZ       66039c30 f   mcp.obj
 0001:00038c70       ?compareMcp05Game@@YAHPBX0@Z 66039c70 f   mcp.obj
 0001:00038cc0       ?showGameListDifficulty@@YIXPAXPAD@Z 66039cc0 f   mcp.obj
 0001:00038f20       ?compareCharTag@@YAHPBX0@Z 66039f20 f   login.obj
 0001:000394d0       ?c2w@@YAXPADPA_W@Z         6603a4d0 f   login.obj
 0001:00039650       ?selectChar@@YIXH@Z        6603a650 f   login.obj
 0001:0003bbc0       ?teamMemberInArea@@YAHH@Z  6603cbc0 f   multi.obj
 0001:0003bc60       ?interactObject@@YAXXZ     6603cc60 f   multi.obj
 0001:0003c2a0       ?sendStartFollowCmd@@YAHPAUD2Window@@@Z 6603d2a0 f   multi.obj
 0001:0003c2d0       ?sendStopFollowCmd@@YAHPAUD2Window@@@Z 6603d2d0 f   multi.obj
 0001:0003d900       ?checkItems@@YAXHH@Z       6603e900 f   NpcTrade.obj
 0001:0003da40       ?checkItem@@YAXPAUUnitAny@@H@Z 6603ea40 f   NpcTrade.obj
 0001:0003f400       ?canPutIn@@YAHPADHHHH@Z    66040400 f   QuickSwapItem.obj
 0001:0003fca0       ?updateCubeInvMap@@YAXXZ   66040ca0 f   QuickSwapItem.obj
 0001:0003ffc0       ?dropItemToGound@@YAHXZ    66040fc0 f   QuickSwapItem.obj
 0001:00040030       ?updateInv@@YAXPAUInventoryType@@H@Z 66041030 f   QuickSwapItem.obj
 0001:000400e0       ?putIntoSimpleItemStack@@YAXXZ 660410e0 f   QuickSwapItem.obj
 0001:00040190       ?findSimpleItemStack@@YAPAUUnitAny@@H@Z 66041190 f   QuickSwapItem.obj
 0001:00040800       ?pickupItem@@YAHPAUUnitAny@@@Z 66041800 f   QuickSwapItem.obj
 0001:00040890       ?findGemInv@@YAPAUUnitAny@@HH@Z 66041890 f   QuickSwapItem.obj
 0001:00040f00       ?getGlobalBeltSlotPosition@@YIXPAH0@Z 66041f00 f   resolution.obj
 0001:00040fb0       ?getGlobalBeltRecord@@YIXPAH@Z 66041fb0 f   resolution.obj
 0001:00041070       ?adjWinRectEx@@YGHHPAUtagRECT@@HHH@Z 66042070 f   resolution.obj
 0001:00041b20       ?isAutoSkill@@YAHPAUSkill@@@Z 66042b20 f   skill.obj
 0001:00041c80       ?checkAutoSkill1@@YAXHH@Z  66042c80 f   skill.obj
 0001:000424c0       ?updateSkill@@YAXPAUAutoSkillInfo@@H@Z 660434c0 f   skill.obj
 0001:00042b40       ?processStacking@@YAXXZ    66043b40 f   skill.obj
 0001:00042c80       ?canUse@@YAHPAUAutoSkillInfo@@@Z 66043c80 f   skill.obj
 0001:00042d80       ?checkUnit@@YAXPAUUnitAny@@@Z 66043d80 f   skill.obj
 0001:00044490       ?getLvPercent@@YAHPAUUnitAny@@@Z 66045490 f   Snapshot.obj
 0001:00044740       ?openSnapshotFile@@YAPAU_iobuf@@PAD00D0H@Z 66045740 f   Snapshot.obj
 0001:00044ef0       ?countGemRunes@@YAXPAUUnitAny@@@Z 66045ef0 f   Snapshot.obj
 0001:00045440       ?dumpStats@@YAHPAU_iobuf@@PAUStat@@@Z 66046440 f   Snapshot.obj
 0001:00045940       ?dumpInventory@@YAXXZ      66046940 f   Snapshot.obj
 0001:00045f00       ?dumpUnit@@YAXPAU_iobuf@@PAUUnitAny@@@Z 66046f00 f   Snapshot.obj
 0001:00046930       ?outputGemRune@@YAXPAU_iobuf@@@Z 66047930 f   Snapshot.obj
 0001:00046bc0       ?dumpItem@@YAXPAU_iobuf@@PAUUnitAny@@HH@Z 66047bc0 f   Snapshot.obj
 0001:00047c40       ?addItem@@YAXPAUUnitAny@@H@Z 66048c40 f   Snapshot.obj
 0001:00047fd0       ?isStartEq@@YAHPAUUnitAny@@@Z 66048fd0 f   Snapshot.obj
 0001:00048040       ?dumpItems@@YAXPAU_iobuf@@PAUUnitAny@@H@Z 66049040 f   Snapshot.obj
 0001:00048110       ?dumpQuests@@YAXPAU_iobuf@@@Z 66049110 f   Snapshot.obj
 0001:00048880       ?dumpTodo@@YAXPAU_iobuf@@HPADPAUQ@@@Z 66049880 f   Snapshot.obj
 0001:000489a0       ?loadQuests@@YAXXZ         660499a0 f   Snapshot.obj
 0001:00048a70       ?dumpWaypoints@@YAXPAU_iobuf@@@Z 66049a70 f   Snapshot.obj
 0001:00048c10       ?dumpSkills@@YAXPAU_iobuf@@PAUUnitAny@@@Z 66049c10 f   Snapshot.obj
 0001:00048d20       ?dumpSkill@@YAXPAU_iobuf@@PAUSkill@@@Z 66049d20 f   Snapshot.obj
 0001:00048e30       ?dumpObject@@YAXPAU_iobuf@@PAUUnitAny@@@Z 66049e30 f   Snapshot.obj
 0001:00048f90       ?dumpAreatile@@YAXPAU_iobuf@@PAUUnitAny@@@Z 66049f90 f   Snapshot.obj
 0001:00049a90       ?doDeleteSnapshotFile@@YAXPAD@Z 6604aa90 f   Snapshot.obj
 0001:0004a840       ?checkSummonSkillLevel@@YAXXZ 6604b840 f   summon.obj
 0001:0004a990       ?getSummonCount@@YAHH@Z    6604b990 f   summon.obj
 0001:0004a9c0       ?needSummon@@YAHXZ         6604b9c0 f   summon.obj
 0001:0004abd0       ?switchSummonSkill@@YAXH@Z 6604bbd0 f   summon.obj
 0001:0004ac00       ?checkUnit@@YAXPAUUnitAny@@@Z 6604bc00 f   summon.obj
 0001:0004b660       ?findBoss@@YAHHH@Z         6604c660 f   teleport.obj
 0001:0004b730       ?resetMonsters@@YAXXZ      6604c730 f   teleport.obj
 0001:0004b7b0       ?findMonsters@@YAXXZ       6604c7b0 f   teleport.obj
 0001:0004bb30       ?addMonMap@@YAXHH@Z        6604cb30 f   teleport.obj
 0001:0004bb90       ?calBoundingBox@@YAXXZ     6604cb90 f   teleport.obj
 0001:0004bcd0       ?getMonDis@@YAHPAUtagPOINT@@@Z 6604ccd0 f   teleport.obj
 0001:0004bd30       ?dis@@YAHPAUtagPOINT@@0@Z  6604cd30 f   teleport.obj
 0001:0004bd60       ?interact@@YAXPAUtagPOINT@@HH@Z 6604cd60 f   teleport.obj
 0001:0004be40       ?interactObj@@YAXPAUUnitAny@@@Z 6604ce40 f   teleport.obj
 0001:0004c000       ?teleportForward@@YAHXZ    6604d000 f   teleport.obj
 0001:0004c420       ?addPossiblePostions@@YAXPAUAreaRectData@@0PAUtagPOINT@@H@Z 6604d420 f   teleport.obj
 0001:0004c840       ?disM256@@YAHPAUtagPOINT@@0@Z 6604d840 f   teleport.obj
 0001:0004c870       ?hasMon@@YAHHH@Z           6604d870 f   teleport.obj
 0001:0004c8d0       ?findValidPosition@@YAHXZ  6604d8d0 f   teleport.obj
 0001:0004c9b0       ?comparePos@@YAHPBX0@Z     6604d9b0 f   teleport.obj
 0001:0004c9d0       ?teleportToSafety@@YAHXZ   6604d9d0 f   teleport.obj
 0001:0004cc70       ?savePrevMonsters@@YAXXZ   6604dc70 f   teleport.obj
 0001:0004cd40       ?findSafestPosition@@YAHXZ 6604dd40 f   teleport.obj
 0001:0004cdc0       ?tpToBoss@@YAHXZ           6604ddc0 f   teleport.obj
 0001:0004cf70       ?autoTarget@@YAHXZ         6604df70 f   teleport.obj
 0001:0004d0e0       ?telekinesisTarget@@YAHPAUUnitAny@@@Z 6604e0e0 f   teleport.obj
 0001:0004d3f0       ?findTelekinesisPosition@@YAHXZ 6604e3f0 f   teleport.obj
 0001:0004d4e0       ?autoDuranceofHateLevel3@@YAHXZ 6604e4e0 f   teleport.obj
 0001:0004d760       ?dumpProp@@YAXPAU_iobuf@@PAUItemProp@@@Z 6604e760 f   txt.obj
 0001:0004d8e0       ?dumpItemTxt@@YAXXZ        6604e8e0 f   txt.obj
 0001:0004da50       ?dumpUniqueTxt@@YAXXZ      6604ea50 f   txt.obj
 0001:0004dc60       ?dumpSetTxt@@YAXXZ         6604ec60 f   txt.obj
 0001:0004e320       ?setStash@@YAXHH@Z         6604f320 f   panel.obj
 0001:0004e480       ?setCube@@YAXH@Z           6604f480 f   panel.obj
 0001:0004e600       ?setCharInv@@YAXHH@Z       6604f600 f   panel.obj
 0001:0004e820       ?loadInvChar8x10@@YAXXZ    6604f820 f   panel.obj
 0001:0004e880       ?calDrawOffset@@YAXXZ      6604f880 f   panel.obj
 0001:0004e910       ?getEquipmentSlotLayout@@YIXPAH0@Z 6604f910 f   panel.obj
 0001:0004e9b0       ?getEquipInvDrawOffset@@YAXPAH0PAX@Z 6604f9b0 f   panel.obj
 0001:0004eab0       ?getInventoryGridLayout@@YIXPAH0@Z 6604fab0 f   panel.obj
 0001:0004eb60       ?getInventoryPosition@@YIXPAH0@Z 6604fb60 f   panel.obj
 0001:0004ec10       ?addSkillPatch@@YIXH@Z     6604fc10 f   panel.obj
 0001:0004ec90       ?recvCommand26@@YIXPAD@Z   6604fc90 f   panel.obj
 0001:0004f010       ?guessInvType@@YAHHH@Z     66050010 f   panel.obj
 0001:0004f030       ?guessStashType@@YAHHH@Z   66050030 f   panel.obj
 0001:0004f050       ?guessCubeType@@YAHHH@Z    66050050 f   panel.obj
 0001:00050030       ?SetSkillBaseLevelOnClient@@YAXPAXPAUUnitAny@@HHH@Z 66051030 f   server.obj
 0001:000505a0       ?resetQuest@@YAXPAUWorld@@PAUUnitAny@@H@Z 660515a0 f   server.obj
 0001:00050810       ?skipDropTxt@@YIHH@Z       66051810 f   server.obj
 0001:000508d0       ?gameStart@@YIXPAUNetClient@@@Z 660518d0 f   server.obj
 0001:00050920       ?createHackmapMsg@@YAXXZ   66051920 f   server.obj
 0001:00050a70       ?serverRecvTest@@YAXPAUWorld@@PAUUnitAny@@H@Z 66051a70 f   server.obj
 0001:00050b30       ?necSummon@@YAPAUUnitAny@@PAUNecSummon@@@Z 66051b30 f   server.obj
 0001:00051070       ?clientChat@@YIXPAD@Z      66052070 f   admin.obj
 0001:000515c0       ?selectUnique@@YIHHH@Z     660525c0 f   admin.obj
 0001:000516a0       ?selectSet@@YIHPAHH@Z      660526a0 f   admin.obj
 0001:000529f0       ?dropItem@@YAPAUUnitAny@@PAUWorld@@PAU1@HHHH@Z 660539f0 f   admin.obj
 0001:00052b90       ?getFreePos@@YAPAUAreaRectData@@PAU1@PAUtagPOINT@@1H@Z 66053b90 f   admin.obj
 0001:00052bb0       ?dropRuneword@@YAPAUUnitAny@@PAUWorld@@PAU1@HHH@Z 66053bb0 f   admin.obj
 0001:00052e00       ?dropUnique@@YAPAUUnitAny@@PAUWorld@@PAU1@HHH@Z 66053e00 f   admin.obj
 0001:00052f20       ?dropSet@@YAPAUUnitAny@@PAUWorld@@PAU1@HHH@Z 66053f20 f   admin.obj
 0001:00052ff0       ?setItemStats@@YAXPAUUnitAny@@PAUd2stats@@@Z 66053ff0 f   admin.obj
 0001:00053100       ?parseStats@@YAPADPADPAUd2stats@@@Z 66054100 f   admin.obj
 0001:00054910       ?setStat@@YAHPAUd2stats@@HHH@Z 66055910 f   admin.obj
 0001:000549a0       ?pickupItemTo@@YAXPAUWorld@@PAUUnitAny@@1H@Z 660559a0 f   admin.obj
 0001:0005594d       _flsall                    6605694d f   LIBCMT:fflush.obj
 0001:000561a0       _swap                      660571a0 f   LIBCMT:qsort.obj
 0001:000561d0       _shortsort                 660571d0 f   LIBCMT:qsort.obj
 0001:00056c3f       ?strtoxl@@YAKPAUlocaleinfo_struct@@PBDPAPBDHH@Z 66057c3f f   LIBCMT:strtol.obj
 0001:00057ea3       _IsRootUNCName             66058ea3 f   LIBCMT:stati32.obj
 0001:00057f1d       __fullpath_helper          66058f1d f   LIBCMT:stati32.obj
 0001:0005908a       ?_strupr_s_l_stat@@YAHPADIPAUlocaleinfo_struct@@@Z 6605a08a f   LIBCMT:strupr.obj
 0001:000592a2       ?wcstoxl@@YAKPAUlocaleinfo_struct@@PB_WPAPB_WHH@Z 6605a2a2 f   LIBCMT:wcstol.obj
 0001:0005988e       ___DllMainCRTStartup       6605a88e f   LIBCMT:dllcrt0.obj
 0001:000599a7       ?CPtoLCID@@YAHH@Z          6605a9a7 f   LIBCMT:mbctype.obj
 0001:000599d6       ?setSBCS@@YAXPAUthreadmbcinfostruct@@@Z 6605a9d6 f   LIBCMT:mbctype.obj
 0001:00059a3a       ?setSBUpLow@@YAXPAUthreadmbcinfostruct@@@Z 6605aa3a f   LIBCMT:mbctype.obj
 0001:00059c71       ?getSystemCP@@YAHH@Z       6605ac71 f   LIBCMT:mbctype.obj
 0001:0005a2fb       __updatetlocinfoEx_nolock  6605b2fb f   LIBCMT:setlocal.obj
 0001:0005b8dd       _write_char                6605c8dd f   LIBCMT:output.obj
 0001:0005b910       _write_multi_char          6605c910 f   LIBCMT:output.obj
 0001:0005b936       _write_string              6605c936 f   LIBCMT:output.obj
 0001:0005ca27       _fastzero_I                6605da27 f   LIBCMT:p4_memset.obj
 0001:0005cb0d       _has_osfxsr_set            6605db0d f   LIBCMT:cpu_disp.obj
 0001:0005d99a       _fastcopy_I                6605e99a f   LIBCMT:p4_memcpy.obj
 0001:0005dbbc       ?__crtLCMapStringA_stat@@YAHPAUlocaleinfo_struct@@KKPBDHPADHHH@Z 6605ebbc f   LIBCMT:a_map.obj
 0001:0005e287       __initterm                 6605f287 f   LIBCMT:crt0dat.obj
 0001:0005e34d       _doexit                    6605f34d f   LIBCMT:crt0dat.obj
 0001:0005e659       __shift                    6605f659 f   LIBCMT:cvt.obj
 0001:0005e69e       __cftoe2_l                 6605f69e f   LIBCMT:cvt.obj
 0001:0005ec70       __cftof2_l                 6605fc70 f   LIBCMT:cvt.obj
 0001:0005f10c       __unwind_handler4          6606010c f   LIBCMT:exsup4.obj
 0001:0005ffa8       __onexit_nolock            66060fa8 f   LIBCMT:onexit.obj
 0001:0006180a       _parse_cmdline             6606280a f   LIBCMT:stdargv.obj
 0001:00061df8       ?__crtGetStringTypeA_stat@@YAHPAUlocaleinfo_struct@@KPBDHPAGHHH@Z 66062df8 f   LIBCMT:a_str.obj
 0001:0006344c       _siglookup                 6606444c f   LIBCMT:winsig.obj
 0001:00063b54       __unwind_handler           66064b54 f   LIBCMT:exsup.obj
 0001:0006446e       __tzset_nolock             6606546e f   LIBCMT:tzset.obj
 0001:000647b4       _cvtdate                   660657b4 f   LIBCMT:tzset.obj
 0001:000649ab       __isindst_nolock           660659ab f   LIBCMT:tzset.obj
 0001:00064d14       __tsopen_nolock            66065d14 f   LIBCMT:open.obj
 0001:00065a65       ?x_ismbbtype_l@@YAHPAUlocaleinfo_struct@@IHH@Z 66066a65 f   LIBCMT:ismbbyte.obj
 0001:00067840       __hw_cw                    66068840 f   LIBCMT:_ieee87_.obj
 0001:000678ce       ___hw_cw_sse2              660688ce f   LIBCMT:_ieee87_.obj
 0001:00068a93       ?strncnt@@YAHPBDH@Z        66069a93 f   LIBCMT:a_cmp.obj
 0001:00068ab1       ?__crtCompareStringA_stat@@YAHPAUlocaleinfo_struct@@KKPBDH1HH@Z 66069ab1 f   LIBCMT:a_cmp.obj
 0001:00068f5d       _findenv                   66069f5d f   LIBCMT:setenv.obj
 0001:00068faf       _copy_environ              66069faf f   LIBCMT:setenv.obj
 0001:00069334       ??__Fnomem@?5???2@YAPAXI@Z@YAXXZ 6606a334 f   LIBCMT:new.obj
