 d2hackmap

 Timestamp is 6818472a (Mon May 05 13:05:46 2025)

 Preferred load address is 66600000

 Start         Length     Name                   Class
 0001:00000000 0005bca8H .text                   CODE
 0001:0005bca8 00000014H .text$yd                CODE
 0002:00000000 0000022cH .idata$5                DATA
 0002:0000022c 00000004H .CRT$XCA                DATA
 0002:00000230 00000004H .CRT$XCZ                DATA
 0002:00000234 00000004H .CRT$XIA                DATA
 0002:00000238 00000014H .CRT$XIC                DATA
 0002:0000024c 00000004H .CRT$XIZ                DATA
 0002:00000250 00000004H .CRT$XPA                DATA
 0002:00000254 00000004H .CRT$XPX                DATA
 0002:00000258 00000004H .CRT$XPXA               DATA
 0002:0000025c 00000004H .CRT$XPZ                DATA
 0002:00000260 00000004H .CRT$XTA                DATA
 0002:00000264 00000004H .CRT$XTZ                DATA
 0002:00000270 00011200H .rdata                  DATA
 0002:00011470 000000dcH .rdata$r                DATA
 0002:00011550 0000000cH .rdata$sxdata           DATA
 0002:0001155c 00000004H .rtc$IAA                DATA
 0002:00011560 00000004H .rtc$IZZ                DATA
 0002:00011564 00000004H .rtc$TAA                DATA
 0002:00011568 00000004H .rtc$TZZ                DATA
 0002:00011570 00000734H .xdata$x                DATA
 0002:00011ca4 00000050H .idata$2                DATA
 0002:00011cf4 00000014H .idata$3                DATA
 0002:00011d08 0000022cH .idata$4                DATA
 0002:00011f34 00000996H .idata$6                DATA
 0002:000128d0 000000b3H .edata                  DATA
 0003:00000000 00009808H .data                   DATA
 0003:00009820 002071a4H .bss                    DATA

  Address         Publics by Value              Rva+Base       Lib:Object

 0000:00000000       __except_list              00000000     <absolute>
 0000:00000003       ___safe_se_handler_count   00000003     <absolute>
 0000:00000000       ___ImageBase               66600000     <linker-defined>
 0001:00000000       ?bitstream_init@@YAXPAUbitstream@@PAX1@Z 66601000 f   bitstream.obj
 0001:00000040       ?bitstream_seek@@YAXPAUbitstream@@H@Z 66601040 f   bitstream.obj
 0001:00000080       ?bitstream_rbit@@YAHPAUbitstream@@H@Z 66601080 f   bitstream.obj
 0001:00000170       ?bitstream_wbit@@YAHPAUbitstream@@IH@Z 66601170 f   bitstream.obj
 0001:00000250       ?bitstream_wbit_done@@YAXPAUbitstream@@@Z 66601250 f   bitstream.obj
 0001:000002d0       ?compareConfigVar@@YAHPBX0@Z 666012d0 f   config.obj
 0001:000002f0       ?compareSymbol@@YAHPBX0@Z  666012f0 f   config.obj
 0001:00000310       ?findConfigVar@@YAPAUConfigVar@@PAD@Z 66601310 f   config.obj
 0001:00000400       ?addConfigVar@@YAXPAUConfigVar@@@Z 66601400 f   config.obj
 0001:00000470       ?FixValues@@YAXXZ          66601470 f   config.obj
 0001:000004b0       ?formatKey@@YAXPADH@Z      666014b0 f   config.obj
 0001:00000550       ?formatKeyW@@YAXPA_WH@Z    66601550 f   config.obj
 0001:00000680       ?setupKey@@YAXPAUToggleVar@@@Z 66601680 f   config.obj
 0001:000006d0       ?addExtraKey@@YAPAUToggleVar@@H@Z 666016d0 f   config.obj
 0001:00000730       ?InitKeyEvent@@YAXXZ       66601730 f   config.obj
 0001:00000ae0       ?AddWarningMessage@@YAXPADH@Z 66601ae0 f   config.obj
 0001:00000c20       ?ShowWarningMessage@@YAXXZ 66601c20 f   config.obj
 0001:00000c80       ?isquote@@YADD@Z           66601c80 f   config.obj
 0001:00000cb0       ?filterSpace@@YAXPAD@Z     66601cb0 f   config.obj
 0001:00000d70       ?splitLine@@YAXPADPAPAD1@Z 66601d70 f   config.obj
 0001:00000e40       ?strchr@@YAPADPADH@Z       66601e40 f i config.obj
 0001:00000e60       ?strrchr@@YAPADPADH@Z      66601e60 f i config.obj
 0001:00000e80       ?findSymbol@@YAPAUSymbol@@PAD@Z 66601e80 f   config.obj
 0001:00000f40       ?doneNameValues@@YAXXZ     66601f40 f   config.obj
 0001:00000ff0       ?addNameValue@@YAXPAD0@Z   66601ff0 f   config.obj
 0001:00001080       ?replaceSymbols@@YAPADPAD@Z 66602080 f   config.obj
 0001:00001420       ?ConvertToWString@@YAHPA_WPADH@Z 66602420 f   config.obj
 0001:00001450       ?ConvertToD2String@@YAXPA_WPADH@Z 66602450 f   config.obj
 0001:000015a0       ?StoreArrayConfig@@YAHPAUConfigVar@@HHPAD1HH@Z 666025a0 f   config.obj
 0001:00001ac0       ?StoreConfig@@YAXPAUConfigVar@@PAD1@Z 66602ac0 f   config.obj
 0001:00002ee0       ?LoadConfigFile@@YAHPADH@Z 66603ee0 f   config.obj
 0001:00003750       ?strstr@@YAPADPADPBD@Z     66604750 f i config.obj
 0001:000045b0       ?ReleaseMem@@YAXXZ         666055b0 f   DllMain.obj
 0001:000045d0       _DllMain@12                666055d0 f   DllMain.obj
 0001:000047a0       _QueryInterface@0          666057a0 f   DllMain.obj
 0001:000047c0       _PatchClient               666057c0 f   DllMain.obj
 0001:00004810       _MainMenuFlushFramebuf@0   66605810 f   DllMain.obj
 0001:00004830       _PatchServer@4             66605830 f   DllMain.obj
 0001:00004870       ?guessEnchantLevel@@YAHXZ  66605870 f   guess.obj
 0001:00004920       ?guessBOLevel@@YAHH@Z      66605920 f   guess.obj
 0001:00005150       ?Install_AddConfigVars@@YAXXZ 66606150 f   install.obj
 0001:00005190       ?Install_FixValues@@YAXXZ  66606190 f   install.obj
 0001:000051b0       ?get_dll_addr@@YAPAUHINSTANCE__@@PAD@Z 666061b0 f   install.obj
 0001:00005240       ?VirtualProtect@@YAKKKK@Z  66606240 f   install.obj
 0001:00005270       ?WriteLocalBYTES@@YAXKPAXH@Z 66606270 f   install.obj
 0001:000052c0       ?FillLocalBYTES@@YAXKEH@Z  666062c0 f   install.obj
 0001:00005320       ?InterceptLocalCode2@@YAXEKKH@Z 66606320 f   install.obj
 0001:000053a0       ?InterceptLocalCode@@YAXEKKH@Z 666063a0 f   install.obj
 0001:000053d0       ?patchCall@@YAHPAD0HHHH0@Z 666063d0 f   install.obj
 0001:00005420       ?patchJmp@@YAHPAD0HHHH0@Z  66606420 f   install.obj
 0001:00005470       ?patchFill@@YAHPAD0HHHH0@Z 66606470 f   install.obj
 0001:000054c0       ?patchValue@@YAHPAD0HHHH0@Z 666064c0 f   install.obj
 0001:00005510       ?installPatch@@YAHP6AXHHH@ZPAD1HHHH1@Z 66606510 f   install.obj
 0001:00005890       ?removePatches@@YAHPAPAUInstalledPatch@@@Z 66606890 f   install.obj
 0001:00005920       ?init_d2_ptrs@@YAHH@Z      66606920 f   install.obj
 0001:00008f60       ?init_d2_ptrs2@@YAHXZ      66609f60 f   install.obj
 0001:00008fd0       ?InstallPatchAfterLoad_ASM@@YAXXZ 66609fd0 f   install.obj
 0001:000092c0       ?setResolutionPatch@@YAXH@Z 6660a2c0 f   install.obj
 0001:00009310       ?MonitorPacket@@YAXXZ      6660a310 f   install.obj
 0001:0000b3e0       ?Install@@YAHXZ            6660c3e0 f   install.obj
 0001:0000b5a0       ?patchServer@@YAXXZ        6660c5a0 f   install.obj
 0001:0000b600       @SetReloadFlag@8           6660c600 f   install.obj
 0001:0000b630       ?unpatchServer@@YAXXZ      6660c630 f   install.obj
 0001:0000b680       ?Uninstall@@YAXXZ          6660c680 f   install.obj
 0001:0000b8c0       ?init_crypt_table@@YAXXZ   6660c8c0 f   mpq.obj
 0001:0000b960       ?mpq_hashstring@@YAIPBDI@Z 6660c960 f   mpq.obj
 0001:0000b9e0       ?saveMpqTable@@YAXXZ       6660c9e0 f   mpq.obj
 0001:0000ba90       ?add_mpq_path@@YIHPAD@Z    6660ca90 f   mpq.obj
 0001:0000bbc0       ?dump_mpq_path@@YIXH@Z     6660cbc0 f   mpq.obj
 0001:0000bd60       ?storm268_patch_ASM@@YAXXZ 6660cd60 f   mpq.obj
 0001:0000bd90       ?UnicodeFix2@@YAXPA_W@Z    6660cd90 f   common.obj
 0001:0000be20       ?MyMultiByteToWideChar@@YAHIKPBDHPA_WH@Z 6660ce20 f   common.obj
 0001:0000be60       ?GB2GBK@@YAXPAD@Z          6660ce60 f   common.obj
 0001:0000bfe0       ?readFully@@YAHPAU_iobuf@@PADH@Z 6660cfe0 f   common.obj
 0001:0000c040       ?getFileSize@@YAHPBD@Z     6660d040 f   common.obj
 0001:0000c070       ?fileExist@@YAHPBD@Z       6660d070 f   common.obj
 0001:0000c090       ?openFile@@YAPAU_iobuf@@PAD0@Z 6660d090 f   common.obj
 0001:0000c1a0       ?heap_strdup@@YAPADPAXPAD@Z 6660d1a0 f   common.obj
 0001:0000c220       ?loadFile@@YAPADPAXPAU_iobuf@@PAH@Z 6660d220 f   common.obj
 0001:0000c370       ?gameMessage@@YAXPADZZ     6660d370 f   common.obj
 0001:0000c530       ?partyMessage@@YAXPADZZ    6660d530 f   common.obj
 0001:0000c5f0       ?gameMessageW@@YAXPA_WZZ   6660d5f0 f   common.obj
 0001:0000c640       ?partyMessageW@@YAXPA_WZZ  6660d640 f   common.obj
 0001:0000c690       ?get_cpu_usage@@YAHPAH0@Z  6660d690 f   common.obj
 0001:0000c770       ?getSkillClass@@YAHH@Z     6660d770 f   common.obj
 0001:0000c7c0       ?getSkillType@@YAHHH@Z     6660d7c0 f   common.obj
 0001:0000c810       ?getSkillLevel@@YAHPAUUnitAny@@H@Z 6660d810 f   common.obj
 0001:0000c970       ?getUnitRawDistance2@@YAHPAUUnitAny@@0@Z 6660d970 f   common.obj
 0001:0000ca80       ?getUnitYardDistance2@@YAMPAUUnitAny@@0@Z 6660da80 f   common.obj
 0001:0000cac0       ?saveDistanceMap@@YAXXZ    6660dac0 f   common.obj
 0001:0000cb20       ?getDistanceM256@@YAHHH@Z  6660db20 f   common.obj
 0001:0000cc50       ?getPlayerDistanceRaw@@YAMPAUUnitAny@@@Z 6660dc50 f   common.obj
 0001:0000ccf0       ?getPlayerDistanceYard@@YAMPAUUnitAny@@@Z 6660dcf0 f   common.obj
 0001:0000cd20       ?getRosterUnit@@YAPAURosterUnit@@H@Z 6660dd20 f   common.obj
 0001:0000cd60       ?getAreatileByTxt@@YAPAUUnitAny@@H@Z 6660dd60 f   common.obj
 0001:0000cdc0       ?getPortalToArea@@YAPAUUnitAny@@HPAD@Z 6660ddc0 f   common.obj
 0001:0000cf00       ?getAreatileTxtToLevel@@YAHH@Z 6660df00 f   common.obj
 0001:0000cf60       ?getSinglePlayerWorld@@YAPAUWorld@@XZ 6660df60 f   common.obj
 0001:0000cf90       ?encodeItem@@YAHPAUUnitAny@@PADH@Z 6660df90 f   common.obj
 0001:0000cfd0       ?hasSkill@@YAHH@Z          6660dfd0 f   common.obj
 0001:0000d050       ?selectSkill@@YAXHH@Z      6660e050 f   common.obj
 0001:0000d0a0       ?switchLeftSkill@@YAXH@Z   6660e0a0 f   common.obj
 0001:0000d0c0       ?switchRightSkill@@YAXH@Z  6660e0c0 f   common.obj
 0001:0000d0e0       ?getSinglePlayerUnit@@YAPAUUnitAny@@HH@Z 6660e0e0 f   common.obj
 0001:0000d1b0       ?SendPacket@@YAXPAEH@Z     6660e1b0 f   common.obj
 0001:0000d240       ?LeftClickType@@YAHHPAUUnitAny@@HH@Z 6660e240 f   common.obj
 0001:0000d320       ?LeftClickPos@@YAHHH@Z     6660e320 f   common.obj
 0001:0000d340       ?LeftClickUnit@@YAHPAUUnitAny@@@Z 6660e340 f   common.obj
 0001:0000d360       ?ShiftLeftClickUnit@@YAHPAUUnitAny@@@Z 6660e360 f   common.obj
 0001:0000d3b0       ?ShiftLeftClickPos@@YAHHH@Z 6660e3b0 f   common.obj
 0001:0000d400       ?RightSkill@@YAHPAUUnitAny@@HH@Z 6660e400 f   common.obj
 0001:0000d450       ?RightSkillPos@@YAHHH@Z    6660e450 f   common.obj
 0001:0000d470       ?RightSkillUnit@@YAHPAUUnitAny@@@Z 6660e470 f   common.obj
 0001:0000d4a0       ?canUseSkillNow@@YAHPAUUnitAny@@H@Z 6660e4a0 f   common.obj
 0001:0000d4c0       ?skillUnusableAsm@@YAHPAUUnitAny@@PAUSkill@@@Z 6660e4c0 f   common.obj
 0001:0000d4e0       ?skillUnusable@@YAHPAUUnitAny@@PAUSkill@@@Z 6660e4e0 f   common.obj
 0001:0000d520       ?useBelt@@YAXHH@Z          6660e520 f   common.obj
 0001:0000d5a0       ?GameControlStart@@YAHH@Z  6660e5a0 f   common.obj
 0001:0000d630       ?GameControlEnd@@YAHH@Z    6660e630 f   common.obj
 0001:0000d6b0       ?GameControl@@YAXH@Z       6660e6b0 f   common.obj
 0001:0000d6d0       ?getGameControlKey@@YAHH@Z 6660e6d0 f   common.obj
 0001:0000d720       ?StandStillPatch_ASM@@YAXXZ 6660e720 f   common.obj
 0001:0000d740       ?SetBottomAlertMsg1@@YAXPA_WHHH@Z 6660e740 f   common.obj
 0001:0000d7e0       ?SetBottomAlertMsg2@@YAXPA_WHHH@Z 6660e7e0 f   common.obj
 0001:0000d880       ?SetBottomAlertMsg3@@YAXPA_WHHH@Z 6660e880 f   common.obj
 0001:0000d920       ?DrawCenterAlertMsg@@YAXXZ 6660e920 f   common.obj
 0001:0000db30       ?sqrt@@YAMM@Z              6660eb30 f i common.obj
 0001:0000db50       _sqrtf                     6660eb50 f i common.obj
 0001:0000db70       ?GetAreaLevel@@YAHXZ       6660eb70 f   common.obj
 0001:0000dbd0       ?GetPetByType@@YAPAUPetUnit@@PAUUnitAny@@H@Z 6660ebd0 f   common.obj
 0001:0000dc20       ?GetUnitFromIdSafe@@YAPAUUnitAny@@KK@Z 6660ec20 f   common.obj
 0001:0000dc90       ?GetUnitPet@@YAPAUUnitAny@@PAU1@@Z 6660ec90 f   common.obj
 0001:0000dcd0       ?getPlayerClass@@YAHH@Z    6660ecd0 f   common.obj
 0001:0000dd10       ?GetUnitMagicStat@@YAKPAUUnitAny@@K@Z 6660ed10 f   common.obj
 0001:0000dd60       ?GetUnitResist@@YAHPAUUnitAny@@K@Z 6660ed60 f   common.obj
 0001:0000ddb0       ?CheckUnitSelect@@YAHPAUUnitAny@@@Z 6660edb0 f   common.obj
 0001:0000dee0       ?GetItemILvlAfterCube@@YAHHHH@Z 6660eee0 f   common.obj
 0001:0000df90       ?GetItemAlvl@@YAHHHH@Z     6660ef90 f   common.obj
 0001:0000e010       ?GetTextWidth@@YAKPA_W@Z   6660f010 f   common.obj
 0001:0000e030       ?DrawD2Text@@YAXKPA_WHHKK@Z 6660f030 f   common.obj
 0001:0000e070       ?DrawCenterText@@YAXKPA_WHHKHK@Z 6660f070 f   common.obj
 0001:0000e0c0       ?drawBgText@@YAHPA_WHHHH@Z 6660f0c0 f   common.obj
 0001:0000e140       ?drawBgTextMiddle@@YAHPA_WHHHH@Z 6660f140 f   common.obj
 0001:0000e1b0       ?drawBgTextLeft@@YAHPA_WHHHH@Z 6660f1b0 f   common.obj
 0001:0000e210       ?ExitGame@@YAXXZ           6660f210 f   common.obj
 0001:0000e240       ?GetGameLanguage@@YAHXZ    6660f240 f   common.obj
 0001:0000e300       ?getFcrFrame@@YAHHPAUUnitAny@@@Z 6660f300 f   common.obj
 0001:0000e5c0       ?IsFullWindow@@YAHXZ       6660f5c0 f   common.obj
 0001:0000e680       ?getUnitOwnerId@@YAHPAUUnitAny@@@Z 6660f680 f   common.obj
 0001:0000e850       ?testPvpFlag@@YAHH@Z       6660f850 f   common.obj
 0001:0000ea60       ?sameParty@@YAHH@Z         6660fa60 f   common.obj
 0001:0000ea80       ?isInRect@@YA_NPAUAreaRectData@@HH@Z 6660fa80 f   common.obj
 0001:0000eaf0       ?testPosition@@YAPAUAreaRectData@@PAU1@HH@Z 6660faf0 f   common.obj
 0001:0000eb10       ?portalToLevel@@YAHPAUWorld@@PAUUnitAny@@H@Z 6660fb10 f   common.obj
 0001:0000ecc0       ?hasPortalInRect@@YAHPAUAreaRectData@@H@Z 6660fcc0 f   common.obj
 0001:0000ed30       ?hasPortalNearby@@YAHPAUAreaRectData@@H@Z 6660fd30 f   common.obj
 0001:0000eda0       ?hasPortalInLevel@@YAHPAUDrlgLevel@@H@Z 6660fda0 f   common.obj
 0001:0000ee00       ?unitHasItem@@YAHPAUUnitAny@@H@Z 6660fe00 f   common.obj
 0001:0000ee70       ?sendPacketToClient@@YAXPAUNetClient@@PADH@Z 6660fe70 f   common.obj
 0001:0000ee90       ?sendChatMessageToServer@@YAXPADZZ 6660fe90 f   common.obj
 0001:0000ef50       ?sendMessageToClient@@YAXPAUNetClient@@HHPAD1@Z 6660ff50 f   common.obj
 0001:0000f0f0       ?getCharStatsTxt@@YAPAUCharStatsTxt@@H@Z 666100f0 f   common.obj
 0001:0000f100       ?getStatMaxValue@@YAHH@Z   66610100 f   common.obj
 0001:0000f160       ?d2client_SetAutomapParty@@YIXK@Z 66610160 f   d2callstub.obj
 0001:0000f170       ?d2client_SetAutomapNames@@YIXK@Z 66610170 f   d2callstub.obj
 0001:0000f180       ?d2client_ChatInput@@YIKPAUD2MSG@@@Z 66610180 f   d2callstub.obj
 0001:0000f190       ?d2client_CheckUiStatus@@YIHH@Z 66610190 f   d2callstub.obj
 0001:0000f1a0       ?d2client_InitAutomapLayer@@YIPAUAutomapLayer@@H@Z 666101a0 f   d2callstub.obj
 0001:0000f1b0       ?d2common_GetUniqueItemTxt@@YIPAUUniqueItemTxt@@H@Z 666101b0 f   d2callstub.obj
 0001:0000f1e0       ?d2common_GetItemStatCostTxt@@YIPAUItemStatCostTxt@@H@Z 666101e0 f   d2callstub.obj
 0001:0000f210       ?d2common_GetPropertiesTxt@@YIPAUPropertiesTxt@@H@Z 66610210 f   d2callstub.obj
 0001:0000f240       ?d2common_GetSetItemTxt@@YIPAUSetItemTxt@@H@Z 66610240 f   d2callstub.obj
 0001:0000f270       ?d2common_GetItemTypeTxt@@YIPAUItemTypeTxt@@H@Z 66610270 f   d2callstub.obj
 0001:0000f2a0       ?d2common_GetRuneWordTxt@@YIPAURuneWordTxt@@H@Z 666102a0 f   d2callstub.obj
 0001:0000f2d0       ?d2common_GetRuneWordTxtIndex@@YIHH@Z 666102d0 f   d2callstub.obj
 0001:0000f310       ?d2client_LoadUiImage@@YIPAUCellFile@@PAD@Z 66610310 f   d2callstub.obj
 0001:0000f320       ?SaveGame@@YAHXZ           66610320 f   dbg.obj
 0001:0000f370       ?DoTest@@YAHXZ             66610370 f   dbg.obj
 0001:0000f390       ?ServerRecvPacket40Patch_ASM@@YAXXZ 66610390 f   dbg.obj
 0001:0000f3d0       ?setQuestFlagPatch@@YIXPAPAGHHH@Z 666103d0 f   dbg.obj
 0001:0000f410       ?clearQuestFlagPatch@@YIXPAPAGHHH@Z 66610410 f   dbg.obj
 0001:0000f450       ?SetQuestFlagPatch_ASM@@YAXXZ 66610450 f   dbg.obj
 0001:0000f470       ?ClearQuestFlagPatch_ASM@@YAXXZ 66610470 f   dbg.obj
 0001:0000f490       ?installAlwaysDebugPatches@@YAHXZ 66610490 f   dbg.obj
 0001:0000f4a0       ?installDebugPatches@@YAHXZ 666104a0 f   dbg.obj
 0001:0000f930       ?loop_addConfigVars@@YAXXZ 66610930 f   loop.obj
 0001:0000f970       ?ToggleIMEInput@@YAXH@Z    66610970 f   loop.obj
 0001:0000f9d0       ?GameLoopPatch@@YAXXZ      666109d0 f   loop.obj
 0001:00010510       ?GameEndPatch@@YAXXZ       66611510 f   loop.obj
 0001:00010710       ?GameLoopPatch_ASM@@YAXXZ  66611710 f   loop.obj
 0001:00010720       ?GameEndPatch_ASM@@YAXXZ   66611720 f   loop.obj
 0001:00010730       ?automap_addConfigVars@@YAXXZ 66611730 f   map.obj
 0001:00010770       ?automap_initConfigVars@@YAXXZ 66611770 f   map.obj
 0001:00010a80       ?automap_initKeyEvent@@YAXXZ 66611a80 f   map.obj
 0001:00010b00       ?draw2map@@YAXPAUtagPOINT@@HH@Z 66611b00 f   map.obj
 0001:00010b70       ?tile2map@@YAXPAUtagPOINT@@HH@Z 66611b70 f   map.obj
 0001:00010bc0       ?addMapTarget@@YAXHHHPA_W0@Z 66611bc0 f   map.obj
 0001:00010ca0       ?automap_fixValues@@YAXXZ  66611ca0 f   map.obj
 0001:00010cf0       ?AutoMapNewGame@@YAXXZ     66611cf0 f   map.obj
 0001:00010de0       ?AutoMapNewLevel@@YAXXZ    66611de0 f   map.obj
 0001:00011030       ?PrevMapTarget@@YAHXZ      66612030 f   map.obj
 0001:000110e0       ?NextMapTarget@@YAHXZ      666120e0 f   map.obj
 0001:00011180       ?addMinimapTarget@@YAXPAUAreaRectInfo@@HHHHHH@Z 66612180 f   map.obj
 0001:00011280       ?bitmap2dc6@@YAPAUCellFile@@PAEHH@Z 66612280 f   map.obj
 0001:000114b0       ?InitCellFiles@@YAXXZ      666124b0 f   map.obj
 0001:000117b0       ?DeleteCellFiles@@YAXXZ    666127b0 f   map.obj
 0001:000118c0       ?InitAutomapLayer@@YAXH@Z  666128c0 f   map.obj
 0001:000118e0       ?mapReveal@@YAXPAUAreaRectInfo@@@Z 666128e0 f   map.obj
 0001:00011930       ?mapHide@@YAXPAUAreaRectInfo@@@Z 66612930 f   map.obj
 0001:00011980       ?RevealAutomapLevel@@YAXPAUDrlgLevel@@H@Z 66612980 f   map.obj
 0001:00012410       ?RevealLevelPlayerIn@@YAHXZ 66613410 f   map.obj
 0001:00012450       ?RevealCurAct@@YAHXZ       66613450 f   map.obj
 0001:00012600       ?RemoveMyAutomapNodes@@YAXXZ 66613600 f   map.obj
 0001:000126d0       ?DrawAutomapNodePatch@@YGXPAUCellContext@@HHPAUtagRECT@@H@Z 666136d0 f   map.obj
 0001:00012a50       ?AddShrinePatch_ASM@@YAXXZ 66613a50 f   map.obj
 0001:00012a80       ?OverrideShrinePatch@@YIXPAUAutomapNode@@0@Z 66613a80 f   map.obj
 0001:00012ae0       ?OverrideShrinePatch_ASM@@YAXXZ 66613ae0 f   map.obj
 0001:00012b00       ?DrawAutomapNode@@YAXPAUCellFile@@HHD@Z 66613b00 f   map.obj
 0001:00012c80       ?DrawAutomapBlob@@YIXHHHPAUUnitAny@@@Z 66613c80 f   map.obj
 0001:00012e00       ?ForceDrawBlob_ASM@@YAXXZ  66613e00 f   map.obj
 0001:00012e10       ?DrawBlobPath_ASM@@YAXXZ   66613e10 f   map.obj
 0001:00012e20       ?DrawPartyPlayerBlobPatch_ASM@@YAXXZ 66613e20 f   map.obj
 0001:00012e30       ?HostilePlayerPatch@@YIEPAUUnitAny@@@Z 66613e30 f   map.obj
 0001:00012e70       ?HostilePlayerColor_ASM@@YAXXZ 66613e70 f   map.obj
 0001:00012e80       ?DrawPlayerTextPatch@@YIEPAUUnitAny@@@Z 66613e80 f   map.obj
 0001:00012ee0       ?DrawPlayerTextPatch_ASM@@YAXXZ 66613ee0 f   map.obj
 0001:00012f00       ?MonsterBlobDesc@@YIXPAUUnitAny@@@Z 66613f00 f   map.obj
 0001:000133f0       ?MonsterBlobDescPatch_ASM@@YAXXZ 666143f0 f   map.obj
 0001:00013410       ?MonsterBlobCol@@YIEPAUUnitAny@@@Z 66614410 f   map.obj
 0001:00013540       ?CorpseBlobCol@@YIEPAUUnitAny@@@Z 66614540 f   map.obj
 0001:000135f0       ?ObjectBlobCol@@YIEPAUUnitAny@@@Z 666145f0 f   map.obj
 0001:000137b0       ?MissileBlobCol@@YIEPAUUnitAny@@@Z 666147b0 f   map.obj
 0001:000138b0       ?MixedBlobColPatch@@YIEPAUUnitAny@@@Z 666148b0 f   map.obj
 0001:00013960       ?MixedBlobColPatch_ASM@@YAXXZ 66614960 f   map.obj
 0001:00013980       ?AddRectToMinimap@@YAHPAUAreaRectInfo@@H@Z 66614980 f   map.obj
 0001:00014560       ?drawActiveRectAreaOnMinimap@@YAXXZ 66615560 f   map.obj
 0001:000146c0       ?drawScreenAreaOnMinimap@@YAXXZ 666156c0 f   map.obj
 0001:000147e0       ?MinimapPatch@@YAXXZ       666157e0 f   map.obj
 0001:00014aa0       ?MinimapPatch_ASM@@YAXXZ   66615aa0 f   map.obj
 0001:00014ab0       ?InitScrollLock@@YAXH@Z    66615ab0 f   map.obj
 0001:00014ae0       ?SetScrollMapPos@@YAXHH@Z  66615ae0 f   map.obj
 0001:00014b40       ?MiniMapScroll@@YAHH@Z     66615b40 f   map.obj
 0001:00014b70       ?CenterMap@@YAHXZ          66615b70 f   map.obj
 0001:00014b90       ?ShakeScreenPatch@@YGXPAH0@Z 66615b90 f   map.obj
 0001:00014c30       ?ScrollScreenEnd@@YAHH@Z   66615c30 f   map.obj
 0001:00014c70       ?ScrollScreenStart@@YAHH@Z 66615c70 f   map.obj
 0001:00014d40       ?DrawScrollOffset@@YAXPA_WH@Z 66615d40 f   map.obj
 0001:00014d90       ?packet_addConfigVars@@YAXXZ 66615d90 f   packet.obj
 0001:00014dd0       ?packet_initConfigVars@@YAXXZ 66615dd0 f   packet.obj
 0001:00014e00       ?packet_FixValues@@YAXXZ   66615e00 f   packet.obj
 0001:00014e40       ?ResetPacketHandlerTimer@@YAXXZ 66615e40 f   packet.obj
 0001:00014e50       ?PacketNewGame@@YAXXZ      66615e50 f   packet.obj
 0001:00014e60       ?FixSocketTimeOut_ASM@@YAXXZ 66615e60 f   packet.obj
 0001:00014e70       ?FixSocketErrRet_ASM@@YAXXZ 66615e70 f   packet.obj
 0001:00014e90       ?dump9c@@YAXPAEH@Z         66615e90 f   packet.obj
 0001:00014ff0       ?GamePacketReceivedInterceptPatch_ASM@@YAXXZ 66615ff0 f   packet.obj
 0001:00015020       ?dumpRecvPacket@@YIXPAEH@Z 66616020 f   packet.obj
 0001:00015bd0       ?GamePacketSendInterceptPatch_ASM@@YAXXZ 66616bd0 f   packet.obj
 0001:00015c30       ?dumpSendPacket@@YIXPAH@Z  66616c30 f   packet.obj
 0001:000162e0       ?showResetProtectMsg@@YAXXZ 666172e0 f   packet.obj
 0001:00016350       ?ResetProtection@@YAHH@Z   66617350 f   packet.obj
 0001:000163c0       ?ResetSkillPatch_ASM@@YAXXZ 666173c0 f   packet.obj
 0001:000163e0       ?packetDebug@@YAXXZ        666173e0 f   packet.obj
 0001:000163f0       ?blockSendPacket@@YIHPAH@Z 666173f0 f   packet.obj
 0001:00016a60       ?initSendPacketCheckTable@@YAXXZ 66617a60 f   packet.obj
 0001:00016af0       ?autoroute_addConfigVars@@YAXXZ 66617af0 f   route.obj
 0001:00016b30       ?autoroute_fixValues@@YAXXZ 66617b30 f   route.obj
 0001:00016b50       ?AutoRouteNewGame@@YAXXZ   66617b50 f   route.obj
 0001:00016b80       ?AutoRouteLocateSource@@YAHH@Z 66617b80 f   route.obj
 0001:00016d20       ?AutoRouteDrawScreenPath@@YAXXZ 66617d20 f   route.obj
 0001:00016fd0       ?AutoRouteDrawMinimapPath@@YAXXZ 66617fd0 f   route.obj
 0001:00017670       ?markNextPathInvalid@@YAXH@Z 66618670 f   route.obj
 0001:000176e0       ?AutoTeleportGetTarget@@YAHPAUtagPOINT@@PAH11@Z 666186e0 f   route.obj
 0001:00017840       ?RerouteRectPath@@YAHXZ    66618840 f   route.obj
 0001:000183a0       ?AutoMapRoute@@YAXXZ       666193a0 f   route.obj
 0001:00018490       ?waypoint_initConfigVars@@YAXXZ 66619490 f   waypoint.obj
 0001:00018510       ?WaypointNewGame@@YAXXZ    66619510 f   waypoint.obj
 0001:00018530       ?isWaypointTxt@@YAHH@Z     66619530 f   waypoint.obj
 0001:000186f0       ?findWaypoint@@YAPAUUnitAny@@H@Z 666196f0 f   waypoint.obj
 0001:00018930       ?takeWaypointToLevel@@YAXPAUUnitAny@@H@Z 66619930 f   waypoint.obj
 0001:00018980       ?takeWaypointToTown@@YAHH@Z 66619980 f   waypoint.obj
 0001:000189c0       ?RecvCommand_63_Patch_ASM@@YAXXZ 666199c0 f   waypoint.obj
 0001:00018ac0       ?winmsg_addConfigVars@@YAXXZ 66619ac0 f   winmsg.obj
 0001:00018b00       ?winmsg_initConfigVars@@YAXXZ 66619b00 f   winmsg.obj
 0001:00018bd0       ?WinMessageFixValues@@YAXXZ 66619bd0 f   winmsg.obj
 0001:00018c60       ?WinMessage_initKeyEvent@@YAXXZ 66619c60 f   winmsg.obj
 0001:000190a0       ?IsKeyDown@@YAHH@Z         6661a0a0 f   winmsg.obj
 0001:000190c0       ?LockMouse@@YAHXZ          6661a0c0 f   winmsg.obj
 0001:00019280       ?switchSkillStart@@YAHH@Z  6661a280 f   winmsg.obj
 0001:00019400       ?switchSkillEnd@@YAHH@Z    6661a400 f   winmsg.obj
 0001:00019580       ?GameSound@@YAHH@Z         6661a580 f   winmsg.obj
 0001:000195c0       ?FullScreen@@YAHXZ         6661a5c0 f   winmsg.obj
 0001:000196b0       ?AttractNPC@@YAHXZ         6661a6b0 f   winmsg.obj
 0001:00019750       ?SwitchWindow@@YAHH@Z      6661a750 f   winmsg.obj
 0001:000197b0       ?WinMessageNewGame@@YAXXZ  6661a7b0 f   winmsg.obj
 0001:000199f0       ?WinMessageEndGame@@YAXXZ  6661a9f0 f   winmsg.obj
 0001:00019a20       ?refreshScreenSaver@@YAXXZ 6661aa20 f   winmsg.obj
 0001:00019a60       ?refreshMenuScreenSaver@@YAXXZ 6661aa60 f   winmsg.obj
 0001:00019aa0       ?winActiveMsg@@YAXH@Z      6661aaa0 f   winmsg.obj
 0001:00019b40       ?hasCTA@@YAHXZ             6661ab40 f   winmsg.obj
 0001:00019be0       ?WinMessageRunLoop@@YAXXZ  6661abe0 f   winmsg.obj
 0001:00019ec0       ?WinMessage@@YAHHHPAUHWND__@@HHH@Z 6661aec0 f   winmsg.obj
 0001:0001ac30       ?WinMessagePatch_ASM@@YAXXZ 6661bc30 f   winmsg.obj
 0001:0001ac40       ?KeydownPatch_ASM@@YAXXZ   6661bc40 f   winmsg.obj
 0001:0001ac60       ?KeyupPatch_ASM@@YAXXZ     6661bc60 f   winmsg.obj
 0001:0001ac80       ?ReceiveSwapWeapon_ASM@@YAXXZ 6661bc80 f   winmsg.obj
 0001:0001acc0       ?ShowVersion_Patch_ASM@@YAXXZ 6661bcc0 f   winmsg.obj
 0001:0001ad60       ?SetCursorPosPatch_ASM@@YAXXZ 6661bd60 f   winmsg.obj
 0001:0001ad80       ?DrawLeftBackImagePatch_ASM@@YAXXZ 6661bd80 f   winmsg.obj
 0001:0001ada0       ?DrawRightBackImagePatch_ASM@@YAXXZ 6661bda0 f   winmsg.obj
 0001:0001adc0       ?DrawGroundAndUnitPatch_ASM@@YAXXZ 6661bdc0 f   winmsg.obj
 0001:0001ae20       ?DrawControlsPatch_ASM@@YAXXZ 6661be20 f   winmsg.obj
 0001:0001af00       ?SkipAllDrawingPatch_ASM@@YAXXZ 6661bf00 f   winmsg.obj
 0001:0001b0d0       ?SkipDrawMenuPatch_ASM@@YAXXZ 6661c0d0 f   winmsg.obj
 0001:0001b190       ?NoHidePatch_ASM@@YAXXZ    6661c190 f   winmsg.obj
 0001:0001b1c0       ?env_addConfigVars@@YAXXZ  6661c1c0 f   env.obj
 0001:0001b200       ?env_initConfigVars@@YAXXZ 6661c200 f   env.obj
 0001:0001b230       ?ChangeVisualEffect@@YAHXZ 6661c230 f   env.obj
 0001:0001b2b0       ?WeatherPatch_ASM@@YAXXZ   6661c2b0 f   env.obj
 0001:0001b2c0       ?LightingPatch_ASM@@YAXXZ  6661c2c0 f   env.obj
 0001:0001b2f0       ?InfravisionPatch@@YIKPAUUnitAny@@@Z 6661c2f0 f   env.obj
 0001:0001b610       ?InfravisionPatch_ASM@@YAXXZ 6661c610 f   env.obj
 0001:0001b630       ?gamemonitor_addConfigVars@@YAXXZ 6661c630 f   GameMonitor.obj
 0001:0001b670       ?gamemonitor_initConfigVars@@YAXXZ 6661c670 f   GameMonitor.obj
 0001:0001b6b0       ?usePotion@@YAXH@Z         6661c6b0 f   GameMonitor.obj
 0001:0001b790       ?recheckSelfItems@@YAXXZ   6661c790 f   GameMonitor.obj
 0001:0001bf20       ?setKDCountDown@@YAXH@Z    6661cf20 f   GameMonitor.obj
 0001:0001bf40       ?setKBCountDown@@YAXHH@Z   6661cf40 f   GameMonitor.obj
 0001:0001bf80       ?setCountDownEndTime@@YAXPAUCountDown@@@Z 6661cf80 f   GameMonitor.obj
 0001:0001c060       ?setupCountdown@@YAXPAUCountDown@@@Z 6661d060 f   GameMonitor.obj
 0001:0001c0b0       ?onRightSkillMap@@YAXHH@Z  6661d0b0 f   GameMonitor.obj
 0001:0001c260       ?onRightSkillUnit@@YAXHH@Z 6661d260 f   GameMonitor.obj
 0001:0001c3c0       ?ResetMonitor@@YAXXZ       6661d3c0 f   GameMonitor.obj
 0001:0001c450       ?GameMonitorNewGame@@YAXXZ 6661d450 f   GameMonitor.obj
 0001:0001c480       ?GameMonitorEndGame@@YAXXZ 6661d480 f   GameMonitor.obj
 0001:0001c490       ?ShowGameCount@@YAXXZ      6661d490 f   GameMonitor.obj
 0001:0001c720       ?SetKills@@YIXK@Z          6661d720 f   GameMonitor.obj
 0001:0001c770       ?KillCountPatch_ASM@@YAXXZ 6661d770 f   GameMonitor.obj
 0001:0001c790       ?UnitModeChangePatch_ASM@@YAXXZ 6661d790 f   GameMonitor.obj
 0001:0001c7d0       ?drawRuneCollectorCount@@YAXXZ 6661d7d0 f   GameMonitor.obj
 0001:0001cbf0       ?DrawMonitorInfo@@YAXXZ    6661dbf0 f   GameMonitor.obj
 0001:0001df40       ?SetState@@YGXKH@Z         6661ef40 f   GameMonitor.obj
 0001:0001e250       ?RecvCommand_A7_Patch_ASM@@YAXXZ 6661f250 f   GameMonitor.obj
 0001:0001e3d0       ?RecvCommand_A8_Patch_ASM@@YAXXZ 6661f3d0 f   GameMonitor.obj
 0001:0001e420       ?RecvCommand_A9_Patch_ASM@@YAXXZ 6661f420 f   GameMonitor.obj
 0001:0001e470       ?itemAction@@YAXPAUbitstream@@PAD@Z 6661f470 f   GameMonitor.obj
 0001:0001e5e0       ?itemAction9C@@YIXPAD@Z    6661f5e0 f   GameMonitor.obj
 0001:0001e620       ?itemAction9D@@YIXPAD@Z    6661f620 f   GameMonitor.obj
 0001:0001e660       ?updateItemSkill@@YIXPAD@Z 6661f660 f   GameMonitor.obj
 0001:0001e6f0       ?RecvCommand_9C_Patch_ASM@@YAXXZ 6661f6f0 f   GameMonitor.obj
 0001:0001e700       ?RecvCommand_9D_Patch_ASM@@YAXXZ 6661f700 f   GameMonitor.obj
 0001:0001e710       ?RecvCommand_22_Patch_ASM@@YAXXZ 6661f710 f   GameMonitor.obj
 0001:0001e720       ?info_AddConfigVars@@YAXXZ 6661f720 f   info.obj
 0001:0001e760       ?infoNewGame@@YAXXZ        6661f760 f   info.obj
 0001:0001e780       ?wsprintfW2@@YAPA_WPA_WPADZZ 6661f780 f   info.obj
 0001:0001e7e0       ?DrawGameInfoPatch@@YIXH@Z 6661f7e0 f   info.obj
 0001:0001eaa0       ?DrawPetHeadPatch@@YIXHPAUUnitAny@@@Z 6661faa0 f   info.obj
 0001:0001eb20       ?DrawPetHeadPatch_ASM@@YAXXZ 6661fb20 f   info.obj
 0001:0001eb30       ?getGameWinId@@YAHH@Z      6661fb30 f   info.obj
 0001:0001eba0       ?DrawPartyHeadPatch@@YIXHPAURosterUnit@@@Z 6661fba0 f   info.obj
 0001:0001f0a0       ?StartDrawPartyHeadPatch_ASM@@YAXXZ 666200a0 f   info.obj
 0001:0001f0c0       ?DrawPartyHeadPatch_ASM@@YAXXZ 666200c0 f   info.obj
 0001:0001f0e0       ?DrawSkeletonHeadPatch@@YIXHH@Z 666200e0 f   info.obj
 0001:0001f200       ?DrawSkeletonHeadPatch_ASM@@YAXXZ 66620200 f   info.obj
 0001:0001f210       ?UpdateExp@@YAXXZ          66620210 f   info.obj
 0001:0001f430       ?InitExp@@YAXXZ            66620430 f   info.obj
 0001:0001f460       ?UpdateExp_ASM@@YAXXZ      66620460 f   info.obj
 0001:0001f480       ?info_FixValues@@YAXXZ     66620480 f   info.obj
 0001:0001f560       ?DrawClientPatch@@YAXXZ    66620560 f   info.obj
 0001:0001f6e0       ?DrawClientPatch_ASM@@YAXXZ 666206e0 f   info.obj
 0001:0001f700       ?ShowLifeWithMyPattern@@YGKKHH@Z 66620700 f   info.obj
 0001:0001f780       ?ShowManaWithMyPattern@@YGKKHH@Z 66620780 f   info.obj
 0001:0001f800       ?ShowLifePatch_ASM@@YAXXZ  66620800 f   info.obj
 0001:0001f820       ?ShowManaPatch_ASM@@YAXXZ  66620820 f   info.obj
 0001:0001f840       ?SetLifeManaShow@@YAHXZ    66620840 f   info.obj
 0001:0001f880       ?GetViewEquUnit@@YAPAUUnitAny@@XZ 66620880 f   info.obj
 0001:0001f8b0       ?GetViewStatUnit@@YAPAUUnitAny@@XZ 666208b0 f   info.obj
 0001:0001f8e0       ?SetViewUnit@@YAXXZ        666208e0 f   info.obj
 0001:0001f9d0       ?ViewUnit@@YAHH@Z          666209d0 f   info.obj
 0001:0001fa70       ?GetViewingStatsPlayerPatch1_ASM@@YAXXZ 66620a70 f   info.obj
 0001:0001fa80       ?GetViewingStatsPlayerPatch2_ASM@@YAXXZ 66620a80 f   info.obj
 0001:0001fa90       ?GetUnitDrawEquipItemPatch_ASM@@YAXXZ 66620a90 f   info.obj
 0001:0001faa0       ?GetUnitDrawItemDescPath_ASM@@YAXXZ 66620aa0 f   info.obj
 0001:0001fab0       ?GetUnitTestHasItem_ASM@@YAXXZ 66620ab0 f   info.obj
 0001:0001fad0       ?GetUnitText@@YIPA_WPA_WPAUUnitAny@@@Z 66620ad0 f   info.obj
 0001:0001fb70       ?ViewDrawInvItemPatch@@YAPAUUnitAny@@XZ 66620b70 f   info.obj
 0001:0001fbf0       ?GetUnitDrawInvItemPatch_ASM@@YAXXZ 66620bf0 f   info.obj
 0001:0001fc00       ?GetUnitProtectClickEquipPatch_ASM@@YAXXZ 66620c00 f   info.obj
 0001:0001fc40       ?GetUnitProtectClickInvPatch_ASM@@YAXXZ 66620c40 f   info.obj
 0001:0001fc70       ?DrawDefaultFontText@@YAXPA_WHHKHK@Z 66620c70 f   info.obj
 0001:0001fca0       ?SwitchStatPage@@YAHH@Z    66620ca0 f   info.obj
 0001:0001fcf0       ?DrawUnitStat@@YAXHHHHPAD00KHH@Z 66620cf0 f   info.obj
 0001:0001fdd0       ?ViewUnitStatPatch@@YIXPAUUnitAny@@@Z 66620dd0 f   info.obj
 0001:000201d0       ?ViewUnitStatPatch_ASM@@YAXXZ 666211d0 f   info.obj
 0001:000201f0       ?ViewPetStatPatch@@YIXPAUUnitAny@@@Z 666211f0 f   info.obj
 0001:00020460       ?ViewPetStatPatch_ASM@@YAXXZ 66621460 f   info.obj
 0001:00020480       ?messagelog_AddConfigVars@@YAXXZ 66621480 f   MessageLog.obj
 0001:000204c0       ?OpenFileNew@@YAPAXPAD@Z   666214c0 f   MessageLog.obj
 0001:000204f0       ?OpenFileWrite@@YAPAXPAD@Z 666214f0 f   MessageLog.obj
 0001:00020520       ?WriteFile@@YAKPAX0K@Z     66621520 f   MessageLog.obj
 0001:00020550       ?LogMessage@@YIXPA_W@Z     66621550 f   MessageLog.obj
 0001:000209f0       ?MessageLogPatch1_ASM@@YAXXZ 666219f0 f   MessageLog.obj
 0001:00020a10       ?MessageLogPatch2_ASM@@YAXXZ 66621a10 f   MessageLog.obj
 0001:00020a30       ?MessageLogExitGame@@YAXXZ 66621a30 f   MessageLog.obj
 0001:00020d20       ?item_addConfigVars@@YAXXZ 66621d20 f   item.obj
 0001:00020d60       ?item_initConfigVars@@YAXXZ 66621d60 f   item.obj
 0001:00020df0       ?item_NewGame@@YAXXZ       66621df0 f   item.obj
 0001:00020e10       ?wcs_insert@@YAPA_WPA_W0@Z 66621e10 f   item.obj
 0001:00020ee0       ?GetItemIndex@@YAHH@Z      66621ee0 f   item.obj
 0001:00020f30       ?CheckItemVisible@@YAHPAUUnitAny@@@Z 66621f30 f   item.obj
 0001:00021030       ?GetItemColour@@YAEPAUUnitAny@@H@Z 66622030 f   item.obj
 0001:000212d0       ?SwitchItemMode@@YAHXZ     666222d0 f   item.obj
 0001:00021380       ?trimspaces@@YAXPA_W@Z     66622380 f   item.obj
 0001:00021440       ?ColourD2String@@YIPA_WPA_WK@Z 66622440 f   item.obj
 0001:000214d0       ?ItemHaveLevel@@YAHE@Z     666224d0 f   item.obj
 0001:00021530       ?ItemNamePatch@@YIXPA_WPAUUnitAny@@PAUItemTxt@@@Z 66622530 f   item.obj
 0001:00022100       ?ItemNamePatch_ASM@@YAXXZ  66623100 f   item.obj
 0001:00022120       ?OpenCubeStringPatch@@YIPA_WPA_WK@Z 66623120 f   item.obj
 0001:00022180       ?OpenCubeStringPatch_ASM@@YAXXZ 66623180 f   item.obj
 0001:00022190       ?PermShowItemsPatch1@@YAHXZ 66623190 f   item.obj
 0001:000221c0       ?PermShowItemsPatch2@@YAHXZ 666231c0 f   item.obj
 0001:00022210       ?PermShowItemsPatch3@@YAHXZ 66623210 f   item.obj
 0001:00022280       ?PermShowItemsPatch1_ASM@@YAXXZ 66623280 f   item.obj
 0001:00022290       ?PermShowItemsPatch2_ASM@@YAXXZ 66623290 f   item.obj
 0001:000222b0       ?PermShowItemsPatch3_ASM@@YAXXZ 666232b0 f   item.obj
 0001:000222d0       ?PermShowItemsPatch4_ASM@@YAXXZ 666232d0 f   item.obj
 0001:000222e0       ?ItemDescPath@@YIXPA_WHHHH@Z 666232e0 f   item.obj
 0001:000223e0       ?SocketViewCallRoutine@@YIXPAUUnitAny@@KP6GX0K@Z@Z 666233e0 f   item.obj
 0001:000223f0       ?ItemSocketViewPatch@@YGXP6GXPAUUnitAny@@K@Z0K@Z 666233f0 f   item.obj
 0001:000224b0       ?ItemSocketViewPatch_ASM@@YAXXZ 666234b0 f   item.obj
 0001:000224c0       ?SocketItemStatViewPatch_ASM@@YAXXZ 666234c0 f   item.obj
 0001:000224e0       ?GetItemExtStatListPatch@@YGPAUStatList@@PAUUnitAny@@KK@Z 666234e0 f   item.obj
 0001:00022510       ?ItemBasicStatPatch_ASM@@YAXXZ 66623510 f   item.obj
 0001:00022540       ?SetPropInfo@@YAXHHHPAUItemProp@@@Z 66623540 f   item.obj
 0001:000229c0       ?GetStatRange@@YAPA_WPA_WKK@Z 666239c0 f   item.obj
 0001:00022db0       ?GetItemPropStringPatch@@YIKPA_WPAUStatEx@@K@Z 66623db0 f   item.obj
 0001:00022e80       ?GetItemPropStringPatch_ASM@@YAXXZ 66623e80 f   item.obj
 0001:00022ea0       ?StrcatItemPropStringPatch@@YIXPA_W0K@Z 66623ea0 f   item.obj
 0001:00022fc0       ?StrcatItemPropStringPatch_ASM@@YAXXZ 66623fc0 f   item.obj
 0001:00022fd0       ?StrcatSocketStringPatch@@YIPA_WPA_W@Z 66623fd0 f   item.obj
 0001:00023000       ?StrcatSocketStringPatch_ASM@@YAXXZ 66624000 f   item.obj
 0001:00023010       ?StrcatDefenseStringPatch@@YIPA_WPA_W@Z 66624010 f   item.obj
 0001:000232b0       ?StrcatDefenseStringPatch_ASM@@YAXXZ 666242b0 f   item.obj
 0001:000232c0       ?StrcatDamageStringPatch@@YIPA_WPA_W@Z 666242c0 f   item.obj
 0001:000234e0       ?StrcatDamageStringPatch_ASM1@@YAXXZ 666244e0 f   item.obj
 0001:000234f0       ?StrcatDamageStringPatch_ASM2@@YAXXZ 666244f0 f   item.obj
 0001:00023510       ?ShowSocketProtectInfo@@YAXXZ 66624510 f   item.obj
 0001:00023580       ?SocketProtectPatch_ASM@@YAXXZ 66624580 f   item.obj
 0001:000235a0       ?SocketProtectPatch1_ASM@@YAXXZ 666245a0 f   item.obj
 0001:000235c0       ?SocketProtectPatch2_ASM@@YAXXZ 666245c0 f   item.obj
 0001:000235e0       ?ItemExtInfoNewGame@@YAXXZ 666245e0 f   ItemExtInfo.obj
 0001:000235f0       ?ConvertToColorString@@YAXPAEPADH@Z 666245f0 f   ItemExtInfo.obj
 0001:00023790       ?LoadExtInfo@@YAHXZ        66624790 f   ItemExtInfo.obj
 0001:00024790       ?UnLoadExtInfo@@YAXXZ      66625790 f   ItemExtInfo.obj
 0001:00024970       ?SetExtInfoPos@@YAXHHHH@Z  66625970 f   ItemExtInfo.obj
 0001:00024a60       ?ShowItemExtInfo@@YAXXZ    66625a60 f   ItemExtInfo.obj
 0001:00024d80       ?DrawHoverPatch_ASM@@YAXXZ 66625d80 f   ItemExtInfo.obj
 0001:00024d90       ?dangerous_addConfigVars@@YAXXZ 66625d90 f   dangerous.obj
 0001:00024dd0       ?dangerous_initConfigVars@@YAXXZ 66625dd0 f   dangerous.obj
 0001:00024df0       ?ProtectAction@@YAXPA_WHE@Z 66625df0 f   dangerous.obj
 0001:00024fa0       ?ChickenLifeNewGame@@YAXXZ 66625fa0 f   dangerous.obj
 0001:00025270       ?ChickenLifeLoop@@YAXXZ    66626270 f   dangerous.obj
 0001:00025980       ?isCowKing@@YAHPAUMonsterData@@@Z 66626980 f   dangerous.obj
 0001:00025a30       ?checkBossMonster@@YAXPAUUnitAny@@@Z 66626a30 f   dangerous.obj
 0001:00025af0       ?CheckDangerousPlayer@@YAXPAUUnitAny@@@Z 66626af0 f   dangerous.obj
 0001:00025ba0       ?TestMonsterOnScreen@@YAHPAUUnitAny@@0@Z 66626ba0 f   dangerous.obj
 0001:00025c20       ?CheckDangerousMonster@@YAXPAUUnitAny@@@Z 66626c20 f   dangerous.obj
 0001:00025d10       ?quest_addConfigVars@@YAXXZ 66626d10 f   quest.obj
 0001:00025d50       ?ReSetTimer@@YAHXZ         66626d50 f   quest.obj
 0001:00025d70       ?QuestNewAct@@YAXXZ        66626d70 f   quest.obj
 0001:00025d80       ?QuestNewLevel@@YAXXZ      66626d80 f   quest.obj
 0001:00026530       ?quest_FixValues@@YAXXZ    66627530 f   quest.obj
 0001:00026600       ?QuestNewGame@@YAXXZ       66627600 f   quest.obj
 0001:00026750       ?QuestRunLoop@@YAXXZ       66627750 f   quest.obj
 0001:00026aa0       ?BugKDProtect@@YIXK@Z      66627aa0 f   quest.obj
 0001:00026ce0       ?BugKBProtect@@YIXPAE@Z    66627ce0 f   quest.obj
 0001:000271c0       ?RecvCommand_89_Patch_ASM@@YAXXZ 666281c0 f   quest.obj
 0001:000271e0       ?RecvCommand_5D_Patch_ASM@@YAXXZ 666281e0 f   quest.obj
 0001:000271f0       ?CheckUnitKM@@YAXXZ        666281f0 f   quest.obj
 0001:000272c0       ?getMouseQuestId@@YAHHH@Z  666282c0 f   quest.obj
 0001:000273a0       ?DrawQuestPagePatch@@YIXHH@Z 666283a0 f   quest.obj
 0001:00027880       ?DrawQuestPagePatch_ASM@@YAXXZ 66628880 f   quest.obj
 0001:00027890       ?PacketA4@@YIXPAD@Z        66628890 f   quest.obj
 0001:00027a10       ?Packet4D@@YIXPAD@Z        66628a10 f   quest.obj
 0001:00027a50       ?RecvCommand_A4_Patch_ASM@@YAXXZ 66628a50 f   quest.obj
 0001:00027a60       ?RecvCommand_4D_Patch_ASM@@YAXXZ 66628a60 f   quest.obj
 0001:00027a70       ?UnicodeFix@@YAXPA_WPAK@Z  66628a70 f   unicode.obj
 0001:00027c60       ?D2Lang_Unicode2WinPatch@@YIPBDPADPA_WH@Z 66628c60 f   unicode.obj
 0001:00027ca0       ?D2Lang_Win2UnicodePatch@@YIPA_WPA_WPBDH@Z 66628ca0 f   unicode.obj
 0001:00027cd0       ?EditDeleteSelect@@YAXPAUD2EditBox@@@Z 66628cd0 f   unicode.obj
 0001:00027e00       ?ChannelEnterCharPatch@@YIKPAUD2EditBox@@E@Z 66628e00 f   unicode.obj
 0001:00028130       ?UnicodeToUTF_8@@YAXPADPA_W@Z 66629130 f   unicode.obj
 0001:000281a0       ?MultiByteFix@@YGXPAD@Z    666291a0 f   unicode.obj
 0001:00028390       ?MultiByteFixPatch_ASM@@YAXXZ 66629390 f   unicode.obj
 0001:000283a0       ?IsPritableCharacterPatch_ASM@@YAXXZ 666293a0 f   unicode.obj
 0001:000283c0       ?lifebar_addConfigVars@@YAXXZ 666293c0 f   lifebar.obj
 0001:00028400       ?lifebar_initConfigVars@@YAXXZ 66629400 f   lifebar.obj
 0001:00028420       ?lifebarNewGame@@YAXXZ     66629420 f   lifebar.obj
 0001:00028430       ?MonsterNamePatch@@YIJPA_WJPAUUnitAny@@JJ@Z 66629430 f   lifebar.obj
 0001:00028f40       ?MonsterNamePatch_ASM@@YAXXZ 66629f40 f   lifebar.obj
 0001:00028f60       ?MonsterDescCommaPatch1_ASM@@YAXXZ 66629f60 f   lifebar.obj
 0001:00028f70       ?MonsterDescCommaPatch2_ASM@@YAXXZ 66629f70 f   lifebar.obj
 0001:00028f80       ?MonsterDescCommaPatch3@@YIXPA_WPAUMonsterTxt@@@Z 66629f80 f   lifebar.obj
 0001:00029010       ?MonsterDescCommaPatch3_ASM@@YAXXZ 6662a010 f   lifebar.obj
 0001:00029020       ?LifeBarPatch_ASM@@YAXXZ   6662a020 f   lifebar.obj
 0001:00029040       ?MonsterDeathPatch_ASM@@YAXXZ 6662a040 f   lifebar.obj
 0001:00029060       ?CalculateHighestTC@@YAXHG@Z 6662a060 f   lifebar.obj
 0001:000292a0       ?InitTCList@@YAXXZ         6662a2a0 f   lifebar.obj
 0001:00029320       ?GetTcLevel@@YAPAUMonTC@@GH@Z 6662a320 f   lifebar.obj
 0001:000293b0       ?GetPlayerHpPercent@@YAHPAUUnitAny@@@Z 6662a3b0 f   lifebar.obj
 0001:000293f0       ?PlayerNamePatch@@YIXPA_WPAUUnitAny@@@Z 6662a3f0 f   lifebar.obj
 0001:00029560       ?PlayerNamePatch_ASM@@YAXXZ 6662a560 f   lifebar.obj
 0001:00029580       ?AutoWarCryNewGame@@YAXXZ  6662a580 f   bo.obj
 0001:000295f0       ?AutoWarCryRunLoop@@YAXXZ  6662a5f0 f   bo.obj
 0001:00029d50       ?d2s_init@@YAXPAUd2s_file@@@Z 6662ad50 f   d2s.obj
 0001:00029fb0       ?d2s_write@@YAHPAUd2s_file@@PADH@Z 6662afb0 f   d2s.obj
 0001:0002a0d0       ?d2s_checksum@@YAXPADH@Z   6662b0d0 f   d2s.obj
 0001:0002a150       ?d2s_generate@@YAHPAU_iobuf@@PAUUnitAny@@1PAGPAD1@Z 6662b150 f   d2s.obj
 0001:0002ad70       ?DropProtection_addConfigVars@@YAXXZ 6662bd70 f   DropProtection.obj
 0001:0002adb0       ?DropProtection_initConfigVars@@YAXXZ 6662bdb0 f   DropProtection.obj
 0001:0002ae30       ?DropProtection@@YAHPAUUnitAny@@@Z 6662be30 f   DropProtection.obj
 0001:0002b220       ?canHireMerc@@YAHXZ        6662c220 f   DropProtection.obj
 0001:0002b380       ?DropProtectionPacketBlock@@YAHPAEH@Z 6662c380 f   DropProtection.obj
 0001:0002b4e0       ?ClickHireMercMenuItemPatch_ASM@@YAXXZ 6662c4e0 f   DropProtection.obj
 0001:0002b500       ?unicode2win@@YAXPADPA_WH@Z 6662c500 f   DropProtection.obj
 0001:0002b560       ?DeleteCharacter_Patch_ASM@@YAXXZ 6662c560 f   DropProtection.obj
 0001:0002b5f0       ?DeleteSelectedCharacter_Patch_ASM@@YAXXZ 6662c5f0 f   DropProtection.obj
 0001:0002bbc0       ?ClickMenuItem_Patch_ASM@@YAXXZ 6662cbc0 f   DropProtection.obj
 0001:0002bce0       ?AutoEnchantNewGame@@YAXXZ 6662cce0 f   enchant.obj
 0001:0002bd40       ?checkUnit@@YAHPAUUnitAny@@@Z 6662cd40 f   enchant.obj
 0001:0002c040       ?AutoEnchantRunLoop@@YAXXZ 6662d040 f   enchant.obj
 0001:0002c3b0       ?AutoEnchantPlayerNeedHelp@@YAXH@Z 6662d3b0 f   enchant.obj
 0001:0002c3f0       ?check3bb@@YAXXZ           6662d3f0 f   enchant.obj
 0001:0002c6b0       ?GamePacketPlaySound@@YIXPAE@Z 6662d6b0 f   enchant.obj
 0001:0002c710       ?RecvCommand_2C_Patch_ASM@@YAXXZ 6662d710 f   enchant.obj
 0001:0002c720       ?GameChat_addConfigVars@@YAXXZ 6662d720 f   GameChat.obj
 0001:0002c760       ?SendChatMessageW@@YAXPA_W@Z 6662d760 f   GameChat.obj
 0001:0002c820       ?SendChatMessage@@YAXPAD@Z 6662d820 f   GameChat.obj
 0001:0002c8d0       ?WisperPatch@@YAXXZ        6662d8d0 f   GameChat.obj
 0001:0002c8f0       ?WisperPatch_ASM@@YAXXZ    6662d8f0 f   GameChat.obj
 0001:0002c900       ?CheckD2WinEditBox@@YAXXZ  6662d900 f   GameChat.obj
 0001:0002c960       ?InputLinePatch@@YAHE@Z    6662d960 f   GameChat.obj
 0001:0002c9f0       ?InputLinePatch1_ASM@@YAXXZ 6662d9f0 f   GameChat.obj
 0001:0002ca10       ?EditBoxCallBack@@YGHPAUD2EditBox@@HPAD@Z 6662da10 f   GameChat.obj
 0001:0002ca10       ?Filterbox_InputHandler@@YGHPAUD2EditBox@@HPAD@Z 6662da10 f   mcp.obj
 0001:0002ca20       ?InitD2EditBox@@YAHXZ      6662da20 f   GameChat.obj
 0001:0002caf0       ?InputLinePatch2_ASM@@YAXXZ 6662daf0 f   GameChat.obj
 0001:0002cb10       ?SelectTextPatch1@@YGHPAD@Z 6662db10 f   GameChat.obj
 0001:0002cbf0       ?SelectTextPatch1_ASM@@YAXXZ 6662dbf0 f   GameChat.obj
 0001:0002cc10       ?SelectTextPatch2@@YGHPAD@Z 6662dc10 f   GameChat.obj
 0001:0002ccc0       ?SelectTextPatch2_ASM@@YAXXZ 6662dcc0 f   GameChat.obj
 0001:0002cce0       ?ResetGameList@@YAXXZ      6662dce0 f   mcp.obj
 0001:0002cd00       ?gameFilter_addConfigVars@@YAXXZ 6662dd00 f   mcp.obj
 0001:0002cd40       ?D2MCPPacketHandler_05_Patch@@YIHPAEH@Z 6662dd40 f   mcp.obj
 0001:0002cfd0       ?D2MCPPacketHandler_05_Patch_ASM@@YAXXZ 6662dfd0 f   mcp.obj
 0001:0002cff0       ?Filterbox_ReturnHandler@@YGHPA_W@Z 6662dff0 f   mcp.obj
 0001:0002d060       ?CreateFilterBox@@YAXXZ    6662e060 f   mcp.obj
 0001:0002d0e0       ?CreateGameBoxPatch_ASM@@YAXXZ 6662e0e0 f   mcp.obj
 0001:0002d0f0       ?DestroyGamelistPatch@@YGXPAUD2EditBox@@@Z 6662e0f0 f   mcp.obj
 0001:0002d130       ?GameListRefreshTimePatch_ASM@@YAXXZ 6662e130 f   mcp.obj
 0001:0002d170       ?DrawGameListPatch@@YAXXZ  6662e170 f   mcp.obj
 0001:0002d300       ?DrawGameListPatch_ASM@@YAXXZ 6662e300 f   mcp.obj
 0001:0002d310       ?SortGameList_Patch_ASM@@YAXXZ 6662e310 f   mcp.obj
 0001:0002d3a0       ?ShowGameListDifficulty_Patch_ASM@@YAXXZ 6662e3a0 f   mcp.obj
 0001:0002d450       ?clearCharacterTag@@YAXXZ  6662e450 f   login.obj
 0001:0002d480       ?addCharacterTag@@YAXPAD0@Z 6662e480 f   login.obj
 0001:0002d5d0       ?getCharTag@@YAPADPAD@Z    6662e5d0 f   login.obj
 0001:0002d690       ?doneCharacterTag@@YAXXZ   6662e690 f   login.obj
 0001:0002d6c0       ?drawCharTags@@YAXXZ       6662e6c0 f   login.obj
 0001:0002d7f0       ?login_initConfigVars@@YAXXZ 6662e7f0 f   login.obj
 0001:0002d800       ?addAccount@@YAXHPAD0@Z    6662e800 f   login.obj
 0001:0002d950       ?isLoginScreen@@YAHXZ      6662e950 f   login.obj
 0001:0002da00       ?inputUserPassword@@YAHPAULoginInfo@@@Z 6662ea00 f   login.obj
 0001:0002db90       ?autoLogin@@YAXXZ          6662eb90 f   login.obj
 0001:0002dbb0       ?LastBNet_Patch@@YGHPAD0H0H@Z 6662ebb0 f   login.obj
 0001:0002dc00       ?SelectCharPatch_ASM@@YAXXZ 6662ec00 f   login.obj
 0001:0002dd20       ?autoSelectChar@@YAXXZ     6662ed20 f   login.obj
 0001:0002de40       ?saveCharMenu@@YAXXZ       6662ee40 f   login.obj
 0001:0002e210       ?OpenCharMenuPatch_ASM@@YAXXZ 6662f210 f   login.obj
 0001:0002e220       ?misc_addConfigVars@@YAXXZ 6662f220 f   misc.obj
 0001:0002e260       ?ULCPatch_ASM@@YAXXZ       6662f260 f   misc.obj
 0001:0002e280       ?OutTownSelectPatch@@YIHPAUUnitAny@@@Z 6662f280 f   misc.obj
 0001:0002e2c0       ?OutTownSelectPatch_ASM1@@YAXXZ 6662f2c0 f   misc.obj
 0001:0002e2f0       ?CheckOutTownSelected@@YGHPAUUnitAny@@@Z 6662f2f0 f   misc.obj
 0001:0002e350       ?OutTownSelectPatch_ASM2@@YAXXZ 6662f350 f   misc.obj
 0001:0002e370       ?NPCMessageLoopPatch_ASM@@YAXXZ 6662f370 f   misc.obj
 0001:0002e3b0       ?NPCQuestMessageStartPatch_ASM@@YAXXZ 6662f3b0 f   misc.obj
 0001:0002e3d0       ?NPCQuestMessageEndPatch1_ASM@@YAXXZ 6662f3d0 f   misc.obj
 0001:0002e3f0       ?NPCQuestMessageEndPatch2_ASM@@YAXXZ 6662f3f0 f   misc.obj
 0001:0002e400       ?NsPassingActBugFixPatch_ASM@@YAXXZ 6662f400 f   misc.obj
 0001:0002e410       ?SetGoldPatch@@YIHH@Z      6662f410 f   misc.obj
 0001:0002e490       ?SetGoldPatch_ASM@@YAXXZ   6662f490 f   misc.obj
 0001:0002e4a0       ?SetDefaultGoldPatch_ASM@@YAXXZ 6662f4a0 f   misc.obj
 0001:0002e4b0       ?multiclient_addConfigVars@@YAXXZ 6662f4b0 f   multi.obj
 0001:0002e4f0       ?multiclient_initConfigVars@@YAXXZ 6662f4f0 f   multi.obj
 0001:0002e520       ?multiclient_FixValues@@YAXXZ 6662f520 f   multi.obj
 0001:0002e550       ?MultiClientNewGame@@YAXXZ 6662f550 f   multi.obj
 0001:0002e610       ?MultiClientEndGame@@YAXXZ 6662f610 f   multi.obj
 0001:0002e630       ?makeRuntimeInfoPath@@YAHPADH@Z 6662f630 f   multi.obj
 0001:0002e700       ?saveRuntimeInfo@@YAHPAUHWND__@@@Z 6662f700 f   multi.obj
 0001:0002e8a0       ?loadRuntimeInfo@@YAHPAUD2Window@@H@Z 6662f8a0 f   multi.obj
 0001:0002efe0       ?refresh_clients@@YAXXZ    6662ffe0 f   multi.obj
 0001:0002f1a0       ?multiclient_winactive@@YAXXZ 666301a0 f   multi.obj
 0001:0002f2e0       ?getGameWindowHwnd@@YAPAUHWND__@@H@Z 666302e0 f   multi.obj
 0001:0002f320       ?canRemoteControl@@YAHXZ   66630320 f   multi.obj
 0001:0002f3e0       ?leader_click_object@@YAXHH@Z 666303e0 f   multi.obj
 0001:0002f4a0       ?multiclient_recv_info@@YAXH@Z 666304a0 f   multi.obj
 0001:0002f7d0       ?multiclient_send_info@@YAXH@Z 666307d0 f   multi.obj
 0001:0002f820       ?follower_click_object@@YAXHH@Z 66630820 f   multi.obj
 0001:0002f980       ?MultiClientLoop@@YAXXZ    66630980 f   multi.obj
 0001:000303b0       ?follower_left_click_xy@@YAXHH@Z 666313b0 f   multi.obj
 0001:000303f0       ?follower_right_click_xy@@YAXHH@Z 666313f0 f   multi.obj
 0001:00030430       ?follower_left_click_unit@@YAXHH@Z 66631430 f   multi.obj
 0001:00030470       ?follower_right_client_unit@@YAXHH@Z 66631470 f   multi.obj
 0001:000304b0       ?refresh_followers@@YAXH@Z 666314b0 f   multi.obj
 0001:000305d0       ?toggle_follower@@YAXH@Z   666315d0 f   multi.obj
 0001:000306e0       ?follower_stop_follow@@YAXXZ 666316e0 f   multi.obj
 0001:00030780       ?findClosetPortal@@YAPAUUnitAny@@XZ 66631780 f   multi.obj
 0001:00030900       ?follower_cmd@@YAXH@Z      66631900 f   multi.obj
 0001:00030c30       ?MultiClientStartFollow@@YAHH@Z 66631c30 f   multi.obj
 0001:00030d10       ?MultiClientStopFollow@@YAHXZ 66631d10 f   multi.obj
 0001:00030db0       ?MultiClientStartFollow1@@YAHXZ 66631db0 f   multi.obj
 0001:00030dd0       ?MultiClientStartFollow2@@YAHXZ 66631dd0 f   multi.obj
 0001:00030df0       ?MultiClientToggleFollow@@YAHXZ 66631df0 f   multi.obj
 0001:00030e20       ?leader_back_to_town@@YAHXZ 66631e20 f   multi.obj
 0001:00030ee0       ?MultiClientEnterDoor@@YAHXZ 66631ee0 f   multi.obj
 0001:00031080       ?MultiClientStartClick@@YAHH@Z 66632080 f   multi.obj
 0001:000310a0       ?MultiClientStopClick@@YAHH@Z 666320a0 f   multi.obj
 0001:000310c0       ?MultiClientInitClick@@YAHXZ 666320c0 f   multi.obj
 0001:00031120       ?transferClick@@YAHHPAUUnitAny@@HH@Z 66632120 f   multi.obj
 0001:00031330       ?canTranferClick@@YAHXZ    66632330 f   multi.obj
 0001:00031390       ?shouldLeftClick@@YIHPAH@Z 66632390 f   multi.obj
 0001:00031670       ?shouldRightClick@@YIHPAH@Z 66632670 f   multi.obj
 0001:000317b0       ?LeftClick_Patch_ASM@@YAXXZ 666327b0 f   multi.obj
 0001:000317d0       ?RightClick_Patch_ASM@@YAXXZ 666327d0 f   multi.obj
 0001:000317f0       ?NpcTrade_AddConfigVars@@YAXXZ 666327f0 f   NpcTrade.obj
 0001:00031830       ?NpcTradeNewGame@@YAXXZ    66632830 f   NpcTrade.obj
 0001:00031840       ?drawNpcTradeInfo@@YAXH@Z  66632840 f   NpcTrade.obj
 0001:00032350       ?NpcTradeLoop@@YAXXZ       66633350 f   NpcTrade.obj
 0001:000325b0       ?NpcTradePatch_ASM@@YAXXZ  666335b0 f   NpcTrade.obj
 0001:000325e0       ?PartyHelp_addConfigVars@@YAXXZ 666335e0 f   party.obj
 0001:00032620       ?PartyHelpNewGame@@YAXXZ   66633620 f   party.obj
 0001:00032720       ?PartyHelpEndGame@@YAXXZ   66633720 f   party.obj
 0001:00032730       ?ResponseInvite@@YAXXZ     66633730 f   party.obj
 0001:000327d0       ?CheckInvite@@YAHXZ        666337d0 f   party.obj
 0001:00032820       ?AutoParty@@YGXPAE@Z       66633820 f   party.obj
 0001:00032900       ?RecvCommand_5A_Patch_ASM@@YAXXZ 66633900 f   party.obj
 0001:00032910       ?AutoInvite@@YIXPAE@Z      66633910 f   party.obj
 0001:000329d0       ?RecvCommand_5B_Patch_ASM@@YAXXZ 666339d0 f   party.obj
 0001:000329e0       ?quick_addConfigVars@@YAXXZ 666339e0 f   quick.obj
 0001:00032a20       ?quick_NewGame@@YAXXZ      66633a20 f   quick.obj
 0001:00032a40       ?quick_EndGame@@YAXXZ      66633a40 f   quick.obj
 0001:00032a50       ?skillCount@@YAHH@Z        66633a50 f   quick.obj
 0001:00032ab0       ?BackToTown@@YAHXZ         66633ab0 f   quick.obj
 0001:00032b50       ?quickLoop@@YAXXZ          66633b50 f   quick.obj
 0001:00032c30       ?AutoBackToTown@@YIXPAE@Z  66633c30 f   quick.obj
 0001:00032d60       ?RecvCommand_60_Patch_ASM@@YAXXZ 66633d60 f   quick.obj
 0001:00032d70       ?SaveGameName@@YAXXZ       66633d70 f   quick.obj
 0001:00032e10       ?QuickExitGame@@YAHXZ      66633e10 f   quick.obj
 0001:00032e40       ?QuickNextGame@@YAHH@Z     66633e40 f   quick.obj
 0001:00033090       ?NextGameNamePatch@@YIXPAUD2EditBox@@P6GH0HPAD@Z@Z 66634090 f   quick.obj
 0001:000330d0       ?NextGamePasswordPatch@@YIXPAUD2EditBox@@P6GH0HPAD@Z@Z 666340d0 f   quick.obj
 0001:00033110       ?NextGameDecriptionPatch@@YIXPAUD2EditBox@@P6GH0HPAD@Z@Z 66634110 f   quick.obj
 0001:00033150       ?SelectGamePatch@@YIPAXPAUD2EditBox@@PA_W@Z 66634150 f   quick.obj
 0001:000331f0       ?quickswap_addConfigVars@@YAXXZ 666341f0 f   QuickSwapItem.obj
 0001:00033230       ?PutItemIntoCube@@YAHPAUD2MSG@@HH@Z 66634230 f   QuickSwapItem.obj
 0001:00033590       ?MoveItem@@YAXPAUD2MSG@@@Z 66634590 f   QuickSwapItem.obj
 0001:00033f30       ?RButtonUpHandlerPatch@@YGXPAUD2MSG@@@Z 66634f30 f   QuickSwapItem.obj
 0001:00033f70       ?RButtonUpHandlerPatch_ASM@@YAXXZ 66634f70 f   QuickSwapItem.obj
 0001:00033f90       ?RButtonInTradePatch_ASM@@YAXXZ 66634f90 f   QuickSwapItem.obj
 0001:00033fa0       ?CtrlClickHandlerPatch_ASM@@YAXXZ 66634fa0 f   QuickSwapItem.obj
 0001:00033fd0       ?Resolution_AddConfigVars@@YAXXZ 66634fd0 f   resolution.obj
 0001:00034010       ?changeResolution@@YAXH@Z  66635010 f   resolution.obj
 0001:00034020       ?resolution_init@@YAXXZ    66635020 f   resolution.obj
 0001:00034070       ?resolution_uninit@@YAXXZ  66635070 f   resolution.obj
 0001:000340c0       ?fitWindowToResolution@@YAXXZ 666350c0 f   resolution.obj
 0001:00034200       ?fitResolution@@YAXXZ      66635200 f   resolution.obj
 0001:000344e0       ?SetBitBlockWidthAndHeightPatch_ASM@@YAXXZ 666354e0 f   resolution.obj
 0001:000344f0       ?SetCelDisplayLeftAndRightPatch_ASM@@YAXXZ 666354f0 f   resolution.obj
 0001:00034510       ?IsNeedRestoreDownWindowPatchW_ASM@@YAXXZ 66635510 f   resolution.obj
 0001:00034510       ?IsNeedResizeWindowPatchW_ASM@@YAXXZ 66635510 f   resolution.obj
 0001:00034520       ?IsNeedResizeWindowPatchH_ASM@@YAXXZ 66635520 f   resolution.obj
 0001:00034520       ?IsNeedRestoreDownWindowPatchH_ASM@@YAXXZ 66635520 f   resolution.obj
 0001:00034530       ?SetDisplayWidthAndHeightPatch_ASM@@YAXXZ 66635530 f   resolution.obj
 0001:00034550       ?SetGeneralDisplayWidthAndHeightPatch_ASM@@YAXXZ 66635550 f   resolution.obj
 0001:00034570       ?GetGlobalBeltSlotPositionPatch_ASM@@YAXXZ 66635570 f   resolution.obj
 0001:00034620       ?GetGlobalBeltRecordPatch_ASM@@YAXXZ 66635620 f   resolution.obj
 0001:000346f0       ?AdjustWindowRectExPatch_ASM@@YAXXZ 666356f0 f   resolution.obj
 0001:00034840       ?ClearFramebufPatch_ASM@@YAXXZ 66635840 f   resolution.obj
 0001:00034860       ?DrawLeftOrbImagePatch_ASM@@YAXXZ 66635860 f   resolution.obj
 0001:00034890       ?DrawLeftOrbPatch_ASM@@YAXXZ 66635890 f   resolution.obj
 0001:000348b0       ?DrawRightOrbImagePatch_ASM@@YAXXZ 666358b0 f   resolution.obj
 0001:000348e0       ?DrawRightOrbPatch_ASM@@YAXXZ 666358e0 f   resolution.obj
 0001:00034900       ?FillLeftOrbPatch_ASM@@YAXXZ 66635900 f   resolution.obj
 0001:00034920       ?FillRightOrbPatch_ASM@@YAXXZ 66635920 f   resolution.obj
 0001:00034940       ?DrawLeftSkillButtonPatch_ASM@@YAXXZ 66635940 f   resolution.obj
 0001:00034960       ?DrawRightSkillButtonPatch_ASM@@YAXXZ 66635960 f   resolution.obj
 0001:00034980       ?DisplayHPTextPatch_ASM@@YAXXZ 66635980 f   resolution.obj
 0001:000349a0       ?DisplayManaTextPatch_ASM@@YAXXZ 666359a0 f   resolution.obj
 0001:000349c0       ?DrawGroundHeightPatch_ASM@@YAXXZ 666359c0 f   resolution.obj
 0001:000349f0       ?BottomBoundPatch_ASM@@YAXXZ 666359f0 f   resolution.obj
 0001:00034a10       ?installResolutionPatches@@YAHXZ 66635a10 f   resolution.obj
 0001:00034ec0       ?autoskill_addConfigVars@@YAXXZ 66635ec0 f   skill.obj
 0001:00034f00       ?autoskill_initConfigVars@@YAXXZ 66635f00 f   skill.obj
 0001:00035060       ?AutoSkillNewGame@@YAXXZ   66636060 f   skill.obj
 0001:000350d0       ?checkAutoSkill@@YAXXZ     666360d0 f   skill.obj
 0001:00035410       ?checkAutoSkillStatus@@YAXXZ 66636410 f   skill.obj
 0001:000354c0       ?stackThrowing@@YAXXZ      666364c0 f   skill.obj
 0001:00035580       ?AutoSkillNow@@YAHXZ       66636580 f   skill.obj
 0001:000355b0       ?AutoSkillRunLoop@@YAXXZ   666365b0 f   skill.obj
 0001:000369d0       ?autoSkillDimVision@@YIXPAD@Z 666379d0 f   skill.obj
 0001:00036a20       ?Snapshot_AddConfigVars@@YAXXZ 66637a20 f   Snapshot.obj
 0001:00036a60       ?hex@@YAXPAU_iobuf@@HPAXH@Z 66637a60 f   Snapshot.obj
 0001:00036bf0       ?LoadLogNames@@YAXPAU_iobuf@@@Z 66637bf0 f   Snapshot.obj
 0001:00037300       ?getSnapshotPath@@YAXPAD00000D@Z 66638300 f   Snapshot.obj
 0001:000377e0       ?openDbgFile@@YAPAU_iobuf@@PAD@Z 666387e0 f   Snapshot.obj
 0001:00037a10       ?SnapshotNewGame@@YAXXZ    66638a10 f   Snapshot.obj
 0001:00037be0       ?SnapshotEndGame@@YAXXZ    66638be0 f   Snapshot.obj
 0001:00037ee0       ?dumpStat@@YAXPAU_iobuf@@HHPAH@Z 66638ee0 f   Snapshot.obj
 0001:00038330       ?dumpStatList@@YAHPAU_iobuf@@PAUStatList@@H@Z 66639330 f   Snapshot.obj
 0001:00038970       ?loadWaypoints@@YAXPADH@Z  66639970 f   Snapshot.obj
 0001:00038a20       ?saveWaypoints@@YAXPADH@Z  66639a20 f   Snapshot.obj
 0001:0003bf80       ?dumpUnit2@@YAXPAU_iobuf@@PAUUnitAny@@@Z 6663cf80 f   Snapshot.obj
 0001:0003c160       ?saveMercInfo@@YIXPAD@Z    6663d160 f   Snapshot.obj
 0001:0003c2a0       ?RecvCommand_81_Patch_ASM@@YAXXZ 6663d2a0 f   Snapshot.obj
 0001:0003c2b0       ?removeSnapshot@@YAXPAD00@Z 6663d2b0 f   Snapshot.obj
 0001:0003c4f0       ?dumpServerQuest@@YAXPAU_iobuf@@@Z 6663d4f0 f   Snapshot.obj
 0001:0003c770       ?DoSnapshot@@YAHXZ         6663d770 f   Snapshot.obj
 0001:0003ccf0       ?AutoSummonNewGame@@YAXXZ  6663dcf0 f   summon.obj
 0001:0003cde0       ?checkSkeletonCount@@YAXXZ 6663dde0 f   summon.obj
 0001:0003cfb0       ?AutoSummonRunLoop@@YAXXZ  6663dfb0 f   summon.obj
 0001:0003d7d0       ?addUnit@@YIXPAUUnitAny@@@Z 6663e7d0 f   summon.obj
 0001:0003d850       ?AddUnitPatch_ASM@@YAXXZ   6663e850 f   summon.obj
 0001:0003d870       ?RemoveUnitPatch1_ASM@@YAXXZ 6663e870 f   summon.obj
 0001:0003d890       ?RemoveUnitPatch2_ASM@@YAXXZ 6663e890 f   summon.obj
 0001:0003d8b0       ?RecvCommand_69_Patch_ASM@@YAXXZ 6663e8b0 f   summon.obj
 0001:0003d8e0       ?RecvCommand_7A_Patch_ASM@@YAXXZ 6663e8e0 f   summon.obj
 0001:0003d910       ?RecvCommand_21_Patch_ASM@@YAXXZ 6663e910 f   summon.obj
 0001:0003d930       ?autoteleport_addConfigVars@@YAXXZ 6663e930 f   teleport.obj
 0001:0003d970       ?autoteleport_initConfigVars@@YAXXZ 6663e970 f   teleport.obj
 0001:0003d990       ?autoteleport_fixValues@@YAXXZ 6663e990 f   teleport.obj
 0001:0003d9b0       ?AutoTeleportStart@@YAHXZ  6663e9b0 f   teleport.obj
 0001:0003da50       ?AutoTeleportEnd@@YAHXZ    6663ea50 f   teleport.obj
 0001:0003dad0       ?AutoTeleport@@YAHXZ       6663ead0 f   teleport.obj
 0001:0003f840       ?abs@@YAJJ@Z               66640840 f i teleport.obj
 0001:0003fe30       ?dumpRunewordTxt@@YAXXZ    66640e30 f   txt.obj
 0001:00040100       ?dumpTxt@@YAXXZ            66641100 f   txt.obj
 0001:000405e0       ?panel_addConfigVars@@YAXXZ 666415e0 f   panel.obj
 0001:00040620       ?printPanelConf@@YAPADHPAD0@Z 66641620 f   panel.obj
 0001:00040750       ?panelNewGame@@YAXXZ       66641750 f   panel.obj
 0001:000408e0       ?panelEndGame@@YAXXZ       666418e0 f   panel.obj
 0001:00040910       ?modifyStashGrid@@YAXXZ    66641910 f   panel.obj
 0001:00040e10       ?MpqLoadPatch@@YIXPAD0@Z   66641e10 f   panel.obj
 0001:00040ef0       ?MqpLoadPathPatch_ASM@@YAXXZ 66641ef0 f   panel.obj
 0001:00040f10       ?ModifyStashImagePatch_ASM@@YAXXZ 66641f10 f   panel.obj
 0001:00040f20       ?ModifyCubeImagePatch_ASM@@YAXXZ 66641f20 f   panel.obj
 0001:00040f50       ?ModifyInvCharImagePatch_ASM@@YAXXZ 66641f50 f   panel.obj
 0001:00040f90       ?ChooseInvCharImagePatch_ASM@@YAXXZ 66641f90 f   panel.obj
 0001:00040fc0       ?CalDrawOffsetPatch_ASM@@YAXXZ 66641fc0 f   panel.obj
 0001:00041050       ?GetEquipmentSlotLayoutPatch_ASM@@YAXXZ 66642050 f   panel.obj
 0001:000411f0       ?GetInventoryGridLayoutPatch_ASM@@YAXXZ 666421f0 f   panel.obj
 0001:000412a0       ?GetInventoryPositionPatch_ASM@@YAXXZ 666422a0 f   panel.obj
 0001:00041350       ?AddSkillPatch_ASM@@YAXXZ  66642350 f   panel.obj
 0001:000413d0       ?RecvCommand_26_Patch_ASM@@YAXXZ 666423d0 f   panel.obj
 0001:000417d0       ?installPanelPatches@@YAHXZ 666427d0 f   panel.obj
 0001:00041960       ?uninstallBigstashPatches@@YAHXZ 66642960 f   panel.obj
 0001:00041980       ?installBigstashPatches@@YAHXZ 66642980 f   panel.obj
 0001:00041e40       ?server_addConfigVars@@YAXXZ 66642e40 f   server.obj
 0001:00041e80       ?client_unassign_stat@@YAHHH@Z 66642e80 f   server.obj
 0001:00041f60       ?client_mouse_stat@@YAHHH@Z 66642f60 f   server.obj
 0001:00042030       ?getSkillDescTxt@@YAPAXH@Z 66643030 f   server.obj
 0001:00042040       ?getSkillTreeButtonY@@YAHH@Z 66643040 f   server.obj
 0001:00042050       ?getSkillTreeButtonX@@YAHH@Z 66643050 f   server.obj
 0001:00042060       ?client_mouse_skillBtn@@YAHHH@Z 66643060 f   server.obj
 0001:00042160       ?client_unassign_skill@@YAHHH@Z 66643160 f   server.obj
 0001:00042240       ?client_reset_quest@@YAHH@Z 66643240 f   server.obj
 0001:00042270       ?UndoStr@@YAXPAUUnitAny@@H@Z 66643270 f   server.obj
 0001:00042310       ?UndoDex@@YAXPAUUnitAny@@H@Z 66643310 f   server.obj
 0001:000423b0       ?UndoVit@@YAXPAUUnitAny@@H@Z 666433b0 f   server.obj
 0001:000424b0       ?UndoEne@@YAXPAUUnitAny@@H@Z 666434b0 f   server.obj
 0001:00042580       ?getClient@@YAPAXPAUUnitAny@@@Z 66643580 f   server.obj
 0001:000425b0       ?UndoSkill@@YAXPAUUnitAny@@HH@Z 666435b0 f   server.obj
 0001:00042790       ?getQuest@@YAPAGPAUWorld@@PAUUnitAny@@@Z 66643790 f   server.obj
 0001:000427d0       ?serverUndo@@YAHPAUWorld@@PAUUnitAny@@PAD2@Z 666437d0 f   server.obj
 0001:00042ec0       ?ModifyStashGridPatch_ASM@@YAXXZ 66643ec0 f   server.obj
 0001:00042ed0       ?compileRunesTxt@@YGPAXHPADPAUTxtField@@PAHH@Z 66643ed0 f   server.obj
 0001:00042f30       ?NoMonsterDropPatch_ASM@@YAXXZ 66643f30 f   server.obj
 0001:00043000       ?GameStartPatch_ASM@@YAXXZ 66644000 f   server.obj
 0001:000431a0       ?server_test@@YAXH@Z       666441a0 f   server.obj
 0001:000431c0       ?DoServerTest@@YAHXZ       666441c0 f   server.obj
 0001:000432b0       ?installServerPatches@@YAHXZ 666442b0 f   server.obj
 0001:00043760       ?RepeatAdminCmd@@YAHXZ     66644760 f   admin.obj
 0001:000437d0       ?ClientChatPatch_ASM@@YAXXZ 666447d0 f   admin.obj
 0001:00043860       ?setCharLv@@YAXPAUWorld@@PAUUnitAny@@H@Z 66644860 f   admin.obj
 0001:00043900       ?maxCharStat@@YAXPAUWorld@@PAUUnitAny@@@Z 66644900 f   admin.obj
 0001:000439b0       ?enableAllWaypoints@@YAXPAUUnitAny@@@Z 666449b0 f   admin.obj
 0001:00043a30       ?passGame@@YAHPAUWorld@@PAUUnitAny@@H@Z 66644a30 f   admin.obj
 0001:00043c50       ?itemIndex2txt@@YAHH@Z     66644c50 f   admin.obj
 0001:00043ce0       ?SelectUniquePatch_ASM@@YAXXZ 66644ce0 f   admin.obj
 0001:00043e20       ?SelectSetPatch_ASM@@YAXXZ 66644e20 f   admin.obj
 0001:00043eb0       ?getItemTxtByCode@@YAHH@Z  66644eb0 f   admin.obj
 0001:00043f60       ?maximizeProps@@YAXPAUUnitAny@@PAUItemProp@@H@Z 66644f60 f   admin.obj
 0001:000440d0       ?getRunewordTxt@@YAPAURuneWordTxt@@H@Z 666450d0 f   admin.obj
 0001:00044110       ?pickupItem@@YAXPAUWorld@@PAUUnitAny@@1H@Z 66645110 f   admin.obj
 0001:00044170       ?invToHand@@YAXPAUWorld@@PAUUnitAny@@1@Z 66645170 f   admin.obj
 0001:000441b0       ?handToBody@@YAXPAUWorld@@PAUUnitAny@@1H@Z 666451b0 f   admin.obj
 0001:00044240       ?putItemIntoSocket@@YAXPAUWorld@@PAUUnitAny@@11@Z 66645240 f   admin.obj
 0001:00044280       ?autoPortal@@YAHPAUWorld@@PAUUnitAny@@@Z 66645280 f   admin.obj
 0001:000446b0       ?MonsterSleepPatch_ASM@@YAXXZ 666456b0 f   admin.obj
 0001:000446d0       ?skipServerPacket15@@YIHPAUWorld@@PAUUnitAny@@PADH@Z 666456d0 f   admin.obj
 0001:000473b0       ?ServerRecvPacket15Patch_ASM@@YAXXZ 666483b0 f   admin.obj
 0001:000473e0       ?uber_addConfigVars@@YAXXZ 666483e0 f   uber.obj
 0001:00047420       ?resetUberQuest@@YAXXZ     66648420 f   uber.obj
 0001:00047490       ?openPandPortal@@YIHPAUWorld@@PAUUnitAny@@@Z 66648490 f   uber.obj
 0001:00047550       ?openPandFinalPortal@@YIHPAUWorld@@PAUUnitAny@@@Z 66648550 f   uber.obj
 0001:00047590       ?spawnSuperUnique@@YAHPAUWorld@@PAUAreaRectData@@HHHHHH@Z 66648590 f   uber.obj
 0001:000475c0       ?monsterUseSkill@@YAXPAUWorld@@PAUUnitAny@@HH1HH@Z 666485c0 f   uber.obj
 0001:00047600       ?spawnUber@@YGXPAUWorld@@PAUAreaRectData@@@Z 66648600 f   uber.obj
 0001:00047850       ?GetNbMonsters@@YAHPAUDrlgLevel@@@Z 66648850 f   uber.obj
 0001:000478e0       ?GetNbMonstersRadius@@YAHPAUDrlgLevel@@UtagPOINT@@H@Z 666488e0 f   uber.obj
 0001:000479a0       ?CastSummonMonster@@YAHPAUWorld@@PAUUnitAny@@HHPAHHH@Z 666489a0 f   uber.obj
 0001:00047ad0       ?randf@@YANXZ              66648ad0 f   uber.obj
 0001:00047af0       ?RandInCircle@@YAXPAUtagPOINT@@H@Z 66648af0 f   uber.obj
 0001:00047b50       ?uberMephAI@@YIXPAUWorld@@PAUUnitAny@@PAUAIParam@@@Z 66648b50 f   uber.obj
 0001:00047be0       ?uberDiabloAI@@YIXPAUWorld@@PAUUnitAny@@PAUAIParam@@@Z 66648be0 f   uber.obj
 0001:00047d30       ?uberBaalAI@@YIXPAUWorld@@PAUUnitAny@@PAUAIParam@@@Z 66648d30 f   uber.obj
 0001:00047f10       ?installUberQuestPatches@@YAHXZ 66648f10 f   uber.obj
 0001:00048036       ??0_LocaleUpdate@@QAE@PAUlocaleinfo_struct@@@Z 66649036 f i LIBCMT:stricmp.obj
 0001:000480bd       ___ascii_stricmp           666490bd f   LIBCMT:stricmp.obj
 0001:000480f6       __stricmp_l                666490f6 f   LIBCMT:stricmp.obj
 0001:000481cb       __stricmp                  666491cb f   LIBCMT:stricmp.obj
 0001:0004821d       __flush                    6664921d f   LIBCMT:fflush.obj
 0001:00048285       __fflush_nolock            66649285 f   LIBCMT:fflush.obj
 0001:000483a7       _fflush                    666493a7 f   LIBCMT:fflush.obj
 0001:000483fa       __flushall                 666493fa f   LIBCMT:fflush.obj
 0001:00048403       _fprintf                   66649403 f   LIBCMT:fprintf.obj
 0001:0004851f       _bsearch                   6664951f f   LIBCMT:bsearch.obj
 0001:000485e1       @__security_check_cookie@4 666495e1 f   LIBCMT:secchk.obj
 0001:000485f0       _sprintf                   666495f0 f   LIBCMT:sprintf.obj
 0001:00048670       _memset                    66649670 f   LIBCMT:memset.obj
 0001:000486ea       __fclose_nolock            666496ea f   LIBCMT:fclose.obj
 0001:00048761       _fclose                    66649761 f   LIBCMT:fclose.obj
 0001:000487dd       _fputs                     666497dd f   LIBCMT:fputs.obj
 0001:000488f0       _strncpy                   666498f0 f   LIBCMT:strncpy.obj
 0001:00048a30       _strchr                    66649a30 f   LIBCMT:strchr.obj
 0001:00048a36       ___from_strstr_to_strchr   66649a36     LIBCMT:strchr.obj
 0001:00048af0       _strrchr                   66649af0 f   LIBCMT:strrchr.obj
 0001:00048be0       _qsort                     66649be0 f   LIBCMT:qsort.obj
 0001:00048e2d       _realloc                   66649e2d f   LIBCMT:realloc.obj
 0001:00049050       _memcpy                    6664a050 f   LIBCMT:memcpy.obj
 0001:000493b5       __isalpha_l                6664a3b5 f i LIBCMT:_ctype.obj
 0001:0004940b       _isalpha                   6664a40b f i LIBCMT:_ctype.obj
 0001:0004943b       __isdigit_l                6664a43b f i LIBCMT:_ctype.obj
 0001:0004948c       _isdigit                   6664a48c f i LIBCMT:_ctype.obj
 0001:000494ba       __isspace_l                6664a4ba f i LIBCMT:_ctype.obj
 0001:0004950b       _isspace                   6664a50b f i LIBCMT:_ctype.obj
 0001:00049539       __isalnum_l                6664a539 f i LIBCMT:_ctype.obj
 0001:0004958f       _isalnum                   6664a58f f i LIBCMT:_ctype.obj
 0001:000497ee       _strtol                    6664a7ee f   LIBCMT:strtol.obj
 0001:00049819       _strtoul                   6664a819 f   LIBCMT:strtol.obj
 0001:00049845       __toupper_l                6664a845 f   LIBCMT:toupper.obj
 0001:0004995b       _toupper                   6664a95b f   LIBCMT:toupper.obj
 0001:00049987       __memicmp_l                6664a987 f   LIBCMT:memicmp.obj
 0001:00049a5c       __memicmp                  6664aa5c f   LIBCMT:memicmp.obj
 0001:00049abb       ___iob_func                6664aabb f   LIBCMT:_file.obj
 0001:00049ac1       ___initstdio               6664aac1 f   LIBCMT:_file.obj
 0001:00049b72       ___endstdio                6664ab72 f   LIBCMT:_file.obj
 0001:00049b92       __lock_file                6664ab92 f   LIBCMT:_file.obj
 0001:00049bd3       __lock_file2               6664abd3 f   LIBCMT:_file.obj
 0001:00049c05       __unlock_file              6664ac05 f   LIBCMT:_file.obj
 0001:00049c41       __unlock_file2             6664ac41 f   LIBCMT:_file.obj
 0001:00049c70       __fpclear                  6664ac70 f   LIBCMT:_fpinit_.obj
 0001:00049c70       __initp_misc_winxfltr      6664ac70 f   LIBCMT:winxfltr.obj
 0001:00049c71       __cfltcvt_init             6664ac71 f   LIBCMT:_fpinit_.obj
 0001:00049cd1       __fpmath                   6664acd1 f   LIBCMT:_fpinit_.obj
 0001:00049d00       __except_handler4          6664ad00 f   LIBCMT:chandler4.obj
 0001:00049e8c       _V6_HeapAlloc              6664ae8c f   LIBCMT:malloc.obj
 0001:00049edb       _malloc                    6664aedb f   LIBCMT:malloc.obj
 0001:00049fb0       _strstr                    6664afb0 f   LIBCMT:strstr.obj
 0001:0004a036       _fgets                     6664b036 f   LIBCMT:fgets.obj
 0001:0004a17e       __fseek_nolock             6664b17e f   LIBCMT:fseek.obj
 0001:0004a208       _fseek                     6664b208 f   LIBCMT:fseek.obj
 0001:0004a28d       __fread_nolock_s           6664b28d f   LIBCMT:fread.obj
 0001:0004a497       _fread_s                   6664b497 f   LIBCMT:fread.obj
 0001:0004a52d       _fread                     6664b52d f   LIBCMT:fread.obj
 0001:0004a54a       _strtok                    6664b54a f   LIBCMT:strtok.obj
 0001:0004a610       __ftol2_sse                6664b610 f   LIBCMT:ftol2.obj
 0001:0004a619       __ftol2_pentium4           6664b619 f   LIBCMT:ftol2.obj
 0001:0004a62c       __ftol2_sse_excpt          6664b62c f   LIBCMT:ftol2.obj
 0001:0004a646       __ftol2                    6664b646 f   LIBCMT:ftol2.obj
 0001:0004a6bb       ??3@YAXPAX@Z               6664b6bb f   LIBCMT:delete.obj
 0001:0004a6c6       ??0bad_alloc@std@@QAE@XZ   6664b6c6 f i LIBCMT:new.obj
 0001:0004a6e1       ??1bad_alloc@std@@UAE@XZ   6664b6e1 f i LIBCMT:new.obj
 0001:0004a6ec       ??_Gbad_alloc@std@@UAEPAXI@Z 6664b6ec f i LIBCMT:new.obj
 0001:0004a6ec       ??_Ebad_alloc@std@@UAEPAXI@Z 6664b6ec f i LIBCMT:new.obj
 0001:0004a713       ??0bad_alloc@std@@QAE@ABV01@@Z 6664b713 f i LIBCMT:new.obj
 0001:0004a730       ??2@YAPAXI@Z               6664b730 f   LIBCMT:new.obj
 0001:0004a795       _free                      6664b795 f   LIBCMT:free.obj
 0001:0004a8fd       __stat64i32                6664b8fd f   LIBCMT:stati32.obj
 0001:0004acd1       __fwrite_nolock            6664bcd1 f   LIBCMT:fwrite.obj
 0001:0004ae33       _fwrite                    6664be33 f   LIBCMT:fwrite.obj
 0001:0004aeb5       __fsopen                   6664beb5 f   LIBCMT:fopen.obj
 0001:0004af79       _fopen                     6664bf79 f   LIBCMT:fopen.obj
 0001:0004af90       __snprintf                 6664bf90 f   LIBCMT:snprintf.obj
 0001:0004b03f       __ftell_nolock             6664c03f f   LIBCMT:ftell.obj
 0001:0004b1dc       _ftell                     6664c1dc f   LIBCMT:ftell.obj
 0001:0004b250       __alloca_probe             6664c250     LIBCMT:chkstk.obj
 0001:0004b250       __chkstk                   6664c250 f   LIBCMT:chkstk.obj
 0001:0004b280       __CIsqrt                   6664c280 f   LIBCMT:_sqrt_.obj
 0001:0004b294       _sqrt                      6664c294     LIBCMT:_sqrt_.obj
 0001:0004b33a       __vsnprintf_l              6664c33a f   LIBCMT:vsnprint.obj
 0001:0004b3ed       __vsnprintf                6664c3ed f   LIBCMT:vsnprint.obj
 0001:0004b40a       _rename                    6664c40a f   LIBCMT:rename.obj
 0001:0004b440       _memmove                   6664c440 f   LIBCMT:memmove.obj
 0001:0004b7a5       __isleadbyte_l             6664c7a5 f i LIBCMT:_wctype.obj
 0001:0004b7dd       _isleadbyte                6664c7dd f i LIBCMT:_wctype.obj
 0001:0004b7f0       _iswspace                  6664c7f0 f i LIBCMT:_wctype.obj
 0001:0004b803       _fputc                     6664c803 f   LIBCMT:fputc.obj
 0001:0004b90f       __get_printf_count_output  6664c90f f   LIBCMT:printf.obj
 0001:0004b925       __time64                   6664c925 f   LIBCMT:time64.obj
 0001:0004b976       __freea                    6664c976 f i LIBCMT:strupr.obj
 0001:0004bb14       __strupr_s_l               6664cb14 f   LIBCMT:strupr.obj
 0001:0004bb49       __strupr                   6664cb49 f   LIBCMT:strupr.obj
 0001:0004bda8       _wcstol                    6664cda8 f   LIBCMT:wcstol.obj
 0001:0004bde0       __allshr                   6664cde0 f   LIBCMT:llshr.obj
 0001:0004be01       _rand                      6664ce01 f   LIBCMT:rand.obj
 0001:0004be30       _sin                       6664ce30 f   LIBCMT:_sin_.obj
 0001:0004be70       __CIsin                    6664ce70 f   LIBCMT:_sin_.obj
 0001:0004beab       __CIsin_default            6664ceab f   LIBCMT:_sin_.obj
 0001:0004bebf       __sin_default              6664cebf     LIBCMT:_sin_.obj
 0001:0004bf60       _cos                       6664cf60 f   LIBCMT:_cos_.obj
 0001:0004bfa0       __CIcos                    6664cfa0 f   LIBCMT:_cos_.obj
 0001:0004bfdb       __CIcos_default            6664cfdb f   LIBCMT:_cos_.obj
 0001:0004bfef       __cos_default              6664cfef     LIBCMT:_cos_.obj
 0001:0004c089       __CRT_INIT@12              6664d089 f   LIBCMT:dllcrt0.obj
 0001:0004c2b4       __DllMainCRTStartup@12     6664d2b4 f   LIBCMT:dllcrt0.obj
 0001:0004c4fd       ___updatetmbcinfo          6664d4fd f   LIBCMT:mbctype.obj
 0001:0004c61d       __setmbcp_nolock           6664d61d f   LIBCMT:mbctype.obj
 0001:0004c802       __setmbcp                  6664d802 f   LIBCMT:mbctype.obj
 0001:0004c99c       ___initmbctable            6664d99c f   LIBCMT:mbctype.obj
 0001:0004c9ba       ___freetlocinfo            6664d9ba f   LIBCMT:setlocal.obj
 0001:0004cb03       ___addlocaleref            6664db03 f   LIBCMT:setlocal.obj
 0001:0004cb92       ___removelocaleref         6664db92 f   LIBCMT:setlocal.obj
 0001:0004cc69       ___updatetlocinfo          6664dc69 f   LIBCMT:setlocal.obj
 0001:0004ccdf       __encode_pointer           6664dcdf f   LIBCMT:tidtable.obj
 0001:0004cd51       __encoded_null             6664dd51 f   LIBCMT:tidtable.obj
 0001:0004cd5a       __decode_pointer           6664dd5a f   LIBCMT:tidtable.obj
 0001:0004cdcc       ___crtTlsAlloc@4           6664ddcc f   LIBCMT:tidtable.obj
 0001:0004cdd5       ___set_flsgetvalue         6664ddd5 f   LIBCMT:tidtable.obj
 0001:0004ce09       __mtterm                   6664de09 f   LIBCMT:tidtable.obj
 0001:0004ce46       __initptd                  6664de46 f   LIBCMT:tidtable.obj
 0001:0004cf2d       __getptd_noexit            6664df2d f   LIBCMT:tidtable.obj
 0001:0004cfa6       __getptd                   6664dfa6 f   LIBCMT:tidtable.obj
 0001:0004cfc0       __freefls@4                6664dfc0 f   LIBCMT:tidtable.obj
 0001:0004d0ef       __freeptd                  6664e0ef f   LIBCMT:tidtable.obj
 0001:0004d15d       __mtinit                   6664e15d f   LIBCMT:tidtable.obj
 0001:0004d2ea       __tolower_l                6664e2ea f   LIBCMT:tolower.obj
 0001:0004d3ff       _tolower                   6664e3ff f   LIBCMT:tolower.obj
 0001:0004d42b       __initp_misc_invarg        6664e42b f   LIBCMT:invarg.obj
 0001:0004d43a       __invoke_watson            6664e43a f   LIBCMT:invarg.obj
 0001:0004d562       __invalid_parameter        6664e562 f   LIBCMT:invarg.obj
 0001:0004d588       __get_errno_from_oserr     6664e588 f   LIBCMT:dosmap.obj
 0001:0004d5ca       __errno                    6664e5ca f   LIBCMT:dosmap.obj
 0001:0004d5dd       ___doserrno                6664e5dd f   LIBCMT:dosmap.obj
 0001:0004d5f0       __dosmaperr                6664e5f0 f   LIBCMT:dosmap.obj
 0001:0004d613       __write_nolock             6664e613 f   LIBCMT:write.obj
 0001:0004dd46       __write                    6664ed46 f   LIBCMT:write.obj
 0001:0004de22       __fileno                   6664ee22 f   LIBCMT:fileno.obj
 0001:0004de54       __commit                   6664ee54 f   LIBCMT:commit.obj
 0001:0004df35       __mtinitlocks              6664ef35 f   LIBCMT:mlock.obj
 0001:0004df80       __mtdeletelocks            6664ef80 f   LIBCMT:mlock.obj
 0001:0004dfd7       __unlock                   6664efd7 f   LIBCMT:mlock.obj
 0001:0004dfee       __mtinitlocknum            6664efee f   LIBCMT:mlock.obj
 0001:0004e0b1       __lock                     6664f0b1 f   LIBCMT:mlock.obj
 0001:0004e0e4       __SEH_prolog4              6664f0e4 f   LIBCMT:sehprolg4.obj
 0001:0004e129       __SEH_epilog4              6664f129 f   LIBCMT:sehprolg4.obj
 0001:0004e13d       __stbuf                    6664f13d f   LIBCMT:_sftbuf.obj
 0001:0004e1d9       __ftbuf                    6664f1d9 f   LIBCMT:_sftbuf.obj
 0001:0004e2b3       __output_l                 6664f2b3 f   LIBCMT:output.obj
 0001:0004ee4b       __ioinit                   6664fe4b f   LIBCMT:ioinit.obj
 0001:0004f09f       __ioterm                   6665009f f   LIBCMT:ioinit.obj
 0001:0004f0ed       ___report_gsfailure        666500ed f   LIBCMT:gs_report.obj
 0001:0004f1f3       __flsbuf                   666501f3 f   LIBCMT:_flsbuf.obj
 0001:0004f3ae       __VEC_memzero              666503ae f   LIBCMT:p4_memset.obj
 0001:0004f48d       __get_sse2_info            6665048d f   LIBCMT:cpu_disp.obj
 0001:0004f4ef       ___sse2_available_init     666504ef f   LIBCMT:cpu_disp.obj
 0001:0004f4fc       __close_nolock             666504fc f   LIBCMT:close.obj
 0001:0004f598       __close                    66650598 f   LIBCMT:close.obj
 0001:0004f665       __freebuf                  66650665 f   LIBCMT:_freebuf.obj
 0001:0004f6a0       _strlen                    666506a0 f   LIBCMT:strlen.obj
 0001:0004f72b       __initp_heap_handler       6665072b f   LIBCMT:handler.obj
 0001:0004f73a       __callnewh                 6665073a f   LIBCMT:handler.obj
 0001:0004f762       __heap_init                66650762 f   LIBCMT:heapinit.obj
 0001:0004f792       __heap_term                66650792 f   LIBCMT:heapinit.obj
 0001:0004f806       ___sbh_find_block          66650806 f   LIBCMT:sbheap.obj
 0001:0004f836       ___sbh_free_block          66650836 f   LIBCMT:sbheap.obj
 0001:0004fb4c       ___sbh_alloc_new_region    66650b4c f   LIBCMT:sbheap.obj
 0001:0004fbfc       ___sbh_alloc_new_group     66650bfc f   LIBCMT:sbheap.obj
 0001:0004fd04       ___sbh_resize_block        66650d04 f   LIBCMT:sbheap.obj
 0001:0004ffe5       ___sbh_alloc_block         66650fe5 f   LIBCMT:sbheap.obj
 0001:00050351       __VEC_memcpy               66651351 f   LIBCMT:p4_memcpy.obj
 0001:00050434       __isctype_l                66651434 f   LIBCMT:isctype.obj
 0001:00050891       ___crtLCMapStringA         66651891 f   LIBCMT:a_map.obj
 0001:000508e0       ___ascii_memicmp           666518e0 f   LIBCMT:_memicmp.obj
 0001:00050939       __malloc_crt               66651939 f   LIBCMT:crtheap.obj
 0001:0005097e       __calloc_crt               6665197e f   LIBCMT:crtheap.obj
 0001:000509ca       __realloc_crt              666519ca f   LIBCMT:crtheap.obj
 0001:00050a18       __recalloc_crt             66651a18 f   LIBCMT:crtheap.obj
 0001:00050a6a       __fcloseall                66651a6a f   LIBCMT:closeall.obj
 0001:00050b09       __crt_waiting_on_module_handle 66651b09 f   LIBCMT:crt0dat.obj
 0001:00050b39       __amsg_exit                66651b39 f   LIBCMT:crt0dat.obj
 0001:00050b62       ___crtCorExitProcess       66651b62 f   LIBCMT:crt0dat.obj
 0001:00050b8d       ___crtExitProcess          66651b8d f   LIBCMT:crt0dat.obj
 0001:00050ba5       __lockexit                 66651ba5 f   LIBCMT:crt0dat.obj
 0001:00050bae       __unlockexit               66651bae f   LIBCMT:crt0dat.obj
 0001:00050bd4       __initterm_e               66651bd4 f   LIBCMT:crt0dat.obj
 0001:00050bf8       __cinit                    66651bf8 f   LIBCMT:crt0dat.obj
 0001:00050da9       __exit                     66651da9 f   LIBCMT:crt0dat.obj
 0001:00050dbf       __cexit                    66651dbf f   LIBCMT:crt0dat.obj
 0001:00050dce       __init_pointers            66651dce f   LIBCMT:crt0dat.obj
 0001:00050e1c       __forcdecpt_l              66651e1c f   LIBCMT:cvt.obj
 0001:00050e8f       __cropzeros_l              66651e8f f   LIBCMT:cvt.obj
 0001:00050f11       __positive                 66651f11 f   LIBCMT:cvt.obj
 0001:00050f2d       __fassign_l                66651f2d f   LIBCMT:cvt.obj
 0001:00050f6f       __fassign                  66651f6f f   LIBCMT:cvt.obj
 0001:00050fa8       __forcdecpt                66651fa8 f   LIBCMT:cvt.obj
 0001:00050fbb       __cropzeros                66651fbb f   LIBCMT:cvt.obj
 0001:0005113d       __cftoe_l                  6665213d f   LIBCMT:cvt.obj
 0001:0005120d       __cftoe                    6665220d f   LIBCMT:cvt.obj
 0001:0005122d       __cftoa_l                  6665222d f   LIBCMT:cvt.obj
 0001:00051697       __cftof_l                  66652697 f   LIBCMT:cvt.obj
 0001:00051752       __cftog_l                  66652752 f   LIBCMT:cvt.obj
 0001:0005184c       __cfltcvt_l                6665284c f   LIBCMT:cvt.obj
 0001:000518d4       __cfltcvt                  666528d4 f   LIBCMT:cvt.obj
 0001:000518f7       __initp_misc_cfltcvt_tab   666528f7 f   LIBCMT:cmiscdat.obj
 0001:00051918       __setdefaultprecision      66652918 f   LIBCMT:fp8.obj
 0001:00051943       __ms_p5_test_fdiv          66652943 f   LIBCMT:_testfdiv_.obj
 0001:00051981       __ms_p5_mp_test_fdiv       66652981 f   LIBCMT:_testfdiv_.obj
 0001:000519ac       __local_unwind4            666529ac f   LIBCMT:exsup4.obj
 0001:00051a82       __seh_longjmp_unwind4@4    66652a82 f   LIBCMT:exsup4.obj
 0001:00051a9e       @_EH4_CallFilterFunc@8     66652a9e f   LIBCMT:exsup4.obj
 0001:00051ab5       @_EH4_TransferToHandler@8  66652ab5 f   LIBCMT:exsup4.obj
 0001:00051ace       @_EH4_GlobalUnwind@4       66652ace f   LIBCMT:exsup4.obj
 0001:00051ae8       @_EH4_LocalUnwind@16       66652ae8 f   LIBCMT:exsup4.obj
 0001:00051b00       __ValidateImageBase        66652b00 f   LIBCMT:pesect.obj
 0001:00051b40       __FindPESection            66652b40 f   LIBCMT:pesect.obj
 0001:00051b90       __IsNonwritableInCurrentImage 66652b90 f   LIBCMT:pesect.obj
 0001:00051c4d       __NMSG_WRITE               66652c4d f   LIBCMT:crt0msg.obj
 0001:00051df8       __FF_MSGBANNER             66652df8 f   LIBCMT:crt0msg.obj
 0001:00051e31       __filbuf                   66652e31 f   LIBCMT:_filbuf.obj
 0001:00051f5c       __lseek_nolock             66652f5c f   LIBCMT:lseek.obj
 0001:00051fd1       __lseek                    66652fd1 f   LIBCMT:lseek.obj
 0001:000520ad       __read_nolock              666530ad f   LIBCMT:read.obj
 0001:0005266f       __read                     6665366f f   LIBCMT:read.obj
 0001:0005276c       _memcpy_s                  6665376c f   LIBCMT:memcpy_s.obj
 0001:000527e9       ??0exception@std@@QAE@ABQBDH@Z 666537e9 f   LIBCMT:stdexcpt.obj
 0001:00052806       ??0exception@std@@QAE@ABV01@@Z 66653806 f   LIBCMT:stdexcpt.obj
 0001:00052863       ??1exception@std@@UAE@XZ   66653863 f   LIBCMT:stdexcpt.obj
 0001:00052879       ?what@exception@std@@UBEPBDXZ 66653879 f   LIBCMT:stdexcpt.obj
 0001:00052886       ??_Eexception@std@@UAEPAXI@Z 66653886 f i LIBCMT:stdexcpt.obj
 0001:00052886       ??_Gexception@std@@UAEPAXI@Z 66653886 f i LIBCMT:stdexcpt.obj
 0001:000528a7       ??1type_info@@UAE@XZ       666538a7 f   LIBCMT:typinfo.obj
 0001:000528b7       ??_Etype_info@@UAEPAXI@Z   666538b7 f i LIBCMT:typinfo.obj
 0001:000528b7       ??_Gtype_info@@UAEPAXI@Z   666538b7 f i LIBCMT:typinfo.obj
 0001:00052992       ___onexitinit              66653992 f   LIBCMT:onexit.obj
 0001:000529c3       __onexit                   666539c3 f   LIBCMT:onexit.obj
 0001:000529ff       _atexit                    666539ff f   LIBCMT:onexit.obj
 0001:00052a16       __CxxThrowException@8      66653a16 f   LIBCMT:throw.obj
 0001:00052a62       __fullpath                 66653a62 f   LIBCMT:fullpath.obj
 0001:00052b6c       ___dtoxmode                66653b6c f   LIBCMT:stat.obj
 0001:00052c29       ___loctotime64_t           66653c29 f   LIBCMT:dtoxtm64.obj
 0001:00052e94       __getdrive                 66653e94 f   LIBCMT:drive.obj
 0001:00052f5d       __mbctolower_l             66653f5d f   LIBCMT:mbtolwr.obj
 0001:00053003       __mbctolower               66654003 f   LIBCMT:mbtolwr.obj
 0001:00053016       __mbspbrk_l                66654016 f   LIBCMT:mbspbrk.obj
 0001:000530e3       __mbspbrk                  666540e3 f   LIBCMT:mbspbrk.obj
 0001:000530fa       __openfile                 666540fa f   LIBCMT:_open.obj
 0001:000533c3       __getstream                666543c3 f   LIBCMT:stream.obj
 0001:00053500       __trandisp1                66654500 f   LIBCMT:_87disp_.obj
 0001:00053567       __trandisp2                66654567 f   LIBCMT:_87disp_.obj
 0001:000535f3       __rttospopde               666545f3     LIBCMT:_87disp_.obj
 0001:000535f8       __rttospop                 666545f8     LIBCMT:_87disp_.obj
 0001:000535fa       __rtnospop                 666545fa     LIBCMT:_87disp_.obj
 0001:000535fc       __rttosnpop                666545fc     LIBCMT:_87disp_.obj
 0001:000535fd       __rtnospopde               666545fd     LIBCMT:_87disp_.obj
 0001:00053604       __rtzeropop                66654604     LIBCMT:_87disp_.obj
 0001:00053606       __rtzeronpop               66654606     LIBCMT:_87disp_.obj
 0001:0005360b       __rtonepop                 6665460b     LIBCMT:_87disp_.obj
 0001:0005360d       __rtonenpop                6665460d     LIBCMT:_87disp_.obj
 0001:00053612       __tosnan1                  66654612     LIBCMT:_87disp_.obj
 0001:0005363d       __nosnan2                  6665463d     LIBCMT:_87disp_.obj
 0001:0005363f       __tosnan2                  6665463f     LIBCMT:_87disp_.obj
 0001:00053667       __nan2                     66654667     LIBCMT:_87disp_.obj
 0001:000536a6       __rtindfpop                666546a6     LIBCMT:_87disp_.obj
 0001:000536a8       __rtindfnpop               666546a8     LIBCMT:_87disp_.obj
 0001:000536b9       __rttosnpopde              666546b9     LIBCMT:_87disp_.obj
 0001:000536c3       __rtchsifneg               666546c3     LIBCMT:_87disp_.obj
 0001:000536d0       __startTwoArgErrorHandling 666546d0 f   LIBCMT:_genexcep_.obj
 0001:000536e7       __startOneArgErrorHandling 666546e7 f   LIBCMT:_genexcep_.obj
 0001:00053730       __twoToTOS                 66654730 f   LIBCMT:_common_.obj
 0001:00053745       __load_CW                  66654745 f   LIBCMT:_common_.obj
 0001:0005375c       __convertTOStoQNaN         6665475c f   LIBCMT:_common_.obj
 0001:00053775       __fload_withFB             66654775 f   LIBCMT:_common_.obj
 0001:000537b8       __checkTOS_withFB          666547b8 f   LIBCMT:_common_.obj
 0001:000537ce       __fast_exit                666547ce f   LIBCMT:_common_.obj
 0001:000537db       __math_exit                666547db f   LIBCMT:_common_.obj
 0001:00053805       __check_overflow_exit      66654805 f   LIBCMT:_common_.obj
 0001:00053819       __check_range_exit         66654819 f   LIBCMT:_common_.obj
 0001:000538bc       __iswctype_l               666548bc f   LIBCMT:iswctype.obj
 0001:00053946       _iswctype                  66654946 f   LIBCMT:iswctype.obj
 0001:000539c0       __aulldiv                  666549c0 f   LIBCMT:ulldiv.obj
 0001:00053a28       _strcpy_s                  66654a28 f   LIBCMT:strcpy_s.obj
 0001:00053a90       _strnlen                   66654a90 f   LIBCMT:strlen_s.obj
 0001:00053ab0       __alloca_probe_16          66654ab0 f   LIBCMT:alloca16.obj
 0001:00053ac6       __alloca_probe_8           66654ac6     LIBCMT:alloca16.obj
 0001:00053adc       __wchartodigit             66654adc f   LIBCMT:wchtodig.obj
 0001:00053cb7       __sse2_mathfcns_init       66654cb7 f   LIBCMT:_mathfcns_.obj
 0001:00053cd0       __CIsin_pentium4           66654cd0 f   LIBCMT:_sin_pentium4_.obj
 0001:00053ce8       __sin_pentium4             66654ce8     LIBCMT:_sin_pentium4_.obj
 0001:00053ea0       __CIcos_pentium4           66654ea0 f   LIBCMT:_cos_pentium4_.obj
 0001:00053eb8       __cos_pentium4             66654eb8     LIBCMT:_cos_pentium4_.obj
 0001:0005404c       __setenvp                  6665504c f   LIBCMT:stdenvp.obj
 0001:000542c4       __setargv                  666552c4 f   LIBCMT:stdargv.obj
 0001:0005437f       ___crtGetEnvironmentStringsA 6665537f f   LIBCMT:a_env.obj
 0001:000544b6       __RTC_Initialize           666554b6 f   LIBCMT:_initsect_.obj
 0001:000544dc       __RTC_Terminate            666554dc f   LIBCMT:_initsect_.obj
 0001:00054502       __XcptFilter               66655502 f   LIBCMT:winxfltr.obj
 0001:00054662       ___CppXcptFilter           66655662 f   LIBCMT:winxfltr.obj
 0001:00054682       ___security_init_cookie    66655682 f   LIBCMT:gs_support.obj
 0001:000548d2       ___crtGetStringTypeA       666558d2 f   LIBCMT:a_str.obj
 0001:00054914       ___free_lc_time            66655914 f   LIBCMT:inittime.obj
 0001:00054aa9       ___free_lconv_num          66655aa9 f   LIBCMT:initnum.obj
 0001:00054aee       ___free_lconv_mon          66655aee f   LIBCMT:initmon.obj
 0001:00054b7c       ____lc_codepage_func       66655b7c f   LIBCMT:initctyp.obj
 0001:00054ba2       _strcat_s                  66655ba2 f   LIBCMT:strcat_s.obj
 0001:00054c20       _strcspn                   66655c20 f   LIBCMT:strcspn.obj
 0001:00054c66       _strncpy_s                 66655c66 f   LIBCMT:strncpy_s.obj
 0001:00054d20       _strcmp                    66655d20 f   LIBCMT:strcmp.obj
 0001:00054da8       _strncmp                   66655da8 f   LIBCMT:strncmp.obj
 0001:00054e70       _strpbrk                   66655e70 f   LIBCMT:strpbrk.obj
 0001:00054eb0       __crt_debugger_hook        66655eb0 f   LIBCMT:dbghook.obj
 0001:00054eb8       __putwch_nolock            66655eb8 f   LIBCMT:putwch.obj
 0001:00054f7d       __mbtowc_l                 66655f7d f   LIBCMT:mbtowc.obj
 0001:00055094       _mbtowc                    66656094 f   LIBCMT:mbtowc.obj
 0001:000550ae       __isatty                   666560ae f   LIBCMT:isatty.obj
 0001:00055112       __lseeki64_nolock          66656112 f   LIBCMT:lseeki64.obj
 0001:00055197       __lseeki64                 66656197 f   LIBCMT:lseeki64.obj
 0001:000552b0       __set_osfhnd               666562b0 f   LIBCMT:osfinfo.obj
 0001:00055331       __free_osfhnd              66656331 f   LIBCMT:osfinfo.obj
 0001:000553b7       __get_osfhandle            666563b7 f   LIBCMT:osfinfo.obj
 0001:0005542e       ___lock_fhandle            6665642e f   LIBCMT:osfinfo.obj
 0001:000554ce       __unlock_fhandle           666564ce f   LIBCMT:osfinfo.obj
 0001:000554f5       __alloc_osfhnd             666564f5 f   LIBCMT:osfinfo.obj
 0001:0005568f       __initp_misc_initcrit      6665668f f   LIBCMT:initcrit.obj
 0001:0005569e       ___crtInitCritSecAndSpinCount 6665669e f   LIBCMT:initcrit.obj
 0001:000556fe       __wctomb_s_l               666566fe f   LIBCMT:wctomb.obj
 0001:0005586a       _wctomb_s                  6665686a f   LIBCMT:wctomb.obj
 0001:00055890       __aulldvrm                 66656890 f   LIBCMT:ulldvrm.obj
 0001:00055925       __getbuf                   66656925 f   LIBCMT:_getbuf.obj
 0001:0005596e       ___ansicp                  6665696e f   LIBCMT:convrtcp.obj
 0001:000559b7       ___convertcp               666569b7 f   LIBCMT:convrtcp.obj
 0001:00055b6b       __calloc_impl              66656b6b f   LIBCMT:calloc_impl.obj
 0001:00055c89       __recalloc                 66656c89 f   LIBCMT:recalloc.obj
 0001:00055d04       ?terminate@@YAXXZ          66656d04 f   LIBCMT:hooks.obj
 0001:00055d3d       __initp_eh_hooks           66656d3d f   LIBCMT:hooks.obj
 0001:00055d4e       __initp_misc_winsig        66656d4e f   LIBCMT:winsig.obj
 0001:00055da3       ___get_sigabrt             66656da3 f   LIBCMT:winsig.obj
 0001:00055db0       _raise                     66656db0 f   LIBCMT:winsig.obj
 0001:00055f60       __initp_misc_rand_s        66656f60 f   LIBCMT:rand_s.obj
 0001:00055f6f       __initp_misc_purevirt      66656f6f f   LIBCMT:inithelp.obj
 0001:00055f7e       __atodbl_l                 66656f7e f   LIBCMT:atodbl.obj
 0001:00056026       __atoflt_l                 66657026 f   LIBCMT:atodbl.obj
 0001:000560ce       __fptostr                  666570ce f   LIBCMT:_fptostr.obj
 0001:0005618d       ___dtold                   6665718d f   LIBCMT:_cfout_.obj
 0001:0005624a       __fltout2                  6665724a f   LIBCMT:_cfout_.obj
 0001:000562e0       __alldvrm                  666572e0 f   LIBCMT:lldvrm.obj
 0001:000563c0       __aullshr                  666573c0 f   LIBCMT:ullshr.obj
 0001:000563df       __fptrap                   666573df f   LIBCMT:crt0fp.obj
 0001:000563e8       __controlfp_s              666573e8 f   LIBCMT:_contrlfp_.obj
 0001:00056454       __global_unwind2           66657454 f   LIBCMT:exsup.obj
 0001:000564b9       __local_unwind2            666574b9 f   LIBCMT:exsup.obj
 0001:0005653d       __abnormal_termination     6665753d f   LIBCMT:exsup.obj
 0001:00056560       __NLG_Notify1              66657560 f   LIBCMT:exsup.obj
 0001:00056569       __NLG_Notify               66657569 f   LIBCMT:exsup.obj
 0001:00056580       __NLG_Dispatch2            66657580     LIBCMT:exsup.obj
 0001:00056580       __NLG_Dispatch             66657580     LIBCMT:exsup.obj
 0001:00056588       __NLG_Call                 66657588 f   LIBCMT:exsup.obj
 0001:0005658a       __NLG_Return2              6665758a     LIBCMT:exsup.obj
 0001:0005658b       ___crtMessageBoxA          6665758b f   LIBCMT:crtmbox.obj
 0001:000566f4       __set_error_mode           666576f4 f   LIBCMT:errmode.obj
 0001:0005673f       ?_Type_info_dtor@type_info@@CAXPAV1@@Z 6665773f f   LIBCMT:typname.obj
 0001:000567af       __msize                    666577af f   LIBCMT:msize.obj
 0001:00056852       __validdrive               66657852 f   LIBCMT:getcwd.obj
 0001:0005688b       __getdcwd_nolock           6665788b f   LIBCMT:getcwd.obj
 0001:000569c2       __getcwd                   666579c2 f   LIBCMT:getcwd.obj
 0001:00056a0b       _calloc                    66657a0b f   LIBCMT:calloc.obj
 0001:00056a4b       __mbsicmp_l                66657a4b f   LIBCMT:mbsicmp.obj
 0001:00056c71       __mbsicmp                  66657c71 f   LIBCMT:mbsicmp.obj
 0001:00056c88       __mbsrchr_l                66657c88 f   LIBCMT:mbsrchr.obj
 0001:00056d44       __mbsrchr                  66657d44 f   LIBCMT:mbsrchr.obj
 0001:00056d5b       __set_daylight             66657d5b f i LIBCMT:tzset.obj
 0001:00056d6c       __set_dstbias              66657d6c f i LIBCMT:tzset.obj
 0001:00056d7d       __set_timezone             66657d7d f i LIBCMT:tzset.obj
 0001:000574a3       ___tzset                   666584a3 f   LIBCMT:tzset.obj
 0001:000574f2       __isindst                  666584f2 f   LIBCMT:tzset.obj
 0001:00057533       __get_daylight             66658533 f   LIBCMT:timeset.obj
 0001:0005756c       __get_dstbias              6665856c f   LIBCMT:timeset.obj
 0001:000575a5       __get_timezone             666585a5 f   LIBCMT:timeset.obj
 0001:000575de       ___daylight                666585de f   LIBCMT:timeset.obj
 0001:000575e4       ___dstbias                 666585e4 f   LIBCMT:timeset.obj
 0001:000575ea       ___timezone                666585ea f   LIBCMT:timeset.obj
 0001:000575f0       ___tzname                  666585f0 f   LIBCMT:timeset.obj
 0001:00057600       __allmul                   66658600 f   LIBCMT:llmul.obj
 0001:00057d53       __sopen_helper             66658d53 f   LIBCMT:open.obj
 0001:00057e1f       __sopen_s                  66658e1f f   LIBCMT:open.obj
 0001:00057e3f       __mbsnbicmp_l              66658e3f f   LIBCMT:mbsnbicm.obj
 0001:0005806a       __mbsnbicmp                6665906a f   LIBCMT:mbsnbicm.obj
 0001:00058084       __mbsnbcmp_l               66659084 f   LIBCMT:mbsnbcmp.obj
 0001:000581ee       __mbsnbcmp                 666591ee f   LIBCMT:mbsnbcmp.obj
 0001:00058208       __87except                 66659208 f   LIBCMT:_87except_.obj
 0001:00058347       ___crtGetStringTypeW       66659347 f   LIBCMT:w_str.obj
 0001:000583d8       __ismbblead                666593d8 f   LIBCMT:ismbbyte.obj
 0001:000583f0       _atol                      666593f0 f   LIBCMT:atox.obj
 0001:00058406       __strnicmp_l               66659406 f   LIBCMT:strnicmp.obj
 0001:000584f8       __strnicmp                 666594f8 f   LIBCMT:strnicmp.obj
 0001:00058556       ___initconout              66659556 f   LIBCMT:initcon.obj
 0001:00058575       ___termcon                 66659575 f   LIBCMT:initcon.obj
 0001:000585a2       _abort                     666595a2 f   LIBCMT:abort.obj
 0001:000586b9       __ld12tod                  666596b9 f   LIBCMT:_intrncvt_.obj
 0001:00058bfd       __ld12tof                  66659bfd f   LIBCMT:_intrncvt_.obj
 0001:00059141       ___strgtold12_l            6665a141 f   LIBCMT:_strgtold_.obj
 0001:00059839       _$I10_OUTPUT               6665a839 f   LIBCMT:_x10fout_.obj
 0001:0005a28b       __control87                6665b28b f i LIBCMT:_ieee87_.obj
 0001:0005a59a       __getenv_helper_nolock     6665b59a f   LIBCMT:getenv.obj
 0001:0005a621       __chsize_nolock            6665b621 f   LIBCMT:chsize.obj
 0001:0005a7d7       __setmode_nolock           6665b7d7 f   LIBCMT:setmode.obj
 0001:0005a893       __get_fmode                6665b893 f   LIBCMT:setmode.obj
 0001:0005a8cc       __raise_exc_ex             6665b8cc f   LIBCMT:_fpexcept_.obj
 0001:0005aba8       __raise_exc                6665bba8 f   LIBCMT:_fpexcept_.obj
 0001:0005abcb       __handle_exc               6665bbcb f   LIBCMT:_fpexcept_.obj
 0001:0005adad       __set_errno_from_matherr   6665bdad f   LIBCMT:_fpexcept_.obj
 0001:0005adda       __matherr                  6665bdda f   LIBCMT:_matherr_.obj
 0001:0005addd       __statfp                   6665bddd f   LIBCMT:_fpctrl_.obj
 0001:0005aded       __clrfp                    6665bded f   LIBCMT:_fpctrl_.obj
 0001:0005adfe       __ctrlfp                   6665bdfe f   LIBCMT:_fpctrl_.obj
 0001:0005ae27       __set_statfp               6665be27 f   LIBCMT:_fpctrl_.obj
 0001:0005ae7f       ___set_fpsr_sse2           6665be7f f   LIBCMT:_fpctrl_.obj
 0001:0005af00       ___ascii_strnicmp          6665bf00 f   LIBCMT:_strnicm.obj
 0001:0005af61       ___mtold12                 6665bf61 f   LIBCMT:_mantold_.obj
 0001:0005b12f       __mbsnbicoll_l             6665c12f f   LIBCMT:mbsnbico.obj
 0001:0005b21d       __mbsnbicoll               6665c21d f   LIBCMT:mbsnbico.obj
 0001:0005b237       ___wtomb_environ           6665c237 f   LIBCMT:wtombenv.obj
 0001:0005b2ce       __set_exp                  6665c2ce f   LIBCMT:_util_.obj
 0001:0005b2fa       __decomp                   6665c2fa f   LIBCMT:_util_.obj
 0001:0005b741       ___crtCompareStringA       6665c741 f   LIBCMT:a_cmp.obj
 0001:0005b783       __strnicoll_l              6665c783 f   LIBCMT:strnicol.obj
 0001:0005b929       ___crtsetenv               6665c929 f   LIBCMT:setenv.obj
 0001:0005bb74       __strdup                   6665cb74 f   LIBCMT:strdup.obj
 0001:0005bbc9       __mbschr_l                 6665cbc9 f   LIBCMT:mbschr.obj
 0001:0005bc85       __mbschr                   6665cc85 f   LIBCMT:mbschr.obj
 0001:0005bc9c       _ImmAssociateContext@8     6665cc9c f   imm32:IMM32.dll
 0001:0005bca2       _RtlUnwind@16              6665cca2 f   kernel32:KERNEL32.dll
 0002:00000000       __imp__StretchBlt@44       6665d000     gdi32:GDI32.dll
 0002:00000004       __imp__TextOutA@20         6665d004     gdi32:GDI32.dll
 0002:00000008       \177GDI32_NULL_THUNK_DATA  6665d008     gdi32:GDI32.dll
 0002:0000000c       __imp__ImmAssociateContext@8 6665d00c     imm32:IMM32.dll
 0002:00000010       \177IMM32_NULL_THUNK_DATA  6665d010     imm32:IMM32.dll
 0002:00000014       __imp__HeapCreate@12       6665d014     kernel32:KERNEL32.dll
 0002:00000018       __imp__HeapDestroy@4       6665d018     kernel32:KERNEL32.dll
 0002:0000001c       __imp__QueryPerformanceCounter@4 6665d01c     kernel32:KERNEL32.dll
 0002:00000020       __imp__GetCommandLineA@0   6665d020     kernel32:KERNEL32.dll
 0002:00000024       __imp__GetModuleFileNameA@12 6665d024     kernel32:KERNEL32.dll
 0002:00000028       __imp__DeleteFileA@4       6665d028     kernel32:KERNEL32.dll
 0002:0000002c       __imp__DisableThreadLibraryCalls@4 6665d02c     kernel32:KERNEL32.dll
 0002:00000030       __imp__LoadLibraryA@4      6665d030     kernel32:KERNEL32.dll
 0002:00000034       __imp__GetModuleHandleA@4  6665d034     kernel32:KERNEL32.dll
 0002:00000038       __imp__VirtualProtect@16   6665d038     kernel32:KERNEL32.dll
 0002:0000003c       __imp__WriteProcessMemory@20 6665d03c     kernel32:KERNEL32.dll
 0002:00000040       __imp__GetCurrentProcess@0 6665d040     kernel32:KERNEL32.dll
 0002:00000044       __imp__GetProcAddress@8    6665d044     kernel32:KERNEL32.dll
 0002:00000048       __imp__IsBadWritePtr@8     6665d048     kernel32:KERNEL32.dll
 0002:0000004c       __imp__LCMapStringA@24     6665d04c     kernel32:KERNEL32.dll
 0002:00000050       __imp__GetProcessTimes@20  6665d050     kernel32:KERNEL32.dll
 0002:00000054       __imp__GetSystemTimeAsFileTime@4 6665d054     kernel32:KERNEL32.dll
 0002:00000058       __imp__IsBadCodePtr@4      6665d058     kernel32:KERNEL32.dll
 0002:0000005c       __imp__Sleep@4             6665d05c     kernel32:KERNEL32.dll
 0002:00000060       __imp__GetTickCount@0      6665d060     kernel32:KERNEL32.dll
 0002:00000064       __imp__GetLocalTime@4      6665d064     kernel32:KERNEL32.dll
 0002:00000068       __imp__CreateFileA@28      6665d068     kernel32:KERNEL32.dll
 0002:0000006c       __imp__WriteFile@20        6665d06c     kernel32:KERNEL32.dll
 0002:00000070       __imp__SetFilePointer@16   6665d070     kernel32:KERNEL32.dll
 0002:00000074       __imp__CloseHandle@4       6665d074     kernel32:KERNEL32.dll
 0002:00000078       __imp__GetFileSize@8       6665d078     kernel32:KERNEL32.dll
 0002:0000007c       __imp__GetCurrentProcessId@0 6665d07c     kernel32:KERNEL32.dll
 0002:00000080       __imp__WideCharToMultiByte@32 6665d080     kernel32:KERNEL32.dll
 0002:00000084       __imp__GlobalFree@4        6665d084     kernel32:KERNEL32.dll
 0002:00000088       __imp__GlobalUnlock@4      6665d088     kernel32:KERNEL32.dll
 0002:0000008c       __imp__GlobalLock@4        6665d08c     kernel32:KERNEL32.dll
 0002:00000090       __imp__GlobalAlloc@8       6665d090     kernel32:KERNEL32.dll
 0002:00000094       __imp__CreateDirectoryA@8  6665d094     kernel32:KERNEL32.dll
 0002:00000098       __imp__QueryPerformanceFrequency@4 6665d098     kernel32:KERNEL32.dll
 0002:0000009c       __imp__GetFileAttributesA@4 6665d09c     kernel32:KERNEL32.dll
 0002:000000a0       __imp__CompareStringW@24   6665d0a0     kernel32:KERNEL32.dll
 0002:000000a4       __imp__CompareStringA@24   6665d0a4     kernel32:KERNEL32.dll
 0002:000000a8       __imp__GetProcessHeap@0    6665d0a8     kernel32:KERNEL32.dll
 0002:000000ac       __imp__SetEndOfFile@4      6665d0ac     kernel32:KERNEL32.dll
 0002:000000b0       __imp__GetTimeZoneInformation@4 6665d0b0     kernel32:KERNEL32.dll
 0002:000000b4       __imp__HeapSize@12         6665d0b4     kernel32:KERNEL32.dll
 0002:000000b8       __imp__InitializeCriticalSectionAndSpinCount@8 6665d0b8     kernel32:KERNEL32.dll
 0002:000000bc       __imp__SetStdHandle@8      6665d0bc     kernel32:KERNEL32.dll
 0002:000000c0       __imp__WriteConsoleW@20    6665d0c0     kernel32:KERNEL32.dll
 0002:000000c4       __imp__GetConsoleOutputCP@0 6665d0c4     kernel32:KERNEL32.dll
 0002:000000c8       __imp__WriteConsoleA@20    6665d0c8     kernel32:KERNEL32.dll
 0002:000000cc       __imp__GetLocaleInfoA@16   6665d0cc     kernel32:KERNEL32.dll
 0002:000000d0       __imp__GetStringTypeW@16   6665d0d0     kernel32:KERNEL32.dll
 0002:000000d4       __imp__GetStringTypeA@20   6665d0d4     kernel32:KERNEL32.dll
 0002:000000d8       __imp__GetEnvironmentStringsW@0 6665d0d8     kernel32:KERNEL32.dll
 0002:000000dc       __imp__FreeEnvironmentStringsW@4 6665d0dc     kernel32:KERNEL32.dll
 0002:000000e0       __imp__GetEnvironmentStrings@0 6665d0e0     kernel32:KERNEL32.dll
 0002:000000e4       __imp__FreeEnvironmentStringsA@4 6665d0e4     kernel32:KERNEL32.dll
 0002:000000e8       __imp__GetCurrentDirectoryA@8 6665d0e8     kernel32:KERNEL32.dll
 0002:000000ec       __imp__GetFullPathNameA@16 6665d0ec     kernel32:KERNEL32.dll
 0002:000000f0       __imp__RaiseException@16   6665d0f0     kernel32:KERNEL32.dll
 0002:000000f4       __imp__MultiByteToWideChar@24 6665d0f4     kernel32:KERNEL32.dll
 0002:000000f8       __imp__IsBadReadPtr@8      6665d0f8     kernel32:KERNEL32.dll
 0002:000000fc       __imp__HeapAlloc@12        6665d0fc     kernel32:KERNEL32.dll
 0002:00000100       __imp__HeapReAlloc@16      6665d100     kernel32:KERNEL32.dll
 0002:00000104       __imp__HeapFree@12         6665d104     kernel32:KERNEL32.dll
 0002:00000108       __imp__GetLastError@0      6665d108     kernel32:KERNEL32.dll
 0002:0000010c       __imp__EnterCriticalSection@4 6665d10c     kernel32:KERNEL32.dll
 0002:00000110       __imp__LeaveCriticalSection@4 6665d110     kernel32:KERNEL32.dll
 0002:00000114       __imp__FindClose@4         6665d114     kernel32:KERNEL32.dll
 0002:00000118       __imp__FileTimeToSystemTime@8 6665d118     kernel32:KERNEL32.dll
 0002:0000011c       __imp__FileTimeToLocalFileTime@8 6665d11c     kernel32:KERNEL32.dll
 0002:00000120       __imp__GetDriveTypeA@4     6665d120     kernel32:KERNEL32.dll
 0002:00000124       __imp__FindFirstFileA@8    6665d124     kernel32:KERNEL32.dll
 0002:00000128       __imp__MoveFileA@8         6665d128     kernel32:KERNEL32.dll
 0002:0000012c       __imp__GetCurrentThreadId@0 6665d12c     kernel32:KERNEL32.dll
 0002:00000130       __imp__GetCPInfo@8         6665d130     kernel32:KERNEL32.dll
 0002:00000134       __imp__InterlockedIncrement@4 6665d134     kernel32:KERNEL32.dll
 0002:00000138       __imp__InterlockedDecrement@4 6665d138     kernel32:KERNEL32.dll
 0002:0000013c       __imp__GetACP@0            6665d13c     kernel32:KERNEL32.dll
 0002:00000140       __imp__GetOEMCP@0          6665d140     kernel32:KERNEL32.dll
 0002:00000144       __imp__IsValidCodePage@4   6665d144     kernel32:KERNEL32.dll
 0002:00000148       __imp__GetModuleHandleW@4  6665d148     kernel32:KERNEL32.dll
 0002:0000014c       __imp__TlsGetValue@4       6665d14c     kernel32:KERNEL32.dll
 0002:00000150       __imp__TlsAlloc@0          6665d150     kernel32:KERNEL32.dll
 0002:00000154       __imp__TlsSetValue@8       6665d154     kernel32:KERNEL32.dll
 0002:00000158       __imp__TlsFree@4           6665d158     kernel32:KERNEL32.dll
 0002:0000015c       __imp__SetLastError@4      6665d15c     kernel32:KERNEL32.dll
 0002:00000160       __imp__TerminateProcess@8  6665d160     kernel32:KERNEL32.dll
 0002:00000164       __imp__UnhandledExceptionFilter@4 6665d164     kernel32:KERNEL32.dll
 0002:00000168       __imp__SetUnhandledExceptionFilter@4 6665d168     kernel32:KERNEL32.dll
 0002:0000016c       __imp__IsDebuggerPresent@0 6665d16c     kernel32:KERNEL32.dll
 0002:00000170       __imp__GetConsoleCP@0      6665d170     kernel32:KERNEL32.dll
 0002:00000174       __imp__GetConsoleMode@8    6665d174     kernel32:KERNEL32.dll
 0002:00000178       __imp__FlushFileBuffers@4  6665d178     kernel32:KERNEL32.dll
 0002:0000017c       __imp__DeleteCriticalSection@4 6665d17c     kernel32:KERNEL32.dll
 0002:00000180       __imp__SetHandleCount@4    6665d180     kernel32:KERNEL32.dll
 0002:00000184       __imp__GetStdHandle@4      6665d184     kernel32:KERNEL32.dll
 0002:00000188       __imp__GetFileType@4       6665d188     kernel32:KERNEL32.dll
 0002:0000018c       __imp__GetStartupInfoA@4   6665d18c     kernel32:KERNEL32.dll
 0002:00000190       __imp__VirtualFree@12      6665d190     kernel32:KERNEL32.dll
 0002:00000194       __imp__VirtualAlloc@16     6665d194     kernel32:KERNEL32.dll
 0002:00000198       __imp__LCMapStringW@24     6665d198     kernel32:KERNEL32.dll
 0002:0000019c       __imp__ExitProcess@4       6665d19c     kernel32:KERNEL32.dll
 0002:000001a0       __imp__RtlUnwind@16        6665d1a0     kernel32:KERNEL32.dll
 0002:000001a4       __imp__ReadFile@20         6665d1a4     kernel32:KERNEL32.dll
 0002:000001a8       __imp__SetEnvironmentVariableA@8 6665d1a8     kernel32:KERNEL32.dll
 0002:000001ac       \177KERNEL32_NULL_THUNK_DATA 6665d1ac     kernel32:KERNEL32.dll
 0002:000001b0       __imp__GetWindowRect@8     6665d1b0     user32:USER32.dll
 0002:000001b4       __imp__AdjustWindowRectEx@16 6665d1b4     user32:USER32.dll
 0002:000001b8       __imp__SetWindowPos@28     6665d1b8     user32:USER32.dll
 0002:000001bc       __imp__GetClassNameA@12    6665d1bc     user32:USER32.dll
 0002:000001c0       __imp__OpenClipboard@4     6665d1c0     user32:USER32.dll
 0002:000001c4       __imp__EmptyClipboard@0    6665d1c4     user32:USER32.dll
 0002:000001c8       __imp__SetClipboardData@8  6665d1c8     user32:USER32.dll
 0002:000001cc       __imp__CloseClipboard@0    6665d1cc     user32:USER32.dll
 0002:000001d0       __imp__GetDC@4             6665d1d0     user32:USER32.dll
 0002:000001d4       __imp__ReleaseDC@8         6665d1d4     user32:USER32.dll
 0002:000001d8       __imp__SetCursorPos@8      6665d1d8     user32:USER32.dll
 0002:000001dc       __imp__GetKeyState@4       6665d1dc     user32:USER32.dll
 0002:000001e0       __imp__PostMessageA@16     6665d1e0     user32:USER32.dll
 0002:000001e4       __imp__SetWindowTextA@8    6665d1e4     user32:USER32.dll
 0002:000001e8       __imp__SetForegroundWindow@4 6665d1e8     user32:USER32.dll
 0002:000001ec       __imp__GetWindowLongA@8    6665d1ec     user32:USER32.dll
 0002:000001f0       __imp__SetWindowLongA@12   6665d1f0     user32:USER32.dll
 0002:000001f4       __imp__ShowWindow@8        6665d1f4     user32:USER32.dll
 0002:000001f8       __imp__GetWindowPlacement@8 6665d1f8     user32:USER32.dll
 0002:000001fc       __imp__GetClipCursor@4     6665d1fc     user32:USER32.dll
 0002:00000200       __imp__GetClientRect@8     6665d200     user32:USER32.dll
 0002:00000204       __imp__ClientToScreen@8    6665d204     user32:USER32.dll
 0002:00000208       __imp__ClipCursor@4        6665d208     user32:USER32.dll
 0002:0000020c       __imp__GetDesktopWindow@0  6665d20c     user32:USER32.dll
 0002:00000210       __imp__GetWindowInfo@8     6665d210     user32:USER32.dll
 0002:00000214       __imp__SendMessageA@16     6665d214     user32:USER32.dll
 0002:00000218       __imp__wvsprintfW@12       6665d218     user32:USER32.dll
 0002:0000021c       __imp__wvsprintfA@12       6665d21c     user32:USER32.dll
 0002:00000220       __imp__MessageBoxA@16      6665d220     user32:USER32.dll
 0002:00000224       __imp__wsprintfW           6665d224     user32:USER32.dll
 0002:00000228       \177USER32_NULL_THUNK_DATA 6665d228     user32:USER32.dll
 0002:0000022c       ___xc_a                    6665d22c     LIBCMT:crt0init.obj
 0002:00000230       ___xc_z                    6665d230     LIBCMT:crt0init.obj
 0002:00000234       ___xi_a                    6665d234     LIBCMT:crt0init.obj
 0002:0000024c       ___xi_z                    6665d24c     LIBCMT:crt0init.obj
 0002:00000250       ___xp_a                    6665d250     LIBCMT:crt0init.obj
 0002:0000025c       ___xp_z                    6665d25c     LIBCMT:crt0init.obj
 0002:00000260       ___xt_a                    6665d260     LIBCMT:crt0init.obj
 0002:00000264       ___xt_z                    6665d264     LIBCMT:crt0init.obj
 0002:00000f28       __real@408f400000000000    6665df28     config.obj
 0002:00001178       __real@4014000000000000    6665e178     guess.obj
 0002:00001180       __real@4052c00000000000    6665e180     guess.obj
 0002:00001188       __real@4039000000000000    6665e188     guess.obj
 0002:00001190       __real@3fe0000000000000    6665e190     guess.obj
 0002:00001198       __real@4008000000000000    6665e198     guess.obj
 0002:000011a0       __real@4040000000000000    6665e1a0     guess.obj
 0002:000011a8       __real@4059000000000000    6665e1a8     guess.obj
 0002:000011b0       __real@4010000000000000    6665e1b0     guess.obj
 0002:00003db0       __real@4022000000000000    66660db0     common.obj
 0002:00003db8       __real@4070000000000000    66660db8     common.obj
 0002:00003dc0       __real@3fd999999999999a    66660dc0     common.obj
 0002:00006aa8       __real@4024000000000000    66663aa8     env.obj
 0002:00008018       __real@3ff8000000000000    66665018     item.obj
 0002:00008908       __real@4028000000000000    66665908     dangerous.obj
 0002:00008910       __real@4020000000000000    66665910     dangerous.obj
 0002:0000b904       __real@41200000            66668904     skill.obj
 0002:0000b908       __real@41e80000            66668908     skill.obj
 0002:0000b90c       __real@41d00000            6666890c     skill.obj
 0002:0000b910       __real@41c00000            66668910     skill.obj
 0002:0000b914       __real@41f00000            66668914     skill.obj
 0002:0000b918       __real@41f80000            66668918     skill.obj
 0002:0000b91c       __real@41000000            6666891c     skill.obj
 0002:0000b920       __real@41a00000            66668920     skill.obj
 0002:0000b924       __real@41980000            66668924     skill.obj
 0002:0000b928       __real@40a00000            66668928     skill.obj
 0002:0000b930       __real@0000000000000000    66668930     skill.obj
 0002:0000b938       __real@42040000            66668938     skill.obj
 0002:0000cef8       __real@40c3880000000000    66669ef8     Snapshot.obj
 0002:0000cf00       __real@40a0000000000000    66669f00     Snapshot.obj
 0002:0000d240       __real@401c000000000000    6666a240     teleport.obj
 0002:0000d248       __real@412e848000000000    6666a248     teleport.obj
 0002:0000e730       __real@40f0000000000000    6666b730     uber.obj
 0002:0000e738       __real@401921fb3fa6defc    6666b738     uber.obj
 0002:0000e760       __FPinit                   6666b760     LIBCMT:_fpinit_.obj
 0002:0000e764       __FPmtinit                 6666b764     LIBCMT:_fpinit_.obj
 0002:0000e768       __FPmtterm                 6666b768     LIBCMT:_fpinit_.obj
 0002:0000e76c       ??_C@_0P@GHFPNOJB@bad?5allocation?$AA@ 6666b76c     LIBCMT:new.obj
 0002:0000e780       ??_7bad_alloc@std@@6B@     6666b780     LIBCMT:new.obj
 0002:0000e788       ??_C@_03LLEJOLGL@?4?1?2?$AA@ 6666b788     LIBCMT:stati32.obj
 0002:0000e78c       ??_C@_02EAOCEIGI@?$DP?$CK?$AA@ 6666b78c     LIBCMT:stati32.obj
 0002:0000e790       __pDefaultRawDllMain       6666b790     LIBCMT:dllcrt0.obj
 0002:0000e790       __pRawDllMain              6666b790     LIBCMT:dllcrt0.obj
 0002:0000e818       ??_C@_01NEMOKFLO@?$DN?$AA@ 6666b818     LIBCMT:setlocal.obj
 0002:0000e81a       ??_C@_00CNPNBAHC@?$AA@     6666b81a     LIBCMT:setlocal.obj
 0002:0000e81c       ??_C@_0O@NLDKAIKN@EncodePointer?$AA@ 6666b81c     LIBCMT:tidtable.obj
 0002:0000e82c       ??_C@_1BK@DBDEIDLH@?$AAK?$AAE?$AAR?$AAN?$AAE?$AAL?$AA3?$AA2?$AA?4?$AAD?$AAL?$AAL?$AA?$AA@ 6666b82c     LIBCMT:tidtable.obj
 0002:0000e848       ??_C@_0O@KBPMFGHI@DecodePointer?$AA@ 6666b848     LIBCMT:tidtable.obj
 0002:0000e858       ??_C@_07PEJMOBNF@FlsFree?$AA@ 6666b858     LIBCMT:tidtable.obj
 0002:0000e860       ??_C@_0M@JCPCPOEF@FlsSetValue?$AA@ 6666b860     LIBCMT:tidtable.obj
 0002:0000e86c       ??_C@_0M@GDNOONDI@FlsGetValue?$AA@ 6666b86c     LIBCMT:tidtable.obj
 0002:0000e878       ??_C@_08KNHFBNJ@FlsAlloc?$AA@ 6666b878     LIBCMT:tidtable.obj
 0002:0000e884       ??_C@_1O@CEDCILHN@?$AA?$CI?$AAn?$AAu?$AAl?$AAl?$AA?$CJ?$AA?$AA@ 6666b884     LIBCMT:output.obj
 0002:0000e894       ??_C@_06OJHGLDPL@?$CInull?$CJ?$AA@ 6666b894     LIBCMT:output.obj
 0002:0000e8a0       ___lookuptable             6666b8a0     LIBCMT:output.obj
 0002:0000e904       ??_C@_13NOLLCAOD@?$AA?$AA?$AA?$AA@ 6666b904     LIBCMT:a_map.obj
 0002:0000e908       ??_C@_0P@MIGLKIOC@CorExitProcess?$AA@ 6666b908     LIBCMT:crt0dat.obj
 0002:0000e918       ??_C@_1BI@BGOHAHKC@?$AAm?$AAs?$AAc?$AAo?$AAr?$AAe?$AAe?$AA?4?$AAd?$AAl?$AAl?$AA?$AA@ 6666b918     LIBCMT:crt0dat.obj
 0002:0000e930       ??_C@_05KLBDPFGC@e?$CL000?$AA@ 6666b930     LIBCMT:cvt.obj
 0002:0000e938       __real@4150017ec0000000    6666b938     LIBCMT:_testfdiv_.obj
 0002:0000e940       __real@4147ffff80000000    6666b940     LIBCMT:_testfdiv_.obj
 0002:0000e948       ??_C@_0BK@NHEOCAHP@IsProcessorFeaturePresent?$AA@ 6666b948     LIBCMT:_testfdiv_.obj
 0002:0000e964       ??_C@_08CPNIBGIE@KERNEL32?$AA@ 6666b964     LIBCMT:_testfdiv_.obj
 0002:0000e970       ??_C@_0P@GGKDKEEG@runtime?5error?5?$AA@ 6666b970     LIBCMT:crt0msg.obj
 0002:0000e980       ??_C@_02PCIJFNDE@?$AN?6?$AA@ 6666b980     LIBCMT:crt0msg.obj
 0002:0000e984       ??_C@_0O@MJNIPGOH@TLOSS?5error?$AN?6?$AA@ 6666b984     LIBCMT:crt0msg.obj
 0002:0000e994       ??_C@_0N@BONNPDHF@SING?5error?$AN?6?$AA@ 6666b994     LIBCMT:crt0msg.obj
 0002:0000e9a4       ??_C@_0P@MBDAJNE@DOMAIN?5error?$AN?6?$AA@ 6666b9a4     LIBCMT:crt0msg.obj
 0002:0000e9b8       ??_C@_0JL@DFDOOABL@R6034?$AN?6An?5application?5has?5made?5a@ 6666b9b8     LIBCMT:crt0msg.obj
 0002:0000ea58       ??_C@_0PH@EPAFIJ@R6033?$AN?6?9?5Attempt?5to?5use?5MSIL?5cod@ 6666ba58     LIBCMT:crt0msg.obj
 0002:0000eb50       ??_C@_0DD@BKEEABMM@R6032?$AN?6?9?5not?5enough?5space?5for?5lo@ 6666bb50     LIBCMT:crt0msg.obj
 0002:0000eb88       ??_C@_0GD@OFKILIED@R6031?$AN?6?9?5Attempt?5to?5initialize?5t@ 6666bb88     LIBCMT:crt0msg.obj
 0002:0000ebec       ??_C@_0BP@LPMHJOKI@R6030?$AN?6?9?5CRT?5not?5initialized?$AN?6?$AA@ 6666bbec     LIBCMT:crt0msg.obj
 0002:0000ec0c       ??_C@_0CF@KJDAIALP@R6028?$AN?6?9?5unable?5to?5initialize?5he@ 6666bc0c     LIBCMT:crt0msg.obj
 0002:0000ec34       ??_C@_0DF@GAKBPDFP@R6027?$AN?6?9?5not?5enough?5space?5for?5lo@ 6666bc34     LIBCMT:crt0msg.obj
 0002:0000ec6c       ??_C@_0DF@IBLNNAIG@R6026?$AN?6?9?5not?5enough?5space?5for?5st@ 6666bc6c     LIBCMT:crt0msg.obj
 0002:0000eca4       ??_C@_0CG@IOHKGFNJ@R6025?$AN?6?9?5pure?5virtual?5function?5c@ 6666bca4     LIBCMT:crt0msg.obj
 0002:0000eccc       ??_C@_0DF@JIJJFJDC@R6024?$AN?6?9?5not?5enough?5space?5for?5_o@ 6666bccc     LIBCMT:crt0msg.obj
 0002:0000ed04       ??_C@_0CJ@EGEJHFME@R6019?$AN?6?9?5unable?5to?5open?5console?5@ 6666bd04     LIBCMT:crt0msg.obj
 0002:0000ed30       ??_C@_0CB@GNHNIELH@R6018?$AN?6?9?5unexpected?5heap?5error?$AN?6@ 6666bd30     LIBCMT:crt0msg.obj
 0002:0000ed54       ??_C@_0CN@FOLDKNG@R6017?$AN?6?9?5unexpected?5multithread?5@ 6666bd54     LIBCMT:crt0msg.obj
 0002:0000ed84       ??_C@_0CM@FAHFJNHO@R6016?$AN?6?9?5not?5enough?5space?5for?5th@ 6666bd84     LIBCMT:crt0msg.obj
 0002:0000edb0       ??_C@_0JG@LBKMGKLD@?$AN?6This?5application?5has?5requested@ 6666bdb0     LIBCMT:crt0msg.obj
 0002:0000ee48       ??_C@_0CM@FLCNIPKK@R6009?$AN?6?9?5not?5enough?5space?5for?5en@ 6666be48     LIBCMT:crt0msg.obj
 0002:0000ee74       ??_C@_0CK@KMMJOAPP@R6008?$AN?6?9?5not?5enough?5space?5for?5ar@ 6666be74     LIBCMT:crt0msg.obj
 0002:0000eea0       ??_C@_0CN@LEKKICBM@R6002?$AN?6?9?5floating?5point?5support?5@ 6666bea0     LIBCMT:crt0msg.obj
 0002:0000eed0       ??_C@_0CF@GOGNBNAK@Microsoft?5Visual?5C?$CL?$CL?5Runtime?5Lib@ 6666bed0     LIBCMT:crt0msg.obj
 0002:0000eef8       ??_C@_02PHMGELLB@?6?6?$AA@ 6666bef8     LIBCMT:crt0msg.obj
 0002:0000eefc       ??_C@_03KHICJKCI@?4?4?4?$AA@ 6666befc     LIBCMT:crt0msg.obj
 0002:0000ef00       ??_C@_0BH@DNAGHKFM@?$DMprogram?5name?5unknown?$DO?$AA@ 6666bf00     LIBCMT:crt0msg.obj
 0002:0000ef18       ??_C@_0BK@OFGJDLJJ@Runtime?5Error?$CB?6?6Program?3?5?$AA@ 6666bf18     LIBCMT:crt0msg.obj
 0002:0000ef38       ??_7exception@std@@6B@     6666bf38     LIBCMT:stdexcpt.obj
 0002:0000ef40       ??_C@_0BC@EOODALEL@Unknown?5exception?$AA@ 6666bf40     LIBCMT:stdexcpt.obj
 0002:0000ef58       ??_7type_info@@6B@         6666bf58     LIBCMT:typinfo.obj
 0002:0000ef7c       ??_C@_04PNGHFIJN@?4com?$AA@ 6666bf7c     LIBCMT:stat.obj
 0002:0000ef84       ??_C@_04NEEFLLOK@?4bat?$AA@ 6666bf84     LIBCMT:stat.obj
 0002:0000ef8c       ??_C@_04CPCBDHLK@?4cmd?$AA@ 6666bf8c     LIBCMT:stat.obj
 0002:0000ef94       ??_C@_04JLMDILM@?4exe?$AA@ 6666bf94     LIBCMT:stat.obj
 0002:0000efc8       __DEFAULT_CW_in_mem        6666bfc8     LIBCMT:_common_.obj
 0002:0000efca       __pi_by_2_to_61            6666bfca     LIBCMT:_common_.obj
 0002:00010160       __XcptActTab               6666d160     LIBCMT:winxfltr.obj
 0002:000101d8       ___newctype                6666d1d8     LIBCMT:ctype.obj
 0002:000104d8       __wctype                   6666d4d8     LIBCMT:ctype.obj
 0002:000106e0       ___newclmap                6666d6e0     LIBCMT:ctype.obj
 0002:00010860       ___newcumap                6666d860     LIBCMT:ctype.obj
 0002:000109e0       ??_C@_08JCCMCCIL@HH?3mm?3ss?$AA@ 6666d9e0     LIBCMT:strftime.obj
 0002:000109ec       ??_C@_0BE@CKGJFCPC@dddd?0?5MMMM?5dd?0?5yyyy?$AA@ 6666d9ec     LIBCMT:strftime.obj
 0002:00010a00       ??_C@_08BPBNCDIB@MM?1dd?1yy?$AA@ 6666da00     LIBCMT:strftime.obj
 0002:00010a0c       ??_C@_02CJNFDJBF@PM?$AA@   6666da0c     LIBCMT:strftime.obj
 0002:00010a10       ??_C@_02DEDBPAFC@AM?$AA@   6666da10     LIBCMT:strftime.obj
 0002:00010a14       ??_C@_08EDHMEBNP@December?$AA@ 6666da14     LIBCMT:strftime.obj
 0002:00010a20       ??_C@_08HCHEGEOA@November?$AA@ 6666da20     LIBCMT:strftime.obj
 0002:00010a2c       ??_C@_07JJNFCEND@October?$AA@ 6666da2c     LIBCMT:strftime.obj
 0002:00010a34       ??_C@_09BHHEALKD@September?$AA@ 6666da34     LIBCMT:strftime.obj
 0002:00010a40       ??_C@_06LBBHFDDG@August?$AA@ 6666da40     LIBCMT:strftime.obj
 0002:00010a48       ??_C@_04MIEPOIFP@July?$AA@ 6666da48     LIBCMT:strftime.obj
 0002:00010a50       ??_C@_04CNLMGBGM@June?$AA@ 6666da50     LIBCMT:strftime.obj
 0002:00010a58       ??_C@_05DMJDNLEJ@April?$AA@ 6666da58     LIBCMT:strftime.obj
 0002:00010a60       ??_C@_05HPCKOFNC@March?$AA@ 6666da60     LIBCMT:strftime.obj
 0002:00010a68       ??_C@_08GNJGEPFN@February?$AA@ 6666da68     LIBCMT:strftime.obj
 0002:00010a74       ??_C@_07CGJPFGJA@January?$AA@ 6666da74     LIBCMT:strftime.obj
 0002:00010a7c       ??_C@_03MKABNOCG@Dec?$AA@  6666da7c     LIBCMT:strftime.obj
 0002:00010a80       ??_C@_03JPJOFNIA@Nov?$AA@  6666da80     LIBCMT:strftime.obj
 0002:00010a84       ??_C@_03BMAOKBAD@Oct?$AA@  6666da84     LIBCMT:strftime.obj
 0002:00010a88       ??_C@_03GGCAPAJC@Sep?$AA@  6666da88     LIBCMT:strftime.obj
 0002:00010a8c       ??_C@_03IFJFEIGA@Aug?$AA@  6666da8c     LIBCMT:strftime.obj
 0002:00010a90       ??_C@_03LBGABGKK@Jul?$AA@  6666da90     LIBCMT:strftime.obj
 0002:00010a94       ??_C@_03IDFGHECI@Jun?$AA@  6666da94     LIBCMT:strftime.obj
 0002:00010a98       ??_C@_03CNMDKL@May?$AA@    6666da98     LIBCMT:strftime.obj
 0002:00010a9c       ??_C@_03LEOLGMJP@Apr?$AA@  6666da9c     LIBCMT:strftime.obj
 0002:00010aa0       ??_C@_03ODNJBKGA@Mar?$AA@  6666daa0     LIBCMT:strftime.obj
 0002:00010aa4       ??_C@_03HJBDCHOM@Feb?$AA@  6666daa4     LIBCMT:strftime.obj
 0002:00010aa8       ??_C@_03JIHJHPIE@Jan?$AA@  6666daa8     LIBCMT:strftime.obj
 0002:00010aac       ??_C@_08INBOOONO@Saturday?$AA@ 6666daac     LIBCMT:strftime.obj
 0002:00010ab8       ??_C@_06JECMNKMI@Friday?$AA@ 6666dab8     LIBCMT:strftime.obj
 0002:00010ac0       ??_C@_08HACCIKIA@Thursday?$AA@ 6666dac0     LIBCMT:strftime.obj
 0002:00010acc       ??_C@_09DLIGFAKA@Wednesday?$AA@ 6666dacc     LIBCMT:strftime.obj
 0002:00010ad8       ??_C@_07BAAGCFCM@Tuesday?$AA@ 6666dad8     LIBCMT:strftime.obj
 0002:00010ae0       ??_C@_06JLEDEDGH@Monday?$AA@ 6666dae0     LIBCMT:strftime.obj
 0002:00010ae8       ??_C@_06OOPIFAJ@Sunday?$AA@ 6666dae8     LIBCMT:strftime.obj
 0002:00010af0       ??_C@_03FEFJNEK@Sat?$AA@   6666daf0     LIBCMT:strftime.obj
 0002:00010af4       ??_C@_03IDIOELNC@Fri?$AA@  6666daf4     LIBCMT:strftime.obj
 0002:00010af8       ??_C@_03IOFIKPDN@Thu?$AA@  6666daf8     LIBCMT:strftime.obj
 0002:00010afc       ??_C@_03MHOMLAJA@Wed?$AA@  6666dafc     LIBCMT:strftime.obj
 0002:00010b00       ??_C@_03NAGEINEP@Tue?$AA@  6666db00     LIBCMT:strftime.obj
 0002:00010b04       ??_C@_03PDAGKDH@Mon?$AA@   6666db04     LIBCMT:strftime.obj
 0002:00010b08       ??_C@_03KOEHGMDN@Sun?$AA@  6666db08     LIBCMT:strftime.obj
 0002:00010b10       ___lookuptable_s           6666db10     LIBCMT:outputs.obj
 0002:00010b6c       ??_C@_0BI@DFKBFLJE@GetProcessWindowStation?$AA@ 6666db6c     LIBCMT:crtmbox.obj
 0002:00010b84       ??_C@_0BK@CIDNPOGP@GetUserObjectInformationA?$AA@ 6666db84     LIBCMT:crtmbox.obj
 0002:00010ba0       ??_C@_0BD@HHGDFDBJ@GetLastActivePopup?$AA@ 6666dba0     LIBCMT:crtmbox.obj
 0002:00010bb4       ??_C@_0BA@HNOPNCHB@GetActiveWindow?$AA@ 6666dbb4     LIBCMT:crtmbox.obj
 0002:00010bc4       ??_C@_0M@CHKKJDAI@MessageBoxA?$AA@ 6666dbc4     LIBCMT:crtmbox.obj
 0002:00010bd0       ??_C@_0L@NDEGIDAG@USER32?4DLL?$AA@ 6666dbd0     LIBCMT:crtmbox.obj
 0002:00010bdc       ??_C@_02CLFPBFFP@TZ?$AA@   6666dbdc     LIBCMT:tzset.obj
 0002:00010be0       ___dnames                  6666dbe0     LIBCMT:timeset.obj
 0002:00010bf8       ___mnames                  6666dbf8     LIBCMT:timeset.obj
 0002:00010c20       ??_C@_07GPDNMNG@CONOUT$?$AA@ 6666dc20     LIBCMT:initcon.obj
 0002:00010c28       ??_C@_06IMKFLFPG@1?$CDQNAN?$AA@ 6666dc28     LIBCMT:_x10fout_.obj
 0002:00010c30       ??_C@_05DNEBIAHO@1?$CDINF?$AA@ 6666dc30     LIBCMT:_x10fout_.obj
 0002:00010c38       ??_C@_05PHHOCPM@1?$CDIND?$AA@ 6666dc38     LIBCMT:_x10fout_.obj
 0002:00010c40       ??_C@_06PGGFOGJG@1?$CDSNAN?$AA@ 6666dc40     LIBCMT:_x10fout_.obj
 0002:00010c48       ??_C@_0BK@CFCOFLF@?5Complete?5Object?5Locator?8?$AA@ 6666dc48     LIBCMT:undname.obj
 0002:00010c64       ??_C@_0BN@MECKDCOJ@?5Class?5Hierarchy?5Descriptor?8?$AA@ 6666dc64     LIBCMT:undname.obj
 0002:00010c84       ??_C@_0BD@LGICGFMM@?5Base?5Class?5Array?8?$AA@ 6666dc84     LIBCMT:undname.obj
 0002:00010c98       ??_C@_0BM@LDKODKLH@?5Base?5Class?5Descriptor?5at?5?$CI?$AA@ 6666dc98     LIBCMT:undname.obj
 0002:00010cb4       ??_C@_0BC@DAFEJGAK@?5Type?5Descriptor?8?$AA@ 6666dcb4     LIBCMT:undname.obj
 0002:00010cc8       ??_C@_0BM@PMGGMLDN@?$GAlocal?5static?5thread?5guard?8?$AA@ 6666dcc8     LIBCMT:undname.obj
 0002:00010ce4       ??_C@_0CL@FGIJHLCE@?$GAmanaged?5vector?5copy?5constructor@ 6666dce4     LIBCMT:undname.obj
 0002:00010d10       ??_C@_0CJ@GJELGAMM@?$GAvector?5vbase?5copy?5constructor?5i@ 6666dd10     LIBCMT:undname.obj
 0002:00010d3c       ??_C@_0CD@CGAJBKEJ@?$GAvector?5copy?5constructor?5iterato@ 6666dd3c     LIBCMT:undname.obj
 0002:00010d60       ??_C@_0CB@PDBIFEP@?$GAdynamic?5atexit?5destructor?5for?5?8@ 6666dd60     LIBCMT:undname.obj
 0002:00010d84       ??_C@_0BL@CLIPGLGB@?$GAdynamic?5initializer?5for?5?8?$AA@ 6666dd84     LIBCMT:undname.obj
 0002:00010da0       ??_C@_0CM@FCBBDIGB@?$GAeh?5vector?5vbase?5copy?5constructo@ 6666dda0     LIBCMT:undname.obj
 0002:00010dcc       ??_C@_0CG@HLDDJMAG@?$GAeh?5vector?5copy?5constructor?5iter@ 6666ddcc     LIBCMT:undname.obj
 0002:00010df4       ??_C@_0CF@IMGKMJNO@?$GAmanaged?5vector?5destructor?5itera@ 6666ddf4     LIBCMT:undname.obj
 0002:00010e1c       ??_C@_0CG@CFDHKGGD@?$GAmanaged?5vector?5constructor?5iter@ 6666de1c     LIBCMT:undname.obj
 0002:00010e44       ??_C@_0BN@CKNJLHMB@?$GAplacement?5delete?$FL?$FN?5closure?8?$AA@ 6666de44     LIBCMT:undname.obj
 0002:00010e64       ??_C@_0BL@CNOONJFP@?$GAplacement?5delete?5closure?8?$AA@ 6666de64     LIBCMT:undname.obj
 0002:00010e80       ??_C@_0P@HJKNJFNN@?$GAomni?5callsig?8?$AA@ 6666de80     LIBCMT:undname.obj
 0002:00010e90       ??_C@_09LBNFPBCA@?5delete?$FL?$FN?$AA@ 6666de90     LIBCMT:undname.obj
 0002:00010e9c       ??_C@_06FHBGPFGH@?5new?$FL?$FN?$AA@ 6666de9c     LIBCMT:undname.obj
 0002:00010ea4       ??_C@_0CE@IIHCMGGL@?$GAlocal?5vftable?5constructor?5closu@ 6666dea4     LIBCMT:undname.obj
 0002:00010ec8       ??_C@_0BA@KKLDJDLB@?$GAlocal?5vftable?8?$AA@ 6666dec8     LIBCMT:undname.obj
 0002:00010ed8       ??_C@_05KHLCHHI@?$GARTTI?$AA@ 6666ded8     LIBCMT:undname.obj
 0002:00010ee0       ??_C@_03KLGMFNMG@?$GAEH?$AA@ 6666dee0     LIBCMT:undname.obj
 0002:00010ee4       ??_C@_0BA@KBCDOMBN@?$GAudt?5returning?8?$AA@ 6666dee4     LIBCMT:undname.obj
 0002:00010ef4       ??_C@_0BL@LLKPOHJI@?$GAcopy?5constructor?5closure?8?$AA@ 6666def4     LIBCMT:undname.obj
 0002:00010f10       ??_C@_0CH@OOJPLCPH@?$GAeh?5vector?5vbase?5constructor?5ite@ 6666df10     LIBCMT:undname.obj
 0002:00010f38       ??_C@_0CA@GCEOPDGL@?$GAeh?5vector?5destructor?5iterator?8?$AA@ 6666df38     LIBCMT:undname.obj
 0002:00010f58       ??_C@_0CB@JONCMFFK@?$GAeh?5vector?5constructor?5iterator?8@ 6666df58     LIBCMT:undname.obj
 0002:00010f7c       ??_C@_0BL@NILFHHPC@?$GAvirtual?5displacement?5map?8?$AA@ 6666df7c     LIBCMT:undname.obj
 0002:00010f98       ??_C@_0CE@IKBNEHA@?$GAvector?5vbase?5constructor?5iterat@ 6666df98     LIBCMT:undname.obj
 0002:00010fbc       ??_C@_0BN@LFPFMEDL@?$GAvector?5destructor?5iterator?8?$AA@ 6666dfbc     LIBCMT:undname.obj
 0002:00010fdc       ??_C@_0BO@PFGOCPJJ@?$GAvector?5constructor?5iterator?8?$AA@ 6666dfdc     LIBCMT:undname.obj
 0002:00010ffc       ??_C@_0BN@IMDCHIKM@?$GAscalar?5deleting?5destructor?8?$AA@ 6666dffc     LIBCMT:undname.obj
 0002:0001101c       ??_C@_0BO@OBMKPJIG@?$GAdefault?5constructor?5closure?8?$AA@ 6666e01c     LIBCMT:undname.obj
 0002:0001103c       ??_C@_0BN@DEGPLNFK@?$GAvector?5deleting?5destructor?8?$AA@ 6666e03c     LIBCMT:undname.obj
 0002:0001105c       ??_C@_0BD@JDLKDPAB@?$GAvbase?5destructor?8?$AA@ 6666e05c     LIBCMT:undname.obj
 0002:00011070       ??_C@_08OBABFOLI@?$GAstring?8?$AA@ 6666e070     LIBCMT:undname.obj
 0002:0001107c       ??_C@_0BF@KDPPACIK@?$GAlocal?5static?5guard?8?$AA@ 6666e07c     LIBCMT:undname.obj
 0002:00011094       ??_C@_08LLFFHHDJ@?$GAtypeof?8?$AA@ 6666e094     LIBCMT:undname.obj
 0002:000110a0       ??_C@_07FEEIOKP@?$GAvcall?8?$AA@ 6666e0a0     LIBCMT:undname.obj
 0002:000110a8       ??_C@_09BLBHBJP@?$GAvbtable?8?$AA@ 6666e0a8     LIBCMT:undname.obj
 0002:000110b4       ??_C@_09IFPLHPGF@?$GAvftable?8?$AA@ 6666e0b4     LIBCMT:undname.obj
 0002:000110c0       ??_C@_02MHEGNOJ@?$FO?$DN?$AA@ 6666e0c0     LIBCMT:undname.obj
 0002:000110c4       ??_C@_02DHLNPPGH@?$HM?$DN?$AA@ 6666e0c4     LIBCMT:undname.obj
 0002:000110c8       ??_C@_02FGJGFEAB@?$CG?$DN?$AA@ 6666e0c8     LIBCMT:undname.obj
 0002:000110cc       ??_C@_03CDNPDDLA@?$DM?$DM?$DN?$AA@ 6666e0cc     LIBCMT:undname.obj
 0002:000110d0       ??_C@_03IKFCCPFF@?$DO?$DO?$DN?$AA@ 6666e0d0     LIBCMT:undname.obj
 0002:000110d4       ??_C@_02FENAOKFI@?$CF?$DN?$AA@ 6666e0d4     LIBCMT:undname.obj
 0002:000110d8       ??_C@_02FJEHGPIO@?1?$DN?$AA@ 6666e0d8     LIBCMT:undname.obj
 0002:000110dc       ??_C@_02FKMDLLOA@?9?$DN?$AA@ 6666e0dc     LIBCMT:undname.obj
 0002:000110e0       ??_C@_02FOEOMHFC@?$CL?$DN?$AA@ 6666e0e0     LIBCMT:undname.obj
 0002:000110e4       ??_C@_02FPIMKNGF@?$CK?$DN?$AA@ 6666e0e4     LIBCMT:undname.obj
 0002:000110e8       ??_C@_02NONPIBCD@?$HM?$HM?$AA@ 6666e0e8     LIBCMT:undname.obj
 0002:000110ec       ??_C@_02PPKAJPJL@?$CG?$CG?$AA@ 6666e0ec     LIBCMT:undname.obj
 0002:000110f0       ??_C@_01DNKMNLPK@?$HM?$AA@ 6666e0f0     LIBCMT:undname.obj
 0002:000110f4       ??_C@_01JKBOJNNK@?$FO?$AA@ 6666e0f4     LIBCMT:undname.obj
 0002:000110f8       ??_C@_01PJKLJHI@?$HO?$AA@  6666e0f8     LIBCMT:undname.obj
 0002:000110fc       ??_C@_02HCKGKOFO@?$CI?$CJ?$AA@ 6666e0fc     LIBCMT:undname.obj
 0002:00011100       ??_C@_01IHBHIGKO@?0?$AA@   6666e100     LIBCMT:undname.obj
 0002:00011104       ??_C@_02EEKDKGMJ@?$DO?$DN?$AA@ 6666e104     LIBCMT:undname.obj
 0002:00011108       ??_C@_01PPODPGHN@?$DO?$AA@ 6666e108     LIBCMT:undname.obj
 0002:0001110c       ??_C@_02EHCHHCKH@?$DM?$DN?$AA@ 6666e10c     LIBCMT:undname.obj
 0002:00011110       ??_C@_01MNNFJEPP@?$DM?$AA@ 6666e110     LIBCMT:undname.obj
 0002:00011114       ??_C@_01FGNFDNOH@?$CF?$AA@ 6666e114     LIBCMT:undname.obj
 0002:00011118       ??_C@_01KMDKNFGN@?1?$AA@   6666e118     LIBCMT:undname.obj
 0002:0001111c       ??_C@_03MNHNFDLC@?9?$DO?$CK?$AA@ 6666e11c     LIBCMT:undname.obj
 0002:00011120       ??_C@_01HNPIGOCE@?$CG?$AA@ 6666e120     LIBCMT:undname.obj
 0002:00011124       ??_C@_01MIFGBAGJ@?$CL?$AA@ 6666e124     LIBCMT:undname.obj
 0002:00011128       ??_C@_01JOAMLHOP@?9?$AA@   6666e128     LIBCMT:undname.obj
 0002:0001112c       ??_C@_02BAABKJLB@?9?9?$AA@ 6666e12c     LIBCMT:undname.obj
 0002:00011130       ??_C@_02ECNGHCIF@?$CL?$CL?$AA@ 6666e130     LIBCMT:undname.obj
 0002:00011134       ??_C@_01NBENCBCI@?$CK?$AA@ 6666e134     LIBCMT:undname.obj
 0002:00011138       ??_C@_02HBOOOICD@?9?$DO?$AA@ 6666e138     LIBCMT:undname.obj
 0002:0001113c       ??_C@_08LHJFAFGD@operator?$AA@ 6666e13c     LIBCMT:undname.obj
 0002:00011148       ??_C@_02GPECMEKF@?$FL?$FN?$AA@ 6666e148     LIBCMT:undname.obj
 0002:0001114c       ??_C@_02FDNJECIE@?$CB?$DN?$AA@ 6666e14c     LIBCMT:undname.obj
 0002:00011150       ??_C@_02EGOFBIJA@?$DN?$DN?$AA@ 6666e150     LIBCMT:undname.obj
 0002:00011154       ??_C@_01DCLJPIOD@?$CB?$AA@ 6666e154     LIBCMT:undname.obj
 0002:00011158       ??_C@_02FODMEDOG@?$DM?$DM?$AA@ 6666e158     LIBCMT:undname.obj
 0002:0001115c       ??_C@_02GPIOPFAK@?$DO?$DO?$AA@ 6666e15c     LIBCMT:undname.obj
 0002:00011160       ??_C@_07FPCDHGMM@?5delete?$AA@ 6666e160     LIBCMT:undname.obj
 0002:00011168       ??_C@_04NIHEBCM@?5new?$AA@ 6666e168     LIBCMT:undname.obj
 0002:00011170       ??_C@_0M@GFIIJFMG@__unaligned?$AA@ 6666e170     LIBCMT:undname.obj
 0002:0001117c       ??_C@_0L@PILCLIHE@__restrict?$AA@ 6666e17c     LIBCMT:undname.obj
 0002:00011188       ??_C@_07JOMMBBKO@__ptr64?$AA@ 6666e188     LIBCMT:undname.obj
 0002:00011190       ??_C@_09HIJEGCPM@__clrcall?$AA@ 6666e190     LIBCMT:undname.obj
 0002:0001119c       ??_C@_0L@JMKHOMEK@__fastcall?$AA@ 6666e19c     LIBCMT:undname.obj
 0002:000111a8       ??_C@_0L@NPHFGOKO@__thiscall?$AA@ 6666e1a8     LIBCMT:undname.obj
 0002:000111b4       ??_C@_09IFJBGAPI@__stdcall?$AA@ 6666e1b4     LIBCMT:undname.obj
 0002:000111c0       ??_C@_08GHMPAG@__pascal?$AA@ 6666e1c0     LIBCMT:undname.obj
 0002:000111cc       ??_C@_07KOLFKCDI@__cdecl?$AA@ 6666e1cc     LIBCMT:undname.obj
 0002:000111d4       ??_C@_08EHJDFFNH@__based?$CI?$AA@ 6666e1d4     LIBCMT:undname.obj
 0002:00011360       ??_C@_0L@KDOEJCKC@_nextafter?$AA@ 6666e360     LIBCMT:_fpexcept_.obj
 0002:0001136c       ??_C@_05JGDBENOH@_logb?$AA@ 6666e36c     LIBCMT:_fpexcept_.obj
 0002:00011374       ??_C@_03ONILCKOB@_yn?$AA@  6666e374     LIBCMT:_fpexcept_.obj
 0002:00011378       ??_C@_03NAKIGLHK@_y1?$AA@  6666e378     LIBCMT:_fpexcept_.obj
 0002:0001137c       ??_C@_03MJLDFKDL@_y0?$AA@  6666e37c     LIBCMT:_fpexcept_.obj
 0002:00011380       ??_C@_05GKKHEGJL@frexp?$AA@ 6666e380     LIBCMT:_fpexcept_.obj
 0002:00011388       ??_C@_04KEPJIHGP@fmod?$AA@ 6666e388     LIBCMT:_fpexcept_.obj
 0002:00011390       ??_C@_06MEIMCGCF@_hypot?$AA@ 6666e390     LIBCMT:_fpexcept_.obj
 0002:00011398       ??_C@_05KBKMEMPO@_cabs?$AA@ 6666e398     LIBCMT:_fpexcept_.obj
 0002:000113a0       ??_C@_05CEJMAHNP@ldexp?$AA@ 6666e3a0     LIBCMT:_fpexcept_.obj
 0002:000113a8       ??_C@_04EHEDPDJG@modf?$AA@ 6666e3a8     LIBCMT:_fpexcept_.obj
 0002:000113b0       ??_C@_04ODHECPBC@fabs?$AA@ 6666e3b0     LIBCMT:_fpexcept_.obj
 0002:000113b8       ??_C@_05PBJFFIGL@floor?$AA@ 6666e3b8     LIBCMT:_fpexcept_.obj
 0002:000113c0       ??_C@_04GFPJNGEK@ceil?$AA@ 6666e3c0     LIBCMT:_fpexcept_.obj
 0002:000113c8       ??_C@_03IIINPABG@tan?$AA@  6666e3c8     LIBCMT:_fpexcept_.obj
 0002:000113cc       ??_C@_03LALBNOCG@cos?$AA@  6666e3cc     LIBCMT:_fpexcept_.obj
 0002:000113d0       ??_C@_03BLEJJJBH@sin?$AA@  6666e3d0     LIBCMT:_fpexcept_.obj
 0002:000113d4       ??_C@_04EIAKFFMI@sqrt?$AA@ 6666e3d4     LIBCMT:_fpexcept_.obj
 0002:000113dc       ??_C@_05KNGEOGJB@atan2?$AA@ 6666e3dc     LIBCMT:_fpexcept_.obj
 0002:000113e4       ??_C@_04MLLJIGOK@atan?$AA@ 6666e3e4     LIBCMT:_fpexcept_.obj
 0002:000113ec       ??_C@_04PDIFKINK@acos?$AA@ 6666e3ec     LIBCMT:_fpexcept_.obj
 0002:000113f4       ??_C@_04FIHNOPOL@asin?$AA@ 6666e3f4     LIBCMT:_fpexcept_.obj
 0002:000113fc       ??_C@_04FJHINJAO@tanh?$AA@ 6666e3fc     LIBCMT:_fpexcept_.obj
 0002:00011404       ??_C@_04HPJJNFIM@cosh?$AA@ 6666e404     LIBCMT:_fpexcept_.obj
 0002:0001140c       ??_C@_04COOMCNPB@sinh?$AA@ 6666e40c     LIBCMT:_fpexcept_.obj
 0002:00011414       ??_C@_05HGHHAHAP@log10?$AA@ 6666e414     LIBCMT:_fpexcept_.obj
 0002:0001141c       ??_C@_03MGHMBJCF@log?$AA@  6666e41c     LIBCMT:_fpexcept_.obj
 0002:00011420       ??_C@_03JGHBODFD@pow?$AA@  6666e420     LIBCMT:_fpexcept_.obj
 0002:00011424       ??_C@_03KHJOGHMM@exp?$AA@  6666e424     LIBCMT:_fpexcept_.obj
 0002:00011428       __load_config_used         6666e428     LIBCMT:loadcfg.obj
 0002:00011470       ??_R4bad_alloc@std@@6B@    6666e470     LIBCMT:new.obj
 0002:00011484       ??_R3bad_alloc@std@@8      6666e484     LIBCMT:new.obj
 0002:00011494       ??_R2bad_alloc@std@@8      6666e494     LIBCMT:new.obj
 0002:000114a0       ??_R1A@?0A@EA@bad_alloc@std@@8 6666e4a0     LIBCMT:new.obj
 0002:000114bc       ??_R1A@?0A@EA@exception@std@@8 6666e4bc     LIBCMT:new.obj
 0002:000114d8       ??_R3exception@std@@8      6666e4d8     LIBCMT:new.obj
 0002:000114e8       ??_R2exception@std@@8      6666e4e8     LIBCMT:new.obj
 0002:000114f0       ??_R4exception@std@@6B@    6666e4f0     LIBCMT:stdexcpt.obj
 0002:00011504       ??_R4type_info@@6B@        6666e504     LIBCMT:typinfo.obj
 0002:00011518       ??_R3type_info@@8          6666e518     LIBCMT:typinfo.obj
 0002:00011528       ??_R2type_info@@8          6666e528     LIBCMT:typinfo.obj
 0002:00011530       ??_R1A@?0A@EA@type_info@@8 6666e530     LIBCMT:typinfo.obj
 0002:00011550       ___safe_se_handler_table   6666e550     <linker-defined>
 0002:0001155c       ___rtc_iaa                 6666e55c     LIBCMT:_initsect_.obj
 0002:00011560       ___rtc_izz                 6666e560     LIBCMT:_initsect_.obj
 0002:00011564       ___rtc_taa                 6666e564     LIBCMT:_initsect_.obj
 0002:00011568       ___rtc_tzz                 6666e568     LIBCMT:_initsect_.obj
 0002:0001175c       __TI2?AVbad_alloc@std@@    6666e75c     LIBCMT:new.obj
 0002:0001176c       __CTA2?AVbad_alloc@std@@   6666e76c     LIBCMT:new.obj
 0002:00011778       __CT??_R0?AVbad_alloc@std@@@8??0bad_alloc@std@@QAE@ABV01@@Z12 6666e778     LIBCMT:new.obj
 0002:00011794       __CT??_R0?AVexception@std@@@8??0exception@std@@QAE@ABV01@@Z12 6666e794     LIBCMT:new.obj
 0002:00011ca4       __IMPORT_DESCRIPTOR_KERNEL32 6666eca4     kernel32:KERNEL32.dll
 0002:00011cb8       __IMPORT_DESCRIPTOR_USER32 6666ecb8     user32:USER32.dll
 0002:00011ccc       __IMPORT_DESCRIPTOR_GDI32  6666eccc     gdi32:GDI32.dll
 0002:00011ce0       __IMPORT_DESCRIPTOR_IMM32  6666ece0     imm32:IMM32.dll
 0002:00011cf4       __NULL_IMPORT_DESCRIPTOR   6666ecf4     kernel32:KERNEL32.dll
 0003:00000000       ?szRuntimePath@@3PADA      66670000     config.obj
 0003:00000100       ?fShowCheckInfo@@3HA       66670100     config.obj
 0003:00000104       ?fLoadItemColours@@3HA     66670104     config.obj
 0003:00000600       ?dwGameWindowId@@3HA       66670600     DllMain.obj
 0003:00000608       ?dwGameLng@@3HA            66670608     install.obj
 0003:0000060c       ?addr_storm@@3PAUHINSTANCE__@@A 6667060c     install.obj
 0003:00000610       ?addr_d2client@@3PAUHINSTANCE__@@A 66670610     install.obj
 0003:00000614       ?addr_d2common@@3PAUHINSTANCE__@@A 66670614     install.obj
 0003:00000618       ?addr_d2gfx@@3PAUHINSTANCE__@@A 66670618     install.obj
 0003:0000061c       ?addr_d2win@@3PAUHINSTANCE__@@A 6667061c     install.obj
 0003:00000620       ?addr_d2lang@@3PAUHINSTANCE__@@A 66670620     install.obj
 0003:00000624       ?addr_d2cmp@@3PAUHINSTANCE__@@A 66670624     install.obj
 0003:00000628       ?addr_bnclient@@3PAUHINSTANCE__@@A 66670628     install.obj
 0003:0000062c       ?addr_d2net@@3PAUHINSTANCE__@@A 6667062c     install.obj
 0003:00000630       ?addr_fog@@3PAUHINSTANCE__@@A 66670630     install.obj
 0003:00000634       ?addr_d2game@@3PAUHINSTANCE__@@A 66670634     install.obj
 0003:00000638       ?addr_d2launch@@3PAUHINSTANCE__@@A 66670638     install.obj
 0003:0000063c       ?addr_d2gdi@@3PAUHINSTANCE__@@A 6667063c     install.obj
 0003:00000640       ?addr_d2sound@@3PAUHINSTANCE__@@A 66670640     install.obj
 0003:00000644       ?addr_d2multi@@3PAUHINSTANCE__@@A 66670644     install.obj
 0003:00000648       ?addr_d2mcpclient@@3PAUHINSTANCE__@@A 66670648     install.obj
 0003:0000064c       ?fFixSocketError@@3HA      6667064c     install.obj
 0003:00000650       ?tReloadDll@@3UToggleVar@@A 66670650     install.obj
 0003:00000680       ?tReloadConfig@@3UToggleVar@@A 66670680     install.obj
 0003:000006b0       ?tInstallPatches@@3UToggleVar@@A 666706b0     install.obj
 0003:0000080c       ?dwPetListChangeCount@@3HA 6667080c     common.obj
 0003:00000810       ?skillTypes@@3PAY0BO@HA    66670810     common.obj
 0003:00000b70       ?tShowTestInfo@@3UToggleVar@@A 66670b70     dbg.obj
 0003:00000ba8       ?fPlayerInTown@@3HA        66670ba8     loop.obj
 0003:00000bac       ?actlvls@@3PAHA            66670bac     loop.obj
 0003:00000bc4       ?dwCurrentLevel@@3HA       66670bc4     loop.obj
 0003:00000bc8       ?dwLeftSkill@@3HA          66670bc8     loop.obj
 0003:00000bcc       ?dwRightSkill@@3HA         66670bcc     loop.obj
 0003:00000bd0       ?fCanUseLeftSkill@@3HA     66670bd0     loop.obj
 0003:00000bd4       ?fCanUseRightSkill@@3HA    66670bd4     loop.obj
 0003:00000cc4       ?dwAutoRevealMode@@3HA     66670cc4     map.obj
 0003:00000cc8       ?tRevealAct@@3UToggleVar@@A 66670cc8     map.obj
 0003:00000cf8       ?tRevealLevel@@3UToggleVar@@A 66670cf8     map.obj
 0003:00000d28       ?tPrevMapTarget@@3UToggleVar@@A 66670d28     map.obj
 0003:00000d58       ?tNextMapTarget@@3UToggleVar@@A 66670d58     map.obj
 0003:00000d88       ?tAutomapLevelNames@@3UToggleVar@@A 66670d88     map.obj
 0003:00000db8       ?tAutoMap@@3UToggleVar@@A  66670db8     map.obj
 0003:00000de8       ?tMiniShrine@@3UToggleVar@@A 66670de8     map.obj
 0003:00000e18       ?tAutomapActiveRect@@3UToggleVar@@A 66670e18     map.obj
 0003:00000e48       ?tAutomapReadyRect@@3UToggleVar@@A 66670e48     map.obj
 0003:00000e78       ?tAutomapScreenArea@@3UToggleVar@@A 66670e78     map.obj
 0003:00000ea8       ?nAutomapActiveRectColors@@3EA 66670ea8     map.obj
 0003:00000ea9       ?nAutomapReadyRectColors@@3EA 66670ea9     map.obj
 0003:00000eaa       ?nAutomapScreenColors@@3EA 66670eaa     map.obj
 0003:00000eab       ?nMinimapSize@@3EA         66670eab     map.obj
 0003:00000eac       ?routeLineColor@@3EA       66670eac     map.obj
 0003:00000ead       ?fAutomapPartyDefault@@3EA 66670ead     map.obj
 0003:00000eae       ?fAutomapNamesDefault@@3EA 66670eae     map.obj
 0003:00000eaf       ?nHostileMissileColor@@3EA 66670eaf     map.obj
 0003:00000eb0       ?tMinimapDirectLineToggle@@3UToggleVar@@A 66670eb0     map.obj
 0003:00000ee0       ?tAutomapCorpse@@3UToggleVar@@A 66670ee0     map.obj
 0003:00000f10       ?tAutomapMonsters@@3UToggleVar@@A 66670f10     map.obj
 0003:00000f40       ?tAutomapChests@@3UToggleVar@@A 66670f40     map.obj
 0003:00000f70       ?tAutomapMissiles@@3UToggleVar@@A 66670f70     map.obj
 0003:00000fa0       ?tAutomapItems@@3UToggleVar@@A 66670fa0     map.obj
 0003:00000fd0       ?nGuidedMissileColor@@3EA  66670fd0     map.obj
 0003:00000fd1       ?nTracerMissileColor@@3EA  66670fd1     map.obj
 0003:00000fd2       ?nOtherMissileColor@@3EA   66670fd2     map.obj
 0003:00000fd3       ?nClosedChestColor@@3EA    66670fd3     map.obj
 0003:00000fd4       ?nLockedChestColor@@3EA    66670fd4     map.obj
 0003:00000fd5       ?nNormalCorpseColor@@3EA   66670fd5     map.obj
 0003:00000fd6       ?nBossCorpseColor@@3EA     66670fd6     map.obj
 0003:00000fd7       ?nMinionCorpseColor@@3EA   66670fd7     map.obj
 0003:00000fd8       ?nChampionCorpseColor@@3EA 66670fd8     map.obj
 0003:00000fd9       ?nMonsterNormalColor@@3EA  66670fd9     map.obj
 0003:00000fda       ?nMonsterBossColor@@3EA    66670fda     map.obj
 0003:00000fdb       ?nMonsterMinionColor@@3EA  66670fdb     map.obj
 0003:00000fdc       ?nMonsterChampColor@@3EA   66670fdc     map.obj
 0003:00000fdd       ?nSuperUniqueColor@@3EA    66670fdd     map.obj
 0003:00000fde       ?nNeutralPlayerColor@@3EA  66670fde     map.obj
 0003:00000fdf       ?nHostilePlayerColor@@3EA  66670fdf     map.obj
 0003:00000fe0       ?nFriendMinionColor@@3EA   66670fe0     map.obj
 0003:00000fe1       ?nPlayerMinionColor@@3EA   66670fe1     map.obj
 0003:00000fe2       ?nPartyTextColour@@3EA     66670fe2     map.obj
 0003:00000fe3       ?nNeutralTextColour@@3EA   66670fe3     map.obj
 0003:00000fe4       ?nHostileTextColour@@3EA   66670fe4     map.obj
 0003:00000fe5       ?nMonsterTextCol@@3EA      66670fe5     map.obj
 0003:00000fe8       ?tBossNameToggle@@3UToggleVar@@A 66670fe8     map.obj
 0003:00001018       ?tScreenshake@@3UToggleVar@@A 66671018     map.obj
 0003:00001048       ?tCenterMap@@3UToggleVar@@A 66671048     map.obj
 0003:00001078       ?nScrollMode@@3HA          66671078     map.obj
 0003:00002418       ?dwSocketTimeOutSec@@3HA   66672418     packet.obj
 0003:0000241c       ?dwSocketTimeOut@@3HA      6667241c     packet.obj
 0003:00002420       ?dwAddStatMaxCount@@3HA    66672420     packet.obj
 0003:00002424       ?tPacketHandler@@3UToggleVar@@A 66672424     packet.obj
 0003:00002454       ?tDoTest@@3UToggleVar@@A   66672454     packet.obj
 0003:00002484       ?tNecTeleportAttract@@3UToggleVar@@A 66672484     packet.obj
 0003:000025f0       ?tAutomapRouteInfo@@3UToggleVar@@A 666725f0     route.obj
 0003:00002620       ?tScreenRouteGuide@@3UToggleVar@@A 66672620     route.obj
 0003:00002650       ?tReroute@@3UToggleVar@@A  66672650     route.obj
 0003:00002810       ?fWinActive@@3HA           66672810     winmsg.obj
 0003:00002814       ?dwQuickSwapItemDelayMs@@3HA 66672814     winmsg.obj
 0003:00002818       ?dwAutoCallToArm@@3HA      66672818     winmsg.obj
 0003:0000281c       ?tLockMouseToggle@@3UToggleVar@@A 6667281c     winmsg.obj
 0003:0000284c       ?tAutoHideMinimapToggle@@3UToggleVar@@A 6667284c     winmsg.obj
 0003:0000287c       ?tAutoMinimapTeleportToggle@@3UToggleVar@@A 6667287c     winmsg.obj
 0003:000028ac       ?tFullScreen@@3UToggleVar@@A 666728ac     winmsg.obj
 0003:000028dc       ?tFullScreenNoCaption@@3UToggleVar@@A 666728dc     winmsg.obj
 0003:0000290c       ?tResizeWindowBar@@3UToggleVar@@A 6667290c     winmsg.obj
 0003:0000293c       ?tAttractNPC@@3UToggleVar@@A 6667293c     winmsg.obj
 0003:0000296c       ?tEnableScreenSaver@@3UToggleVar@@A 6667296c     winmsg.obj
 0003:0000299c       ?tEnableMenuScreenSaver@@3UToggleVar@@A 6667299c     winmsg.obj
 0003:000029cc       ?tNoHide@@3UToggleVar@@A   666729cc     winmsg.obj
 0003:000029fc       ?tSaveGame@@3UToggleVar@@A 666729fc     winmsg.obj
 0003:00002fd8       ?newTextBoxData@@3PAKA     66672fd8     winmsg.obj
 0003:00003008       ?tChangeVisualEffect@@3UToggleVar@@A 66673008     env.obj
 0003:00003038       ?tWeather@@3UToggleVar@@A  66673038     env.obj
 0003:00003068       ?tHiddenCorpse@@3UToggleVar@@A 66673068     env.obj
 0003:000031a0       ?tCountDown@@3UToggleVar@@A 666731a0     GameMonitor.obj
 0003:000031d0       ?tDrawRuneCollectorCount@@3UToggleVar@@A 666731d0     GameMonitor.obj
 0003:00003200       ?dwGameMonitorX@@3HA       66673200     GameMonitor.obj
 0003:00003204       ?dwGameMonitorY@@3HA       66673204     GameMonitor.obj
 0003:00003208       ?dwCountDownFontSize@@3HA  66673208     GameMonitor.obj
 0003:0000320c       ?dwCountDownGap@@3HA       6667320c     GameMonitor.obj
 0003:00003210       ?dwCountDownFlashSecond@@3HA 66673210     GameMonitor.obj
 0003:00003214       ?tKillCount@@3UToggleVar@@A 66673214     GameMonitor.obj
 0003:00003244       ?tGetHitCount@@3UToggleVar@@A 66673244     GameMonitor.obj
 0003:000035ec       ?countDowns@@3PAPAUCountDown@@A 666735ec     GameMonitor.obj
 0003:00003640       ?tServerIp@@3UToggleVar@@A 66673640     info.obj
 0003:00003670       ?tGameTime@@3UToggleVar@@A 66673670     info.obj
 0003:000036a0       ?tClock@@3UToggleVar@@A    666736a0     info.obj
 0003:000036d0       ?tLayerLevelNo@@3UToggleVar@@A 666736d0     info.obj
 0003:00003700       ?tAreaLevel@@3UToggleVar@@A 66673700     info.obj
 0003:00003730       ?tPermShowOrb@@3UToggleVar@@A 66673730     info.obj
 0003:00003760       ?tShowExp@@3UToggleVar@@A  66673760     info.obj
 0003:00003790       ?tShowPing@@3UToggleVar@@A 66673790     info.obj
 0003:000037c0       ?tShowPartyPosition@@3UToggleVar@@A 666737c0     info.obj
 0003:000037f0       ?tShowPartyLevel@@3UToggleVar@@A 666737f0     info.obj
 0003:00003820       ?tViewEquipmentKey@@3UToggleVar@@A 66673820     info.obj
 0003:00003850       ?tViewPlayerStatsKey@@3UToggleVar@@A 66673850     info.obj
 0003:00003880       ?tShowBaseStat@@3UToggleVar@@A 66673880     info.obj
 0003:000038b0       ?tFirstPlayerStat@@3UToggleVar@@A 666738b0     info.obj
 0003:000038e0       ?tNextPlayerStat@@3UToggleVar@@A 666738e0     info.obj
 0003:00003910       ?tPrevPlayerStat@@3UToggleVar@@A 66673910     info.obj
 0003:00003c00       ?szOrbPattern@@3PADA       66673c00     info.obj
 0003:00003c04       ?viewStatUnit@@3UViewUnitInfo@@A 66673c04     info.obj
 0003:00003c14       ?viewEquUnit@@3UViewUnitInfo@@A 66673c14     info.obj
 0003:00003cf8       ?tLogMessage@@3UToggleVar@@A 66673cf8     MessageLog.obj
 0003:00003d28       ?dwMessageFileSize@@3HA    66673d28     MessageLog.obj
 0003:00003d88       ?anGoldGoodCol@@3PADA      66673d88     item.obj
 0003:00003d8c       ?anGoldPoorCol@@3PADA      66673d8c     item.obj
 0003:00003d90       ?tSwitchItemMode@@3UToggleVar@@A 66673d90     item.obj
 0003:00003dc0       ?dwItemShowMode@@3HA       66673dc0     item.obj
 0003:00003dc4       ?nQuestItemColour@@3EA     66673dc4     item.obj
 0003:00003dc5       ?nDefaultExtInfoColour@@3EA 66673dc5     item.obj
 0003:00003dc8       ?tRuneNumbers@@3UToggleVar@@A 66673dc8     item.obj
 0003:00003df8       ?tSocketNumbers@@3UToggleVar@@A 66673df8     item.obj
 0003:00003e28       ?tItemLevel@@3UToggleVar@@A 66673e28     item.obj
 0003:00003e58       ?tItemValue@@3UToggleVar@@A 66673e58     item.obj
 0003:00003e88       ?tItemIndex@@3UToggleVar@@A 66673e88     item.obj
 0003:00003eb8       ?tItemFileIndex@@3UToggleVar@@A 66673eb8     item.obj
 0003:00003ee8       ?tUnitNumber@@3UToggleVar@@A 66673ee8     item.obj
 0003:00003f18       ?tItemQLevel@@3UToggleVar@@A 66673f18     item.obj
 0003:00003f48       ?tItemMLevel@@3UToggleVar@@A 66673f48     item.obj
 0003:00003f78       ?tItemALevel@@3UToggleVar@@A 66673f78     item.obj
 0003:00003fa8       ?tAfterCube@@3UToggleVar@@A 66673fa8     item.obj
 0003:00003fd8       ?tLifePerLevel@@3UToggleVar@@A 66673fd8     item.obj
 0003:00004008       ?dwItemValueNpc@@3PAHA     66674008     item.obj
 0003:0000401c       ?tShowBaseED@@3UToggleVar@@A 6667401c     item.obj
 0003:0000404c       ?tShowIdentifiedItem@@3UToggleVar@@A 6667404c     item.obj
 0003:0000407c       ?tHiddenItems@@3UToggleVar@@A 6667407c     item.obj
 0003:000040ac       ?tPermShowItems@@3UToggleVar@@A 666740ac     item.obj
 0003:000040dc       ?tLockAltToggle@@3UToggleVar@@A 666740dc     item.obj
 0003:0000410c       ?tItemBasicStat@@3UToggleVar@@A 6667410c     item.obj
 0003:0000413c       ?tViewSocketable@@3UToggleVar@@A 6667413c     item.obj
 0003:0000416c       ?tViewSocketBase@@3UToggleVar@@A 6667416c     item.obj
 0003:0000419c       ?tShowItemVariableProp@@3UToggleVar@@A 6667419c     item.obj
 0003:000041cc       ?tSocketProtect@@3UToggleVar@@A 666741cc     item.obj
 0003:000041fc       ?tItemExtInfo@@3UToggleVar@@A 666741fc     item.obj
 0003:0000422c       ?maxTownPortalCount@@3HA   6667422c     item.obj
 0003:00004230       ?maxIdentifyPortalCount@@3HA 66674230     item.obj
 0003:00004998       ?dwAutoPotionCheckMs@@3HA  66674998     dangerous.obj
 0003:0000499c       ?dwHirePotionDelayMs@@3HA  6667499c     dangerous.obj
 0003:000049a0       ?dwManaPotionDelayMs@@3HA  666749a0     dangerous.obj
 0003:000049a4       ?nChickenLifeAction@@3HA   666749a4     dangerous.obj
 0003:000049a8       ?tHealingPotion@@3UToggleVar@@A 666749a8     dangerous.obj
 0003:000049d8       ?tManaPotion@@3UToggleVar@@A 666749d8     dangerous.obj
 0003:00004a08       ?tChickenLife@@3UToggleVar@@A 66674a08     dangerous.obj
 0003:00004a38       ?tChickenHostile@@3UToggleVar@@A 66674a38     dangerous.obj
 0003:00004a68       ?tChickenHostileNearby@@3UToggleVar@@A 66674a68     dangerous.obj
 0003:00004a98       ?tChickenDangerousMonster@@3UToggleVar@@A 66674a98     dangerous.obj
 0003:00004ac8       ?tAutoPotion@@3UToggleVar@@A 66674ac8     dangerous.obj
 0003:00004af8       ?dwChickenLifeForcedClevel@@3HA 66674af8     dangerous.obj
 0003:00004afc       ?dwChickenLifeEnterGame@@3HA 66674afc     dangerous.obj
 0003:00004b00       ?nDangerousMonsterAction@@3HA 66674b00     dangerous.obj
 0003:000050c8       ?dwBugAlertTimes@@3HA      666750c8     quest.obj
 0003:000050cc       ?tBugKCountess@@3UToggleVar@@A 666750cc     quest.obj
 0003:000050fc       ?tBugKM@@3UToggleVar@@A    666750fc     quest.obj
 0003:0000512c       ?tBugKD@@3UToggleVar@@A    6667512c     quest.obj
 0003:0000515c       ?tBugKB@@3UToggleVar@@A    6667515c     quest.obj
 0003:0000518c       ?tBugAutoQuit@@3UToggleVar@@A 6667518c     quest.obj
 0003:000051bc       ?tBugAutoQuitHell@@3UToggleVar@@A 666751bc     quest.obj
 0003:000051ec       ?tBugAutoQuitHellAct1@@3UToggleVar@@A 666751ec     quest.obj
 0003:0000521c       ?tBugAutoQuitHellAct3@@3UToggleVar@@A 6667521c     quest.obj
 0003:0000524c       ?tBugAutoQuitHellAct4@@3UToggleVar@@A 6667524c     quest.obj
 0003:0000527c       ?tBugAutoQuitHellAct5@@3UToggleVar@@A 6667527c     quest.obj
 0003:000052ac       ?tBugAllHellAlert@@3UToggleVar@@A 666752ac     quest.obj
 0003:000052dc       ?tAlertNoBug@@3UToggleVar@@A 666752dc     quest.obj
 0003:00005638       ?tMonsterLevel@@3UToggleVar@@A 66675638     lifebar.obj
 0003:00005668       ?tMonsterTC@@3UToggleVar@@A 66675668     lifebar.obj
 0003:00005698       ?tMonsterRuneTC@@3UToggleVar@@A 66675698     lifebar.obj
 0003:000056c8       ?tMonsterResists@@3UToggleVar@@A 666756c8     lifebar.obj
 0003:000056f8       ?tMonsterHPPercent@@3UToggleVar@@A 666756f8     lifebar.obj
 0003:00005728       ?tMonsterDistance@@3UToggleVar@@A 66675728     lifebar.obj
 0003:00005758       ?tMonsterID@@3UToggleVar@@A 66675758     lifebar.obj
 0003:00005788       ?tSPMonsterHP@@3UToggleVar@@A 66675788     lifebar.obj
 0003:000057b8       ?tSPMonsterExp@@3UToggleVar@@A 666757b8     lifebar.obj
 0003:000057e8       ?nLifeBarTrans@@3EA        666757e8     lifebar.obj
 0003:000057e9       ?nLifeBarColour@@3EA       666757e9     lifebar.obj
 0003:000057ec       ?tPlayerLevel@@3UToggleVar@@A 666757ec     lifebar.obj
 0003:0000581c       ?tPlayerDistance@@3UToggleVar@@A 6667581c     lifebar.obj
 0003:0000584c       ?tPlayerHPPercent@@3UToggleVar@@A 6667584c     lifebar.obj
 0003:00005bc8       ?tDropProtectionToggle@@3UToggleVar@@A 66675bc8     DropProtection.obj
 0003:00005bf8       ?tResetProtectionToggle@@3UToggleVar@@A 66675bf8     DropProtection.obj
 0003:00005d30       ?tWisperNotice@@3UToggleVar@@A 66675d30     GameChat.obj
 0003:00005d60       ?tInputLine@@3UToggleVar@@A 66675d60     GameChat.obj
 0003:00005d90       ?tUseCustomFont@@3UToggleVar@@A 66675d90     GameChat.obj
 0003:00005fb8       ?tOutTownSelect@@3UToggleVar@@A 66675fb8     misc.obj
 0003:00005fe8       ?tULCMask@@3UToggleVar@@A  66675fe8     misc.obj
 0003:000060a0       ?dwMultiClientMaxWindowId@@3HA 666760a0     multi.obj
 0003:000060a4       ?tMultiClient@@3UToggleVar@@A 666760a4     multi.obj
 0003:000060d4       ?tMultiClientToggleFollow@@3UToggleVar@@A 666760d4     multi.obj
 0003:00006104       ?tMultiClientStartFollow1@@3UToggleVar@@A 66676104     multi.obj
 0003:00006134       ?tMultiClientStartFollow2@@3UToggleVar@@A 66676134     multi.obj
 0003:00006164       ?tMultiClientStopFollow@@3UToggleVar@@A 66676164     multi.obj
 0003:00006194       ?tMultiClientEnterDoor@@3UToggleVar@@A 66676194     multi.obj
 0003:000061c4       ?tMultiClientRetreat@@3UToggleVar@@A 666761c4     multi.obj
 0003:000061f4       ?tMultiClientClick@@3UToggleVar@@A 666761f4     multi.obj
 0003:00006224       ?tMultiClientClick2@@3UToggleVar@@A 66676224     multi.obj
 0003:00006254       ?dwMultiClientGroupSize1@@3HA 66676254     multi.obj
 0003:00006258       ?dwMultiClientGroupSize2@@3HA 66676258     multi.obj
 0003:0000625c       ?dwAutoFollowDistance@@3HA 6667625c     multi.obj
 0003:00006260       ?dwAutoFollowMaxDistance@@3HA 66676260     multi.obj
 0003:00006264       ?dwAutoFollowMoveDistance@@3HA 66676264     multi.obj
 0003:00006268       ?dwAutoFollowCheckInterval@@3HA 66676268     multi.obj
 0003:0000626c       ?dwAutoFollowClickObjectDelayMs@@3HA 6667626c     multi.obj
 0003:00006270       ?dwWaitTeamEnterPortalMaxDelayMs@@3HA 66676270     multi.obj
 0003:00006274       ?tNecNoAttackInHell@@3UToggleVar@@A 66676274     multi.obj
 0003:00006618       ?tNpcTradeShowInfo@@3UToggleVar@@A 66676618     NpcTrade.obj
 0003:00006698       ?mAutoPartyDelays@@3HA     66676698     party.obj
 0003:0000669c       ?tAutoParty@@3UToggleVar@@A 6667669c     party.obj
 0003:000066cc       ?tAutoInvite@@3UToggleVar@@A 666766cc     party.obj
 0003:000066fc       ?tAutoPermit@@3UToggleVar@@A 666766fc     party.obj
 0003:000067e0       ?nTownportalAlertNums@@3HA 666767e0     quick.obj
 0003:000067e8       ?tBackToTown@@3UToggleVar@@A 666767e8     quick.obj
 0003:00006818       ?tExitGame@@3UToggleVar@@A 66676818     quick.obj
 0003:00006848       ?tQuickNextGame@@3UToggleVar@@A 66676848     quick.obj
 0003:00006878       ?tQuickNextGame2@@3UToggleVar@@A 66676878     quick.obj
 0003:00006ac0       ?tRightClickSwap@@3UToggleVar@@A 66676ac0     QuickSwapItem.obj
 0003:00006af0       ?tQuickDropToggle@@3UToggleVar@@A 66676af0     QuickSwapItem.obj
 0003:00006ba8       ?tHighResolution@@3UToggleVar@@A 66676ba8     resolution.obj
 0003:00006c08       ?tAutoPickupToggle@@3UToggleVar@@A 66676c08     skill.obj
 0003:00006c38       ?tAutoEnchant@@3UToggleVar@@A 66676c38     skill.obj
 0003:00006c68       ?dwRenewEnchantMs@@3HA     66676c68     skill.obj
 0003:00006c6c       ?dwAutoEnchantMana@@3HA    66676c6c     skill.obj
 0003:00006c70       ?dwRenewEnchantMana@@3HA   66676c70     skill.obj
 0003:00006c74       ?dwAutoEnchantPlayerLevel@@3HA 66676c74     skill.obj
 0003:00006c78       ?tAutoWarCry@@3UToggleVar@@A 66676c78     skill.obj
 0003:00006ca8       ?tAutoBackgroundSkill@@3UToggleVar@@A 66676ca8     skill.obj
 0003:00006cd8       ?tAutoForegroundSkillToggle@@3UToggleVar@@A 66676cd8     skill.obj
 0003:00006d08       ?tAutoForegroundSkill@@3UToggleVar@@A 66676d08     skill.obj
 0003:00006d38       ?dwAutoSkillCheckInterval@@3HA 66676d38     skill.obj
 0003:00006d3c       ?dwAutoSkillIdleDelay@@3HA 66676d3c     skill.obj
 0003:00006d40       ?dwAutoThrowMinQuantity@@3HA 66676d40     skill.obj
 0003:00006d44       ?dwAutoStaticFieldHPPercent@@3HA 66676d44     skill.obj
 0003:00006d48       ?tAutoSummon@@3UToggleVar@@A 66676d48     skill.obj
 0003:00006d78       ?tAutoSummonRevive@@3UToggleVar@@A 66676d78     skill.obj
 0003:00006da8       ?tShowSummonInfo@@3UToggleVar@@A 66676da8     skill.obj
 0003:00006dd8       ?dwAutoSummonMana@@3HA     66676dd8     skill.obj
 0003:00006ddc       ?dwSwitchSkillMs@@3HA      66676ddc     skill.obj
 0003:00006de0       ?dwAutoSummonSkeletonLevelAdjust@@3HA 66676de0     skill.obj
 0003:00006de4       ?dwAutoSummonSkeletonMageLevelAdjust@@3HA 66676de4     skill.obj
 0003:00006de8       ?dwAutoSummonReviveLevelAdjust@@3HA 66676de8     skill.obj
 0003:00006dec       ?tAutoForegroundSkill2@@3UToggleVar@@A 66676dec     skill.obj
 0003:00007410       ?szSnapshotPath@@3PADA     66677410     Snapshot.obj
 0003:00007510       ?szSnapshotNamesPath@@3PADA 66677510     Snapshot.obj
 0003:00007610       ?tDoSnapshot@@3UToggleVar@@A 66677610     Snapshot.obj
 0003:00007640       ?tSnapshot@@3UToggleVar@@A 66677640     Snapshot.obj
 0003:00007670       ?tSnapshotNewGame@@3UToggleVar@@A 66677670     Snapshot.obj
 0003:000076a0       ?tSnapshotEndGame@@3UToggleVar@@A 666776a0     Snapshot.obj
 0003:000076d0       ?tSnapshotLog@@3UToggleVar@@A 666776d0     Snapshot.obj
 0003:00007700       ?tSnapshotSaveD2s@@3UToggleVar@@A 66677700     Snapshot.obj
 0003:00007de8       ?tServerTest@@3UToggleVar@@A 66677de8     server.obj
 0003:00007e18       ?tRepeatAdminCmd@@3UToggleVar@@A 66677e18     server.obj
 0003:00007e6c       ?fEnableAdminCmd@@3HA      66677e6c     server.obj
 0003:00007e74       ?adminCmdPrefix@@3PADA     66677e74     server.obj
 0003:00008224       ?UberMephistoNbMinions@@3HA 66678224     uber.obj
 0003:00008228       ?UberMephistoMinions@@3PAHA 66678228     uber.obj
 0003:00008240       ?UberMephistoSpawnPercent@@3HA 66678240     uber.obj
 0003:00008244       ?UberMephistoSpawnRadius@@3HA 66678244     uber.obj
 0003:00008248       ?UberBaalNbMinions@@3HA    66678248     uber.obj
 0003:0000824c       ?UberBaalMinions@@3PAHA    6667824c     uber.obj
 0003:00008254       ?UberBaalSpawnPercent@@3HA 66678254     uber.obj
 0003:00008258       ?UberBaalSpawnRadius@@3HA  66678258     uber.obj
 0003:0000825c       ?UberDiabloNbMinions@@3HA  6667825c     uber.obj
 0003:00008260       ?UberDiabloMinions@@3PAHA  66678260     uber.obj
 0003:00008264       ?UberDiabloSpawnPercent@@3HA 66678264     uber.obj
 0003:00008268       ?UberDiabloSpawnRadius@@3HA 66678268     uber.obj
 0003:0000826c       ?uberBaalChillingArmorTimer@@3HA 6667826c     uber.obj
 0003:00008320       ?szVersion@@3PADA          66678320     version.obj
 0003:00008324       ?compileTime@@3PADA        66678324     version.obj
 0003:00008328       ___security_cookie         66678328     LIBCMT:gs_cookie.obj
 0003:0000832c       ___security_cookie_complement 6667832c     LIBCMT:gs_cookie.obj
 0003:00008330       __iob                      66678330     LIBCMT:_file.obj
 0003:000085b0       __fltused                  666785b0     LIBCMT:_fpinit_.obj
 0003:000085b4       __ldused                   666785b4     LIBCMT:_fpinit_.obj
 0003:000085c4       ??_R0?AVbad_alloc@std@@@8  666785c4     LIBCMT:new.obj
 0003:000085e0       ??_R0?AVexception@std@@@8  666785e0     LIBCMT:new.obj
 0003:00008628       ___initialmbcinfo          66678628     LIBCMT:mbctype.obj
 0003:00008848       __mbctype                  66678848     LIBCMT:mbctype.obj
 0003:00008950       __mbcasemap                66678950     LIBCMT:mbctype.obj
 0003:00008a50       ___ptmbcinfo               66678a50     LIBCMT:mbctype.obj
 0003:00008b4c       ___globallocalestatus      66678b4c     LIBCMT:glstatus.obj
 0003:00008b50       ___clocalestr              66678b50     LIBCMT:nlsdata2.obj
 0003:00008b58       ___initiallocinfo          66678b58     LIBCMT:nlsdata2.obj
 0003:00008c30       ___ptlocinfo               66678c30     LIBCMT:nlsdata2.obj
 0003:00008c34       ___lc_clike                66678c34     LIBCMT:nlsdata2.obj
 0003:00008c38       ___initiallocalestructinfo 66678c38     LIBCMT:nlsdata2.obj
 0003:00008c40       ___flsindex                66678c40     LIBCMT:tidtable.obj
 0003:00008c44       ___getvalueindex           66678c44     LIBCMT:tidtable.obj
 0003:00008ed8       ___nullstring              66678ed8     LIBCMT:output.obj
 0003:00008edc       ___wnullstring             66678edc     LIBCMT:output.obj
 0003:00008ee0       ___badioinfo               66678ee0     LIBCMT:ioinit.obj
 0003:00008f20       __amblksiz                 66678f20     LIBCMT:heapinit.obj
 0003:00008f30       __aexit_rtn                66678f30     LIBCMT:crt0dat.obj
 0003:00008f34       __cfltcvt_tab              66678f34     LIBCMT:cmiscdat.obj
 0003:00009018       __lookuptrailbytes         66679018     LIBCMT:read.obj
 0003:00009120       ??_R0?AVtype_info@@@8      66679120     LIBCMT:typinfo.obj
 0003:00009140       __indefinite               66679140     LIBCMT:_87disp_.obj
 0003:0000914a       __piby2                    6667914a     LIBCMT:_87disp_.obj
 0003:00009170       __First_FPE_Indx           66679170     LIBCMT:winxfltr.obj
 0003:00009174       __Num_FPE                  66679174     LIBCMT:winxfltr.obj
 0003:00009178       __XcptActTabSize           66679178     LIBCMT:winxfltr.obj
 0003:0000917c       __XcptActTabCount          6667917c     LIBCMT:winxfltr.obj
 0003:00009180       __pctype                   66679180     LIBCMT:ctype.obj
 0003:00009184       __pwctype                  66679184     LIBCMT:ctype.obj
 0003:00009188       ___lc_time_c               66679188     LIBCMT:strftime.obj
 0003:00009240       ___lc_time_curr            66679240     LIBCMT:strftime.obj
 0003:00009244       ___lconv_static_decimal    66679244     LIBCMT:lconv.obj
 0003:00009248       ___lconv_c                 66679248     LIBCMT:lconv.obj
 0003:00009278       ___lconv                   66679278     LIBCMT:lconv.obj
 0003:0000927c       ___mb_cur_max              6667927c     LIBCMT:nlsdata1.obj
 0003:00009280       ___decimal_point           66679280     LIBCMT:nlsdata1.obj
 0003:00009284       ___decimal_point_length    66679284     LIBCMT:nlsdata1.obj
 0003:000092a0       __NLG_Destination          666792a0     LIBCMT:exsup.obj
 0003:000092d0       __timezone                 666792d0     LIBCMT:timeset.obj
 0003:000092d4       __daylight                 666792d4     LIBCMT:timeset.obj
 0003:000092d8       __dstbias                  666792d8     LIBCMT:timeset.obj
 0003:00009360       __tzname                   66679360     LIBCMT:timeset.obj
 0003:00009368       __lpdays                   66679368     LIBCMT:days.obj
 0003:0000939c       __days                     6667939c     LIBCMT:days.obj
 0003:000093d0       __coninpfh                 666793d0     LIBCMT:initcon.obj
 0003:000093d4       __confh                    666793d4     LIBCMT:initcon.obj
 0003:000093d8       ___abort_behavior          666793d8     LIBCMT:abort.obj
 0003:000094f8       __matherr_flag             666794f8     LIBCMT:_matherr_.obj
 0003:00009520       __pow10pos                 66679520     LIBCMT:_constpow_.obj
 0003:00009680       __pow10neg                 66679680     LIBCMT:_constpow_.obj
 0003:000097e0       __d_inf                    666797e0     LIBCMT:_util_.obj
 0003:000097e8       __d_ind                    666797e8     LIBCMT:_util_.obj
 0003:000097f0       __d_max                    666797f0     LIBCMT:_util_.obj
 0003:000097f8       __d_min                    666797f8     LIBCMT:_util_.obj
 0003:00009800       __d_mzero                  66679800     LIBCMT:_util_.obj
 0003:00009820       ?tmpSymbols@@3PAUSymbol@@A 66679820     config.obj
 0003:00009c24       ?logfp@@3PAU_iobuf@@A      66679c24     config.obj
 0003:00009c28       ?tKeyEventMap@@3PAPAUToggleVar@@A 66679c28     config.obj
 0003:0000bc30       ?warningMsgs@@3PAUWarningMsg@@A 6667bc30     config.obj
 0003:0000bc38       ?pSymbols@@3PAUSymbol@@A   6667bc38     config.obj
 0003:0000bc3c       ?nSymbols@@3HA             6667bc3c     config.obj
 0003:0000bc40       ?capSymbols@@3HA           6667bc40     config.obj
 0003:0000bc44       ?nTmpSymbols@@3HA          6667bc44     config.obj
 0003:0000bc48       ?fSymbolSorted@@3HA        6667bc48     config.obj
 0003:0000bc50       ?configVarCap@@3HA         6667bc50     config.obj
 0003:0000bc54       ?configVarCount@@3HA       6667bc54     config.obj
 0003:0000bc58       ?loadingConfigs@@3PAULoadingConfig@@A 6667bc58     config.obj
 0003:0000bc60       ?hInstDLL@@3PAUHINSTANCE__@@A 6667bc60     DllMain.obj
 0003:0000bc64       ?dllHeap@@3PAXA            6667bc64     DllMain.obj
 0003:0000bc68       ?confHeap@@3PAXA           6667bc68     DllMain.obj
 0003:0000bc6c       ?gameHeap@@3PAXA           6667bc6c     DllMain.obj
 0003:0000bc70       ?fIsSinglePlayer@@3HA      6667bc70     DllMain.obj
 0003:0000bc74       ?fIsTcpIp@@3HA             6667bc74     DllMain.obj
 0003:0000bc78       ?fIsRealmServer@@3HA       6667bc78     DllMain.obj
 0003:0000bc7c       ?fIsRealmClient@@3HA       6667bc7c     DllMain.obj
 0003:0000bc80       ?szDllPath@@3PADA          6667bc80     DllMain.obj
 0003:0000bd88       ?szPluginPath@@3PADA       6667bd88     DllMain.obj
 0003:0000be90       ?reloadStorage@@3PADA      6667be90     DllMain.obj
 0003:0000be94       ?reloadStorageSize@@3HA    6667be94     DllMain.obj
 0003:0000be98       ?storm_pmpq_load_flag@@3PAHA 6667be98     install.obj
 0003:0000be9c       ?storm_pmpq_crypt_table@@3PAHA 6667be9c     install.obj
 0003:0000bea0       ?storm_regQueryValue@@3P6GHPAD0H0H@ZA 6667bea0     install.obj
 0003:0000bea4       ?storm_snprintf@@3P6AHPADHHZZA 6667bea4     install.obj
 0003:0000bea8       ?storm_openMpq@@3P6GHPBDHHPAX@ZA 6667bea8     install.obj
 0003:0000beac       ?storm_mpq_open_block@@3P6GHPADPAUmpq_block@@@ZA 6667beac     install.obj
 0003:0000beb0       ?storm_mpq_open_block_from@@3P6GHPAXPADHPAUmpq_block@@@ZA 6667beb0     install.obj
 0003:0000beb4       ?storm_mpq_read_block@@3P6GHPAUmpq_block@@HPADH@ZA 6667beb4     install.obj
 0003:0000beb8       ?storm_mk_abs_path@@3P6GPADPADPAX@ZA 6667beb8     install.obj
 0003:0000bebc       ?storm_mpq_hashstring@@3P6GHH@ZA 6667bebc     install.obj
 0003:0000bec0       ?storm_mpq_uncompress@@3P6GHPAXPAH0H@ZA 6667bec0     install.obj
 0003:0000bec4       ?fog_Ord10218@@3P6IHXZA    6667bec4     install.obj
 0003:0000bec8       ?fog_getMCPPacket@@3P6GHPAXPADH@ZA 6667bec8     install.obj
 0003:0000becc       ?fog_Ord10089@@3P6IHH@ZA   6667becc     install.obj
 0003:0000bed0       ?fog_uninit@@3P6GHXZA      6667bed0     install.obj
 0003:0000bed4       ?fog_allocMemory@@3P6IPAXHHPADHH@ZA 6667bed4     install.obj
 0003:0000bed8       ?fog_freeMemory@@3P6IHHPAXPADHH@ZA 6667bed8     install.obj
 0003:0000bedc       ?fog_Ord10101@@3P6IHHH@ZA  6667bedc     install.obj
 0003:0000bee0       ?fog_mpq_open_block@@3P6IHPADPAUmpq_block@@@ZA 6667bee0     install.obj
 0003:0000bee4       ?fog_initBitStream@@3P6GPAUFogBits@@PAU1@PADH@ZA 6667bee4     install.obj
 0003:0000bee8       ?fog_writeBitStream@@3P6GXPAUFogBits@@HH@ZA 6667bee8     install.obj
 0003:0000beec       ?fog_setBit@@3P6GXPAXH@ZA  6667beec     install.obj
 0003:0000bef0       ?fog_clearBit@@3P6GXPAXH@ZA 6667bef0     install.obj
 0003:0000bef4       ?fog_getBitStreamBytes@@3P6GHPAUFogBits@@@ZA 6667bef4     install.obj
 0003:0000bef8       ?fog_alignBitStreamToByte@@3P6GHPAUFogBits@@@ZA 6667bef8     install.obj
 0003:0000befc       ?fog_Ord10019@@3P6IHPADPAX0H@ZA 6667befc     install.obj
 0003:0000bf00       ?fog_FogValidateCriticalSection@@3P6IHPAUCriticalSection@@H@ZA 6667bf00     install.obj
 0003:0000bf04       ?fog_reportError@@3P6AXPAXHH@ZA 6667bf04     install.obj
 0003:0000bf08       ?fog_setLogFilePrefix@@3P6IHPAD@ZA 6667bf08     install.obj
 0003:0000bf0c       ?fog_getEIP@@3P6GHXZA      6667bf0c     install.obj
 0003:0000bf10       ?fog_getClientID@@3P6GHPAUClientInfos@@H@ZA 6667bf10     install.obj
 0003:0000bf14       ?fog_getClientInfo@@3P6GPAUClientInfo@@PAUClientInfos@@H@ZA 6667bf14     install.obj
 0003:0000bf18       ?fog_enableNTFeature@@3P6GHPAH@ZA 6667bf18     install.obj
 0003:0000bf1c       ?fog_exit@@3P6GXH@ZA       6667bf1c     install.obj
 0003:0000bf20       ?d2win_pDrawHoverY@@3PAHA  6667bf20     install.obj
 0003:0000bf24       ?d2win_pmusic_volumn@@3PAHA 6667bf24     install.obj
 0003:0000bf28       ?d2win_pRunningFlag@@3PAHA 6667bf28     install.obj
 0003:0000bf2c       ?d2win_pFocusedControl@@3PAPAUD2EditBox@@A 6667bf2c     install.obj
 0003:0000bf30       ?d2win_DrawMainMenu@@3P6IPAXXZA 6667bf30     install.obj
 0003:0000bf34       ?d2win_CreateTextBox@@3P6GPAXPAK@ZA 6667bf34     install.obj
 0003:0000bf38       ?d2win_DestroyListBox@@3P6GXPAUD2EditBox@@@ZA 6667bf38     install.obj
 0003:0000bf3c       ?d2win_CreateEditBox@@3P6IPAUD2EditBox@@HHHHHHPAUCellFile@@KKKPAX@ZA 6667bf3c     install.obj
 0003:0000bf40       ?d2win_DestroyEditBox@@3P6IHPAUD2EditBox@@@ZA 6667bf40     install.obj
 0003:0000bf44       ?d2win_AddEditBoxChar@@3P6IKPAUD2EditBox@@E@ZA 6667bf44     install.obj
 0003:0000bf48       ?d2win_SetEditBoxText@@3P6IPAXPAUD2EditBox@@PA_W@ZA 6667bf48     install.obj
 0003:0000bf4c       ?d2win_SetEditBoxProc@@3P6IXPAUD2EditBox@@P6GH0HPAD@Z@ZA 6667bf4c     install.obj
 0003:0000bf50       ?d2win_SelectEditBoxText@@3P6IXPAUD2EditBox@@@ZA 6667bf50     install.obj
 0003:0000bf54       ?d2win_GetEditBoxText@@3P6IPA_WPAUD2EditBox@@@ZA 6667bf54     install.obj
 0003:0000bf58       ?d2win_DrawHover@@3P6IXXZA 6667bf58     install.obj
 0003:0000bf5c       ?d2win_SetTextFont@@3P6IHH@ZA 6667bf5c     install.obj
 0003:0000bf60       ?d2win_DrawText@@3P6IXPA_WJJHH@ZA 6667bf60     install.obj
 0003:0000bf64       ?d2win_GetTextPixelLen@@3P6IHPA_W@ZA 6667bf64     install.obj
 0003:0000bf68       ?d2win_DrawUnitLifeBar@@3P6IHPA_WJJHKK@ZA 6667bf68     install.obj
 0003:0000bf6c       ?d2win_GetTextAreaSize@@3P6IHPA_WPAH1@ZA 6667bf6c     install.obj
 0003:0000bf70       ?d2win_DrawHoverText@@3P6IXPA_WJJHH@ZA 6667bf70     install.obj
 0003:0000bf74       ?d2win_initMPQ@@3P6IHXZA   6667bf74     install.obj
 0003:0000bf78       ?d2win_uninit@@3P6GHXZA    6667bf78     install.obj
 0003:0000bf7c       ?d2win_addLineToList@@3P6IXPAUD2EditBox@@PAD@ZA 6667bf7c     install.obj
 0003:0000bf80       ?d2win_PrintLineOnTextBox@@3P6IXPAXPADH@ZA 6667bf80     install.obj
 0003:0000bf84       ?d2win_setLineEndText@@3P6IXPAUD2EditBox@@PADPAXH@ZA 6667bf84     install.obj
 0003:0000bf88       ?d2win_ToggleSound@@3P6GXXZA 6667bf88     install.obj
 0003:0000bf8c       ?d2sound_pmusic_volumn@@3PAHA 6667bf8c     install.obj
 0003:0000bf90       ?d2sound_get_music_volumn@@3P6AHXZA 6667bf90     install.obj
 0003:0000bf94       ?d2sound_set_music_volumn@@3P6IHH@ZA 6667bf94     install.obj
 0003:0000bf98       ?d2net_pclientInfos@@3PAPAUClientInfos@@A 6667bf98     install.obj
 0003:0000bf9c       ?d2net_pUnkNetFlag@@3PAKA  6667bf9c     install.obj
 0003:0000bfa0       ?d2net_ppacketSizes@@3PAHA 6667bfa0     install.obj
 0003:0000bfa4       ?d2net_SendPacket@@3P6GXHHPAE@ZA 6667bfa4     install.obj
 0003:0000bfa8       ?d2net_getPacketSize@@3P6IXPADHPAH@ZA 6667bfa8     install.obj
 0003:0000bfac       ?d2net_initNetwork@@3P6GHHH@ZA 6667bfac     install.obj
 0003:0000bfb0       ?d2net_SendToClient@@3P6GHHHPAXH@ZA 6667bfb0     install.obj
 0003:0000bfb4       ?d2net_uninit@@3P6GHXZA    6667bfb4     install.obj
 0003:0000bfb8       ?d2net_getWorldId@@3P6GHH@ZA 6667bfb8     install.obj
 0003:0000bfbc       ?d2multi_plastRefreshMs2@@3PAHA 6667bfbc     install.obj
 0003:0000bfc0       ?d2multi_plastRefreshMs1@@3PAHA 6667bfc0     install.obj
 0003:0000bfc4       ?d2multi_pnGames@@3PAHA    6667bfc4     install.obj
 0003:0000bfc8       ?d2multi_pGameDescription@@3PAPAUD2EditBox@@A 6667bfc8     install.obj
 0003:0000bfcc       ?d2multi_pGamePassword@@3PAPAUD2EditBox@@A 6667bfcc     install.obj
 0003:0000bfd0       ?d2multi_pGameName@@3PAPAUD2EditBox@@A 6667bfd0     install.obj
 0003:0000bfd4       ?d2multi_pGameListControl@@3PAPAUD2EditBox@@A 6667bfd4     install.obj
 0003:0000bfd8       ?d2multi_pmcp05_games2@@3PAUMcp05Game@@A 6667bfd8     install.obj
 0003:0000bfdc       ?d2multi_pEditboxPreferences@@3PAPAXA 6667bfdc     install.obj
 0003:0000bfe0       ?d2multi_pmcp05_games@@3PAUMcp05Game@@A 6667bfe0     install.obj
 0003:0000bfe4       ?d2multi_reset_games@@3P6GHXZA 6667bfe4     install.obj
 0003:0000bfe8       ?d2multi_add_game@@3P6GHXZA 6667bfe8     install.obj
 0003:0000bfec       ?d2multi_show_games@@3P6GHXZA 6667bfec     install.obj
 0003:0000bff0       ?d2multi_num2str@@3P6AHHPADH@ZA 6667bff0     install.obj
 0003:0000bff4       ?d2multi_num2str1058@@3P6GHHH@ZA 6667bff4     install.obj
 0003:0000bff8       ?d2mcpclient_pmcp05_type@@3PAHA 6667bff8     install.obj
 0003:0000bffc       ?d2mcpclient_pmcp05_gameName2@@3PADA 6667bffc     install.obj
 0003:0000c000       ?d2mcpclient_pmcp05_gameName@@3PADA 6667c000     install.obj
 0003:0000c004       ?d2mcpclient_pmcp05_off08@@3PAHA 6667c004     install.obj
 0003:0000c008       ?d2mcpclient_pmcp05_nPlayers@@3PAHA 6667c008     install.obj
 0003:0000c00c       ?d2mcpclient_pmcp05_idx@@3PAHA 6667c00c     install.obj
 0003:0000c010       ?d2mcpclient_pmcp05_seqId@@3PAHA 6667c010     install.obj
 0003:0000c014       ?d2mcpclient_pmcp05_buf@@3PAUMcp05Buf@@A 6667c014     install.obj
 0003:0000c018       ?d2mcpclient_pmcpSrc@@3PAPAXA 6667c018     install.obj
 0003:0000c01c       ?d2mcpclient_pAccountInfo@@3PAUD2AccountInfo@@A 6667c01c     install.obj
 0003:0000c020       ?d2mcpclient_pmpc05_seqId@@3PAFA 6667c020     install.obj
 0003:0000c024       ?d2mcpclient_processOnePacket@@3P6GHXZA 6667c024     install.obj
 0003:0000c028       ?d2mcpclient_getMcp05Buf@@3P6GPAUMcp05Buf@@XZA 6667c028     install.obj
 0003:0000c02c       ?d2mcpclient_mcpPacket05@@3P6IHPAUMCPPacket05@@H@ZA 6667c02c     install.obj
 0003:0000c030       ?d2launch_pcharCount@@3PAHA 6667c030     install.obj
 0003:0000c034       ?d2launch_pD2Characters@@3PAPAUD2Character@@A 6667c034     install.obj
 0003:0000c038       ?d2launch_plaunchNumChildren@@3PAHA 6667c038     install.obj
 0003:0000c03c       ?d2launch_plaunchChildren@@3PAPAXA 6667c03c     install.obj
 0003:0000c040       ?d2launch_pSelectedCharIndex@@3PAHA 6667c040     install.obj
 0003:0000c044       ?d2launch_pcreateTextBoxParam11F0@@3PAPAKA 6667c044     install.obj
 0003:0000c048       ?d2launch_DeleteCharacter@@3P6IXPAD@ZA 6667c048     install.obj
 0003:0000c04c       ?d2launch_DeleteSelectedCharacter@@3P6GHH@ZA 6667c04c     install.obj
 0003:0000c050       ?d2launch_sprintf@@3P6AHPAD0ZZA 6667c050     install.obj
 0003:0000c054       ?d2lang_strcat@@3P6IPA_WPA_W0@ZA 6667c054     install.obj
 0003:0000c058       ?d2lang_initLanguage@@3P6IHHPADH@ZA 6667c058     install.obj
 0003:0000c05c       ?d2lang_uninit@@3P6GHXZA   6667c05c     install.obj
 0003:0000c060       ?d2lang_GetLocaleText@@3P6IPA_WH@ZA 6667c060     install.obj
 0003:0000c064       ?d2gfx_pWinState@@3PAHA    6667c064     install.obj
 0003:0000c068       ?d2gfx_pDrawGoundH1@@3PAHA 6667c068     install.obj
 0003:0000c06c       ?d2gfx_pDrawGoundH2@@3PAHA 6667c06c     install.obj
 0003:0000c070       ?d2gfx_pResolutionMode@@3PAHA 6667c070     install.obj
 0003:0000c074       ?d2gfx_DrawRectangle@@3P6GXJJJJHH@ZA 6667c074     install.obj
 0003:0000c078       ?d2gfx_DrawLine@@3P6GXHHHHHH@ZA 6667c078     install.obj
 0003:0000c07c       ?d2gfx_getResolutionMode@@3P6GHXZA 6667c07c     install.obj
 0003:0000c080       ?d2gfx_DrawCellFile@@3P6GXPAUCellContext@@HHKHPAE@ZA 6667c080     install.obj
 0003:0000c084       ?d2gfx_drawSomething@@3P6GXPAXHHHHH@ZA 6667c084     install.obj
 0003:0000c088       ?d2gfx_FillOrb@@3P6GXHHHHHH@ZA 6667c088     install.obj
 0003:0000c08c       ?d2gfx_DrawAutomapNode@@3P6GXPAUCellContext@@HHPAUtagRECT@@K@ZA 6667c08c     install.obj
 0003:0000c090       ?d2gfx_drawShadow@@3P6GXPAXHH@ZA 6667c090     install.obj
 0003:0000c094       ?d2gfx_clearFramebuf@@3P6GXHHHH@ZA 6667c094     install.obj
 0003:0000c098       ?d2gfx_flushFramebuf@@3P6GXXZA 6667c098     install.obj
 0003:0000c09c       ?d2gfx_Ordinal10043@@3P6GXXZA 6667c09c     install.obj
 0003:0000c0a0       ?d2gfx_MinimizeWindows@@3P6GXK@ZA 6667c0a0     install.obj
 0003:0000c0a4       ?d2gfx_GetHwnd@@3P6GPAUHWND__@@XZA 6667c0a4     install.obj
 0003:0000c0a8       ?d2gfx_drawGroundPiece@@3P6GXPAX0HHHHHHH@ZA 6667c0a8     install.obj
 0003:0000c0ac       ?d2gdi_pFrameBuf@@3PAPAXA  6667c0ac     install.obj
 0003:0000c0b0       ?d2gdi_pDisplayRight@@3PAHA 6667c0b0     install.obj
 0003:0000c0b4       ?d2gdi_pFrameBufHeight@@3PAHA 6667c0b4     install.obj
 0003:0000c0b8       ?d2gdi_pFrameBufWidth@@3PAHA 6667c0b8     install.obj
 0003:0000c0bc       ?d2gdi_pColorMap@@3PAHA    6667c0bc     install.obj
 0003:0000c0c0       ?d2game_pDropChioceProb@@3PAHA 6667c0c0     install.obj
 0003:0000c0c4       ?d2game_pDropChioces@@3PAHA 6667c0c4     install.obj
 0003:0000c0c8       ?d2game_pworldHash@@3PAPAUWorldHash@@A 6667c0c8     install.obj
 0003:0000c0cc       ?d2game_pcriticalSection@@3PAUCriticalSection@@A 6667c0cc     install.obj
 0003:0000c0d0       ?d2game_pSPUnitOffsets@@3PAHA 6667c0d0     install.obj
 0003:0000c0d4       ?d2game_psgptDataTables@@3PAPAUD2DataTables@@A 6667c0d4     install.obj
 0003:0000c0d8       ?d2game_MonsterMove@@3P6IXPAUWorld@@PAUUnitAny@@1HHHHH@ZA 6667c0d8     install.obj
 0003:0000c0dc       ?d2game_MonsterUseSkill@@3P6IXPAUWorld@@PAUUnitAny@@HH1HH@ZA 6667c0dc     install.obj
 0003:0000c0e0       ?d2game_SpawnMonster@@3P6IPAUUnitAny@@HHPAUWorld@@PAUAreaRectData@@HHHH@ZA 6667c0e0     install.obj
 0003:0000c0e4       ?d2game_SpawnMonsterEF10@@3P6IPAUUnitAny@@PAUSpawnMon@@@ZA 6667c0e4     install.obj
 0003:0000c0e8       ?d2game_MakeD2S@@3P6IHPAUUnitAny@@PAUWorld@@PADPAHHHH@ZA 6667c0e8     install.obj
 0003:0000c0ec       ?d2game_playerUpgrade@@3P6GHPAUWorld@@@ZA 6667c0ec     install.obj
 0003:0000c0f0       ?d2game_CreateUnit@@3P6IPAUUnitAny@@HHHHPAUWorld@@PAUAreaRectData@@HHH@ZA 6667c0f0     install.obj
 0003:0000c0f4       ?d2game_GetUnit@@3P6IHPAUWorld@@H@ZA 6667c0f4     install.obj
 0003:0000c0f8       ?d2game_isUnitDead@@3P6GHXZA 6667c0f8     install.obj
 0003:0000c0fc       ?d2game_swapWeapon@@3P6GHPAUWorld@@PAH@ZA 6667c0fc     install.obj
 0003:0000c100       ?d2game_pickupItem@@3P6GHHPAH@ZA 6667c100     install.obj
 0003:0000c104       ?d2game_putItemInSocketD4A70@@3P6GHPAUWorld@@PAUUnitAny@@HPAHHHHH@ZA 6667c104     install.obj
 0003:0000c108       ?d2game_recv19_invToHand@@3P6IHPAUWorld@@PAUUnitAny@@PADH@ZA 6667c108     install.obj
 0003:0000c10c       ?d2game_recv16_pickup@@3P6IHPAUWorld@@PAUUnitAny@@PADH@ZA 6667c10c     install.obj
 0003:0000c110       ?d2game_pickup@@3P6IHPAUWorld@@HPAUUnitAny@@H@ZA 6667c110     install.obj
 0003:0000c114       ?d2game_recv60_swapWeapon@@3P6IHPAUWorld@@PAUUnitAny@@PADH@ZA 6667c114     install.obj
 0003:0000c118       ?d2game_recv1A_handToBody@@3P6IHPAUWorld@@PAUUnitAny@@PADH@ZA 6667c118     install.obj
 0003:0000c11c       ?d2game_recv28_socket@@3P6IHPAUWorld@@PAUUnitAny@@PADH@ZA 6667c11c     install.obj
 0003:0000c120       ?d2game_itemNotInInv@@3P6IHHHPAUUnitAny@@@ZA 6667c120     install.obj
 0003:0000c124       ?d2game_processPacket@@3P6GHPAUWorld@@H@ZA 6667c124     install.obj
 0003:0000c128       ?d2game_recv40_quest@@3P6IHPAUWorld@@PAUUnitAny@@PADH@ZA 6667c128     install.obj
 0003:0000c12c       ?d2game_passClassicB9F20@@3P6IHPAUWorld@@PAUUnitAny@@H@ZA 6667c12c     install.obj
 0003:0000c130       ?d2game_passClassicB9A30@@3P6IHXZA 6667c130     install.obj
 0003:0000c134       ?d2game_BaalAI@@3P6IXPAUWorld@@PAUUnitAny@@PAX@ZA 6667c134     install.obj
 0003:0000c138       ?d2game_UberBaalAI@@3P6IXPAUWorld@@PAUUnitAny@@PAX@ZA 6667c138     install.obj
 0003:0000c13c       ?d2game_DiabloAI@@3P6IXPAUWorld@@PAUUnitAny@@PAX@ZA 6667c13c     install.obj
 0003:0000c140       ?d2game_UberDiabloAI@@3P6IXPAUWorld@@PAUUnitAny@@PAX@ZA 6667c140     install.obj
 0003:0000c144       ?d2game_NecSummon@@3P6IPAUUnitAny@@XZA 6667c144     install.obj
 0003:0000c148       ?d2game_LinkPortal@@3P6GPAUUnitAny@@PAUWorld@@PAU1@HH@ZA 6667c148     install.obj
 0003:0000c14c       ?d2game_fun_8EBC0@@3P6GHPAUWorld@@PAX@ZA 6667c14c     install.obj
 0003:0000c150       ?d2game_SetSkillBaseLevelOnClient@@3P6IXPAXPAUUnitAny@@HHH@ZA 6667c150     install.obj
 0003:0000c154       ?d2game_sendPacket@@3P6GHPADH@ZA 6667c154     install.obj
 0003:0000c158       ?d2game_MephAI@@3P6IXPAUWorld@@PAUUnitAny@@PAX@ZA 6667c158     install.obj
 0003:0000c15c       ?d2game_UberMephAI@@3P6IXPAUWorld@@PAUUnitAny@@PAX@ZA 6667c15c     install.obj
 0003:0000c160       ?d2game_fun_769A0@@3P6GHPAUWorld@@HH@ZA 6667c160     install.obj
 0003:0000c164       ?d2game_OpenPandPortal@@3P6IXPAUWorld@@PAUUnitAny@@@ZA 6667c164     install.obj
 0003:0000c168       ?d2game_OpenPandFinalPortal@@3P6IXPAUWorld@@PAUUnitAny@@@ZA 6667c168     install.obj
 0003:0000c16c       ?d2game_passExpansion599E0@@3P6IXPAUWorld@@PAUUnitAny@@H@ZA 6667c16c     install.obj
 0003:0000c170       ?d2game_passExpansion58BE0@@3P6IXPAUUnitAny@@@ZA 6667c170     install.obj
 0003:0000c174       ?d2game_fun_4E2A0@@3P6IXPAUWorld@@PAUUnitAny@@H@ZA 6667c174     install.obj
 0003:0000c178       ?d2game_getNetClient@@3P6IPAUNetClient@@H@ZA 6667c178     install.obj
 0003:0000c17c       ?d2game_processClientQuestReq@@3P6GHPAUWorld@@PAUUnitAny@@@ZA 6667c17c     install.obj
 0003:0000c180       ?d2game_sendQuestToClient@@3P6GHPAUWorld@@@ZA 6667c180     install.obj
 0003:0000c184       ?d2game_processGame@@3P6GHXZA 6667c184     install.obj
 0003:0000c188       ?d2game_isBusy@@3P6GHH@ZA  6667c188     install.obj
 0003:0000c18c       ?d2game_Ord10024@@3P6GHHH@ZA 6667c18c     install.obj
 0003:0000c190       ?d2game_endAllGames@@3P6AHH@ZA 6667c190     install.obj
 0003:0000c194       ?d2game_Ord10038@@3P6GHXZA 6667c194     install.obj
 0003:0000c198       ?d2game_SendDatabaseCharacter@@3P6GHHPAXHHHHPAUPlayerInfo@@H@ZA 6667c198     install.obj
 0003:0000c19c       ?d2game_removeClientFromGame@@3P6GHH@ZA 6667c19c     install.obj
 0003:0000c1a0       ?d2game_SaveGame@@3P6GXPAUWorld@@@ZA 6667c1a0     install.obj
 0003:0000c1a4       ?d2game_NewEmptyGame@@3P6GHPAD00HDDDPAF@ZA 6667c1a4     install.obj
 0003:0000c1a8       ?d2game_getWorld@@3P6GPAUWorld@@XZA 6667c1a8     install.obj
 0003:0000c1ac       ?d2game_getWorldByID@@3P6GPAUWorld@@H@ZA 6667c1ac     install.obj
 0003:0000c1b0       ?d2game_uninit@@3P6GHXZA   6667c1b0     install.obj
 0003:0000c1b4       ?d2game_setWorldHash@@3P6GHPAUWorldHash@@PAH@ZA 6667c1b4     install.obj
 0003:0000c1b8       ?d2game_initCallbackTable@@3P6GHPAX@ZA 6667c1b8     install.obj
 0003:0000c1bc       ?d2game_SpawnSuperUnique@@3P6IHPAUWorld@@PAUAreaRectData@@HHHHHH@ZA 6667c1bc     install.obj
 0003:0000c1c0       ?d2game_Game235C0@@3P6GXPAUWorld@@PAUAreaRectData@@@ZA 6667c1c0     install.obj
 0003:0000c1c4       ?d2game_DropItem1880@@3P6GXPAUWorld@@HHHH@ZA 6667c1c4     install.obj
 0003:0000c1c8       ?d2game_DropItem1490@@3P6GPAUUnitAny@@PAUWorld@@PAXH@ZA 6667c1c8     install.obj
 0003:0000c1cc       ?d2game_GetFreeXY@@3P6GPAUAreaRectData@@PAU1@PAUtagPOINT@@H@ZA 6667c1cc     install.obj
 0003:0000c1d0       ?d2game_GetUnitLevel@@3P6GHH@ZA 6667c1d0     install.obj
 0003:0000c1d4       ?d2game_hasDroppedUnique@@3P6IHH@ZA 6667c1d4     install.obj
 0003:0000c1d8       ?d2game_exit@@3P6GHH@ZA    6667c1d8     install.obj
 0003:0000c1dc       ?d2game_getWorld_2130@@3P6GPAUWorld@@XZA 6667c1dc     install.obj
 0003:0000c1e0       ?d2game_TestPosition@@3P6IPAUAreaRectData@@XZA 6667c1e0     install.obj
 0003:0000c1e4       ?d2game_random@@3P6IHPAUD2Seed@@@ZA 6667c1e4     install.obj
 0003:0000c1e8       ?d2common_pnCubeMain@@3PAHA 6667c1e8     install.obj
 0003:0000c1ec       ?d2common_ppCubeMainTxt@@3PAPAXA 6667c1ec     install.obj
 0003:0000c1f0       ?d2common_pnMapCache@@3PAHA 6667c1f0     install.obj
 0003:0000c1f4       ?d2common_ppMapCache@@3PAPAXA 6667c1f4     install.obj
 0003:0000c1f8       ?d2common_ppLvlSubCache@@3PAPAXA 6667c1f8     install.obj
 0003:0000c1fc       ?d2common_pnLvlSub@@3PAHA  6667c1fc     install.obj
 0003:0000c200       ?d2common_ppLvlSubTxt@@3PAPAXA 6667c200     install.obj
 0003:0000c204       ?d2common_pnLvlMaze@@3PAHA 6667c204     install.obj
 0003:0000c208       ?d2common_ppLvlMazeTxt@@3PAPAXA 6667c208     install.obj
 0003:0000c20c       ?d2common_pnLvlWarp@@3PAHA 6667c20c     install.obj
 0003:0000c210       ?d2common_ppLvlWarpTxt@@3PAPAXA 6667c210     install.obj
 0003:0000c214       ?d2common_pnLvlTypes@@3PAHA 6667c214     install.obj
 0003:0000c218       ?d2common_pnWaypoints@@3PAHA 6667c218     install.obj
 0003:0000c21c       ?d2common_ppWaypoints@@3PAPAXA 6667c21c     install.obj
 0003:0000c220       ?d2common_ppLvlTypesTxt@@3PAPAXA 6667c220     install.obj
 0003:0000c224       ?d2common_ppArenaTxt@@3PAPAXA 6667c224     install.obj
 0003:0000c228       ?d2common_pnCharTemplate@@3PAHA 6667c228     install.obj
 0003:0000c22c       ?d2common_ppCharTemplateTxt@@3PAPAXA 6667c22c     install.obj
 0003:0000c230       ?d2common_pnLvlSubExtraStuff@@3PAHA 6667c230     install.obj
 0003:0000c234       ?d2common_ppLvlSubExtraStuff@@3PAPAXA 6667c234     install.obj
 0003:0000c238       ?d2common_pExpFieldRuntimeData@@3PAPAXA 6667c238     install.obj
 0003:0000c23c       ?d2common_ppExpFieldD2@@3PAPAXA 6667c23c     install.obj
 0003:0000c240       ?d2common_pnDifficultyLevels@@3PAHA 6667c240     install.obj
 0003:0000c244       ?d2common_ppDifficultyLevelsTxt@@3PAPAXA 6667c244     install.obj
 0003:0000c248       ?d2common_ppExperienceTxt@@3PAPAXA 6667c248     install.obj
 0003:0000c24c       ?d2common_ppAnimTables@@3PAPAXA 6667c24c     install.obj
 0003:0000c250       ?d2common_pItemStatCostStuff@@3PAPAXA 6667c250     install.obj
 0003:0000c254       ?d2common_pnLvlPrest@@3PAHA 6667c254     install.obj
 0003:0000c258       ?d2common_ppLvlPrestTxt@@3PAPAXA 6667c258     install.obj
 0003:0000c25c       ?d2common_ppLvlDefsBin@@3PAPAXA 6667c25c     install.obj
 0003:0000c260       ?d2common_pnLevels@@3PAHA  6667c260     install.obj
 0003:0000c264       ?d2common_ppLevelsTxt@@3PAPAXA 6667c264     install.obj
 0003:0000c268       ?d2common_pnMonUMod@@3PAHA 6667c268     install.obj
 0003:0000c26c       ?d2common_ppMonUModTxt@@3PAPAXA 6667c26c     install.obj
 0003:0000c270       ?d2common_ppMonUModLink@@3PAPAXA 6667c270     install.obj
 0003:0000c274       ?d2common_pnMonTypeNesting@@3PAHA 6667c274     install.obj
 0003:0000c278       ?d2common_ppMonTypeNesting@@3PAPAXA 6667c278     install.obj
 0003:0000c27c       ?d2common_pnMonType@@3PAHA 6667c27c     install.obj
 0003:0000c280       ?d2common_ppMonTypeTxt@@3PAPAXA 6667c280     install.obj
 0003:0000c284       ?d2common_ppMonTypeLink@@3PAPAXA 6667c284     install.obj
 0003:0000c288       ?d2common_pnMonProp@@3PAHA 6667c288     install.obj
 0003:0000c28c       ?d2common_ppMonPropTxt@@3PAPAXA 6667c28c     install.obj
 0003:0000c290       ?d2common_ppMonPropLink@@3PAPAXA 6667c290     install.obj
 0003:0000c294       ?d2common_pnUniqueItems@@3PAHA 6667c294     install.obj
 0003:0000c298       ?d2common_ppUniqueItemsTxt@@3PAPAXA 6667c298     install.obj
 0003:0000c29c       ?d2common_ppUniqueItemsLink@@3PAPAXA 6667c29c     install.obj
 0003:0000c2a0       ?d2common_pnSetItems@@3PAHA 6667c2a0     install.obj
 0003:0000c2a4       ?d2common_ppSetItemsTxt@@3PAPAXA 6667c2a4     install.obj
 0003:0000c2a8       ?d2common_ppSetItemsLink@@3PAPAXA 6667c2a8     install.obj
 0003:0000c2ac       ?d2common_pnSets@@3PAHA    6667c2ac     install.obj
 0003:0000c2b0       ?d2common_ppSetsTxt@@3PAPAXA 6667c2b0     install.obj
 0003:0000c2b4       ?d2common_ppSetsLink@@3PAPAXA 6667c2b4     install.obj
 0003:0000c2b8       ?d2common_ppItemTypeNesting@@3PAPAXA 6667c2b8     install.obj
 0003:0000c2bc       ?d2common_pnItemTypeNesting@@3PAHA 6667c2bc     install.obj
 0003:0000c2c0       ?d2common_pnItemTypes@@3PAHA 6667c2c0     install.obj
 0003:0000c2c4       ?d2common_ppItemTypesTxt@@3PAPAXA 6667c2c4     install.obj
 0003:0000c2c8       ?d2common_ppItemTypesLink@@3PAPAXA 6667c2c8     install.obj
 0003:0000c2cc       ?d2common_pnPetTypes@@3PAHA 6667c2cc     install.obj
 0003:0000c2d0       ?d2common_ppPetTypesLink@@3PAPAXA 6667c2d0     install.obj
 0003:0000c2d4       ?d2common_ppPetTypesTxt@@3PAPAXA 6667c2d4     install.obj
 0003:0000c2d8       ?d2common_pnMonEquip@@3PAHA 6667c2d8     install.obj
 0003:0000c2dc       ?d2common_ppMonEquipTxt@@3PAPAXA 6667c2dc     install.obj
 0003:0000c2e0       ?d2common_pnOpStatNesting@@3PAHA 6667c2e0     install.obj
 0003:0000c2e4       ?d2common_ppOpStatNesting@@3PAPAXA 6667c2e4     install.obj
 0003:0000c2e8       ?d2common_pnItemStatCost@@3PAHA 6667c2e8     install.obj
 0003:0000c2ec       ?d2common_ppItemStatCostLink@@3PAPAXA 6667c2ec     install.obj
 0003:0000c2f0       ?d2common_ppItemStatCostTxt@@3PAPAUItemStatCostTxt@@A 6667c2f0     install.obj
 0003:0000c2f4       ?d2common_pnCharStats@@3PAHA 6667c2f4     install.obj
 0003:0000c2f8       ?d2common_ppCharStatsTxt@@3PAPAXA 6667c2f8     install.obj
 0003:0000c2fc       ?d2common_pnOverlay@@3PAHA 6667c2fc     install.obj
 0003:0000c300       ?d2common_ppOverlayLink@@3PAPAXA 6667c300     install.obj
 0003:0000c304       ?d2common_ppOverlayTxt@@3PAPAXA 6667c304     install.obj
 0003:0000c308       ?d2common_ppPassiveSkillList@@3PAPAXA 6667c308     install.obj
 0003:0000c30c       ?d2common_pnPassiveSkillCount@@3PAHA 6667c30c     install.obj
 0003:0000c310       ?d2common_ppPlayerSkillList@@3PAPAXA 6667c310     install.obj
 0003:0000c314       ?d2common_pnPlayerSkillCount@@3PAHA 6667c314     install.obj
 0003:0000c318       ?d2common_ppPlayerSkillCount@@3PAPAXA 6667c318     install.obj
 0003:0000c31c       ?d2common_pnSkills@@3PAHA  6667c31c     install.obj
 0003:0000c320       ?d2common_ppSkillsLink@@3PAPAXA 6667c320     install.obj
 0003:0000c324       ?d2common_ppSkillsTxt@@3PAPAXA 6667c324     install.obj
 0003:0000c328       ?d2common_pnSkillDesc@@3PAHA 6667c328     install.obj
 0003:0000c32c       ?d2common_ppSkillDescLink@@3PAPAXA 6667c32c     install.obj
 0003:0000c330       ?d2common_ppSkillDescTxt@@3PAPAXA 6667c330     install.obj
 0003:0000c334       ?d2common_pnMonSequences@@3PAHA 6667c334     install.obj
 0003:0000c338       ?d2common_ppMonSequences@@3PAPAXA 6667c338     install.obj
 0003:0000c33c       ?d2common_pnMonSeq@@3PAHA  6667c33c     install.obj
 0003:0000c340       ?d2common_ppMonSeqLink@@3PAPAXA 6667c340     install.obj
 0003:0000c344       ?d2common_ppMonSeqTxt@@3PAPAXA 6667c344     install.obj
 0003:0000c348       ?d2common_pnMonLvl@@3PAHA  6667c348     install.obj
 0003:0000c34c       ?d2common_ppMonLvlTxt@@3PAPAXA 6667c34c     install.obj
 0003:0000c350       ?d2common_pnMissiles@@3PAHA 6667c350     install.obj
 0003:0000c354       ?d2common_ppMissilesLink@@3PAPAXA 6667c354     install.obj
 0003:0000c358       ?d2common_ppMissilesTxt@@3PAPAXA 6667c358     install.obj
 0003:0000c35c       ?d2common_pSuperUniqueHcIdxList@@3PAPAXA 6667c35c     install.obj
 0003:0000c360       ?d2common_pnSuperUniques@@3PAHA 6667c360     install.obj
 0003:0000c364       ?d2common_ppSuperUniquesLink@@3PAPAXA 6667c364     install.obj
 0003:0000c368       ?d2common_ppSuperUniquesTxt@@3PAPAXA 6667c368     install.obj
 0003:0000c36c       ?d2common_pnMonPresetEachAct@@3PAHA 6667c36c     install.obj
 0003:0000c370       ?d2common_ppMonPresetActList@@3PAPAXA 6667c370     install.obj
 0003:0000c374       ?d2common_ppMonPresetTxt@@3PAPAXA 6667c374     install.obj
 0003:0000c378       ?d2common_pnMonPlace@@3PAHA 6667c378     install.obj
 0003:0000c37c       ?d2common_ppMonPlaceLink@@3PAPAXA 6667c37c     install.obj
 0003:0000c380       ?d2common_ppMonPlaceTxt@@3PAPAXA 6667c380     install.obj
 0003:0000c384       ?d2common_pnMonStats2@@3PAHA 6667c384     install.obj
 0003:0000c388       ?d2common_ppMonStats2Link@@3PAPAXA 6667c388     install.obj
 0003:0000c38c       ?d2common_ppMonStats2Txt@@3PAPAXA 6667c38c     install.obj
 0003:0000c390       ?d2common_pnMonSounds@@3PAHA 6667c390     install.obj
 0003:0000c394       ?d2common_ppMonSoundsLink@@3PAPAXA 6667c394     install.obj
 0003:0000c398       ?d2common_ppMonSoundsTxt@@3PAPAXA 6667c398     install.obj
 0003:0000c39c       ?d2common_pnMonStats@@3PAHA 6667c39c     install.obj
 0003:0000c3a0       ?d2common_ppMonStatsLink@@3PAPAXA 6667c3a0     install.obj
 0003:0000c3a4       ?d2common_ppMonStatsTxt@@3PAPAXA 6667c3a4     install.obj
 0003:0000c3a8       ?d2common_ppChestTreasureClassList@@3PAPAXA 6667c3a8     install.obj
 0003:0000c3ac       ?d2common_pnTreasureClassEx@@3PAHA 6667c3ac     install.obj
 0003:0000c3b0       ?d2common_ppTreasureClassExTxt@@3PAPAXA 6667c3b0     install.obj
 0003:0000c3b4       ?d2common_ppTreasureClassExLink@@3PAPAXA 6667c3b4     install.obj
 0003:0000c3b8       ?d2common_ppColorsLink@@3PAPAXA 6667c3b8     install.obj
 0003:0000c3bc       ?d2common_ppColorsTxt@@3PAPAXA 6667c3bc     install.obj
 0003:0000c3c0       ?d2common_pnNpcs@@3PAHA    6667c3c0     install.obj
 0003:0000c3c4       ?d2common_ppNpcsTxt@@3PAPAXA 6667c3c4     install.obj
 0003:0000c3c8       ?d2common_pHireNameListEnd@@3PAPAXA 6667c3c8     install.obj
 0003:0000c3cc       ?d2common_pHireNameListStart@@3PAPAXA 6667c3cc     install.obj
 0003:0000c3d0       ?d2common_pnHirelings@@3PAHA 6667c3d0     install.obj
 0003:0000c3d4       ?d2common_ppHirelingsTxt@@3PAPAXA 6667c3d4     install.obj
 0003:0000c3d8       ?d2common_pnSoundCodes@@3PAHA 6667c3d8     install.obj
 0003:0000c3dc       ?d2common_ppSoundCodesLink@@3PAPAXA 6667c3dc     install.obj
 0003:0000c3e0       ?d2common_ppSoundCodesBin@@3PAPAXA 6667c3e0     install.obj
 0003:0000c3e4       ?d2common_pnColorStates@@3PAHA 6667c3e4     install.obj
 0003:0000c3e8       ?d2common_ppColorStates@@3PAPAXA 6667c3e8     install.obj
 0003:0000c3ec       ?d2common_pnActionStates@@3PAHA 6667c3ec     install.obj
 0003:0000c3f0       ?d2common_ppActionStates@@3PAPAXA 6667c3f0     install.obj
 0003:0000c3f4       ?d2common_pnTransformStates@@3PAHA 6667c3f4     install.obj
 0003:0000c3f8       ?d2common_ppTransformStates@@3PAPAXA 6667c3f8     install.obj
 0003:0000c3fc       ?d2common_pnCurseStates@@3PAHA 6667c3fc     install.obj
 0003:0000c400       ?d2common_ppCurseStates@@3PAPAXA 6667c400     install.obj
 0003:0000c404       ?d2common_pnProgressiveStates@@3PAHA 6667c404     install.obj
 0003:0000c408       ?d2common_ppProgressiveStates@@3PAPAXA 6667c408     install.obj
 0003:0000c40c       ?d2common_ppStateMaskArray@@3PAPAXA 6667c40c     install.obj
 0003:0000c410       ?d2common_ppStateMaskFirst@@3PAPAXA 6667c410     install.obj
 0003:0000c414       ?d2common_pnStates@@3PAHA  6667c414     install.obj
 0003:0000c418       ?d2common_ppStatesLink@@3PAPAXA 6667c418     install.obj
 0003:0000c41c       ?d2common_ppStatesTxt@@3PAPAXA 6667c41c     install.obj
 0003:0000c420       ?d2common_ppHireDescLink@@3PAPAXA 6667c420     install.obj
 0003:0000c424       ?d2common_ppHireDescTxt@@3PAPAXA 6667c424     install.obj
 0003:0000c428       ?d2common_ppRunesLink@@3PAPAXA 6667c428     install.obj
 0003:0000c42c       ?d2common_pnProperties@@3PAHA 6667c42c     install.obj
 0003:0000c430       ?d2common_ppPropertiesLink@@3PAPAXA 6667c430     install.obj
 0003:0000c434       ?d2common_ppPropertiesTxt@@3PAPAXA 6667c434     install.obj
 0003:0000c438       ?d2common_pnItemCalcCacheDelta@@3PAHA 6667c438     install.obj
 0003:0000c43c       ?d2common_pnItemCalcCache@@3PAHA 6667c43c     install.obj
 0003:0000c440       ?d2common_ppItemCalcCache@@3PAPAXA 6667c440     install.obj
 0003:0000c444       ?d2common_ppItemLink@@3PAPAXA 6667c444     install.obj
 0003:0000c448       ?d2common_pnMonAi@@3PAHA   6667c448     install.obj
 0003:0000c44c       ?d2common_ppMonAiLink@@3PAPAXA 6667c44c     install.obj
 0003:0000c450       ?d2common_ppMonAiTxt@@3PAPAXA 6667c450     install.obj
 0003:0000c454       ?d2common_pnCompCodes@@3PAHA 6667c454     install.obj
 0003:0000c458       ?d2common_ppCompCodesLink@@3PAPAXA 6667c458     install.obj
 0003:0000c45c       ?d2common_ppCompCodesTxt@@3PAPAXA 6667c45c     install.obj
 0003:0000c460       ?d2common_ppEventsLink@@3PAPAXA 6667c460     install.obj
 0003:0000c464       ?d2common_ppEventsTxt@@3PAPAXA 6667c464     install.obj
 0003:0000c468       ?d2common_ppSkillCodesLink@@3PAPAXA 6667c468     install.obj
 0003:0000c46c       ?d2common_ppSkillCodesBin@@3PAPAXA 6667c46c     install.obj
 0003:0000c470       ?d2common_pnMissCalcCacheDelta@@3PAHA 6667c470     install.obj
 0003:0000c474       ?d2common_pnMissCalcCache@@3PAHA 6667c474     install.obj
 0003:0000c478       ?d2common_ppMissCalcCache@@3PAPAXA 6667c478     install.obj
 0003:0000c47c       ?d2common_ppMissCalcLink@@3PAPAXA 6667c47c     install.obj
 0003:0000c480       ?d2common_ppMissCalcTxt@@3PAPAXA 6667c480     install.obj
 0003:0000c484       ?d2common_pnSkillDescCalcCacheDelta@@3PAHA 6667c484     install.obj
 0003:0000c488       ?d2common_pnSkillDescCalcCache@@3PAHA 6667c488     install.obj
 0003:0000c48c       ?d2common_ppSkillDescCalcCache@@3PAPAXA 6667c48c     install.obj
 0003:0000c490       ?d2common_pnSkillCalcCacheDelta@@3PAHA 6667c490     install.obj
 0003:0000c494       ?d2common_pnSkillCalcCache@@3PAHA 6667c494     install.obj
 0003:0000c498       ?d2common_ppSkillCalcCache@@3PAPAXA 6667c498     install.obj
 0003:0000c49c       ?d2common_ppSkillCalcLink@@3PAPAXA 6667c49c     install.obj
 0003:0000c4a0       ?d2common_ppSkillCalcTxt@@3PAPAXA 6667c4a0     install.obj
 0003:0000c4a4       ?d2common_ppPlrModeLink@@3PAPAXA 6667c4a4     install.obj
 0003:0000c4a8       ?d2common_ppPlrModeTxt@@3PAPAXA 6667c4a8     install.obj
 0003:0000c4ac       ?d2common_ppMonModeLink@@3PAPAXA 6667c4ac     install.obj
 0003:0000c4b0       ?d2common_ppMonModeTxt@@3PAPAXA 6667c4b0     install.obj
 0003:0000c4b4       ?d2common_ppHitClassLink@@3PAPAXA 6667c4b4     install.obj
 0003:0000c4b8       ?d2common_ppHitClassTxt@@3PAPAXA 6667c4b8     install.obj
 0003:0000c4bc       ?d2common_ppElemTypesLink@@3PAPAXA 6667c4bc     install.obj
 0003:0000c4c0       ?d2common_ppElemTypesTxt@@3PAPAXA 6667c4c0     install.obj
 0003:0000c4c4       ?d2common_ppStorePageLink@@3PAPAXA 6667c4c4     install.obj
 0003:0000c4c8       ?d2common_ppStorePageTxt@@3PAPAXA 6667c4c8     install.obj
 0003:0000c4cc       ?d2common_ppBodyLocsLink@@3PAPAXA 6667c4cc     install.obj
 0003:0000c4d0       ?d2common_ppBodyLocsTxt@@3PAPAXA 6667c4d0     install.obj
 0003:0000c4d4       ?d2common_ppPlayerClassLink@@3PAPAXA 6667c4d4     install.obj
 0003:0000c4d8       ?d2common_ppPlayerClassTxt@@3PAPAXA 6667c4d8     install.obj
 0003:0000c4dc       ?d2common_pRuneWordTxt@@3PAPAURuneWordTxt@@A 6667c4dc     install.obj
 0003:0000c4e0       ?d2common_pRuneWords@@3PAHA 6667c4e0     install.obj
 0003:0000c4e4       ?d2common_pArmorTxts@@3PAHA 6667c4e4     install.obj
 0003:0000c4e8       ?d2common_pWeaponsTxts@@3PAHA 6667c4e8     install.obj
 0003:0000c4ec       ?d2common_pItemTxts@@3PAPAUItemTxt@@A 6667c4ec     install.obj
 0003:0000c4f0       ?d2common_pItemTxtCount@@3PAHA 6667c4f0     install.obj
 0003:0000c4f4       ?d2common_pInventoryTxt@@3PAPAUInventoryBIN@@A 6667c4f4     install.obj
 0003:0000c4f8       ?d2common_pInventoryTxtCount@@3PAHA 6667c4f8     install.obj
 0003:0000c4fc       ?d2common_pDataTables@@3PAPAUD2DataTables@@A 6667c4fc     install.obj
 0003:0000c500       ?d2common_compileInventoryTxt@@3P6GPAUInventoryBIN@@H@ZA 6667c500     install.obj
 0003:0000c504       ?d2common_getInventoryPos16@@3P6GXHHPAUEquipmentLayout16@@@ZA 6667c504     install.obj
 0003:0000c508       ?d2common_getInventoryLayout@@3P6GXHHPAUInvLayout@@@ZA 6667c508     install.obj
 0003:0000c50c       ?d2common_getEquipmentPos@@3P6GXHHPAUEquipmentLayout20@@H@ZA 6667c50c     install.obj
 0003:0000c510       ?d2common_compileItemStatCostTxt@@3P6GPAXH@ZA 6667c510     install.obj
 0003:0000c514       ?d2common_compileItemTypeTxt@@3P6GPAXH@ZA 6667c514     install.obj
 0003:0000c518       ?d2common_GetItemTxt@@3P6GPAUItemTxt@@H@ZA 6667c518     install.obj
 0003:0000c51c       ?d2common_getAreaLevel@@3P6GHHHH@ZA 6667c51c     install.obj
 0003:0000c520       ?d2common_GetLevelTxt@@3P6GPAULevelTxt@@H@ZA 6667c520     install.obj
 0003:0000c524       ?d2common_GetLevelWeather@@3P6GDH@ZA 6667c524     install.obj
 0003:0000c528       ?d2common_GetLevelTxt07@@3P6GDH@ZA 6667c528     install.obj
 0003:0000c52c       ?d2common_GetLevelTxt06@@3P6GDH@ZA 6667c52c     install.obj
 0003:0000c530       ?d2common_GetLevelDefTxt@@3P6IPAULevelDefTxt@@H@ZA 6667c530     install.obj
 0003:0000c534       ?d2common_addToRectData1C@@3P6GHPAUUnitAny@@@ZA 6667c534     install.obj
 0003:0000c538       ?d2common_initGameDataTable@@3P6GHHHH@ZA 6667c538     install.obj
 0003:0000c53c       ?d2common_getLvlOfExp@@3P6GHHH@ZA 6667c53c     install.obj
 0003:0000c540       ?d2common_CompileTxtFile@@3P6GPAXHPADPAUTxtField@@PAHH@ZA 6667c540     install.obj
 0003:0000c544       ?d2common_uninit@@3P6GHXZA 6667c544     install.obj
 0003:0000c548       ?d2common_GetMinExpToLevel@@3P6GHHH@ZA 6667c548     install.obj
 0003:0000c54c       ?d2common_getPlayerMaxLvl@@3P6GHH@ZA 6667c54c     install.obj
 0003:0000c550       ?d2common_compileMonTypeTxt@@3P6GPAXH@ZA 6667c550     install.obj
 0003:0000c554       ?d2common_GetTreasureClasses@@3P6GPAUTreasureClass@@GH@ZA 6667c554     install.obj
 0003:0000c558       ?d2common_GetSuperUniqueTxt@@3P6GPAUSuperUniqueTxt@@H@ZA 6667c558     install.obj
 0003:0000c55c       ?d2common_SetSkillBaseLevel@@3P6GXPAUUnitAny@@HHHPADH@ZA 6667c55c     install.obj
 0003:0000c560       ?d2common_getSkillStatus@@3P6GHPAUUnitAny@@PAUSkill@@@ZA 6667c560     install.obj
 0003:0000c564       ?d2common_getMaxSkeletons@@3P6GHPAUUnitAny@@HHH@ZA 6667c564     install.obj
 0003:0000c568       ?d2common_GetSkillCost@@3P6GHPAUUnitAny@@HHH@ZA 6667c568     install.obj
 0003:0000c56c       ?d2common_GetSkillLevel@@3P6GHPAUUnitAny@@PAUSkill@@H@ZA 6667c56c     install.obj
 0003:0000c570       ?d2common_CheckCorpseCanUse@@3P6GHPAUUnitAny@@K@ZA 6667c570     install.obj
 0003:0000c574       ?d2common_getSkillBonus@@3P6IHXZA 6667c574     install.obj
 0003:0000c578       ?d2common_getSkillId@@3P6GHHH@ZA 6667c578     install.obj
 0003:0000c57c       ?d2common_getPlayerSkillCount@@3P6GHH@ZA 6667c57c     install.obj
 0003:0000c580       ?d2common_setSkillCount@@3P6GXPAUSkill@@H@ZA 6667c580     install.obj
 0003:0000c584       ?d2common_GetDropPos@@3P6GPAUAreaRectData@@PAU1@PAUtagPOINT@@1HHHH@ZA 6667c584     install.obj
 0003:0000c588       ?d2common_IsLineBlocked@@3P6GHPAUAreaRectData@@PAUtagPOINT@@1H@ZA 6667c588     install.obj
 0003:0000c58c       ?d2common_setItemEthereal@@3P6GHPAUUnitAny@@@ZA 6667c58c     install.obj
 0003:0000c590       ?d2common_GetObjectTxt@@3P6GPAUObjectTxt@@H@ZA 6667c590     install.obj
 0003:0000c594       ?d2common_isInTown@@3P6GHPAUAreaRectData@@@ZA 6667c594     install.obj
 0003:0000c598       ?d2common_GetLevelIdFromRectData@@3P6GHPAUAreaRectData@@@ZA 6667c598     install.obj
 0003:0000c59c       ?d2common_Common11084@@3P6GHPAUAreaRectData@@H@ZA 6667c59c     install.obj
 0003:0000c5a0       ?d2common_Ord10196@@3P6GHPAUUnitAny@@@ZA 6667c5a0     install.obj
 0003:0000c5a4       ?d2common_stat_10807@@3P6GHPAUUnitAny@@PAUStatList@@H@ZA 6667c5a4     install.obj
 0003:0000c5a8       ?d2common_changeUnitStat@@3P6GHPAUUnitAny@@HHH@ZA 6667c5a8     install.obj
 0003:0000c5ac       ?d2common_AddPlayerStat@@3P6GXPAUUnitAny@@HHH@ZA 6667c5ac     install.obj
 0003:0000c5b0       ?d2common_addStatList@@3P6GHPAUStatList@@HHH@ZA 6667c5b0     install.obj
 0003:0000c5b4       ?d2common_changeStatList@@3P6GHPAUStatList@@HHH@ZA 6667c5b4     install.obj
 0003:0000c5b8       ?d2common_fun39F70@@3P6GHHPAUUnitAny@@@ZA 6667c5b8     install.obj
 0003:0000c5bc       ?d2common_getStatValue39380@@3P6GHH@ZA 6667c5bc     install.obj
 0003:0000c5c0       ?d2common_getUnitMaxHP@@3P6GHPAUUnitAny@@@ZA 6667c5c0     install.obj
 0003:0000c5c4       ?d2common_getUnitMaxMana@@3P6GHPAUUnitAny@@@ZA 6667c5c4     install.obj
 0003:0000c5c8       ?d2common_getUnitMaxStamina@@3P6GHPAUUnitAny@@@ZA 6667c5c8     install.obj
 0003:0000c5cc       ?d2common_GetUnitBaseStat@@3P6GHPAUUnitAny@@HG@ZA 6667c5cc     install.obj
 0003:0000c5d0       ?d2common_GetUnitStat@@3P6GHPAUUnitAny@@HG@ZA 6667c5d0     install.obj
 0003:0000c5d4       ?d2common_getUnitStatValueB00@@3P6GHPAUItemStatCostTxt@@@ZA 6667c5d4     install.obj
 0003:0000c5d8       ?d2common_getStatValueWithMinChecked@@3P6GHPAUItemStatCostTxt@@@ZA 6667c5d8     install.obj
 0003:0000c5dc       ?d2common_GetStatFromStatList@@3P6GHPAUStatList@@KPAUStatEx@@K@ZA 6667c5dc     install.obj
 0003:0000c5e0       ?d2common_bsearchStat@@3P6GHXZA 6667c5e0     install.obj
 0003:0000c5e4       ?d2common_removeStat@@3P6GHH@ZA 6667c5e4     install.obj
 0003:0000c5e8       ?d2common_GetStatListWithFlag@@3P6GPAUStatList@@PAUUnitAny@@HK@ZA 6667c5e8     install.obj
 0003:0000c5ec       ?d2common_GetUnitPosX@@3P6GHPAUDynamicPath@@@ZA 6667c5ec     install.obj
 0003:0000c5f0       ?d2common_GetUnitPosY@@3P6GHPAUDynamicPath@@@ZA 6667c5f0     install.obj
 0003:0000c5f4       ?d2common_CheckUnitState@@3P6GHPAUUnitAny@@H@ZA 6667c5f4     install.obj
 0003:0000c5f8       ?d2common_setUnitMode@@3P6GHPAUUnitAny@@H@ZA 6667c5f8     install.obj
 0003:0000c5fc       ?d2common_GetMonsterHpPercent@@3P6GHPAUUnitAny@@@ZA 6667c5fc     install.obj
 0003:0000c600       ?d2common_IsUnitBlocked@@3P6GHPAUUnitAny@@0H@ZA 6667c600     install.obj
 0003:0000c604       ?d2common_getUnitSize@@3P6GHPAUUnitAny@@@ZA 6667c604     install.obj
 0003:0000c608       ?d2common_getLeftSkill@@3P6GPAUSkill@@PAUUnitAny@@@ZA 6667c608     install.obj
 0003:0000c60c       ?d2common_getCurrentSkill@@3P6GPAUSkill@@PAUUnitAny@@@ZA 6667c60c     install.obj
 0003:0000c610       ?d2common_getUnitPos@@3P6GXPAUUnitAny@@PAUtagPOINT@@@ZA 6667c610     install.obj
 0003:0000c614       ?d2common_getRectData@@3P6GPAUAreaRectData@@PAUUnitAny@@@ZA 6667c614     install.obj
 0003:0000c618       ?d2common_GetBoxType@@3P6GHPAUUnitAny@@EH@ZA 6667c618     install.obj
 0003:0000c61c       ?d2common_allocUnit@@3P6GPAUUnitAny@@HH@ZA 6667c61c     install.obj
 0003:0000c620       ?d2common_setStaticUnitX@@3P6GXPAUUnitAny@@H@ZA 6667c620     install.obj
 0003:0000c624       ?d2common_setStaticUnitY@@3P6GXPAUUnitAny@@H@ZA 6667c624     install.obj
 0003:0000c628       ?d2common_GetPlayerData@@3P6GPAUPlayerData@@PAUUnitAny@@@ZA 6667c628     install.obj
 0003:0000c62c       ?d2common_getObjectFlags@@3P6GHPAUUnitAny@@@ZA 6667c62c     install.obj
 0003:0000c630       ?d2common_setObjectFlags@@3P6GHPAUUnitAny@@H@ZA 6667c630     install.obj
 0003:0000c634       ?d2common_InitDrlgLevel@@3P6GXPAUDrlgLevel@@@ZA 6667c634     install.obj
 0003:0000c638       ?d2common_GetDrlgLevel@@3P6IPAUDrlgLevel@@PAUDrlgMisc@@H@ZA 6667c638     install.obj
 0003:0000c63c       ?d2common_CheckQuestFlag@@3P6GHPAUQuestInfo@@HH@ZA 6667c63c     install.obj
 0003:0000c640       ?d2common_setQuestFlag@@3P6GXPAUQuestInfo@@HH@ZA 6667c640     install.obj
 0003:0000c644       ?d2common_clearQuestFlag@@3P6GXPAUQuestInfo@@HH@ZA 6667c644     install.obj
 0003:0000c648       ?d2common_copyQuestData@@3P6GPAUQuestInfo@@PAU1@PAFHH@ZA 6667c648     install.obj
 0003:0000c64c       ?d2common_GetMercInfo@@3P6GHHHHPAX@ZA 6667c64c     install.obj
 0003:0000c650       ?d2common_setItemSocket@@3P6GHPAUUnitAny@@H@ZA 6667c650     install.obj
 0003:0000c654       ?d2common_GetItemPrice@@3P6GHPAUUnitAny@@0HPAUQuestInfo@@HK@ZA 6667c654     install.obj
 0003:0000c658       ?d2common_EncodeItem@@3P6GHPAUUnitAny@@PADHHHH@ZA 6667c658     install.obj
 0003:0000c65c       ?d2common_EncodeItemBits@@3P6IHPAUUnitAny@@PAUFogBits@@HHH@ZA 6667c65c     install.obj
 0003:0000c660       ?d2common_EncodeComplexItem@@3P6GHPAUUnitAny@@PAUFogBits@@HH@ZA 6667c660     install.obj
 0003:0000c664       ?d2common_searchRunewordTxt@@3P6GPAURuneWordTxt@@PAUUnitAny@@@ZA 6667c664     install.obj
 0003:0000c668       ?d2common_getSocketCount@@3P6GHPAUUnitAny@@@ZA 6667c668     install.obj
 0003:0000c66c       ?d2common_EncodeCompactItem@@3P6GHPAUUnitAny@@H@ZA 6667c66c     install.obj
 0003:0000c670       ?d2common_getUsedSocketed@@3P6GHXZA 6667c670     install.obj
 0003:0000c674       ?d2common_getItemMaxSocket@@3P6GHPAUUnitAny@@@ZA 6667c674     install.obj
 0003:0000c678       ?d2common_checkItemTypeFlags@@3P6GHPAUUnitAny@@H@ZA 6667c678     install.obj
 0003:0000c67c       ?d2common_isMagicItem@@3P6GHPAUUnitAny@@@ZA 6667c67c     install.obj
 0003:0000c680       ?d2common_writeBitStream@@3P6GXPAUFogBits@@@ZA 6667c680     install.obj
 0003:0000c684       ?d2common_getItemSeed@@3P6GPAUD2Seed@@PAUUnitAny@@@ZA 6667c684     install.obj
 0003:0000c688       ?d2common_getItemFingerPrint@@3P6GHPAUUnitAny@@@ZA 6667c688     install.obj
 0003:0000c68c       ?d2common_setItemFingerPrint@@3P6GXPAUUnitAny@@H@ZA 6667c68c     install.obj
 0003:0000c690       ?d2common_getItemQuality@@3P6GHPAUUnitAny@@@ZA 6667c690     install.obj
 0003:0000c694       ?d2common_setItemQuality@@3P6GXPAUUnitAny@@H@ZA 6667c694     install.obj
 0003:0000c698       ?d2common_getItemMagicPrefix@@3P6GHPAUUnitAny@@H@ZA 6667c698     install.obj
 0003:0000c69c       ?d2common_getItemMagicSuffix@@3P6GHPAUUnitAny@@H@ZA 6667c69c     install.obj
 0003:0000c6a0       ?d2common_getRarePrefix@@3P6GFPAUUnitAny@@@ZA 6667c6a0     install.obj
 0003:0000c6a4       ?d2common_getRareSuffix@@3P6GFPAUUnitAny@@@ZA 6667c6a4     install.obj
 0003:0000c6a8       ?d2common_CheckItemFlag@@3P6GHPAUUnitAny@@KHPAD@ZA 6667c6a8     install.obj
 0003:0000c6ac       ?d2common_setItemFlag@@3P6GXPAUUnitAny@@HH@ZA 6667c6ac     install.obj
 0003:0000c6b0       ?d2common_getItemFlag@@3P6GXPAUUnitAny@@@ZA 6667c6b0     install.obj
 0003:0000c6b4       ?d2common_setItemLevel@@3P6GHPAUUnitAny@@H@ZA 6667c6b4     install.obj
 0003:0000c6b8       ?d2common_setItemLocation@@3P6GHPAUUnitAny@@D@ZA 6667c6b8     install.obj
 0003:0000c6bc       ?d2common_getItemTypeB14@@3P6GHPAUUnitAny@@@ZA 6667c6bc     install.obj
 0003:0000c6c0       ?d2common_getItemCode@@3P6GPADPAUUnitAny@@@ZA 6667c6c0     install.obj
 0003:0000c6c4       ?d2common_getItemType@@3P6GHPAUUnitAny@@@ZA 6667c6c4     install.obj
 0003:0000c6c8       ?d2common_getItemTypeByTxt@@3P6GHH@ZA 6667c6c8     install.obj
 0003:0000c6cc       ?d2common_getItemCode1@@3P6GPADPAUUnitAny@@@ZA 6667c6cc     install.obj
 0003:0000c6d0       ?d2common_isQuestItem@@3P6GHPAUUnitAny@@@ZA 6667c6d0     install.obj
 0003:0000c6d4       ?d2common_GetItemFileIndex@@3P6GHPAUUnitAny@@@ZA 6667c6d4     install.obj
 0003:0000c6d8       ?d2common_setItemFileIndex@@3P6GHPAUUnitAny@@H@ZA 6667c6d8     install.obj
 0003:0000c6dc       ?d2common_getItemData1C_20@@3P6GXPAUUnitAny@@PAX1@ZA 6667c6dc     install.obj
 0003:0000c6e0       ?d2common_setOwnerId@@3P6GXPAUUnitAny@@H@ZA 6667c6e0     install.obj
 0003:0000c6e4       ?d2common_isCompactItem@@3P6IDXZA 6667c6e4     install.obj
 0003:0000c6e8       ?d2common_getItemFormat@@3P6GHPAUUnitAny@@@ZA 6667c6e8     install.obj
 0003:0000c6ec       ?d2common_setItemFormat@@3P6GXPAUUnitAny@@F@ZA 6667c6ec     install.obj
 0003:0000c6f0       ?d2common_isBitSet@@3P6GHHH@ZA 6667c6f0     install.obj
 0003:0000c6f4       ?d2common_putItemIntoSocket10405@@3P6GHPAUUnitInventory@@PAUUnitAny@@H@ZA 6667c6f4     install.obj
 0003:0000c6f8       ?d2common_setCursorItem@@3P6GHPAUUnitInventory@@PAUUnitAny@@@ZA 6667c6f8     install.obj
 0003:0000c6fc       ?d2common_isItemInside@@3P6GHPAUUnitInventory@@PAUUnitAny@@@ZA 6667c6fc     install.obj
 0003:0000c700       ?d2common_CheckInvLocation@@3P6GHPAUUnitInventory@@PAUUnitAny@@HHHPAH2E@ZA 6667c700     install.obj
 0003:0000c704       ?d2common_GetNextItemInInv@@3P6GPAUUnitAny@@PAU1@@ZA 6667c704     install.obj
 0003:0000c708       ?d2common_getOwnerInventory@@3P6GPAUUnitInventory@@XZA 6667c708     install.obj
 0003:0000c70c       ?d2common_createInventory@@3P6GPAUUnitInventory@@PAXPAUUnitAny@@@ZA 6667c70c     install.obj
 0003:0000c710       ?d2common_GetFirstItemInInv@@3P6GPAUUnitAny@@PAUUnitInventory@@@ZA 6667c710     install.obj
 0003:0000c714       ?d2common_GetCursorItem@@3P6GPAUUnitAny@@PAUUnitInventory@@@ZA 6667c714     install.obj
 0003:0000c718       ?d2common_getFilledSockets@@3P6GHPAUUnitInventory@@@ZA 6667c718     install.obj
 0003:0000c71c       ?d2common_subEsp@@3P6GHXZA 6667c71c     install.obj
 0003:0000c720       ?d2common_exit@@3P6GHH@ZA  6667c720     install.obj
 0003:0000c724       ?d2common_GetMonStats2@@3P6IPAXXZA 6667c724     install.obj
 0003:0000c728       ?d2common_GetNearRectDataWithPos@@3P6IPAUAreaRectData@@XZA 6667c728     install.obj
 0003:0000c72c       ?d2common_GetCharStatsTxt@@3P6GPAXXZA 6667c72c     install.obj
 0003:0000c730       ?d2cmp_mpq_path_3010@@3P6IHPAD@ZA 6667c730     install.obj
 0003:0000c734       ?d2cmp_InitCellFile@@3P6GXPAXPAPAUCellFile@@PADHH2@ZA 6667c734     install.obj
 0003:0000c738       ?d2cmp_DeleteCellFile@@3P6GXPAUCellFile@@@ZA 6667c738     install.obj
 0003:0000c73c       ?d2client_pIsEquipment800x600@@3PAHA 6667c73c     install.obj
 0003:0000c740       ?d2client_pQuestPage@@3PAHA 6667c740     install.obj
 0003:0000c744       ?d2client_plpCritialSection@@3PAPAUCriticalSection@@A 6667c744     install.obj
 0003:0000c748       ?d2client_pworldHash@@3PAPAUWorldHash@@A 6667c748     install.obj
 0003:0000c74c       ?d2client_pLastChatMessage@@3PA_WA 6667c74c     install.obj
 0003:0000c750       ?d2client_pPetUnitList@@3PAPAUPetUnit@@A 6667c750     install.obj
 0003:0000c754       ?d2client_pShowManaStr@@3PAHA 6667c754     install.obj
 0003:0000c758       ?d2client_pShowLifeStr@@3PAHA 6667c758     install.obj
 0003:0000c75c       ?d2client_pBeltNotEmpty@@3PADA 6667c75c     install.obj
 0003:0000c760       ?d2client_pScreenBlocked@@3PAHA 6667c760     install.obj
 0003:0000c764       ?d2client_pStandStill@@3PAHA 6667c764     install.obj
 0003:0000c768       ?d2client_pDrlgAct@@3PAPAUDrlgAct@@A 6667c768     install.obj
 0003:0000c76c       ?d2client_pnotAcceptKeys@@3PAHA 6667c76c     install.obj
 0003:0000c770       ?d2client_pMButton@@3PAHA  6667c770     install.obj
 0003:0000c774       ?d2client_pInGame@@3PAHA   6667c774     install.obj
 0003:0000c778       ?d2client_pDifficulty@@3PAEA 6667c778     install.obj
 0003:0000c77c       ?d2client_pMercData32@@3PAHA 6667c77c     install.obj
 0003:0000c780       ?d2client_pFlagUnknownC2F8@@3PAHA 6667c780     install.obj
 0003:0000c784       ?d2client_pHasSelectedObject@@3PAHA 6667c784     install.obj
 0003:0000c788       ?d2client_pFps@@3PAHA      6667c788     install.obj
 0003:0000c78c       ?d2client_pAutoMapSize@@3PAUtagPOINT@@A 6667c78c     install.obj
 0003:0000c790       ?d2client_pMinimapOffset@@3PAUtagPOINT@@A 6667c790     install.obj
 0003:0000c794       ?d2client_pInfoPositionY@@3PAHA 6667c794     install.obj
 0003:0000c798       ?d2client_pScreenMinimapY@@3PAHA 6667c798     install.obj
 0003:0000c79c       ?d2client_pScreenMinimapX@@3PAHA 6667c79c     install.obj
 0003:0000c7a0       ?d2client_pAutomapPos@@3PAUtagPOINT@@A 6667c7a0     install.obj
 0003:0000c7a4       ?d2client_pMinimapCellFile@@3PAPAUCellFile@@A 6667c7a4     install.obj
 0003:0000c7a8       ?d2client_pAutomapLayer@@3PAPAUAutomapLayer@@A 6667c7a8     install.obj
 0003:0000c7ac       ?d2client_pAutomapLayerList@@3PAPAUAutomapLayer@@A 6667c7ac     install.obj
 0003:0000c7b0       ?d2client_pMinimapType@@3PAHA 6667c7b0     install.obj
 0003:0000c7b4       ?d2client_pChatTextLength@@3PAHA 6667c7b4     install.obj
 0003:0000c7b8       ?d2client_pMapShakeX@@3PAJA 6667c7b8     install.obj
 0003:0000c7bc       ?d2client_pIsMapShakeOn@@3PAHA 6667c7bc     install.obj
 0003:0000c7c0       ?d2client_pActiveWeapon@@3PAHA 6667c7c0     install.obj
 0003:0000c7c4       ?d2client_pStachImage@@3PAPAUCellFile@@A 6667c7c4     install.obj
 0003:0000c7c8       ?d2client_pPanelTradeStash@@3PAPAUCellFile@@A 6667c7c8     install.obj
 0003:0000c7cc       ?d2client_pPanelCube@@3PAPAUCellFile@@A 6667c7cc     install.obj
 0003:0000c7d0       ?d2client_pPanelBank@@3PAPAUCellFile@@A 6667c7d0     install.obj
 0003:0000c7d4       ?d2client_pNpcTradeCurrentTab@@3PAHA 6667c7d4     install.obj
 0003:0000c7d8       ?d2client_pCurrentViewItem@@3PAPAUUnitAny@@A 6667c7d8     install.obj
 0003:0000c7dc       ?d2client_pRosterUnitList@@3PAPAURosterUnit@@A 6667c7dc     install.obj
 0003:0000c7e0       ?d2client_pPlayerUnit@@3PAPAUUnitAny@@A 6667c7e0     install.obj
 0003:0000c7e4       ?d2client_pGoldInTranBox@@3PAHA 6667c7e4     install.obj
 0003:0000c7e8       ?d2client_pDrawOffsetY@@3PAHA 6667c7e8     install.obj
 0003:0000c7ec       ?d2client_pDrawOffsetX@@3PAHA 6667c7ec     install.obj
 0003:0000c7f0       ?d2client_pDrawOffset@@3PAUtagPOINT@@A 6667c7f0     install.obj
 0003:0000c7f4       ?d2client_pIs800x600@@3PAHA 6667c7f4     install.obj
 0003:0000c7f8       ?d2client_pGameInfo@@3PAPAUGameStructInfo@@A 6667c7f8     install.obj
 0003:0000c7fc       ?d2client_pMouseX@@3PAHA   6667c7fc     install.obj
 0003:0000c800       ?d2client_pMouseY@@3PAHA   6667c800     install.obj
 0003:0000c804       ?d2client_pPanelBtn@@3PAPAUCellFile@@A 6667c804     install.obj
 0003:0000c808       ?d2client_pPanelInvChar@@3PAPAUCellFile@@A 6667c808     install.obj
 0003:0000c80c       ?d2client_pXButton1@@3PAHA 6667c80c     install.obj
 0003:0000c810       ?d2client_pXButton2@@3PAHA 6667c810     install.obj
 0003:0000c814       ?d2client_pKeyboardSettingEnd@@3PAUKeyboardSetting@@A 6667c814     install.obj
 0003:0000c818       ?d2client_pKeyboardSettingStart@@3PAUKeyboardSetting@@A 6667c818     install.obj
 0003:0000c81c       ?d2client_pSkillHotKeyLeft@@3PAHA 6667c81c     install.obj
 0003:0000c820       ?d2client_pSkillHotKeys@@3PAHA 6667c820     install.obj
 0003:0000c824       ?d2client_pCastingDelayEndFrame@@3PAHA 6667c824     install.obj
 0003:0000c828       ?d2client_pExpansion@@3PAHA 6667c828     install.obj
 0003:0000c82c       ?d2client_pPing@@3PAHA     6667c82c     install.obj
 0003:0000c830       ?d2client_pCurFrame@@3PAHA 6667c830     install.obj
 0003:0000c834       ?d2client_pTradeRelated@@3PAPAHA 6667c834     install.obj
 0003:0000c838       ?d2client_pGameQuestData@@3PAPAUQuestInfo@@A 6667c838     install.obj
 0003:0000c83c       ?d2client_pQuestData@@3PAPAUQuestInfo@@A 6667c83c     install.obj
 0003:0000c840       ?d2client_pAutomapNodeListBaseAddr@@3PAPAXA 6667c840     install.obj
 0003:0000c844       ?d2client_pMapShakeY@@3PAJA 6667c844     install.obj
 0003:0000c848       ?d2client_pUnitTable@@3PAPAUUnitAny@@A 6667c848     install.obj
 0003:0000c84c       ?d2client_pWaypointMenuCount@@3PAHA 6667c84c     install.obj
 0003:0000c850       ?d2client_pWaypointMenuCurTab@@3PAHA 6667c850     install.obj
 0003:0000c854       ?d2client_pWaypointMenuItems@@3PAUWaypointMenuItem@@A 6667c854     install.obj
 0003:0000c858       ?d2client_pUiHelpOn@@3PAHA 6667c858     install.obj
 0003:0000c85c       ?d2client_pUiBeltOn@@3PAHA 6667c85c     install.obj
 0003:0000c860       ?d2client_pUiCubeOn@@3PAHA 6667c860     install.obj
 0003:0000c864       ?d2client_pUiStashOn@@3PAHA 6667c864     install.obj
 0003:0000c868       ?d2client_pUiMessageLogOn@@3PAHA 6667c868     install.obj
 0003:0000c86c       ?d2client_pUiPPLTradeOn@@3PAHA 6667c86c     install.obj
 0003:0000c870       ?d2client_pUiPartyOn@@3PAHA 6667c870     install.obj
 0003:0000c874       ?d2client_pUiWaypointOn@@3PAHA 6667c874     install.obj
 0003:0000c878       ?d2client_pUiNewQuestOn@@3PAHA 6667c878     install.obj
 0003:0000c87c       ?d2client_pUiQuestOn@@3PAHA 6667c87c     install.obj
 0003:0000c880       ?d2client_pUiModItemOn@@3PAHA 6667c880     install.obj
 0003:0000c884       ?d2client_pUiShowItemsOn@@3PAHA 6667c884     install.obj
 0003:0000c888       ?d2client_pUiNpcTradeOn@@3PAHA 6667c888     install.obj
 0003:0000c88c       ?d2client_pAutomapOn@@3PAHA 6667c88c     install.obj
 0003:0000c890       ?d2client_pUiGameMenuOn@@3PAHA 6667c890     install.obj
 0003:0000c894       ?d2client_pUiInteractOn@@3PAHA 6667c894     install.obj
 0003:0000c898       ?d2client_pUiNewSkillOn@@3PAHA 6667c898     install.obj
 0003:0000c89c       ?d2client_pUiNewStatOn@@3PAHA 6667c89c     install.obj
 0003:0000c8a0       ?d2client_pUiChatOn@@3PAHA 6667c8a0     install.obj
 0003:0000c8a4       ?d2client_pUiSkillTreeOn@@3PAHA 6667c8a4     install.obj
 0003:0000c8a8       ?d2client_pUiSelectSkillOn@@3PAHA 6667c8a8     install.obj
 0003:0000c8ac       ?d2client_pUiCharacterOn@@3PAHA 6667c8ac     install.obj
 0003:0000c8b0       ?d2client_pUiInventoryOn@@3PAHA 6667c8b0     install.obj
 0003:0000c8b4       ?d2client_pUiDropGoldWindow@@3PAPAXA 6667c8b4     install.obj
 0003:0000c8b8       ?d2client_pInfoPositionX@@3PAHA 6667c8b8     install.obj
 0003:0000c8bc       ?d2client_pExitAppFlag@@3PAHA 6667c8bc     install.obj
 0003:0000c8c0       ?d2client_pGameControlEnd@@3PAHA 6667c8c0     install.obj
 0003:0000c8c4       ?d2client_pGameControlStart@@3PAHA 6667c8c4     install.obj
 0003:0000c8c8       ?d2client_pMercData16@@3PAHA 6667c8c8     install.obj
 0003:0000c8cc       ?d2client_pMinimapZoom@@3PAHA 6667c8cc     install.obj
 0003:0000c8d0       ?d2client_pCurSkillClass@@3PAHA 6667c8d0     install.obj
 0003:0000c8d4       ?d2client_pCursorInvGridY@@3PAHA 6667c8d4     install.obj
 0003:0000c8d8       ?d2client_pCursorInvGridX@@3PAHA 6667c8d8     install.obj
 0003:0000c8dc       ?d2client_pLastMousePos@@3PAUtagPOINT@@A 6667c8dc     install.obj
 0003:0000c8e0       ?d2client_pScreenHeight@@3PAHA 6667c8e0     install.obj
 0003:0000c8e4       ?d2client_pScreenWidth@@3PAHA 6667c8e4     install.obj
 0003:0000c8e8       ?d2client_pScreenSize@@3PAUtagPOINT@@A 6667c8e8     install.obj
 0003:0000c8ec       ?d2client_psgptDataTables@@3PAPAUD2DataTables@@A 6667c8ec     install.obj
 0003:0000c8f0       ?d2client_DrawControls@@3P6GHH@ZA 6667c8f0     install.obj
 0003:0000c8f4       ?d2client_SetUiStatus@@3P6IHHHK@ZA 6667c8f4     install.obj
 0003:0000c8f8       ?d2client_LoadUiImageSubpath@@3P6IPAUCellFile@@XZA 6667c8f8     install.obj
 0003:0000c8fc       ?d2client_CheckUiStatusStub@@3P6IHH@ZA 6667c8fc     install.obj
 0003:0000c900       ?d2client_PacketHandler@@3P6GXH@ZA 6667c900     install.obj
 0003:0000c904       ?d2client_RecvCommand07@@3P6IXPAE@ZA 6667c904     install.obj
 0003:0000c908       ?d2client_RecvCommand08@@3P6IXPAE@ZA 6667c908     install.obj
 0003:0000c90c       ?d2client_removeUnitFromHash@@3P6IHPAPAUUnitAny@@HHH@ZA 6667c90c     install.obj
 0003:0000c910       ?d2client_addUnitToHash@@3P6GHXZA 6667c910     install.obj
 0003:0000c914       ?d2client_GetUnitFromId@@3P6IPAUUnitAny@@HH@ZA 6667c914     install.obj
 0003:0000c918       ?d2client_CanUseSkillNow@@3P6GHH@ZA 6667c918     install.obj
 0003:0000c91c       ?d2client_DrawAllUnits@@3P6GHXZA 6667c91c     install.obj
 0003:0000c920       ?d2client_CalcShake@@3P6GXPAH0@ZA 6667c920     install.obj
 0003:0000c924       ?d2client_ShowGameMessage@@3P6GXPA_WH@ZA 6667c924     install.obj
 0003:0000c928       ?d2client_ShowPartyMessage@@3P6GXPA_WH@ZA 6667c928     install.obj
 0003:0000c92c       ?d2client_getSkillTreeButtonY@@3P6IHXZA 6667c92c     install.obj
 0003:0000c930       ?d2client_getSkillTreeButtonX@@3P6IHXZA 6667c930     install.obj
 0003:0000c934       ?d2client_ChatInputStub@@3P6GXPAUD2MSG@@@ZA 6667c934     install.obj
 0003:0000c938       ?d2client_InitAutomapLayerStub@@3P6IPAUAutomapLayer@@K@ZA 6667c938     install.obj
 0003:0000c93c       ?d2client_AddAreaRectToMinimap@@3P6GXPAUAreaRectData@@KPAUAutomapLayer@@@ZA 6667c93c     install.obj
 0003:0000c940       ?d2client_AddAutomapNode@@3P6IXPAUAutomapNode@@PAPAU1@@ZA 6667c940     install.obj
 0003:0000c944       ?d2client_SetAutomapPartyStub@@3P6IXK@ZA 6667c944     install.obj
 0003:0000c948       ?d2client_SetAutomapNamesStub@@3P6IXK@ZA 6667c948     install.obj
 0003:0000c94c       ?d2client_NewAutomapNode@@3P6IPAUAutomapNode@@XZA 6667c94c     install.obj
 0003:0000c950       ?d2client_GetSelectedUnit@@3P6GPAUUnitAny@@XZA 6667c950     install.obj
 0003:0000c954       ?d2client_Unknown6150@@3P6GHXZA 6667c954     install.obj
 0003:0000c958       ?d2client_GetScreenDrawY@@3P6GJXZA 6667c958     install.obj
 0003:0000c95c       ?d2client_GetScreenDrawX@@3P6GJXZA 6667c95c     install.obj
 0003:0000c960       ?d2client_DrawSkillButtonE5E0@@3P6GXHHHHHH@ZA 6667c960     install.obj
 0003:0000c964       ?d2client_SkillUnusable@@3P6IXXZA 6667c964     install.obj
 0003:0000c968       ?d2client_processMessages@@3P6IXXZA 6667c968     install.obj
 0003:0000c96c       ?d2client_ShowMap@@3P6IXXZA 6667c96c     install.obj
 0003:0000c970       ?d2client_LoadUiImageFunc@@3P6GPAUCellFile@@H@ZA 6667c970     install.obj
 0003:0000c974       ?d2client_UseBelt@@3P6IXPAUUnitInventory@@PAUUnitAny@@H@ZA 6667c974     install.obj
 0003:0000c978       ?d2client_DrawClient@@3P6IXXZA 6667c978     install.obj
 0003:0000c97c       ?d2client_DrawSkillButton@@3P6GXPAUSkill@@HHH@ZA 6667c97c     install.obj
 0003:0000c980       ?d2client_PlaySound@@3P6IHHHH@ZA 6667c980     install.obj
 0003:0000c984       ?d2client_ItemProtect@@3P6GXPAUUnitAny@@K@ZA 6667c984     install.obj
 0003:0000c988       ?d2client_GetMonsterOwner@@3P6IHH@ZA 6667c988     install.obj
 0003:0000c98c       ?d2client_LeftClickBDE0@@3P6GHXZA 6667c98c     install.obj
 0003:0000c990       ?d2client_RightClickBC40@@3P6GHXZA 6667c990     install.obj
 0003:0000c994       ?d2client_ShouldClick85E0@@3P6GHXZA 6667c994     install.obj
 0003:0000c998       ?d2client_SendPacket3@@3P6IXF@ZA 6667c998     install.obj
 0003:0000c99c       ?d2client_SendPacket43E0@@3P6GXPAD@ZA 6667c99c     install.obj
 0003:0000c9a0       ?d2client_SetResolutionMode@@3P6GXXZA 6667c9a0     install.obj
 0003:0000c9a4       ?d2client_getNearbyRectData@@3P6GXPAUAreaRectData@@PAPAPAU1@PAH@ZA 6667c9a4     install.obj
 0003:0000c9a8       ?d2client_Storm511@@3P6GXPAUD2MSG@@@ZA 6667c9a8     install.obj
 0003:0000c9ac       ?d2client_subEsp@@3P6GHXZA 6667c9ac     install.obj
 0003:0000c9b0       ?d2client_getSkillDescTxt@@3P6IPAXXZA 6667c9b0     install.obj
 0003:0000c9b4       ?bnclient_pBnChatMessage@@3PAPAKA 6667c9b4     install.obj
 0003:0000c9bc       ?load_dll_error@@3HA       6667c9bc     install.obj
 0003:0000c9c0       ?fLocalizationSupport@@3HA 6667c9c0     install.obj
 0003:0000c9c4       ?fGameFilter@@3HA          6667c9c4     install.obj
 0003:0000c9c8       ?hasPlugY@@3HA             6667c9c8     install.obj
 0003:0000c9cc       ?pPatchList@@3PAPAUInstalledPatch@@A 6667c9cc     install.obj
 0003:0000c9dc       ?networkPatch@@3PAUInstalledPatch@@A 6667c9dc     install.obj
 0003:0000ddf0       ?dwDumpMpqPath@@3HA        6667ddf0     mpq.obj
 0003:0000dea0       ?singlePlayerWorld@@3PAUWorld@@A 6667dea0     common.obj
 0003:0000dea4       ?forceStandStill@@3HA      6667dea4     common.obj
 0003:0000ead0       ?nPet@@3HA                 6667ead0     common.obj
 0003:0000ead4       ?petCap@@3HA               6667ead4     common.obj
 0003:0000ead8       ?dwPetListChangeVerify@@3HA 6667ead8     common.obj
 0003:0000eae0       ?fPartyListValid@@3HA      6667eae0     common.obj
 0003:0000eb04       ?dwChangeLeftSkill@@3HA    6667eb04     loop.obj
 0003:0000eb08       ?fDebugMs@@3HA             6667eb08     loop.obj
 0003:0000eb0c       ?dwLevelChangeMs@@3HA      6667eb0c     loop.obj
 0003:0000eb10       ?dwCpuUser@@3HA            6667eb10     loop.obj
 0003:0000eb14       ?dwCpuKernel@@3HA          6667eb14     loop.obj
 0003:0000eb18       ?dwLoopFPS@@3HA            6667eb18     loop.obj
 0003:0000eb1c       ?dwDrawFPS@@3HA            6667eb1c     loop.obj
 0003:0000eb20       ?dwCurMs@@3HC              6667eb20     loop.obj
 0003:0000eb24       ?dwEnterGameMs@@3HA        6667eb24     loop.obj
 0003:0000eb28       ?fStartingGame@@3HA        6667eb28     loop.obj
 0003:0000eb2c       ?fInGame@@3HA              6667eb2c     loop.obj
 0003:0000eb30       ?dwEnterGameShowDifficultyMs@@3HA 6667eb30     loop.obj
 0003:0000eb34       ?dwCurrentAct@@3HA         6667eb34     loop.obj
 0003:0000eb38       ?dwPlayerX@@3HA            6667eb38     loop.obj
 0003:0000eb3c       ?dwPlayerY@@3HA            6667eb3c     loop.obj
 0003:0000eb40       ?dwPlayerId@@3HA           6667eb40     loop.obj
 0003:0000eb44       ?dwPlayerPartyId@@3HA      6667eb44     loop.obj
 0003:0000eb48       ?dwPlayerClass@@3HA        6667eb48     loop.obj
 0003:0000eb4c       ?pLeftSkill@@3PAUSkill@@A  6667eb4c     loop.obj
 0003:0000eb50       ?pRightSkill@@3PAUSkill@@A 6667eb50     loop.obj
 0003:0000eb54       ?dwLeftSkillStatus@@3HA    6667eb54     loop.obj
 0003:0000eb58       ?dwRightSkillStatus@@3HA   6667eb58     loop.obj
 0003:0000eb5c       ?dwPlayerLevel@@3HA        6667eb5c     loop.obj
 0003:0000eb60       ?dwPlayerHP@@3HA           6667eb60     loop.obj
 0003:0000eb64       ?dwPlayerMaxHP@@3HA        6667eb64     loop.obj
 0003:0000eb68       ?dwPlayerMana@@3HA         6667eb68     loop.obj
 0003:0000eb6c       ?dwPlayerMaxMana@@3HA      6667eb6c     loop.obj
 0003:0000eb70       ?dwPlayerFcrFrame@@3HA     6667eb70     loop.obj
 0003:0000eb74       ?dwPlayerFcrMs@@3HA        6667eb74     loop.obj
 0003:0000ebb8       ?wcsLevelTargetName@@3PA_WA 6667ebb8     map.obj
 0003:0000ecc0       ?dwDuranceOfHateLevel3TeleportShift@@3PAHA 6667ecc0     map.obj
 0003:0000ecc8       ?dwRescueBarDy@@3HA        6667ecc8     map.obj
 0003:0000eccc       ?dwRescueBarDx@@3HA        6667eccc     map.obj
 0003:0000ece4       ?pCurMapLevel@@3PAUMinimapLevel@@A 6667ece4     map.obj
 0003:0000ece8       ?minimapLevels@@3PAUMinimapLevel@@A 6667ece8     map.obj
 0003:000103b0       ?pMinimapObjectCell@@3PAUCellFile@@A 666803b0     map.obj
 0003:000103b4       ?dwRevealMapMs@@3HA        666803b4     map.obj
 0003:000103b8       ?dwAutoRevealCLevel@@3HA   666803b8     map.obj
 0003:000103bc       ?nCaveNameTextCol@@3EA     666803bc     map.obj
 0003:000103bd       ?nSuperUniqueDescFont@@3EA 666803bd     map.obj
 0003:000103c0       ?anMonsterColours@@3PAEA   666803c0     map.obj
 0003:000107a8       ?wszStaffTombLvlDesc@@3PA_WA 666807a8     map.obj
 0003:0001080c       ?dwScreenScrollCount@@3HA  6668080c     map.obj
 0003:00010810       ?aszUnitBlobFiles@@3PAY0DC@DA 66680810     map.obj
 0003:00010a38       ?awszEnchantDescs@@3PAY0BE@_WA 66680a38     map.obj
 0003:00011208       ?awszAuraDescs@@3PAY0BE@_WA 66681208     map.obj
 0003:00011320       ?awszImmuneDescs@@3PAY0BE@_WA 66681320     map.obj
 0003:00011410       ?anMonsterCorpseColors@@3PAEA 66681410     map.obj
 0003:000117f8       ?anMissileColours@@3PAEA   666817f8     map.obj
 0003:00011be0       ?dwMinimapScrollCount@@3HA 66681be0     map.obj
 0003:00011be8       ?tScreenScrollKeys@@3PAUToggleVar@@A 66681be8     map.obj
 0003:00011ee8       ?dwScreenScrollOffset@@3PAY01HA 66681ee8     map.obj
 0003:00011f68       ?tMiniMapScrollKeys@@3PAUToggleVar@@A 66681f68     map.obj
 0003:00012268       ?dwMiniMapScrollOffset@@3PAY01HA 66682268     map.obj
 0003:000124f4       ?dwSendPacketCount@@3HA    666824f4     packet.obj
 0003:000124f8       ?fMonitorSendCmd@@3PADA    666824f8     packet.obj
 0003:000125f8       ?fMonitorRecvCmd@@3PADA    666825f8     packet.obj
 0003:000127f8       ?dwInteractEntityCount@@3HA 666827f8     packet.obj
 0003:00012804       ?dwTargetDistanceMs@@3HA   66682804     route.obj
 0003:00012808       ?dwTargetDistance@@3HA     66682808     route.obj
 0003:00012834       ?pSrcRect@@3PAURouteRect@@A 66682834     route.obj
 0003:00012838       ?dwTakeWaypointToLevel@@3HA 66682838     waypoint.obj
 0003:0001283c       ?waypointBits@@3PADA       6668283c     waypoint.obj
 0003:00012848       ?waypointMap@@3PAHA        66682848     waypoint.obj
 0003:00012a78       ?mouseL@@3HA               66682a78     winmsg.obj
 0003:00012a7c       ?mouseW@@3HA               66682a7c     winmsg.obj
 0003:00014e80       ?fSkipPainting@@3HA        66684e80     winmsg.obj
 0003:00014e84       ?fSkipPaintingMenu@@3HA    66684e84     winmsg.obj
 0003:00014e88       ?dwQuickSwapItemMs@@3HA    66684e88     winmsg.obj
 0003:00014e8c       ?dwScreenBlockMask@@3HA    66684e8c     winmsg.obj
 0003:00014e90       ?dwDrawCount@@3HA          66684e90     winmsg.obj
 0003:00014e94       ?fInMainMenu@@3HA          66684e94     winmsg.obj
 0003:00014e98       ?fLeftBtnDown@@3HA         66684e98     winmsg.obj
 0003:00014e9c       ?fRightBtnDown@@3HA        66684e9c     winmsg.obj
 0003:00014ea0       ?dwBtnReleaseMs@@3HA       66684ea0     winmsg.obj
 0003:00014ea4       ?fUserOperating@@3HA       66684ea4     winmsg.obj
 0003:00014ed0       ?fNoBackgroundImage@@3HA   66684ed0     winmsg.obj
 0003:00014ed4       ?dwAutoHideMinimapKey@@3HA 66684ed4     winmsg.obj
 0003:00014ed8       ?dwGameControlKeys@@3PAY03HA 66684ed8     winmsg.obj
 0003:000152d8       ?dwGameSoundKeys@@3PAHA    666852d8     winmsg.obj
 0003:000154d8       ?tSwitchWindowKeys@@3PAY01UToggleVar@@A 666854d8     winmsg.obj
 0003:00015ad8       ?dwSwitchSkillKeyCount@@3HA 66685ad8     winmsg.obj
 0003:00015adc       ?fFullWindows@@3HA         66685adc     winmsg.obj
 0003:00015ae0       ?dwSwitchSkillKeys@@3PAHA  66685ae0     winmsg.obj
 0003:00015b60       ?dwSwitchSkillLeft@@3PAY173HA 66685b60     winmsg.obj
 0003:00016b60       ?dwSwitchSkillRight@@3PAY173HA 66686b60     winmsg.obj
 0003:00017b60       ?dwSwitchSkillLeftUp@@3PAY07HA 66687b60     winmsg.obj
 0003:00017f60       ?dwSwitchSkillRightUp@@3PAY07HA 66687f60     winmsg.obj
 0003:00018360       ?dwSwitchSkillStandStill@@3PAHA 66688360     winmsg.obj
 0003:000183e0       ?dwSwitchSkillLeftOrg@@3PAHA 666883e0     winmsg.obj
 0003:00018460       ?dwSwitchSkillRightOrg@@3PAHA 66688460     winmsg.obj
 0003:00018510       ?dwVisualEffectMode@@3HA   66688510     env.obj
 0003:00018518       ?afMonsterCorpses@@3PAEA   66688518     env.obj
 0003:00018900       ?afMissileCorpses@@3PAEA   66688900     env.obj
 0003:00018ce8       ?dwNextStackLoc@@3HA       66688ce8     GameMonitor.obj
 0003:00018cec       ?dwNextStackY@@3HA         66688cec     GameMonitor.obj
 0003:00018cf0       ?dwNextStackX@@3HA         66688cf0     GameMonitor.obj
 0003:00018cf4       ?dwNextStackingId@@3HA     66688cf4     GameMonitor.obj
 0003:00018cf8       ?dwThrowWeaponId@@3HA      66688cf8     GameMonitor.obj
 0003:00018d10       ?dwNextMPotionId@@3HA      66688d10     GameMonitor.obj
 0003:00018d14       ?dwNextHPotionId@@3HA      66688d14     GameMonitor.obj
 0003:00018d18       ?beltLayers@@3HA           66688d18     GameMonitor.obj
 0003:00018d1c       ?dwNeedPotionType@@3HA     66688d1c     GameMonitor.obj
 0003:00018d20       ?beltType@@3PAEA           66688d20     GameMonitor.obj
 0003:00018d24       ?beltCount@@3PAEA          66688d24     GameMonitor.obj
 0003:00018d28       ?fWerebear@@3HA            66688d28     GameMonitor.obj
 0003:00018d2c       ?fWerewolf@@3HA            66688d2c     GameMonitor.obj
 0003:00018d30       ?dwOakSageLvl@@3HA         66688d30     GameMonitor.obj
 0003:00018d34       ?dwRecheckSelfItemMs@@3HA  66688d34     GameMonitor.obj
 0003:00018d38       ?leftWeapon@@3PAUUnitAny@@A 66688d38     GameMonitor.obj
 0003:00018d3c       ?rightWeapon@@3PAUUnitAny@@A 66688d3c     GameMonitor.obj
 0003:00018d40       ?dwTownPortalCount@@3HA    66688d40     GameMonitor.obj
 0003:00018d44       ?dwIdentifyPortalCount@@3HA 66688d44     GameMonitor.obj
 0003:00018d48       ?fUsingBow@@3HA            66688d48     GameMonitor.obj
 0003:00018d4c       ?fUsingCrossBow@@3HA       66688d4c     GameMonitor.obj
 0003:00018d50       ?fUsingThrow@@3HA          66688d50     GameMonitor.obj
 0003:00018d54       ?dwHPotionCount@@3HA       66688d54     GameMonitor.obj
 0003:00018d58       ?dwMPotionCount@@3HA       66688d58     GameMonitor.obj
 0003:00018d5c       ?dwRPotionCount@@3HA       66688d5c     GameMonitor.obj
 0003:00018d60       ?dwArrowCount@@3HA         66688d60     GameMonitor.obj
 0003:00018d64       ?dwCArrowCount@@3HA        66688d64     GameMonitor.obj
 0003:00018d68       ?dwThrowCount@@3HA         66688d68     GameMonitor.obj
 0003:00018d6c       ?fMonitorQuantity@@3HA     66688d6c     GameMonitor.obj
 0003:00018d70       ?fMonitorDurability@@3HA   66688d70     GameMonitor.obj
 0003:00018d74       ?dwKillSum@@3HA            66688d74     GameMonitor.obj
 0003:00018d78       ?dwGameKills@@3HA          66688d78     GameMonitor.obj
 0003:00018d7c       ?dwLastKills@@3HA          66688d7c     GameMonitor.obj
 0003:00018d80       ?dwGetHitSum@@3HA          66688d80     GameMonitor.obj
 0003:00018d84       ?dwGetHits@@3HA            66688d84     GameMonitor.obj
 0003:00018d88       ?dwOrgMode@@3HA            66688d88     GameMonitor.obj
 0003:00018d8c       ?targetNameColor@@3DA      66688d8c     GameMonitor.obj
 0003:00018d90       ?fState100HP@@3HA          66688d90     GameMonitor.obj
 0003:00018d94       ?fState106Mana@@3HA        66688d94     GameMonitor.obj
 0003:00018d9c       ?dwGuessBOMs@@3HA          66688d9c     GameMonitor.obj
 0003:00018da0       ?dwGuessEnchantMs@@3HA     66688da0     GameMonitor.obj
 0003:0001b6c0       ?fViewingTargetUnit@@3HA   6668b6c0     info.obj
 0003:0001b6c4       ?currentgameexp@@3HA       6668b6c4     info.obj
 0003:00090a18       ?dwGoldGoodNum@@3HA        66700a18     item.obj
 0003:00090a1c       ?fSimplifiedPotionName@@3HA 66700a1c     item.obj
 0003:00090a20       ?anRuneColours@@3PAY03DA   66700a20     item.obj
 0003:00090bb0       ?anItemColours@@3PAY37163DA 66700bb0     item.obj
 0003:001d8db0       ?anItemHideLevel@@3PAY07DA 66848db0     item.obj
 0003:001deb70       ?anItemShowCLevel@@3PAY01DA 6684eb70     item.obj
 0003:001e02e0       ?wszEtherealItemPrefix@@3PA_WA 668502e0     item.obj
 0003:001e031c       ?wszEtherealItemPostfix@@3PA_WA 6685031c     item.obj
 0003:001e0358       ?dwShowValuableItem@@3HA   66850358     item.obj
 0003:001e035c       ?fViewSockFlag@@3HA        6685035c     item.obj
 0003:001e0360       ?szItemExtInfoCfgName@@3PAY0BAA@DA 66850360     item.obj
 0003:001e0560       ?fViewSocketableOn@@3HA    66850560     item.obj
 0003:001e0568       ?wszDescText@@3PA_WA       66850568     item.obj
 0003:001f0688       ?dwCheckMercMs@@3HA        66860688     dangerous.obj
 0003:001f06a4       ?dwIronGolemLifeAlertPercent@@3HA 668606a4     dangerous.obj
 0003:001f06a8       ?dwIronGolemLifeTownPercent@@3HA 668606a8     dangerous.obj
 0003:001f06ac       ?dwIronGolemLifeExitPercent@@3HA 668606ac     dangerous.obj
 0003:001f06b0       ?dwIronGolemTownLifePercent@@3HA 668606b0     dangerous.obj
 0003:001f06b4       ?dwHirePotionMinCLevel@@3HA 668606b4     dangerous.obj
 0003:001f06b8       ?dwHirePotionLifePercent@@3HA 668606b8     dangerous.obj
 0003:001f06bc       ?dwHirePotionColumn@@3HA   668606bc     dangerous.obj
 0003:001f06c0       ?dwHealingPotionLifePercent@@3HA 668606c0     dangerous.obj
 0003:001f06c4       ?dwHealingPotionDelayMs@@3HA 668606c4     dangerous.obj
 0003:001f06c8       ?dwManaPotionMax@@3HA      668606c8     dangerous.obj
 0003:001f06cc       ?dwManaPotionValue@@3HA    668606cc     dangerous.obj
 0003:001f06d0       ?dwManaPotionNTValue@@3HA  668606d0     dangerous.obj
 0003:001f06d4       ?dwChickenLife@@3HA        668606d4     dangerous.obj
 0003:001f06d8       ?dwChickenMaxLife@@3HA     668606d8     dangerous.obj
 0003:001f06dc       ?dwChickenHostileLife@@3HA 668606dc     dangerous.obj
 0003:001f06e0       ?dwChickenHostileNearbyLife@@3HA 668606e0     dangerous.obj
 0003:001f06e4       ?dwChickenLifePercent@@3HA 668606e4     dangerous.obj
 0003:001f06e8       ?dwChickenHostileLifePercent@@3HA 668606e8     dangerous.obj
 0003:001f06ec       ?dwChickenHostileNearbyLifePercent@@3HA 668606ec     dangerous.obj
 0003:001f06f0       ?dwChickenLifeMinClevel@@3HA 668606f0     dangerous.obj
 0003:001f06f4       ?fLifeProtectOn@@3HA       668606f4     dangerous.obj
 0003:001f06f8       ?fDangerousMonsterActive@@3HA 668606f8     dangerous.obj
 0003:001f0700       ?anDangerousMonster@@3PAY01DA 66860700     dangerous.obj
 0003:001f0f48       ?dwUpdateQuestMs@@3HA      66860f48     quest.obj
 0003:001f0f4c       ?dwQuestAlertMs@@3HA       66860f4c     quest.obj
 0003:001f0f50       ?wszBugKBAlertMessage@@3PA_WA 66860f50     quest.obj
 0003:001f50b8       ?afMonsterDeathAnims@@3PAEA 668650b8     lifebar.obj
 0003:001f54d8       ?aDropProtectRune@@3PADA   668654d8     DropProtection.obj
 0003:001f5500       ?aDropProtectRuneword@@3PADA 66865500     DropProtection.obj
 0003:001f5600       ?aDropProtectUnique@@3PADA 66865600     DropProtection.obj
 0003:001f5800       ?aDropProtectSet@@3PADA    66865800     DropProtection.obj
 0003:001f9d18       ?fAutoEnchantCheckUnit@@3HA 66869d18     enchant.obj
 0003:001f9d20       ?pD2WinEditBox@@3PAUD2EditBox@@A 66869d20     GameChat.obj
 0003:001f9d24       ?fMyChatOn@@3HA            66869d24     GameChat.obj
 0003:001f9df0       ?dwAutoLoginMs@@3HA        66869df0     login.obj
 0003:001f9df8       ?dwAutoSelectCharMs@@3HA   66869df8     login.obj
 0003:001f9e08       ?nCurCharTags@@3HA         66869e08     login.obj
 0003:001f9e0c       ?mSkipQuestMessage@@3HA    66869e0c     misc.obj
 0003:001f9e1c       ?dwWaitTeamEnterPortalId@@3HA 66869e1c     multi.obj
 0003:001f9e20       ?dwWaitTeamEnterPortalMs@@3HA 66869e20     multi.obj
 0003:001f9e60       ?d2wins@@3PAUD2Window@@A   66869e60     multi.obj
 0003:001fb9e0       ?d2winLastId@@3HA          6686b9e0     multi.obj
 0003:001fb9e4       ?fAutoFollowMoving@@3HA    6686b9e4     multi.obj
 0003:001fb9e8       ?wszTransferClick@@3PA_WA  6686b9e8     multi.obj
 0003:001fba68       ?tMCFormationKeys@@3PAUToggleVar@@A 6686ba68     multi.obj
 0003:001fc068       ?aMCFormation@@3PAY0BA@CA  6686c068     multi.obj
 0003:001fc268       ?fTransferClick@@3HA       6686c268     multi.obj
 0003:001fc26c       ?dwTeamMemberCount@@3HA    6686c26c     multi.obj
 0003:001fc270       ?aAutoFollowClickObject@@3PADA 6686c270     multi.obj
 0003:001fc670       ?dwLeaderId@@3HA           6686c670     multi.obj
 0003:001fc690       ?wszNpcTradeInfo@@3PA_WA   6686c690     NpcTrade.obj
 0003:001fd1f4       ?dwNpcTradeCheckMs@@3HA    6686d1f4     NpcTrade.obj
 0003:001fd1f8       ?fCanInvite@@3HA           6686d1f8     party.obj
 0003:001fd1fc       ?dwPartyResponseMs@@3HA    6686d1fc     party.obj
 0003:001fd208       ?fCanExitGame@@3HA         6686d208     quick.obj
 0003:001fd20c       ?dwBackToTownTimeout@@3HA  6686d20c     quick.obj
 0003:001fd218       ?fAutoNextGameName@@3HA    6686d218     quick.obj
 0003:001fd21c       ?fAutoNextGamePassword@@3HA 6686d21c     quick.obj
 0003:001fd220       ?fAutoNextGameDescription@@3HA 6686d220     quick.obj
 0003:001fd228       ?wszGameName@@3PA_WA       6686d228     quick.obj
 0003:001fd268       ?wszGamePassword@@3PA_WA   6686d268     quick.obj
 0003:001fd2a8       ?wszGameDescription@@3PA_WA 6686d2a8     quick.obj
 0003:001fd310       ?fHighRes@@3HA             6686d310     resolution.obj
 0003:002013e4       ?dwAutoSkillReloading@@3HA 668713e4     skill.obj
 0003:002013e8       ?dwRescueBarSafeDistance@@3HA 668713e8     skill.obj
 0003:002013ec       ?fAutoEnchant@@3HA         668713ec     skill.obj
 0003:002013f0       ?aAutoPickupItem@@3PADA    668713f0     skill.obj
 0003:00201fa8       ?fAutoEnchantUseLeftSkill@@3HA 66871fa8     skill.obj
 0003:00201fac       ?fAutoWarCry@@3HA          66871fac     skill.obj
 0003:00201fb0       ?dwAutoEnchantMonster@@3PADA 66871fb0     skill.obj
 0003:002023b0       ?fAutoWarCryUseLeftSkill@@3HA 668723b0     skill.obj
 0003:002023b4       ?dwAutoWarCryRenewPercent@@3HA 668723b4     skill.obj
 0003:002023b8       ?dwUseLeftSkillFirst@@3HA  668723b8     skill.obj
 0003:002023bc       ?dwAutoReloadThrowing@@3HA 668723bc     skill.obj
 0003:002023c0       ?dwAutoSkillCheckMs@@3HA   668723c0     skill.obj
 0003:002023c4       ?dwAutoSkillMode@@3HA      668723c4     skill.obj
 0003:002023c8       ?fAutoSkillNow@@3HA        668723c8     skill.obj
 0003:002023cc       ?fAutoSkill@@3HA           668723cc     skill.obj
 0003:002023d0       ?aAutoDimVisionMonster@@3PADA 668723d0     skill.obj
 0003:002027d0       ?aAutoSkillMonsterType@@3PADA 668727d0     skill.obj
 0003:00202bd0       ?aAutoSkillDistance@@3PAY01DA 66872bd0     skill.obj
 0003:00202fd0       ?fAutoSummon@@3HA          66872fd0     skill.obj
 0003:00202fd4       ?fAutoSummonUseLeftSkill@@3HA 66872fd4     skill.obj
 0003:00202fd8       ?dwAutoSummonStartMs@@3HA  66872fd8     skill.obj
 0003:00202fdc       ?dwAutoSummonCheckEnchantMs@@3HA 66872fdc     skill.obj
 0003:00202fe0       ?aAutoReviveMonster@@3PADA 66872fe0     skill.obj
 0003:002033e0       ?dwSkeletonCount@@3HA      668733e0     skill.obj
 0003:002033e4       ?dwEnchantSkeletonCount@@3HA 668733e4     skill.obj
 0003:002033e8       ?dwSkeletonMaxCount@@3HA   668733e8     skill.obj
 0003:002033ec       ?dwSkeletonMageCount@@3HA  668733ec     skill.obj
 0003:002033f0       ?dwSkeletonMageMaxCount@@3HA 668733f0     skill.obj
 0003:002033f4       ?dwReviveCount@@3HA        668733f4     skill.obj
 0003:002033f8       ?dwReviveMaxCount@@3HA     668733f8     skill.obj
 0003:002033fc       ?dwSkeletonHPPercent@@3HA  668733fc     skill.obj
 0003:00203400       ?dwSkeletonMageHPPercent@@3HA 66873400     skill.obj
 0003:002035bc       ?dwMercNameId@@3HA         668735bc     Snapshot.obj
 0003:002045c0       ?setItemNames@@3PAPADA     668745c0     Snapshot.obj
 0003:00204dc0       ?uniqueNames@@3PAPADA      66874dc0     Snapshot.obj
 0003:002055c0       ?runeWordNames@@3PAPADA    668755c0     Snapshot.obj
 0003:00205dc0       ?questNames@@3PAPADA       66875dc0     Snapshot.obj
 0003:00205e88       ?dwMercSeed@@3HA           66875e88     Snapshot.obj
 0003:00205e90       ?itemNames@@3PAPADA        66875e90     Snapshot.obj
 0003:0020a588       ?dwCheckSkeletonCountMs@@3HA 6687a588     summon.obj
 0003:0020e5b0       ?fAutoSummonSwitchSkillTmp@@3HA 6687e5b0     summon.obj
 0003:0020e5b4       ?fAutoSummonSwitchSkill@@3HA 6687e5b4     summon.obj
 0003:0020e5b8       ?fAutoSummonNeedCorpse@@3HA 6687e5b8     summon.obj
 0003:0020e5bc       ?dwNecInfoExpireMs@@3HA    6687e5bc     summon.obj
 0003:0020e5c0       ?dwNecMana@@3HA            6687e5c0     summon.obj
 0003:0020e5c4       ?dwTotalMonsterCount@@3HA  6687e5c4     summon.obj
 0003:0020e5c8       ?dwSkillChangeCount@@3HA   6687e5c8     summon.obj
 0003:0020ea30       ?maxTpDisRaw@@3HA          6687ea30     teleport.obj
 0003:0020eaa4       ?dwTpDoneMs@@3HA           6687eaa4     teleport.obj
 0003:0020eaa8       ?dwTpMs@@3HA               6687eaa8     teleport.obj
 0003:0020eaac       ?TPfailedRect@@3PAUAreaRectData@@A 6687eaac     teleport.obj
 0003:0020eab0       ?TPtargetRect@@3PAUAreaRectData@@A 6687eab0     teleport.obj
 0003:0020eab4       ?TPtarget@@3UtagPOINT@@A   6687eab4     teleport.obj
 0003:0020eae8       ?fAutoTeleporting@@3HA     6687eae8     teleport.obj
 0003:0020eaec       ?unexpectedMonCount@@3HA   6687eaec     teleport.obj
 0003:0020eaf0       ?unexpectedMonTotalMs@@3HA 6687eaf0     teleport.obj
 0003:0020eb08       ?serverCubeType@@3HA       6687eb08     panel.obj
 0003:0020eb0c       ?clientCubeType@@3HA       6687eb0c     panel.obj
 0003:0020eb10       ?serverStashType@@3HA      6687eb10     panel.obj
 0003:0020eb14       ?clientStashType@@3HA      6687eb14     panel.obj
 0003:0020eb18       ?serverInvType@@3HA        6687eb18     panel.obj
 0003:0020eb1c       ?clientInvType@@3HA        6687eb1c     panel.obj
 0003:0020eb28       ?fEnableBigStash@@3HA      6687eb28     panel.obj
 0003:0020eb2c       ?dwInvType@@3HA            6687eb2c     panel.obj
 0003:0020eb30       ?dwStashType@@3HA          6687eb30     panel.obj
 0003:0020eb34       ?dwCubeType@@3HA           6687eb34     panel.obj
 0003:0020ed8c       ?active_UberDiabloRushTweekAI@@3_NA 6687ed8c     uber.obj
 0003:0020ed8d       ?active_UberBaalTeleportTweekAI@@3_NA 6687ed8d     uber.obj
 0003:0020ed8e       ?active_UberBaalChillingArmorTweekAI@@3_NA 6687ed8e     uber.obj
 0003:0020ed90       ?uberBaalChillingArmorLastFrame@@3HA 6687ed90     uber.obj
 0003:0020ed94       __cflush                   6687ed94     LIBCMT:_file.obj
 0003:0020ed98       ___fastflag                6687ed98     LIBCMT:_fpinit_.obj
 0003:0020ed9c       __adjust_fdiv              6687ed9c     LIBCMT:_fpinit_.obj
 0003:0020edb8       __aenvptr                  6687edb8     LIBCMT:dllcrt0.obj
 0003:0020edbc       __wenvptr                  6687edbc     LIBCMT:dllcrt0.obj
 0003:0020edc0       ___error_mode              6687edc0     LIBCMT:dllcrt0.obj
 0003:0020edc4       ___app_type                6687edc4     LIBCMT:dllcrt0.obj
 0003:0020edcc       ___mbulinfo                6687edcc     LIBCMT:mbctype.obj
 0003:0020edd8       ___mbcodepage              6687edd8     LIBCMT:mbctype.obj
 0003:0020eddc       ___ismbcodepage            6687eddc     LIBCMT:mbctype.obj
 0003:0020ede0       ___mblcid                  6687ede0     LIBCMT:mbctype.obj
 0003:0020ede4       ___locale_changed          6687ede4     LIBCMT:setlocal.obj
 0003:0020ede8       ___lc_handle               6687ede8     LIBCMT:nlsdata2.obj
 0003:0020ee00       ___lc_codepage             6687ee00     LIBCMT:nlsdata2.obj
 0003:0020ee04       ___lc_collate_cp           6687ee04     LIBCMT:nlsdata2.obj
 0003:0020ee08       _gpFlsAlloc                6687ee08     LIBCMT:tidtable.obj
 0003:0020ee0c       _gpFlsGetValue             6687ee0c     LIBCMT:tidtable.obj
 0003:0020ee10       _gpFlsSetValue             6687ee10     LIBCMT:tidtable.obj
 0003:0020ee14       _gpFlsFree                 6687ee14     LIBCMT:tidtable.obj
 0003:0020ee18       ___pInvalidArgHandler      6687ee18     LIBCMT:invarg.obj
 0003:0020ef70       __stdbuf                   6687ef70     LIBCMT:_sftbuf.obj
 0003:0020f29c       ?_pnhHeap@@3P6AHI@ZA       6687f29c     LIBCMT:handler.obj
 0003:0020f2a0       __newmode                  6687f2a0     LIBCMT:_newmode.obj
 0003:0020f2a4       __crtheap                  6687f2a4     LIBCMT:heapinit.obj
 0003:0020f2a8       ___sbh_pHeaderDefer        6687f2a8     LIBCMT:sbheap.obj
 0003:0020f2b0       __maxwait                  6687f2b0     LIBCMT:crtheap.obj
 0003:0020f2b4       __umaskval                 6687f2b4     LIBCMT:crt0dat.obj
 0003:0020f2b8       ___argc                    6687f2b8     LIBCMT:crt0dat.obj
 0003:0020f2bc       ___argv                    6687f2bc     LIBCMT:crt0dat.obj
 0003:0020f2c0       ___wargv                   6687f2c0     LIBCMT:crt0dat.obj
 0003:0020f2c4       __environ                  6687f2c4     LIBCMT:crt0dat.obj
 0003:0020f2c8       ___initenv                 6687f2c8     LIBCMT:crt0dat.obj
 0003:0020f2cc       __wenviron                 6687f2cc     LIBCMT:crt0dat.obj
 0003:0020f2d0       ___winitenv                6687f2d0     LIBCMT:crt0dat.obj
 0003:0020f2d4       __pgmptr                   6687f2d4     LIBCMT:crt0dat.obj
 0003:0020f2d8       __wpgmptr                  6687f2d8     LIBCMT:crt0dat.obj
 0003:0020f2dc       __exitflag                 6687f2dc     LIBCMT:crt0dat.obj
 0003:0020f2e0       __C_Termination_Done       6687f2e0     LIBCMT:crt0dat.obj
 0003:0020f2e4       __C_Exit_Done              6687f2e4     LIBCMT:crt0dat.obj
 0003:0020f710       ___lconv_static_null       6687f710     LIBCMT:lconv.obj
 0003:0020f718       ?__pInconsistency@@3P6AXXZA 6687f718     LIBCMT:hooks.obj
 0003:0020f73c       ___pPurecall               6687f73c     LIBCMT:inithelp.obj
 0003:0020f740       __outputformat             6687f740     LIBCMT:outputformat.obj
 0003:0020f818       __commode                  6687f818     LIBCMT:ncommode.obj
 0003:0020f830       ?pArgList@UnDecorator@@0PAVReplicator@@A 6687f830     LIBCMT:undname.obj
 0003:0020f834       ?pZNameList@UnDecorator@@0PAVReplicator@@A 6687f834     LIBCMT:undname.obj
 0003:0020f838       ?pTemplateArgList@UnDecorator@@0PAVReplicator@@A 6687f838     LIBCMT:undname.obj
 0003:0020f83c       ?gName@UnDecorator@@0PBDB  6687f83c     LIBCMT:undname.obj
 0003:0020f840       ?name@UnDecorator@@0PBDB   6687f840     LIBCMT:undname.obj
 0003:0020f844       ?outputString@UnDecorator@@0PADA 6687f844     LIBCMT:undname.obj
 0003:0020f848       ?maxStringLength@UnDecorator@@0HA 6687f848     LIBCMT:undname.obj
 0003:0020f84c       ?disableFlags@UnDecorator@@0KA 6687f84c     LIBCMT:undname.obj
 0003:0020f850       ?m_pGetParameter@UnDecorator@@0P6APADJ@ZA 6687f850     LIBCMT:undname.obj
 0003:0020f854       ?fExplicitTemplateParams@UnDecorator@@0_NA 6687f854     LIBCMT:undname.obj
 0003:0020f855       ?fGetTemplateArgumentList@UnDecorator@@0_NA 6687f855     LIBCMT:undname.obj
 0003:0020f858       __fmode                    6687f858     LIBCMT:txtmode.obj
 0003:0020f860       __debugger_hook_dummy      6687f860     <common>
 0003:0020f864       ___use_sse2_mathfcns       6687f864     <common>
 0003:0020f868       ___env_initialized         6687f868     <common>
 0003:0020f86c       ___onexitend               6687f86c     <common>
 0003:0020f870       ___onexitbegin             6687f870     <common>
 0003:0020f874       ___mbctype_initialized     6687f874     <common>
 0003:0020f878       ___dyn_tls_init_callback   6687f878     <common>
 0003:0020f87c       ___sbh_cntHeaderList       6687f87c     <common>
 0003:0020f880       ___sbh_pHeaderList         6687f880     <common>
 0003:0020f884       ___sbh_threshold           6687f884     <common>
 0003:0020f888       ___sbh_pHeaderScan         6687f888     <common>
 0003:0020f88c       ___sbh_sizeHeaderList      6687f88c     <common>
 0003:0020f890       ___sbh_indGroupDefer       6687f890     <common>
 0003:0020f894       ___active_heap             6687f894     <common>
 0003:0020f898       ___sse2_available          6687f898     <common>
 0003:0020f89c       __nhandle                  6687f89c     <common>
 0003:0020f8a0       ___pioinfo                 6687f8a0     <common>
 0003:0020f9a0       __acmdln                   6687f9a0     <common>
 0003:0020f9a4       __pDestructExceptionObject 6687f9a4     <common>
 0003:0020f9a8       ___piob                    6687f9a8     <common>
 0003:0020f9c0       __bufin                    6687f9c0     <common>
 0003:002109c0       __nstream                  668809c0     <common>

 entry point at        0001:0004c2b4

 Static symbols

 0001:00000a20       ?initKeyArray@@YAXPAUConfigVar@@HH@Z 66601a20 f   config.obj
 0001:00002ca0       ?parseInt@@YAHPADPAPAD@Z   66603ca0 f   config.obj
 0001:00002d40       ?parseValues8@@YAXPAD0H@Z  66603d40 f   config.obj
 0001:00002e10       ?parseValues32@@YAXPAHPADH@Z 66603e10 f   config.obj
 0001:000034a0       ?InitValues@@YAXXZ         666044a0 f   config.obj
 0001:00003770       ?changeLogPath@@YAHPAD@Z   66604770 f   config.obj
 0001:00003910       ?loadConfig@@YAXPAD@Z      66604910 f   config.obj
 0001:00004120       ?loadTagFile@@YAXPAD@Z     66605120 f   config.obj
 0001:000042d0       ?loadSymbolFile@@YAXPAD@Z  666052d0 f   config.obj
 0001:000044d0       ?isNumber@@YAHPAD@Z        666054d0 f   config.obj
 0001:00005400       ?doPatchCALL@@YAXHHH@Z     66606400 f   install.obj
 0001:00005450       ?doPatchJMP@@YAXHHH@Z      66606450 f   install.obj
 0001:000054a0       ?doPatchFILL@@YAXHHH@Z     666064a0 f   install.obj
 0001:000054f0       ?doPatchVALUE@@YAXHHH@Z    666064f0 f   install.obj
 0001:00005700       ?parseOriginalCode@@YAHPADH0HPAH@Z 66606700 f   install.obj
 0001:00008ff0       ?InstallPatchAfterLoad@@YAXXZ 66609ff0 f   install.obj
 0001:00009020       ?installD2PatchesAfterLoad@@YAHXZ 6660a020 f   install.obj
 0001:00009380       ?installNetworkRecvPatch@@YAHXZ 6660a380 f   install.obj
 0001:000093d0       ?installPatchToggle@@YAHXZ 6660a3d0 f   install.obj
 0001:00009490       ?installD2Patches@@YAHXZ   6660a490 f   install.obj
 0001:0000b740       ?ReloadDll@@YAHXZ          6660c740 f   install.obj
 0001:0000b7a0       ?ReloadConfig@@YAHXZ       6660c7a0 f   install.obj
 0001:0000b8a0       _stat                      6660c8a0 f   install.obj
 0001:0000b8a0       _stat                      6660c8a0 f   install.obj
 0001:0000c430       ?d2msg@@YAXHPA_WH@Z        6660d430 f   common.obj
 0001:0000ea50       ?comparePet@@YAHPBX0@Z     6660fa50 f   common.obj
 0001:0000ea50       ?compareItem@@YAHPBX0@Z    6660fa50 f   common.obj
 0001:0000ea50       ?comparePvp@@YAHPBX0@Z     6660fa50 f   common.obj
 0001:0000f3a0       ?recvPacket40@@YIXPAUWorld@@PAUUnitAny@@@Z 666103a0 f   dbg.obj
 0001:0000f660       ?LoadUiImagePatch_ASM@@YAXXZ 66610660 f   dbg.obj
 0001:0000f680       ?loadUiImage@@YIXPADH@Z    66610680 f   dbg.obj
 0001:0000f6d0       ?LoadUiImageEndPatch_ASM@@YAXXZ 666106d0 f   dbg.obj
 0001:0000f6f0       ?loadUiImageEnd@@YIXH@Z    666106f0 f   dbg.obj
 0001:0000f730       ?LoadUiImageSubpathPatch_ASM@@YAXXZ 66610730 f   dbg.obj
 0001:0000f750       ?loadUiImageSubpath@@YIXPADH@Z 66610750 f   dbg.obj
 0001:0000f7a0       ?AllocMemoryPatch_ASM@@YAXXZ 666107a0 f   dbg.obj
 0001:0000f7c0       ?allocMemDbg@@YIXPAHHH@Z   666107c0 f   dbg.obj
 0001:0000f850       ?sendPacket43E0Patch_ASM@@YAXXZ 66610850 f   dbg.obj
 0001:0000f870       ?sendPacket43E0@@YIXPADHH@Z 66610870 f   dbg.obj
 0001:0000f8c0       ?sendPacket3Patch_ASM@@YAXXZ 666108c0 f   dbg.obj
 0001:0000f8e0       ?sendPacket3@@YIXDFH@Z     666108e0 f   dbg.obj
 0001:00010140       ?gameStart@@YAXXZ          66611140 f   loop.obj
 0001:00010480       ?checkTag@@YAXPAD@Z        66611480 f   loop.obj
 0001:00010ea0       ?updateTargetName@@YAXXZ   66611ea0 f   map.obj
 0001:000116d0       ?LoadBmpCellFile@@YAPAUCellFile@@PAD@Z 666126d0 f   map.obj
 0001:00011780       ?InitCellFile@@YAPAUCellFile@@PAU1@@Z 66612780 f   map.obj
 0001:00011890       ?DeleteCellFile@@YAXPAUCellFile@@@Z 66612890 f   map.obj
 0001:00011c40       ?modifyRescueBarTarget@@YAXXZ 66612c40 f   map.obj
 0001:00011d80       ?target_sort@@YAXPAPAUMinimapLevelTarget@@@Z 66612d80 f   map.obj
 0001:00011e50       ?modifySealTarget@@YAXXZ   66612e50 f   map.obj
 0001:000122b0       ?modifyTempleTarget@@YAXXZ 666132b0 f   map.obj
 0001:00012360       ?modifyTeleportTarget@@YAXXZ 66613360 f   map.obj
 0001:00012660       ?ResetAutomapNodeCellNo@@YAXPAUAutomapNode@@@Z 66613660 f   map.obj
 0001:00014260       ?isConnected@@YAHPAUAreaRectInfo@@0PAUtagPOINT@@@Z 66615260 f   map.obj
 0001:000145c0       ?drawAreaRect@@YAXPAUAreaRectInfo@@H@Z 666155c0 f   map.obj
 0001:000148c0       ?DrawMinimapPoint@@YAXXZ   666158c0 f   map.obj
 0001:00015a50       ?hex@@YAXPAU_iobuf@@HPAXH@Z 66616a50 f   packet.obj
 0001:00017560       ?drawAARect@@YAXPAURouteRect@@@Z 66618560 f   route.obj
 0001:000178c0       ?initRectRoute@@YAHPAUMinimapLevelTarget@@@Z 666188c0 f   route.obj
 0001:00017cc0       ?canTeleport@@YAHPAUAreaRectData@@PAURouteRect@@@Z 66618cc0 f   route.obj
 0001:00017e20       ?recycleRouteInfo@@YAXPAUMinimapLevelTarget@@@Z 66618e20 f   route.obj
 0001:00017f80       ?performRectRoute@@YAXPAUMinimapLevelTarget@@@Z 66618f80 f   route.obj
 0001:000189e0       ?recvWaypointMenu@@YIHPADH@Z 666199e0 f   waypoint.obj
 0001:00019870       ?setWinTitle@@YAXPAUHWND__@@H@Z 6661a870 f   winmsg.obj
 0001:0001a800       ?keyDown@@YIHHH@Z          6661b800 f   winmsg.obj
 0001:0001aab0       ?keyUp@@YIHHH@Z            6661bab0 f   winmsg.obj
 0001:0001acd0       ?createVersionTextBox@@YAXXZ 6661bcd0 f   winmsg.obj
 0001:0001ade0       ?debugMsDrawUnitStart@@YAXXZ 6661bde0 f   winmsg.obj
 0001:0001ae60       ?beforeDrawControl@@YAXXZ  6661be60 f   winmsg.obj
 0001:0001ae80       ?debugMsDrawControlStart@@YAXXZ 6661be80 f   winmsg.obj
 0001:0001aec0       ?debugMsDrawControlEnd@@YAXXZ 6661bec0 f   winmsg.obj
 0001:0001af20       ?shouldSkipAllDrawing@@YAHXZ 6661bf20 f   winmsg.obj
 0001:0001afa0       ?clearScreen@@YAXXZ        6661bfa0 f   winmsg.obj
 0001:0001b0f0       ?mainMenuLoop@@YAXXZ       6661c0f0 f   winmsg.obj
 0001:0001bb30       ?checkWeapon@@YAXPAUUnitAny@@@Z 6661cb30 f   GameMonitor.obj
 0001:0001bc30       ?checkItem@@YAXPAUUnitAny@@H@Z 6661cc30 f   GameMonitor.obj
 0001:0001e2b0       ?recvState@@YIXPAE@Z       6661f2b0 f   GameMonitor.obj
 0001:00022030       ?wscolorcpy@@YAPA_WPA_W0E@Z 66623030 f   item.obj
 0001:00022030       ?wscolorcpy@@YAPA_WPA_W0E@Z 66623030 f   item.obj
 0001:000250c0       ?rescanMercPointers@@YAXXZ 666260c0 f   dangerous.obj
 0001:000263a0       ?checkQuest@@YAXHHHPAD@Z   666273a0 f   quest.obj
 0001:000267b0       ?questAlert@@YAXXZ         666277b0 f   quest.obj
 0001:00027730       ?drawQuestState@@YAXPAG0HHH@Z 66628730 f   quest.obj
 0001:00029b20       ?switchTo@@YAXH@Z          6662ab20 f   bo.obj
 0001:00029c20       ?useSkill@@YAHH@Z          6662ac20 f   bo.obj
 0001:00029f90       _time                      6662af90 f   d2s.obj
 0001:0002b100       ?hasProp@@YAHPAUUnitAny@@HH@Z 6662c100 f   DropProtection.obj
 0001:0002b580       ?deleteCharacterCallback@@YIXPAD0@Z 6662c580 f   DropProtection.obj
 0001:0002b610       ?canDeleteCharacter@@YIHPAUD2Character@@@Z 6662c610 f   DropProtection.obj
 0001:0002bbe0       ?skipMenuItem@@YIHPAUMenuItem@@@Z 6662cbe0 f   DropProtection.obj
 0001:0002c290       ?doEnchant@@YAHPAUUnitAny@@@Z 6662d290 f   enchant.obj
 0001:0002d330       ?sortGameList@@YAXXZ       6662e330 f   mcp.obj
 0001:0002d370       ?compareMcp05Game@@YAHPBX0@Z 6662e370 f   mcp.obj
 0001:0002d3c0       ?showGameListDifficulty@@YIXPAXPAD@Z 6662e3c0 f   mcp.obj
 0001:0002d620       ?compareCharTag@@YAHPBX0@Z 6662e620 f   login.obj
 0001:0002db50       ?c2w@@YAXPADPA_W@Z         6662eb50 f   login.obj
 0001:0002dc20       ?selectChar@@YIXH@Z        6662ec20 f   login.obj
 0001:0002ffa0       ?teamMemberInArea@@YAHH@Z  66630fa0 f   multi.obj
 0001:00030040       ?interactObject@@YAXXZ     66631040 f   multi.obj
 0001:00030680       ?sendStartFollowCmd@@YAHPAUD2Window@@@Z 66631680 f   multi.obj
 0001:000306b0       ?sendStopFollowCmd@@YAHPAUD2Window@@@Z 666316b0 f   multi.obj
 0001:00031a20       ?checkItems@@YAXHH@Z       66632a20 f   NpcTrade.obj
 0001:00031b60       ?checkItem@@YAXPAUUnitAny@@H@Z 66632b60 f   NpcTrade.obj
 0001:00033470       ?getCube@@YAPAUUnitAny@@XZ 66634470 f   QuickSwapItem.obj
 0001:000334e0       ?updateInv@@YAXPAUInventoryType@@H@Z 666344e0 f   QuickSwapItem.obj
 0001:00033be0       ?putIntoRuneCollector@@YAXPAUUnitAny@@PAUD2MSG@@HH@Z 66634be0 f   QuickSwapItem.obj
 0001:00033e00       ?findRuneCollector@@YAPAUUnitAny@@H@Z 66634e00 f   QuickSwapItem.obj
 0001:00034590       ?getGlobalBeltSlotPosition@@YIXPAH0@Z 66635590 f   resolution.obj
 0001:00034640       ?getGlobalBeltRecord@@YIXPAH@Z 66635640 f   resolution.obj
 0001:00034700       ?adjWinRectEx@@YGHHPAUtagRECT@@HHH@Z 66635700 f   resolution.obj
 0001:000351b0       ?isAutoSkill@@YAHPAUSkill@@@Z 666361b0 f   skill.obj
 0001:00035310       ?checkAutoSkill1@@YAXHH@Z  66636310 f   skill.obj
 0001:00035b20       ?updateSkill@@YAXPAUAutoSkillInfo@@H@Z 66636b20 f   skill.obj
 0001:000361a0       ?processStacking@@YAXXZ    666371a0 f   skill.obj
 0001:000362e0       ?canUse@@YAHPAUAutoSkillInfo@@@Z 666372e0 f   skill.obj
 0001:000363c0       ?checkUnit@@YAXPAUUnitAny@@@Z 666373c0 f   skill.obj
 0001:00037b30       ?getLvPercent@@YAHPAUUnitAny@@@Z 66638b30 f   Snapshot.obj
 0001:00037dc0       ?openSnapshotFile@@YAPAU_iobuf@@PAD00D0H@Z 66638dc0 f   Snapshot.obj
 0001:000385b0       ?dumpStats@@YAHPAU_iobuf@@PAUStat@@@Z 666395b0 f   Snapshot.obj
 0001:00038ab0       ?dumpInventory@@YAXXZ      66639ab0 f   Snapshot.obj
 0001:00038fc0       ?dumpUnit@@YAXPAU_iobuf@@PAUUnitAny@@@Z 66639fc0 f   Snapshot.obj
 0001:00039760       ?countGemRunes@@YAXPAU_iobuf@@PAUUnitAny@@@Z 6663a760 f   Snapshot.obj
 0001:00039e10       ?dumpItem@@YAXPAU_iobuf@@PAUUnitAny@@HH@Z 6663ae10 f   Snapshot.obj
 0001:0003abc0       ?dumpItems@@YAXPAU_iobuf@@PAUUnitAny@@H@Z 6663bbc0 f   Snapshot.obj
 0001:0003b020       ?isStartEq@@YAHPAUUnitAny@@@Z 6663c020 f   Snapshot.obj
 0001:0003b090       ?dumpQuests@@YAXPAU_iobuf@@@Z 6663c090 f   Snapshot.obj
 0001:0003b800       ?dumpTodo@@YAXPAU_iobuf@@HPADPAUQ@@@Z 6663c800 f   Snapshot.obj
 0001:0003b920       ?loadQuests@@YAXXZ         6663c920 f   Snapshot.obj
 0001:0003b9f0       ?dumpWaypoints@@YAXPAU_iobuf@@@Z 6663c9f0 f   Snapshot.obj
 0001:0003bb90       ?dumpSkills@@YAXPAU_iobuf@@PAUUnitAny@@@Z 6663cb90 f   Snapshot.obj
 0001:0003bca0       ?dumpSkill@@YAXPAU_iobuf@@PAUSkill@@@Z 6663cca0 f   Snapshot.obj
 0001:0003bdb0       ?dumpObject@@YAXPAU_iobuf@@PAUUnitAny@@@Z 6663cdb0 f   Snapshot.obj
 0001:0003bf10       ?dumpAreatile@@YAXPAU_iobuf@@PAUUnitAny@@@Z 6663cf10 f   Snapshot.obj
 0001:0003c4a0       ?doDeleteSnapshotFile@@YAXPAD@Z 6663d4a0 f   Snapshot.obj
 0001:0003d210       ?checkSummonSkillLevel@@YAXXZ 6663e210 f   summon.obj
 0001:0003d360       ?getSummonCount@@YAHH@Z    6663e360 f   summon.obj
 0001:0003d390       ?needSummon@@YAHXZ         6663e390 f   summon.obj
 0001:0003d5a0       ?switchSummonSkill@@YAXH@Z 6663e5a0 f   summon.obj
 0001:0003d5d0       ?checkUnit@@YAXPAUUnitAny@@@Z 6663e5d0 f   summon.obj
 0001:0003dfc0       ?findBoss@@YAHHH@Z         6663efc0 f   teleport.obj
 0001:0003e090       ?resetMonsters@@YAXXZ      6663f090 f   teleport.obj
 0001:0003e110       ?findMonsters@@YAXXZ       6663f110 f   teleport.obj
 0001:0003e460       ?addMonMap@@YAXHH@Z        6663f460 f   teleport.obj
 0001:0003e4c0       ?calBoundingBox@@YAXXZ     6663f4c0 f   teleport.obj
 0001:0003e600       ?getMonDis@@YAHPAUtagPOINT@@@Z 6663f600 f   teleport.obj
 0001:0003e660       ?dis@@YAHPAUtagPOINT@@0@Z  6663f660 f   teleport.obj
 0001:0003e690       ?interact@@YAXPAUtagPOINT@@HH@Z 6663f690 f   teleport.obj
 0001:0003e770       ?interactObj@@YAXPAUUnitAny@@@Z 6663f770 f   teleport.obj
 0001:0003e8f0       ?teleportForward@@YAHXZ    6663f8f0 f   teleport.obj
 0001:0003ed10       ?addPossiblePostions@@YAXPAUAreaRectData@@0PAUtagPOINT@@H@Z 6663fd10 f   teleport.obj
 0001:0003f130       ?disM256@@YAHPAUtagPOINT@@0@Z 66640130 f   teleport.obj
 0001:0003f160       ?hasMon@@YAHHH@Z           66640160 f   teleport.obj
 0001:0003f1c0       ?findValidPosition@@YAHXZ  666401c0 f   teleport.obj
 0001:0003f2a0       ?comparePos@@YAHPBX0@Z     666402a0 f   teleport.obj
 0001:0003f2c0       ?teleportToSafety@@YAHXZ   666402c0 f   teleport.obj
 0001:0003f560       ?savePrevMonsters@@YAXXZ   66640560 f   teleport.obj
 0001:0003f630       ?findSafestPosition@@YAHXZ 66640630 f   teleport.obj
 0001:0003f6b0       ?tpToBoss@@YAHXZ           666406b0 f   teleport.obj
 0001:0003f850       ?autoTarget@@YAHXZ         66640850 f   teleport.obj
 0001:0003f9c0       ?telekinesisTarget@@YAHPAUUnitAny@@@Z 666409c0 f   teleport.obj
 0001:0003fcd0       ?findTelekinesisPosition@@YAHXZ 66640cd0 f   teleport.obj
 0001:0003fdc0       ?autoDuranceofHateLevel3@@YAHXZ 66640dc0 f   teleport.obj
 0001:0003ffa0       ?dumpProp@@YAXPAU_iobuf@@PAUItemProp@@@Z 66640fa0 f   txt.obj
 0001:00040120       ?dumpItemTxt@@YAXXZ        66641120 f   txt.obj
 0001:00040240       ?dumpUniqueTxt@@YAXXZ      66641240 f   txt.obj
 0001:00040400       ?dumpSetTxt@@YAXXZ         66641400 f   txt.obj
 0001:00040a70       ?setStash@@YAXHH@Z         66641a70 f   panel.obj
 0001:00040bd0       ?setCube@@YAXH@Z           66641bd0 f   panel.obj
 0001:00040d50       ?setCharInv@@YAXHH@Z       66641d50 f   panel.obj
 0001:00040f70       ?loadInvChar8x10@@YAXXZ    66641f70 f   panel.obj
 0001:00040fd0       ?calDrawOffset@@YAXXZ      66641fd0 f   panel.obj
 0001:00041060       ?getEquipmentSlotLayout@@YIXPAH0@Z 66642060 f   panel.obj
 0001:00041100       ?getEquipInvDrawOffset@@YAXPAH0PAX@Z 66642100 f   panel.obj
 0001:00041200       ?getInventoryGridLayout@@YIXPAH0@Z 66642200 f   panel.obj
 0001:000412b0       ?getInventoryPosition@@YIXPAH0@Z 666422b0 f   panel.obj
 0001:00041360       ?addSkillPatch@@YIXH@Z     66642360 f   panel.obj
 0001:000413e0       ?recvCommand26@@YIXPAD@Z   666423e0 f   panel.obj
 0001:00041760       ?guessInvType@@YAHHH@Z     66642760 f   panel.obj
 0001:00041780       ?guessStashType@@YAHHH@Z   66642780 f   panel.obj
 0001:000417a0       ?guessCubeType@@YAHHH@Z    666427a0 f   panel.obj
 0001:00042770       ?SetSkillBaseLevelOnClient@@YAXPAXPAUUnitAny@@HHH@Z 66643770 f   server.obj
 0001:00042ce0       ?resetQuest@@YAXPAUWorld@@PAUUnitAny@@H@Z 66643ce0 f   server.obj
 0001:00042f50       ?skipDropTxt@@YIHH@Z       66643f50 f   server.obj
 0001:00043010       ?gameStart@@YIXPAUNetClient@@@Z 66644010 f   server.obj
 0001:00043060       ?createHackmapMsg@@YAXXZ   66644060 f   server.obj
 0001:000431e0       ?serverRecvTest@@YAXPAUWorld@@PAUUnitAny@@H@Z 666441e0 f   server.obj
 0001:000432a0       ?necSummon@@YAPAUUnitAny@@PAUNecSummon@@@Z 666442a0 f   server.obj
 0001:000437e0       ?clientChat@@YIXPAD@Z      666447e0 f   admin.obj
 0001:00043d00       ?selectUnique@@YIHHH@Z     66644d00 f   admin.obj
 0001:00043e50       ?selectSet@@YIHPAHH@Z      66644e50 f   admin.obj
 0001:00045310       ?dropItem@@YAPAUUnitAny@@PAUWorld@@PAU1@HHHH@Z 66646310 f   admin.obj
 0001:000454b0       ?getFreePos@@YAPAUAreaRectData@@PAU1@PAUtagPOINT@@1H@Z 666464b0 f   admin.obj
 0001:000454d0       ?dropRuneword@@YAPAUUnitAny@@PAUWorld@@PAU1@HHH@Z 666464d0 f   admin.obj
 0001:00045740       ?dropUnique@@YAPAUUnitAny@@PAUWorld@@PAU1@HHH@Z 66646740 f   admin.obj
 0001:00045880       ?dropSet@@YAPAUUnitAny@@PAUWorld@@PAU1@HHH@Z 66646880 f   admin.obj
 0001:00045960       ?setItemStats@@YAXPAUUnitAny@@PAUd2stats@@@Z 66646960 f   admin.obj
 0001:00045a70       ?parseStats@@YAPADPADPAUd2stats@@@Z 66646a70 f   admin.obj
 0001:00047280       ?setStat@@YAHPAUd2stats@@HHH@Z 66648280 f   admin.obj
 0001:00047310       ?pickupItemTo@@YAXPAUWorld@@PAUUnitAny@@1H@Z 66648310 f   admin.obj
 0001:000482cd       _flsall                    666492cd f   LIBCMT:fflush.obj
 0001:00048b20       _swap                      66649b20 f   LIBCMT:qsort.obj
 0001:00048b50       _shortsort                 66649b50 f   LIBCMT:qsort.obj
 0001:000495bf       ?strtoxl@@YAKPAUlocaleinfo_struct@@PBDPAPBDHH@Z 6664a5bf f   LIBCMT:strtol.obj
 0001:0004a823       _IsRootUNCName             6664b823 f   LIBCMT:stati32.obj
 0001:0004a89d       __fullpath_helper          6664b89d f   LIBCMT:stati32.obj
 0001:0004b996       ?_strupr_s_l_stat@@YAHPADIPAUlocaleinfo_struct@@@Z 6664c996 f   LIBCMT:strupr.obj
 0001:0004bbae       ?wcstoxl@@YAKPAUlocaleinfo_struct@@PB_WPAPB_WHH@Z 6664cbae f   LIBCMT:wcstol.obj
 0001:0004c1be       ___DllMainCRTStartup       6664d1be f   LIBCMT:dllcrt0.obj
 0001:0004c2d7       ?CPtoLCID@@YAHH@Z          6664d2d7 f   LIBCMT:mbctype.obj
 0001:0004c306       ?setSBCS@@YAXPAUthreadmbcinfostruct@@@Z 6664d306 f   LIBCMT:mbctype.obj
 0001:0004c36a       ?setSBUpLow@@YAXPAUthreadmbcinfostruct@@@Z 6664d36a f   LIBCMT:mbctype.obj
 0001:0004c5a1       ?getSystemCP@@YAHH@Z       6664d5a1 f   LIBCMT:mbctype.obj
 0001:0004cc2b       __updatetlocinfoEx_nolock  6664dc2b f   LIBCMT:setlocal.obj
 0001:0004e20d       _write_char                6664f20d f   LIBCMT:output.obj
 0001:0004e240       _write_multi_char          6664f240 f   LIBCMT:output.obj
 0001:0004e266       _write_string              6664f266 f   LIBCMT:output.obj
 0001:0004f357       _fastzero_I                66650357 f   LIBCMT:p4_memset.obj
 0001:0004f43d       _has_osfxsr_set            6665043d f   LIBCMT:cpu_disp.obj
 0001:000502ca       _fastcopy_I                666512ca f   LIBCMT:p4_memcpy.obj
 0001:000504ec       ?__crtLCMapStringA_stat@@YAHPAUlocaleinfo_struct@@KKPBDHPADHHH@Z 666514ec f   LIBCMT:a_map.obj
 0001:00050bb7       __initterm                 66651bb7 f   LIBCMT:crt0dat.obj
 0001:00050c7d       _doexit                    66651c7d f   LIBCMT:crt0dat.obj
 0001:00050f89       __shift                    66651f89 f   LIBCMT:cvt.obj
 0001:00050fce       __cftoe2_l                 66651fce f   LIBCMT:cvt.obj
 0001:000515a0       __cftof2_l                 666525a0 f   LIBCMT:cvt.obj
 0001:00051a3c       __unwind_handler4          66652a3c f   LIBCMT:exsup4.obj
 0001:000528d8       __onexit_nolock            666538d8 f   LIBCMT:onexit.obj
 0001:0005412a       _parse_cmdline             6665512a f   LIBCMT:stdargv.obj
 0001:00054718       ?__crtGetStringTypeA_stat@@YAHPAUlocaleinfo_struct@@KPBDHPAGHHH@Z 66655718 f   LIBCMT:a_str.obj
 0001:00055d6c       _siglookup                 66656d6c f   LIBCMT:winsig.obj
 0001:00056474       __unwind_handler           66657474 f   LIBCMT:exsup.obj
 0001:00056d8e       __tzset_nolock             66657d8e f   LIBCMT:tzset.obj
 0001:000570d4       _cvtdate                   666580d4 f   LIBCMT:tzset.obj
 0001:000572cb       __isindst_nolock           666582cb f   LIBCMT:tzset.obj
 0001:00057634       __tsopen_nolock            66658634 f   LIBCMT:open.obj
 0001:00058385       ?x_ismbbtype_l@@YAHPAUlocaleinfo_struct@@IHH@Z 66659385 f   LIBCMT:ismbbyte.obj
 0001:0005a15d       __hw_cw                    6665b15d f   LIBCMT:_ieee87_.obj
 0001:0005a1eb       ___hw_cw_sse2              6665b1eb f   LIBCMT:_ieee87_.obj
 0001:0005b3b3       ?strncnt@@YAHPBDH@Z        6665c3b3 f   LIBCMT:a_cmp.obj
 0001:0005b3d1       ?__crtCompareStringA_stat@@YAHPAUlocaleinfo_struct@@KKPBDH1HH@Z 6665c3d1 f   LIBCMT:a_cmp.obj
 0001:0005b87d       _findenv                   6665c87d f   LIBCMT:setenv.obj
 0001:0005b8cf       _copy_environ              6665c8cf f   LIBCMT:setenv.obj
 0001:0005bca8       ??__Fnomem@?5???2@YAPAXI@Z@YAXXZ 6665cca8 f   LIBCMT:new.obj
