 d2hackmap

 Timestamp is 6831cd14 (Sat May 24 21:43:48 2025)

 Preferred load address is 66000000

 Start         Length     Name                   Class
 0001:00000000 00068a08H .text                   CODE
 0001:00068a08 00000014H .text$yd                CODE
 0002:00000000 00000218H .idata$5                DATA
 0002:00000218 00000004H .CRT$XCA                DATA
 0002:0000021c 00000004H .CRT$XCZ                DATA
 0002:00000220 00000004H .CRT$XIA                DATA
 0002:00000224 00000014H .CRT$XIC                DATA
 0002:00000238 00000004H .CRT$XIZ                DATA
 0002:0000023c 00000004H .CRT$XPA                DATA
 0002:00000240 00000004H .CRT$XPX                DATA
 0002:00000244 00000004H .CRT$XPXA               DATA
 0002:00000248 00000004H .CRT$XPZ                DATA
 0002:0000024c 00000004H .CRT$XTA                DATA
 0002:00000250 00000004H .CRT$XTZ                DATA
 0002:00000260 00016bc0H .rdata                  DATA
 0002:00016e20 000000dcH .rdata$r                DATA
 0002:00016f00 0000000cH .rdata$sxdata           DATA
 0002:00016f0c 00000004H .rtc$IAA                DATA
 0002:00016f10 00000004H .rtc$IZZ                DATA
 0002:00016f14 00000004H .rtc$TAA                DATA
 0002:00016f18 00000004H .rtc$TZZ                DATA
 0002:00016f20 00000734H .xdata$x                DATA
 0002:00017654 0000003cH .idata$2                DATA
 0002:00017690 00000014H .idata$3                DATA
 0002:000176a4 00000218H .idata$4                DATA
 0002:000178bc 0000095eH .idata$6                DATA
 0002:00018220 000000c7H .edata                  DATA
 0003:00000000 0000a208H .data                   DATA
 0003:0000a220 002052e4H .bss                    DATA

  Address         Publics by Value              Rva+Base       Lib:Object

 0000:00000000       __except_list              00000000     <absolute>
 0000:00000003       ___safe_se_handler_count   00000003     <absolute>
 0000:00000000       ___ImageBase               66000000     <linker-defined>
 0001:00000000       ?bitstream_init@@YAXPAUbitstream@@PAX1@Z 66001000 f   bitstream.obj
 0001:00000040       ?bitstream_seek@@YAXPAUbitstream@@H@Z 66001040 f   bitstream.obj
 0001:00000080       ?bitstream_rbit@@YAHPAUbitstream@@H@Z 66001080 f   bitstream.obj
 0001:00000170       ?bitstream_wbit@@YAHPAUbitstream@@IH@Z 66001170 f   bitstream.obj
 0001:00000250       ?bitstream_wbit_done@@YAXPAUbitstream@@@Z 66001250 f   bitstream.obj
 0001:000002d0       ?compareConfigVar@@YAHPBX0@Z 660012d0 f   config.obj
 0001:000002f0       ?compareSymbol@@YAHPBX0@Z  660012f0 f   config.obj
 0001:00000310       ?findConfigVar@@YAPAUConfigVar@@PAD@Z 66001310 f   config.obj
 0001:00000400       ?addConfigVar@@YAXPAUConfigVar@@@Z 66001400 f   config.obj
 0001:00000470       ?FixValues@@YAXXZ          66001470 f   config.obj
 0001:000004b0       ?formatKey@@YAXPADH@Z      660014b0 f   config.obj
 0001:00000550       ?formatKeyW@@YAXPA_WH@Z    66001550 f   config.obj
 0001:00000680       ?setupKey@@YAXPAUToggleVar@@@Z 66001680 f   config.obj
 0001:000006d0       ?addExtraKey@@YAPAUToggleVar@@H@Z 660016d0 f   config.obj
 0001:00000730       ?InitKeyEvent@@YAXXZ       66001730 f   config.obj
 0001:00000ae0       ?AddWarningMessage@@YAXPADH@Z 66001ae0 f   config.obj
 0001:00000c20       ?ShowWarningMessage@@YAXXZ 66001c20 f   config.obj
 0001:00000c80       ?isquote@@YADD@Z           66001c80 f   config.obj
 0001:00000cb0       ?filterSpace@@YAXPAD@Z     66001cb0 f   config.obj
 0001:00000d70       ?splitLine@@YAXPADPAPAD1@Z 66001d70 f   config.obj
 0001:00000e40       ?strchr@@YAPADPADH@Z       66001e40 f i config.obj
 0001:00000e60       ?strrchr@@YAPADPADH@Z      66001e60 f i config.obj
 0001:00000e80       ?findSymbol@@YAPAUSymbol@@PAD@Z 66001e80 f   config.obj
 0001:00000f40       ?doneNameValues@@YAXXZ     66001f40 f   config.obj
 0001:00000ff0       ?addNameValue@@YAXPAD0@Z   66001ff0 f   config.obj
 0001:00001080       ?replaceSymbols@@YAPADPAD@Z 66002080 f   config.obj
 0001:00001420       ?ConvertToWString@@YAHPA_WPADH@Z 66002420 f   config.obj
 0001:00001450       ?ConvertToD2String@@YAXPA_WPADH@Z 66002450 f   config.obj
 0001:000015a0       ?StoreArrayConfig@@YAHPAUConfigVar@@HHPAD1HH@Z 660025a0 f   config.obj
 0001:00001ac0       ?StoreConfig@@YAXPAUConfigVar@@PAD1@Z 66002ac0 f   config.obj
 0001:00002f90       ?LoadConfigFile@@YAHPADH@Z 66003f90 f   config.obj
 0001:00003810       ?strstr@@YAPADPADPBD@Z     66004810 f i config.obj
 0001:00004670       ?ReleaseMem@@YAXXZ         66005670 f   DllMain.obj
 0001:00004690       _DllMain@12                66005690 f   DllMain.obj
 0001:00004860       _QueryInterface@0          66005860 f   DllMain.obj
 0001:00004880       _PatchClient               66005880 f   DllMain.obj
 0001:000048d0       _MainMenuFlushFramebuf@0   660058d0 f   DllMain.obj
 0001:000048f0       _PatchServer@4             660058f0 f   DllMain.obj
 0001:00004930       ?guessEnchantLevel@@YAHXZ  66005930 f   guess.obj
 0001:000049e0       ?guessBOLevel@@YAHH@Z      660059e0 f   guess.obj
 0001:00005210       ?Install_AddConfigVars@@YAXXZ 66006210 f   install.obj
 0001:00005250       ?Install_FixValues@@YAXXZ  66006250 f   install.obj
 0001:00005270       ?get_dll_addr@@YAPAUHINSTANCE__@@PAD@Z 66006270 f   install.obj
 0001:00005300       ?VirtualProtect@@YAKKKK@Z  66006300 f   install.obj
 0001:00005330       ?WriteLocalBYTES@@YAXKPAXH@Z 66006330 f   install.obj
 0001:00005380       ?FillLocalBYTES@@YAXKEH@Z  66006380 f   install.obj
 0001:000053e0       ?InterceptLocalCode2@@YAXEKKH@Z 660063e0 f   install.obj
 0001:00005460       ?InterceptLocalCode@@YAXEKKH@Z 66006460 f   install.obj
 0001:00005490       ?patchCall@@YAHPAD0HHHH0@Z 66006490 f   install.obj
 0001:000054e0       ?patchJmp@@YAHPAD0HHHH0@Z  660064e0 f   install.obj
 0001:00005530       ?patchFill@@YAHPAD0HHHH0@Z 66006530 f   install.obj
 0001:00005580       ?patchValue@@YAHPAD0HHHH0@Z 66006580 f   install.obj
 0001:000055d0       ?installPatch@@YAHP6AXHHH@ZPAD1HHHH1@Z 660065d0 f   install.obj
 0001:00005960       ?removePatches@@YAHPAPAUInstalledPatch@@@Z 66006960 f   install.obj
 0001:00005a00       ?init_d2_ptrs@@YAHH@Z      66006a00 f   install.obj
 0001:000092e0       ?init_d2_ptrs2@@YAHXZ      6600a2e0 f   install.obj
 0001:00009350       ?InstallPatchAfterLoad_ASM@@YAXXZ 6600a350 f   install.obj
 0001:00009640       ?setResolutionPatch@@YAXH@Z 6600a640 f   install.obj
 0001:00009690       ?MonitorPacket@@YAXXZ      6600a690 f   install.obj
 0001:0000b860       ?check_d2ptrs@@YAXXZ       6600c860 f   install.obj
 0001:00013140       ?Install@@YAHXZ            66014140 f   install.obj
 0001:000136f0       ?patchServer@@YAXXZ        660146f0 f   install.obj
 0001:00013750       @SetReloadFlag@8           66014750 f   install.obj
 0001:00013780       @SetBnetIp@4               66014780 f   install.obj
 0001:000137a0       ?unpatchServer@@YAXXZ      660147a0 f   install.obj
 0001:000137f0       ?Uninstall@@YAXXZ          660147f0 f   install.obj
 0001:00013a10       ?init_crypt_table@@YAXXZ   66014a10 f   mpq.obj
 0001:00013ab0       ?mpq_hashstring@@YAIPBDI@Z 66014ab0 f   mpq.obj
 0001:00013b30       ?saveMpqTable@@YAXXZ       66014b30 f   mpq.obj
 0001:00013be0       ?add_mpq_path@@YIHPAD@Z    66014be0 f   mpq.obj
 0001:00013d10       ?dump_mpq_path@@YIXH@Z     66014d10 f   mpq.obj
 0001:00013eb0       ?storm268_patch_ASM@@YAXXZ 66014eb0 f   mpq.obj
 0001:00013ee0       ?common_addConfigVars@@YAXXZ 66014ee0 f   common.obj
 0001:00013f20       ?UnicodeFix2@@YAXPA_W@Z    66014f20 f   common.obj
 0001:00013fb0       ?MyMultiByteToWideChar@@YAHIKPBDHPA_WH@Z 66014fb0 f   common.obj
 0001:00013ff0       ?GB2GBK@@YAXPAD@Z          66014ff0 f   common.obj
 0001:00014170       ?readFully@@YAHPAU_iobuf@@PADH@Z 66015170 f   common.obj
 0001:000141d0       ?getFileSize@@YAHPBD@Z     660151d0 f   common.obj
 0001:00014220       ?fileExist@@YAHPBD@Z       66015220 f   common.obj
 0001:00014240       ?openFile@@YAPAU_iobuf@@PAD0@Z 66015240 f   common.obj
 0001:00014350       ?heap_strdup@@YAPADPAXPAD@Z 66015350 f   common.obj
 0001:000143d0       ?loadFile@@YAPADPAXPAU_iobuf@@PAH@Z 660153d0 f   common.obj
 0001:00014520       ?gameMessage@@YAXPADZZ     66015520 f   common.obj
 0001:000146e0       ?partyMessage@@YAXPADZZ    660156e0 f   common.obj
 0001:000147a0       ?gameMessageW@@YAXPA_WZZ   660157a0 f   common.obj
 0001:000147f0       ?partyMessageW@@YAXPA_WZZ  660157f0 f   common.obj
 0001:00014840       ?partyMessageWcolor@@YAXHPA_WZZ 66015840 f   common.obj
 0001:000148a0       ?get_cpu_usage@@YAHPAH0@Z  660158a0 f   common.obj
 0001:00014980       ?getSkillClass@@YAHH@Z     66015980 f   common.obj
 0001:000149d0       ?getSkillType@@YAHHH@Z     660159d0 f   common.obj
 0001:00014a20       ?getSkillLevel@@YAHPAUUnitAny@@H@Z 66015a20 f   common.obj
 0001:00014b80       ?getUnitRawDistance2@@YAHPAUUnitAny@@0@Z 66015b80 f   common.obj
 0001:00014c90       ?getUnitYardDistance2@@YAMPAUUnitAny@@0@Z 66015c90 f   common.obj
 0001:00014cd0       ?saveDistanceMap@@YAXXZ    66015cd0 f   common.obj
 0001:00014d30       ?getDistanceM256@@YAHHH@Z  66015d30 f   common.obj
 0001:00014e60       ?getPlayerDistanceM256@@YAHPAUUnitAny@@@Z 66015e60 f   common.obj
 0001:00014ef0       ?getPlayerDistanceRaw@@YAMPAUUnitAny@@@Z 66015ef0 f   common.obj
 0001:00014f90       ?getPlayerDistanceYard@@YAMPAUUnitAny@@@Z 66015f90 f   common.obj
 0001:00014fc0       ?getRosterUnit@@YAPAURosterUnit@@H@Z 66015fc0 f   common.obj
 0001:00015000       ?getAreatileByTxt@@YAPAUUnitAny@@H@Z 66016000 f   common.obj
 0001:00015060       ?getPortalToArea@@YAPAUUnitAny@@HPAD@Z 66016060 f   common.obj
 0001:000151a0       ?getAreatileTxtToLevel@@YAHH@Z 660161a0 f   common.obj
 0001:00015200       ?getSinglePlayerWorld@@YAPAUWorld@@XZ 66016200 f   common.obj
 0001:00015230       ?encodeItem@@YAHPAUUnitAny@@PADH@Z 66016230 f   common.obj
 0001:00015270       ?hasSkill@@YAHH@Z          66016270 f   common.obj
 0001:000152f0       ?selectSkill@@YAXHH@Z      660162f0 f   common.obj
 0001:00015340       ?switchLeftSkill@@YAXH@Z   66016340 f   common.obj
 0001:00015360       ?switchRightSkill@@YAXH@Z  66016360 f   common.obj
 0001:00015380       ?getSinglePlayerUnit@@YAPAUUnitAny@@HH@Z 66016380 f   common.obj
 0001:00015450       ?SendPacket@@YAXPAEH@Z     66016450 f   common.obj
 0001:000154e0       ?LeftClickType@@YAHHPAUUnitAny@@HH@Z 660164e0 f   common.obj
 0001:000155c0       ?LeftClickPos@@YAHHH@Z     660165c0 f   common.obj
 0001:000155e0       ?LeftClickUnit@@YAHPAUUnitAny@@@Z 660165e0 f   common.obj
 0001:00015600       ?ShiftLeftClickUnit@@YAHPAUUnitAny@@@Z 66016600 f   common.obj
 0001:00015650       ?ShiftLeftClickPos@@YAHHH@Z 66016650 f   common.obj
 0001:000156a0       ?RightSkill@@YAHPAUUnitAny@@HH@Z 660166a0 f   common.obj
 0001:000156f0       ?RightSkillPos@@YAHHH@Z    660166f0 f   common.obj
 0001:00015710       ?RightSkillUnit@@YAHPAUUnitAny@@@Z 66016710 f   common.obj
 0001:00015740       ?canUseSkillNow@@YAHPAUUnitAny@@H@Z 66016740 f   common.obj
 0001:00015760       ?skillUnusableAsm@@YAHPAUUnitAny@@PAUSkill@@@Z 66016760 f   common.obj
 0001:00015780       ?skillUnusable@@YAHPAUUnitAny@@PAUSkill@@@Z 66016780 f   common.obj
 0001:000157c0       ?useBelt@@YAXHH@Z          660167c0 f   common.obj
 0001:00015840       ?GameControlStart@@YAHH@Z  66016840 f   common.obj
 0001:000158d0       ?GameControlEnd@@YAHH@Z    660168d0 f   common.obj
 0001:00015950       ?GameControl@@YAXH@Z       66016950 f   common.obj
 0001:00015970       ?getGameControlKey@@YAHH@Z 66016970 f   common.obj
 0001:000159c0       ?StandStillPatch_ASM@@YAXXZ 660169c0 f   common.obj
 0001:000159e0       ?SetBottomAlertMsg1@@YAXPA_WHHH@Z 660169e0 f   common.obj
 0001:00015a80       ?SetBottomAlertMsg2@@YAXPA_WHHH@Z 66016a80 f   common.obj
 0001:00015b20       ?SetBottomAlertMsg3@@YAXPA_WHHH@Z 66016b20 f   common.obj
 0001:00015bc0       ?DrawCenterAlertMsg@@YAXXZ 66016bc0 f   common.obj
 0001:00015dd0       ?sqrt@@YAMM@Z              66016dd0 f i common.obj
 0001:00015df0       _sqrtf                     66016df0 f i common.obj
 0001:00015e10       ?GetAreaLevel@@YAHXZ       66016e10 f   common.obj
 0001:00015e70       ?GetPetByType@@YAPAUPetUnit@@PAUUnitAny@@H@Z 66016e70 f   common.obj
 0001:00015ec0       ?GetUnitFromIdSafe@@YAPAUUnitAny@@KK@Z 66016ec0 f   common.obj
 0001:00015f30       ?GetUnitPet@@YAPAUUnitAny@@PAU1@@Z 66016f30 f   common.obj
 0001:00015f70       ?getPlayerClass@@YAHH@Z    66016f70 f   common.obj
 0001:00015fb0       ?GetUnitMagicStat@@YAKPAUUnitAny@@K@Z 66016fb0 f   common.obj
 0001:00016000       ?GetUnitResist@@YAHPAUUnitAny@@K@Z 66017000 f   common.obj
 0001:00016050       ?CheckUnitSelect@@YAHPAUUnitAny@@@Z 66017050 f   common.obj
 0001:00016180       ?GetItemILvlAfterCube@@YAHHHH@Z 66017180 f   common.obj
 0001:00016230       ?GetItemAlvl@@YAHHHH@Z     66017230 f   common.obj
 0001:000162b0       ?GetTextWidth@@YAKPA_W@Z   660172b0 f   common.obj
 0001:000162d0       ?DrawD2Text@@YAXKPA_WHHKK@Z 660172d0 f   common.obj
 0001:00016310       ?DrawCenterText@@YAXKPA_WHHKHK@Z 66017310 f   common.obj
 0001:00016360       ?drawBgText@@YAHPA_WHHHH@Z 66017360 f   common.obj
 0001:000163e0       ?drawBgTextMiddle@@YAHPA_WHHHH@Z 660173e0 f   common.obj
 0001:00016450       ?drawBgTextLeft@@YAHPA_WHHHH@Z 66017450 f   common.obj
 0001:000164b0       ?ExitGame@@YAXXZ           660174b0 f   common.obj
 0001:000164e0       ?GetGameLanguage@@YAHXZ    660174e0 f   common.obj
 0001:000165a0       ?getFcrFrame@@YAHHPAUUnitAny@@@Z 660175a0 f   common.obj
 0001:00016860       ?IsFullWindow@@YAHXZ       66017860 f   common.obj
 0001:00016920       ?getUnitOwnerId@@YAHPAUUnitAny@@@Z 66017920 f   common.obj
 0001:00016af0       ?testPvpFlag@@YAHH@Z       66017af0 f   common.obj
 0001:00016d00       ?sameParty@@YAHH@Z         66017d00 f   common.obj
 0001:00016d20       ?isInRect@@YA_NPAUAreaRectData@@HH@Z 66017d20 f   common.obj
 0001:00016d90       ?testPosition@@YAPAUAreaRectData@@PAU1@HH@Z 66017d90 f   common.obj
 0001:00016db0       ?portalToLevel@@YAHPAUWorld@@PAUUnitAny@@H@Z 66017db0 f   common.obj
 0001:00016f60       ?hasPortalInRect@@YAHPAUAreaRectData@@H@Z 66017f60 f   common.obj
 0001:00016fd0       ?hasPortalNearby@@YAHPAUAreaRectData@@H@Z 66017fd0 f   common.obj
 0001:00017040       ?hasPortalInLevel@@YAHPAUDrlgLevel@@H@Z 66018040 f   common.obj
 0001:000170a0       ?unitHasItem@@YAHPAUUnitAny@@H@Z 660180a0 f   common.obj
 0001:00017110       ?sendPacketToClient@@YAXPAUNetClient@@PADH@Z 66018110 f   common.obj
 0001:00017130       ?sendChatMessageToServer@@YAXPADZZ 66018130 f   common.obj
 0001:000171f0       ?sendMessageToClient@@YAXPAUNetClient@@HHPAD1@Z 660181f0 f   common.obj
 0001:00017390       ?getCharStatsTxt@@YAPAUCharStatsTxt@@H@Z 66018390 f   common.obj
 0001:000173a0       ?getStatMaxValue@@YAHH@Z   660183a0 f   common.obj
 0001:00017400       ?cpLocaleName@@YAHPA_W0H@Z 66018400 f   common.obj
 0001:000174a0       ?acpLocaleName@@YAHPADPA_WH@Z 660184a0 f   common.obj
 0001:00017550       ?d2client_SetAutomapParty@@YIXK@Z 66018550 f   d2callstub.obj
 0001:00017560       ?d2client_SetAutomapNames@@YIXK@Z 66018560 f   d2callstub.obj
 0001:00017570       ?d2client_ChatInput@@YIKPAUD2MSG@@@Z 66018570 f   d2callstub.obj
 0001:00017580       ?d2client_CheckUiStatus@@YIHH@Z 66018580 f   d2callstub.obj
 0001:00017590       ?d2client_InitAutomapLayer@@YIPAUAutomapLayer@@H@Z 66018590 f   d2callstub.obj
 0001:000175a0       ?d2common_GetUniqueItemTxt@@YIPAUUniqueItemTxt@@H@Z 660185a0 f   d2callstub.obj
 0001:000175d0       ?d2common_GetItemStatCostTxt@@YIPAUItemStatCostTxt@@H@Z 660185d0 f   d2callstub.obj
 0001:00017600       ?d2common_GetPropertiesTxt@@YIPAUPropertiesTxt@@H@Z 66018600 f   d2callstub.obj
 0001:00017630       ?d2common_GetSetItemTxt@@YIPAUSetItemTxt@@H@Z 66018630 f   d2callstub.obj
 0001:00017660       ?d2common_GetItemTypeTxt@@YIPAUItemTypeTxt@@H@Z 66018660 f   d2callstub.obj
 0001:00017690       ?d2common_GetRuneWordTxt@@YIPAURuneWordTxt@@H@Z 66018690 f   d2callstub.obj
 0001:000176c0       ?d2common_GetRuneWordTxtIndex@@YIHH@Z 660186c0 f   d2callstub.obj
 0001:00017700       ?d2client_LoadUiImage@@YIPAUCellFile@@PAD@Z 66018700 f   d2callstub.obj
 0001:00017710       ?SaveGame@@YAHXZ           66018710 f   dbg.obj
 0001:00017760       ?DoTest@@YAHXZ             66018760 f   dbg.obj
 0001:00017780       ?installAlwaysDebugPatches@@YAHXZ 66018780 f   dbg.obj
 0001:00017790       ?installDebugPatches@@YAHXZ 66018790 f   dbg.obj
 0001:00017980       ?loop_addConfigVars@@YAXXZ 66018980 f   loop.obj
 0001:000179c0       ?ToggleIMEInput@@YAXH@Z    660189c0 f   loop.obj
 0001:00017a10       ?GameLoopPatch@@YAXXZ      66018a10 f   loop.obj
 0001:000185e0       ?GameEndPatch@@YAXXZ       660195e0 f   loop.obj
 0001:000187e0       ?GameLoopPatch_ASM@@YAXXZ  660197e0 f   loop.obj
 0001:000187f0       ?GameEndPatch_ASM@@YAXXZ   660197f0 f   loop.obj
 0001:00018800       ?automap_addConfigVars@@YAXXZ 66019800 f   map.obj
 0001:00018840       ?automap_initConfigVars@@YAXXZ 66019840 f   map.obj
 0001:00018b50       ?automap_initKeyEvent@@YAXXZ 66019b50 f   map.obj
 0001:00018bd0       ?draw2map@@YAXPAUtagPOINT@@HH@Z 66019bd0 f   map.obj
 0001:00018c40       ?tile2map@@YAXPAUtagPOINT@@HH@Z 66019c40 f   map.obj
 0001:00018c90       ?addMapTarget@@YAXHHHPA_W0@Z 66019c90 f   map.obj
 0001:00018d70       ?automap_fixValues@@YAXXZ  66019d70 f   map.obj
 0001:00018dd0       ?AutoMapNewGame@@YAXXZ     66019dd0 f   map.obj
 0001:00018ec0       ?PrevMapTarget@@YAHXZ      66019ec0 f   map.obj
 0001:00019100       ?NextMapTarget@@YAHXZ      6601a100 f   map.obj
 0001:000191a0       ?AutoMapNewLevel@@YAXXZ    6601a1a0 f   map.obj
 0001:00019340       ?addMinimapTarget@@YAXPAUAreaRectInfo@@HHHHHH@Z 6601a340 f   map.obj
 0001:00019440       ?bitmap2dc6@@YAPAUCellFile@@PAEHH@Z 6601a440 f   map.obj
 0001:00019670       ?InitCellFiles@@YAXXZ      6601a670 f   map.obj
 0001:00019970       ?DeleteCellFiles@@YAXXZ    6601a970 f   map.obj
 0001:00019a80       ?InitAutomapLayer@@YAXH@Z  6601aa80 f   map.obj
 0001:00019aa0       ?mapReveal@@YAXPAUAreaRectInfo@@@Z 6601aaa0 f   map.obj
 0001:00019af0       ?mapHide@@YAXPAUAreaRectInfo@@@Z 6601aaf0 f   map.obj
 0001:00019b40       ?addSecretCowLevelCorners@@YAXPAUDrlgLevel@@@Z 6601ab40 f   map.obj
 0001:00019cf0       ?RevealAutomapLevel@@YAXPAUDrlgLevel@@H@Z 6601acf0 f   map.obj
 0001:0001a800       ?RevealLevelPlayerIn@@YAHXZ 6601b800 f   map.obj
 0001:0001a840       ?RevealCurAct@@YAHXZ       6601b840 f   map.obj
 0001:0001a9f0       ?RemoveMyAutomapNodes@@YAXXZ 6601b9f0 f   map.obj
 0001:0001aac0       ?DrawAutomapNodePatch@@YGXPAUCellContext@@HHPAUtagRECT@@H@Z 6601bac0 f   map.obj
 0001:0001af10       ?AddShrinePatch_ASM@@YAXXZ 6601bf10 f   map.obj
 0001:0001af40       ?OverrideShrinePatch@@YIXPAUAutomapNode@@0@Z 6601bf40 f   map.obj
 0001:0001afa0       ?OverrideShrinePatch_ASM@@YAXXZ 6601bfa0 f   map.obj
 0001:0001afc0       ?DrawAutomapNode@@YAXPAUCellFile@@HHD@Z 6601bfc0 f   map.obj
 0001:0001b140       ?DrawAutomapBlob@@YIXHHHPAUUnitAny@@@Z 6601c140 f   map.obj
 0001:0001b2c0       ?ForceDrawBlob_ASM@@YAXXZ  6601c2c0 f   map.obj
 0001:0001b2d0       ?DrawBlobPath_ASM@@YAXXZ   6601c2d0 f   map.obj
 0001:0001b2e0       ?DrawPartyPlayerBlobPatch_ASM@@YAXXZ 6601c2e0 f   map.obj
 0001:0001b2f0       ?HostilePlayerPatch@@YIEPAUUnitAny@@@Z 6601c2f0 f   map.obj
 0001:0001b330       ?HostilePlayerColor_ASM@@YAXXZ 6601c330 f   map.obj
 0001:0001b340       ?DrawPlayerTextPatch@@YIEPAUUnitAny@@@Z 6601c340 f   map.obj
 0001:0001b3a0       ?DrawPlayerTextPatch_ASM@@YAXXZ 6601c3a0 f   map.obj
 0001:0001b3c0       ?MonsterBlobDesc@@YIXPAUUnitAny@@@Z 6601c3c0 f   map.obj
 0001:0001b8b0       ?MonsterBlobDescPatch_ASM@@YAXXZ 6601c8b0 f   map.obj
 0001:0001b8d0       ?MonsterBlobCol@@YIEPAUUnitAny@@@Z 6601c8d0 f   map.obj
 0001:0001ba00       ?CorpseBlobCol@@YIEPAUUnitAny@@@Z 6601ca00 f   map.obj
 0001:0001bab0       ?ObjectBlobCol@@YIEPAUUnitAny@@@Z 6601cab0 f   map.obj
 0001:0001bc70       ?MissileBlobCol@@YIEPAUUnitAny@@@Z 6601cc70 f   map.obj
 0001:0001bd70       ?MixedBlobColPatch@@YIEPAUUnitAny@@@Z 6601cd70 f   map.obj
 0001:0001be20       ?MixedBlobColPatch_ASM@@YAXXZ 6601ce20 f   map.obj
 0001:0001be40       ?AddRectToMinimap@@YAHPAUAreaRectInfo@@H@Z 6601ce40 f   map.obj
 0001:0001ca90       ?drawActiveRectAreaOnMinimap@@YAXXZ 6601da90 f   map.obj
 0001:0001cbf0       ?drawScreenAreaOnMinimap@@YAXXZ 6601dbf0 f   map.obj
 0001:0001cd10       ?MinimapPatch@@YAXXZ       6601dd10 f   map.obj
 0001:0001cff0       ?MinimapPatch_ASM@@YAXXZ   6601dff0 f   map.obj
 0001:0001d000       ?InitScrollLock@@YAXH@Z    6601e000 f   map.obj
 0001:0001d030       ?SetScrollMapPos@@YAXHH@Z  6601e030 f   map.obj
 0001:0001d090       ?MiniMapScroll@@YAHH@Z     6601e090 f   map.obj
 0001:0001d0c0       ?CenterMap@@YAHXZ          6601e0c0 f   map.obj
 0001:0001d0e0       ?ShakeScreenPatch@@YGXPAH0@Z 6601e0e0 f   map.obj
 0001:0001d180       ?ScrollScreenEnd@@YAHH@Z   6601e180 f   map.obj
 0001:0001d1c0       ?ScrollScreenStart@@YAHH@Z 6601e1c0 f   map.obj
 0001:0001d290       ?DrawScrollOffset@@YAXPA_WH@Z 6601e290 f   map.obj
 0001:0001d2e0       ?packet_addConfigVars@@YAXXZ 6601e2e0 f   packet.obj
 0001:0001d320       ?packet_initConfigVars@@YAXXZ 6601e320 f   packet.obj
 0001:0001d350       ?packet_FixValues@@YAXXZ   6601e350 f   packet.obj
 0001:0001d390       ?ResetPacketHandlerTimer@@YAXXZ 6601e390 f   packet.obj
 0001:0001d3a0       ?PacketNewGame@@YAXXZ      6601e3a0 f   packet.obj
 0001:0001d3b0       ?FixSocketTimeOut_ASM@@YAXXZ 6601e3b0 f   packet.obj
 0001:0001d3c0       ?FixSocketErrRet_ASM@@YAXXZ 6601e3c0 f   packet.obj
 0001:0001d3e0       ?dump9c@@YAXPAEH@Z         6601e3e0 f   packet.obj
 0001:0001d540       ?GamePacketReceivedInterceptPatch_ASM@@YAXXZ 6601e540 f   packet.obj
 0001:0001d570       ?dumpRecvPacket@@YIXPAEH@Z 6601e570 f   packet.obj
 0001:0001e120       ?GamePacketSendInterceptPatch_ASM@@YAXXZ 6601f120 f   packet.obj
 0001:0001e180       ?dumpSendPacket@@YIXPAH@Z  6601f180 f   packet.obj
 0001:0001e830       ?showResetProtectMsg@@YAXXZ 6601f830 f   packet.obj
 0001:0001e8a0       ?ResetProtection@@YAHH@Z   6601f8a0 f   packet.obj
 0001:0001e910       ?ResetSkillPatch_ASM@@YAXXZ 6601f910 f   packet.obj
 0001:0001e930       ?packetDebug@@YAXXZ        6601f930 f   packet.obj
 0001:0001e940       ?blockSendPacket@@YIHPAH@Z 6601f940 f   packet.obj
 0001:0001efb0       ?initSendPacketCheckTable@@YAXXZ 6601ffb0 f   packet.obj
 0001:0001f040       ?autoroute_addConfigVars@@YAXXZ 66020040 f   route.obj
 0001:0001f080       ?autoroute_fixValues@@YAXXZ 66020080 f   route.obj
 0001:0001f0a0       ?AutoRouteNewGame@@YAXXZ   660200a0 f   route.obj
 0001:0001f0d0       ?AutoRouteLocateSource@@YAHH@Z 660200d0 f   route.obj
 0001:0001f270       ?minimapDebug@@YAXXZ       66020270 f   route.obj
 0001:0001f3c0       ?AutoRouteDrawScreenPath@@YAXXZ 660203c0 f   route.obj
 0001:0001f680       ?AutoRouteDrawMinimapPath@@YAXXZ 66020680 f   route.obj
 0001:0001fd20       ?markNextPathInvalid@@YAXH@Z 66020d20 f   route.obj
 0001:0001fd90       ?AutoTeleportGetTarget@@YAHPAUtagPOINT@@PAH11@Z 66020d90 f   route.obj
 0001:0001fef0       ?RerouteRectPath@@YAHXZ    66020ef0 f   route.obj
 0001:00020a50       ?AutoMapRoute@@YAXXZ       66021a50 f   route.obj
 0001:00020b40       ?waypoint_initConfigVars@@YAXXZ 66021b40 f   waypoint.obj
 0001:00020bc0       ?waypointExist@@YAHH@Z     66021bc0 f   waypoint.obj
 0001:00020c00       ?hasWaypoint@@YAHH@Z       66021c00 f   waypoint.obj
 0001:00020c60       ?WaypointNewGame@@YAXXZ    66021c60 f   waypoint.obj
 0001:00020c80       ?isWaypointTxt@@YAHH@Z     66021c80 f   waypoint.obj
 0001:00020e40       ?findWaypoint@@YAPAUUnitAny@@H@Z 66021e40 f   waypoint.obj
 0001:00021080       ?takeWaypointToLevel@@YAXPAUUnitAny@@H@Z 66022080 f   waypoint.obj
 0001:000210d0       ?takeWaypointToLvl@@YAHHH@Z 660220d0 f   waypoint.obj
 0001:00021110       ?RecvCommand_63_Patch_ASM@@YAXXZ 66022110 f   waypoint.obj
 0001:00021200       ?winmsg_addConfigVars@@YAXXZ 66022200 f   winmsg.obj
 0001:00021240       ?winmsg_initConfigVars@@YAXXZ 66022240 f   winmsg.obj
 0001:00021350       ?WinMessageFixValues@@YAXXZ 66022350 f   winmsg.obj
 0001:000213e0       ?WinMessage_initKeyEvent@@YAXXZ 660223e0 f   winmsg.obj
 0001:00021820       ?IsKeyDown@@YAHH@Z         66022820 f   winmsg.obj
 0001:00021840       ?LockMouse@@YAHXZ          66022840 f   winmsg.obj
 0001:00021a00       ?switchSkillStart@@YAHH@Z  66022a00 f   winmsg.obj
 0001:00021b80       ?switchSkillEnd@@YAHH@Z    66022b80 f   winmsg.obj
 0001:00021d00       ?GameSound@@YAHH@Z         66022d00 f   winmsg.obj
 0001:00021d40       ?FullScreen@@YAHXZ         66022d40 f   winmsg.obj
 0001:00021e30       ?AttractNPC@@YAHXZ         66022e30 f   winmsg.obj
 0001:00021ed0       ?SwitchWindow@@YAHH@Z      66022ed0 f   winmsg.obj
 0001:00021f30       ?WinMessageNewGame@@YAXXZ  66022f30 f   winmsg.obj
 0001:00022170       ?WinMessageEndGame@@YAXXZ  66023170 f   winmsg.obj
 0001:000221a0       ?refreshScreenSaver@@YAXXZ 660231a0 f   winmsg.obj
 0001:000221e0       ?refreshMenuScreenSaver@@YAXXZ 660231e0 f   winmsg.obj
 0001:00022220       ?winActiveMsg@@YAXH@Z      66023220 f   winmsg.obj
 0001:00022350       ?hasCTA@@YAHXZ             66023350 f   winmsg.obj
 0001:000223f0       ?WinMessageRunLoop@@YAXXZ  660233f0 f   winmsg.obj
 0001:000226c0       ?WinMessage@@YAHHHPAUHWND__@@HHH@Z 660236c0 f   winmsg.obj
 0001:00023520       ?WinMessagePatch_ASM@@YAXXZ 66024520 f   winmsg.obj
 0001:00023530       ?KeydownPatch_ASM@@YAXXZ   66024530 f   winmsg.obj
 0001:00023550       ?KeyupPatch_ASM@@YAXXZ     66024550 f   winmsg.obj
 0001:00023570       ?ReceiveSwapWeapon_ASM@@YAXXZ 66024570 f   winmsg.obj
 0001:000235b0       ?ShowVersion_Patch_ASM@@YAXXZ 660245b0 f   winmsg.obj
 0001:00023650       ?SetCursorPosPatch_ASM@@YAXXZ 66024650 f   winmsg.obj
 0001:00023670       ?DrawLeftBackImagePatch_ASM@@YAXXZ 66024670 f   winmsg.obj
 0001:00023690       ?DrawRightBackImagePatch_ASM@@YAXXZ 66024690 f   winmsg.obj
 0001:000236b0       ?DrawGroundAndUnitPatch_ASM@@YAXXZ 660246b0 f   winmsg.obj
 0001:00023710       ?DrawControlsPatch_ASM@@YAXXZ 66024710 f   winmsg.obj
 0001:00023800       ?SkipDrawUnitAndControlPatch_ASM@@YAXXZ 66024800 f   winmsg.obj
 0001:00023880       ?SkipAllDrawingPatch_ASM@@YAXXZ 66024880 f   winmsg.obj
 0001:00023920       ?SkipDrawMenuPatch2_ASM@@YAXXZ 66024920 f   winmsg.obj
 0001:000239a0       ?SkipDrawMenuPatch_ASM@@YAXXZ 660249a0 f   winmsg.obj
 0001:00023a60       ?NoHidePatch_ASM@@YAXXZ    66024a60 f   winmsg.obj
 0001:00023a90       ?env_addConfigVars@@YAXXZ  66024a90 f   env.obj
 0001:00023ad0       ?env_initConfigVars@@YAXXZ 66024ad0 f   env.obj
 0001:00023b20       ?ChangeVisualEffect@@YAHXZ 66024b20 f   env.obj
 0001:00023ba0       ?WeatherPatch_ASM@@YAXXZ   66024ba0 f   env.obj
 0001:00023bb0       ?LightingPatch_ASM@@YAXXZ  66024bb0 f   env.obj
 0001:00023be0       ?InfravisionPatch@@YIKPAUUnitAny@@@Z 66024be0 f   env.obj
 0001:00024050       ?InfravisionPatch_ASM@@YAXXZ 66025050 f   env.obj
 0001:00024070       ?drawMyGround@@YAXXZ       66025070 f   env.obj
 0001:00024210       ?SkipDrawGroundPatch_ASM@@YAXXZ 66025210 f   env.obj
 0001:00024230       ?gamemonitor_addConfigVars@@YAXXZ 66025230 f   GameMonitor.obj
 0001:00024270       ?gamemonitor_initConfigVars@@YAXXZ 66025270 f   GameMonitor.obj
 0001:000242b0       ?usePotion@@YAXH@Z         660252b0 f   GameMonitor.obj
 0001:00024390       ?updateCurStashPage@@YAXXZ 66025390 f   GameMonitor.obj
 0001:00024480       ?recheckSelfItems@@YAXXZ   66025480 f   GameMonitor.obj
 0001:00024c50       ?setKDCountDown@@YAXH@Z    66025c50 f   GameMonitor.obj
 0001:00024c70       ?setKBCountDown@@YAXHH@Z   66025c70 f   GameMonitor.obj
 0001:00024ca0       ?setCountDownEndTime@@YAXPAUCountDown@@@Z 66025ca0 f   GameMonitor.obj
 0001:00024d80       ?setupCountdown@@YAXPAUCountDown@@@Z 66025d80 f   GameMonitor.obj
 0001:00024dd0       ?onRightSkillMap@@YAXHH@Z  66025dd0 f   GameMonitor.obj
 0001:00024f80       ?onRightSkillUnit@@YAXHH@Z 66025f80 f   GameMonitor.obj
 0001:000250e0       ?GameMonitorNewGame@@YAXXZ 660260e0 f   GameMonitor.obj
 0001:00025190       ?GameMonitorEndGame@@YAXXZ 66026190 f   GameMonitor.obj
 0001:000251b0       ?ShowGameCount@@YAXXZ      660261b0 f   GameMonitor.obj
 0001:00025440       ?SetKills@@YIXK@Z          66026440 f   GameMonitor.obj
 0001:00025490       ?KillCountPatch_ASM@@YAXXZ 66026490 f   GameMonitor.obj
 0001:000254b0       ?UnitModeChangePatch_ASM@@YAXXZ 660264b0 f   GameMonitor.obj
 0001:000254f0       ?drawSimpleItemStackCount@@YAXXZ 660264f0 f   GameMonitor.obj
 0001:00025990       ?DrawMonitorInfo@@YAXXZ    66026990 f   GameMonitor.obj
 0001:00026f60       ?SetState@@YGXKH@Z         66027f60 f   GameMonitor.obj
 0001:00027290       ?RecvCommand_A7_Patch_ASM@@YAXXZ 66028290 f   GameMonitor.obj
 0001:00027410       ?RecvCommand_A8_Patch_ASM@@YAXXZ 66028410 f   GameMonitor.obj
 0001:00027460       ?RecvCommand_A9_Patch_ASM@@YAXXZ 66028460 f   GameMonitor.obj
 0001:000274b0       ?itemAction@@YAXPAUbitstream@@PAD@Z 660284b0 f   GameMonitor.obj
 0001:00027620       ?changeStashPage@@YAXH@Z   66028620 f   GameMonitor.obj
 0001:000276a0       ?itemAction9C@@YIXPAD@Z    660286a0 f   GameMonitor.obj
 0001:00027720       ?itemAction9D@@YIXPAD@Z    66028720 f   GameMonitor.obj
 0001:000277a0       ?updateItemSkill@@YIXPAD@Z 660287a0 f   GameMonitor.obj
 0001:00027830       ?RecvCommand_9C_Patch_ASM@@YAXXZ 66028830 f   GameMonitor.obj
 0001:00027840       ?RecvCommand_9D_Patch_ASM@@YAXXZ 66028840 f   GameMonitor.obj
 0001:00027850       ?RecvCommand_22_Patch_ASM@@YAXXZ 66028850 f   GameMonitor.obj
 0001:00027860       ?DrawSimpleItemStack_Patch_ASM@@YAXXZ 66028860 f   GameMonitor.obj
 0001:00027900       ?drawUnitsInfo@@YAXXZ      66028900 f   GameMonitor.obj
 0001:000282d0       ?info_AddConfigVars@@YAXXZ 660292d0 f   info.obj
 0001:00028310       ?infoNewGame@@YAXXZ        66029310 f   info.obj
 0001:00028330       ?wsprintfW2@@YAPA_WPA_WPADZZ 66029330 f   info.obj
 0001:00028390       ?DrawGameInfoPatch@@YIXH@Z 66029390 f   info.obj
 0001:00028650       ?DrawPetHeadPatch@@YIXHPAUUnitAny@@@Z 66029650 f   info.obj
 0001:000286d0       ?DrawPetHeadPatch_ASM@@YAXXZ 660296d0 f   info.obj
 0001:000286e0       ?getGameWinId@@YAHH@Z      660296e0 f   info.obj
 0001:00028740       ?DrawPartyHeadPatch@@YIXHPAURosterUnit@@@Z 66029740 f   info.obj
 0001:00028c40       ?StartDrawPartyHeadPatch_ASM@@YAXXZ 66029c40 f   info.obj
 0001:00028c60       ?DrawPartyHeadPatch_ASM@@YAXXZ 66029c60 f   info.obj
 0001:00028c80       ?DrawSkeletonHeadPatch@@YIXHH@Z 66029c80 f   info.obj
 0001:00028da0       ?DrawSkeletonHeadPatch_ASM@@YAXXZ 66029da0 f   info.obj
 0001:00028db0       ?UpdateExp@@YAXXZ          66029db0 f   info.obj
 0001:00028fd0       ?InitExp@@YAXXZ            66029fd0 f   info.obj
 0001:00029000       ?UpdateExp_ASM@@YAXXZ      6602a000 f   info.obj
 0001:00029020       ?info_FixValues@@YAXXZ     6602a020 f   info.obj
 0001:00029100       ?DrawClientPatch@@YAXXZ    6602a100 f   info.obj
 0001:00029280       ?DrawClientPatch_ASM@@YAXXZ 6602a280 f   info.obj
 0001:000292a0       ?ShowLifeWithMyPattern@@YGKKHH@Z 6602a2a0 f   info.obj
 0001:00029320       ?ShowManaWithMyPattern@@YGKKHH@Z 6602a320 f   info.obj
 0001:000293a0       ?ShowLifePatch_ASM@@YAXXZ  6602a3a0 f   info.obj
 0001:000293c0       ?ShowManaPatch_ASM@@YAXXZ  6602a3c0 f   info.obj
 0001:000293e0       ?SetLifeManaShow@@YAHXZ    6602a3e0 f   info.obj
 0001:00029420       ?GetViewEquUnit@@YAPAUUnitAny@@XZ 6602a420 f   info.obj
 0001:00029450       ?GetViewStatUnit@@YAPAUUnitAny@@XZ 6602a450 f   info.obj
 0001:00029480       ?SetViewUnit@@YAXXZ        6602a480 f   info.obj
 0001:00029570       ?ViewUnit@@YAHH@Z          6602a570 f   info.obj
 0001:00029610       ?GetViewingStatsPlayerPatch1_ASM@@YAXXZ 6602a610 f   info.obj
 0001:00029620       ?GetViewingStatsPlayerPatch2_ASM@@YAXXZ 6602a620 f   info.obj
 0001:00029630       ?GetUnitDrawEquipItemPatch_ASM@@YAXXZ 6602a630 f   info.obj
 0001:00029640       ?GetUnitDrawItemDescPath_ASM@@YAXXZ 6602a640 f   info.obj
 0001:00029650       ?GetUnitTestHasItem_ASM@@YAXXZ 6602a650 f   info.obj
 0001:00029670       ?GetUnitText@@YIPA_WPA_WPAUUnitAny@@@Z 6602a670 f   info.obj
 0001:00029710       ?ViewDrawInvItemPatch@@YAPAUUnitAny@@XZ 6602a710 f   info.obj
 0001:00029790       ?GetUnitDrawInvItemPatch_ASM@@YAXXZ 6602a790 f   info.obj
 0001:000297a0       ?GetUnitProtectClickEquipPatch_ASM@@YAXXZ 6602a7a0 f   info.obj
 0001:000297e0       ?GetUnitProtectClickInvPatch_ASM@@YAXXZ 6602a7e0 f   info.obj
 0001:00029810       ?DrawDefaultFontText@@YAXPA_WHHKHK@Z 6602a810 f   info.obj
 0001:00029840       ?SwitchStatPage@@YAHH@Z    6602a840 f   info.obj
 0001:00029890       ?DrawUnitStat@@YAXHHHHPAD00KHH@Z 6602a890 f   info.obj
 0001:00029970       ?ViewUnitStatPatch@@YIXPAUUnitAny@@@Z 6602a970 f   info.obj
 0001:00029d70       ?ViewUnitStatPatch_ASM@@YAXXZ 6602ad70 f   info.obj
 0001:00029d90       ?ViewPetStatPatch@@YIXPAUUnitAny@@@Z 6602ad90 f   info.obj
 0001:0002a000       ?ViewPetStatPatch_ASM@@YAXXZ 6602b000 f   info.obj
 0001:0002a020       ?messagelog_AddConfigVars@@YAXXZ 6602b020 f   MessageLog.obj
 0001:0002a060       ?OpenFileNew@@YAPAXPAD@Z   6602b060 f   MessageLog.obj
 0001:0002a090       ?OpenFileWrite@@YAPAXPAD@Z 6602b090 f   MessageLog.obj
 0001:0002a0c0       ?WriteFile@@YAKPAX0K@Z     6602b0c0 f   MessageLog.obj
 0001:0002a0f0       ?LogMessage@@YIXPA_W@Z     6602b0f0 f   MessageLog.obj
 0001:0002a590       ?MessageLogPatch1_ASM@@YAXXZ 6602b590 f   MessageLog.obj
 0001:0002a5b0       ?MessageLogPatch2_ASM@@YAXXZ 6602b5b0 f   MessageLog.obj
 0001:0002a5d0       ?MessageLogExitGame@@YAXXZ 6602b5d0 f   MessageLog.obj
 0001:0002a8c0       ?item_addConfigVars@@YAXXZ 6602b8c0 f   item.obj
 0001:0002a900       ?item_initConfigVars@@YAXXZ 6602b900 f   item.obj
 0001:0002a990       ?item_NewGame@@YAXXZ       6602b990 f   item.obj
 0001:0002a9b0       ?wcs_insert@@YAPA_WPA_W0@Z 6602b9b0 f   item.obj
 0001:0002aa80       ?GetItemIndex@@YAHH@Z      6602ba80 f   item.obj
 0001:0002aad0       ?CheckItemVisible@@YAHPAUUnitAny@@@Z 6602bad0 f   item.obj
 0001:0002abd0       ?GetItemColour@@YAEPAUUnitAny@@H@Z 6602bbd0 f   item.obj
 0001:0002ae70       ?SwitchItemMode@@YAHXZ     6602be70 f   item.obj
 0001:0002af20       ?trimspaces@@YAXPA_W@Z     6602bf20 f   item.obj
 0001:0002afe0       ?ColourD2String@@YIPA_WPA_WK@Z 6602bfe0 f   item.obj
 0001:0002b070       ?ItemHaveLevel@@YAHE@Z     6602c070 f   item.obj
 0001:0002b0d0       ?ItemNamePatch@@YIXPA_WPAUUnitAny@@PAUItemTxt@@@Z 6602c0d0 f   item.obj
 0001:0002bbd0       ?ItemNamePatch_ASM@@YAXXZ  6602cbd0 f   item.obj
 0001:0002bbf0       ?OpenCubeStringPatch@@YIPA_WPA_WK@Z 6602cbf0 f   item.obj
 0001:0002bc50       ?OpenCubeStringPatch_ASM@@YAXXZ 6602cc50 f   item.obj
 0001:0002bc60       ?PermShowItemsPatch1@@YAHXZ 6602cc60 f   item.obj
 0001:0002bc90       ?PermShowItemsPatch2@@YAHXZ 6602cc90 f   item.obj
 0001:0002bce0       ?PermShowItemsPatch3@@YAHXZ 6602cce0 f   item.obj
 0001:0002bd50       ?PermShowItemsPatch1_ASM@@YAXXZ 6602cd50 f   item.obj
 0001:0002bd60       ?PermShowItemsPatch2_ASM@@YAXXZ 6602cd60 f   item.obj
 0001:0002bd80       ?PermShowItemsPatch3_ASM@@YAXXZ 6602cd80 f   item.obj
 0001:0002bda0       ?PermShowItemsPatch4_ASM@@YAXXZ 6602cda0 f   item.obj
 0001:0002bdb0       ?ItemDescPath@@YIXPA_WHHHH@Z 6602cdb0 f   item.obj
 0001:0002beb0       ?SocketViewCallRoutine@@YIXPAUUnitAny@@KP6GX0K@Z@Z 6602ceb0 f   item.obj
 0001:0002bec0       ?ItemSocketViewPatch@@YGXP6GXPAUUnitAny@@K@Z0K@Z 6602cec0 f   item.obj
 0001:0002bf90       ?ItemSocketViewPatch_ASM@@YAXXZ 6602cf90 f   item.obj
 0001:0002bfa0       ?SocketItemStatViewPatch_ASM@@YAXXZ 6602cfa0 f   item.obj
 0001:0002bfc0       ?GetItemExtStatListPatch@@YGPAUStatList@@PAUUnitAny@@KK@Z 6602cfc0 f   item.obj
 0001:0002bff0       ?ItemBasicStatPatch_ASM@@YAXXZ 6602cff0 f   item.obj
 0001:0002c020       ?SetPropInfo@@YAXHHHPAUItemProp@@@Z 6602d020 f   item.obj
 0001:0002c4a0       ?GetStatRange@@YAPA_WPA_WKK@Z 6602d4a0 f   item.obj
 0001:0002c890       ?GetItemPropStringPatch@@YIKPA_WPAUStatEx@@K@Z 6602d890 f   item.obj
 0001:0002c960       ?GetItemPropStringPatch_ASM@@YAXXZ 6602d960 f   item.obj
 0001:0002c980       ?StrcatItemPropStringPatch@@YIXPA_W0K@Z 6602d980 f   item.obj
 0001:0002caa0       ?StrcatItemPropStringPatch_ASM@@YAXXZ 6602daa0 f   item.obj
 0001:0002cab0       ?StrcatSocketStringPatch@@YIPA_WPA_W@Z 6602dab0 f   item.obj
 0001:0002cae0       ?StrcatSocketStringPatch_ASM@@YAXXZ 6602dae0 f   item.obj
 0001:0002caf0       ?StrcatDefenseStringPatch@@YIPA_WPA_W@Z 6602daf0 f   item.obj
 0001:0002cd90       ?StrcatDefenseStringPatch_ASM@@YAXXZ 6602dd90 f   item.obj
 0001:0002cda0       ?StrcatDamageStringPatch@@YIPA_WPA_W@Z 6602dda0 f   item.obj
 0001:0002cfc0       ?StrcatDamageStringPatch_ASM1@@YAXXZ 6602dfc0 f   item.obj
 0001:0002cfd0       ?StrcatDamageStringPatch_ASM2@@YAXXZ 6602dfd0 f   item.obj
 0001:0002cff0       ?ShowSocketProtectInfo@@YAXXZ 6602dff0 f   item.obj
 0001:0002d060       ?SocketProtectPatch_ASM@@YAXXZ 6602e060 f   item.obj
 0001:0002d080       ?SocketProtectPatch1_ASM@@YAXXZ 6602e080 f   item.obj
 0001:0002d0c0       ?SocketProtectPatch2_ASM@@YAXXZ 6602e0c0 f   item.obj
 0001:0002d100       ?searchStat@@YAHPAUUnitAny@@HPAH@Z 6602e100 f   item.obj
 0001:0002d1d0       ?drawInvItemInfo@@YAXXZ    6602e1d0 f   item.obj
 0001:0002d910       ?DrawInvItemPatch_ASM@@YAXXZ 6602e910 f   item.obj
 0001:0002d9a0       ?ItemExtInfoNewGame@@YAXXZ 6602e9a0 f   ItemExtInfo.obj
 0001:0002d9b0       ?ConvertToColorString@@YAXPAEPADH@Z 6602e9b0 f   ItemExtInfo.obj
 0001:0002db50       ?LoadExtInfo@@YAHXZ        6602eb50 f   ItemExtInfo.obj
 0001:0002eb50       ?UnLoadExtInfo@@YAXXZ      6602fb50 f   ItemExtInfo.obj
 0001:0002ed30       ?SetExtInfoPos@@YAXHHHH@Z  6602fd30 f   ItemExtInfo.obj
 0001:0002ee20       ?ShowItemExtInfo@@YAXXZ    6602fe20 f   ItemExtInfo.obj
 0001:0002f140       ?DrawHoverPatch_ASM@@YAXXZ 66030140 f   ItemExtInfo.obj
 0001:0002f150       ?dangerous_addConfigVars@@YAXXZ 66030150 f   dangerous.obj
 0001:0002f190       ?dangerous_initConfigVars@@YAXXZ 66030190 f   dangerous.obj
 0001:0002f1b0       ?ProtectAction@@YAXPA_WHE@Z 660301b0 f   dangerous.obj
 0001:0002f350       ?ChickenLifeNewGame@@YAXXZ 66030350 f   dangerous.obj
 0001:0002f620       ?ChickenLifeLoop@@YAXXZ    66030620 f   dangerous.obj
 0001:0002fd50       ?isCowKing@@YAHPAUMonsterData@@@Z 66030d50 f   dangerous.obj
 0001:0002fe00       ?checkBossMonster@@YAXPAUUnitAny@@@Z 66030e00 f   dangerous.obj
 0001:0002fec0       ?CheckDangerousPlayer@@YAXPAUUnitAny@@@Z 66030ec0 f   dangerous.obj
 0001:0002ff70       ?TestMonsterOnScreen@@YAHPAUUnitAny@@0@Z 66030f70 f   dangerous.obj
 0001:00030000       ?CheckDangerousMonster@@YAXPAUUnitAny@@@Z 66031000 f   dangerous.obj
 0001:000300f0       ?quest_addConfigVars@@YAXXZ 660310f0 f   quest.obj
 0001:00030130       ?ReSetTimer@@YAHXZ         66031130 f   quest.obj
 0001:00030150       ?QuestNewAct@@YAXXZ        66031150 f   quest.obj
 0001:00030160       ?QuestNewLevel@@YAXXZ      66031160 f   quest.obj
 0001:00030910       ?quest_FixValues@@YAXXZ    66031910 f   quest.obj
 0001:000309e0       ?QuestNewGame@@YAXXZ       660319e0 f   quest.obj
 0001:00030b30       ?QuestRunLoop@@YAXXZ       66031b30 f   quest.obj
 0001:00030e90       ?BugKDProtect@@YIXK@Z      66031e90 f   quest.obj
 0001:000310f0       ?BugKBProtect@@YIXPAE@Z    660320f0 f   quest.obj
 0001:00031600       ?RecvCommand_89_Patch_ASM@@YAXXZ 66032600 f   quest.obj
 0001:00031620       ?RecvCommand_5D_Patch_ASM@@YAXXZ 66032620 f   quest.obj
 0001:00031630       ?CheckUnitKM@@YAXXZ        66032630 f   quest.obj
 0001:00031700       ?getMouseQuestId@@YAHHH@Z  66032700 f   quest.obj
 0001:000317e0       ?DrawQuestPagePatch@@YIXHH@Z 660327e0 f   quest.obj
 0001:00031cc0       ?DrawQuestPagePatch_ASM@@YAXXZ 66032cc0 f   quest.obj
 0001:00031cd0       ?PacketA4@@YIXPAD@Z        66032cd0 f   quest.obj
 0001:00031e50       ?Packet4D@@YIXPAD@Z        66032e50 f   quest.obj
 0001:00031e90       ?RecvCommand_A4_Patch_ASM@@YAXXZ 66032e90 f   quest.obj
 0001:00031ea0       ?RecvCommand_4D_Patch_ASM@@YAXXZ 66032ea0 f   quest.obj
 0001:00031eb0       ?UnicodeFix@@YAXPA_WPAK@Z  66032eb0 f   unicode.obj
 0001:000320a0       ?D2Lang_Unicode2WinPatch@@YIPBDPADPA_WH@Z 660330a0 f   unicode.obj
 0001:000320e0       ?D2Lang_Win2UnicodePatch@@YIPA_WPA_WPBDH@Z 660330e0 f   unicode.obj
 0001:00032110       ?EditDeleteSelect@@YAXPAUD2EditBox@@@Z 66033110 f   unicode.obj
 0001:00032240       ?ChannelEnterCharPatch@@YIKPAUD2EditBox@@E@Z 66033240 f   unicode.obj
 0001:00032570       ?UnicodeToUTF_8@@YAXPADPA_W@Z 66033570 f   unicode.obj
 0001:000325e0       ?MultiByteFix@@YGXPAD@Z    660335e0 f   unicode.obj
 0001:000327d0       ?MultiByteFixPatch_ASM@@YAXXZ 660337d0 f   unicode.obj
 0001:000327e0       ?IsPritableCharacterPatch_ASM@@YAXXZ 660337e0 f   unicode.obj
 0001:00032800       ?lifebar_addConfigVars@@YAXXZ 66033800 f   lifebar.obj
 0001:00032840       ?lifebar_initConfigVars@@YAXXZ 66033840 f   lifebar.obj
 0001:00032860       ?lifebarNewGame@@YAXXZ     66033860 f   lifebar.obj
 0001:00032880       ?MonsterNamePatch@@YIJPA_WJPAUUnitAny@@JJ@Z 66033880 f   lifebar.obj
 0001:00033390       ?MonsterNamePatch_ASM@@YAXXZ 66034390 f   lifebar.obj
 0001:000333b0       ?MonsterDescCommaPatch1_ASM@@YAXXZ 660343b0 f   lifebar.obj
 0001:000333c0       ?MonsterDescCommaPatch2_ASM@@YAXXZ 660343c0 f   lifebar.obj
 0001:000333d0       ?MonsterDescCommaPatch3@@YIXPA_WPAUMonsterTxt@@@Z 660343d0 f   lifebar.obj
 0001:00033460       ?MonsterDescCommaPatch3_ASM@@YAXXZ 66034460 f   lifebar.obj
 0001:00033470       ?LifeBarPatch_ASM@@YAXXZ   66034470 f   lifebar.obj
 0001:00033490       ?MonsterDeathPatch_ASM@@YAXXZ 66034490 f   lifebar.obj
 0001:000334b0       ?CalculateHighestTC@@YAXHG@Z 660344b0 f   lifebar.obj
 0001:000336f0       ?InitTCList@@YAXXZ         660346f0 f   lifebar.obj
 0001:00033770       ?GetTcLevel@@YAPAUMonTC@@GH@Z 66034770 f   lifebar.obj
 0001:00033800       ?GetPlayerHpPercent@@YAHPAUUnitAny@@@Z 66034800 f   lifebar.obj
 0001:00033840       ?PlayerNamePatch@@YIXPA_WPAUUnitAny@@@Z 66034840 f   lifebar.obj
 0001:000339b0       ?PlayerNamePatch_ASM@@YAXXZ 660349b0 f   lifebar.obj
 0001:000339d0       ?AutoWarCryNewGame@@YAXXZ  660349d0 f   bo.obj
 0001:00033a40       ?AutoWarCryRunLoop@@YAXXZ  66034a40 f   bo.obj
 0001:000341a0       ?d2s_init@@YAXPAUd2s_file@@@Z 660351a0 f   d2s.obj
 0001:00034400       ?d2s_write@@YAHPAUd2s_file@@PADH@Z 66035400 f   d2s.obj
 0001:00034520       ?d2s_checksum@@YAXPADH@Z   66035520 f   d2s.obj
 0001:000345a0       ?d2s_generate@@YAHPAU_iobuf@@PAUUnitAny@@1PAGPAD1@Z 660355a0 f   d2s.obj
 0001:000351c0       ?DropProtection_addConfigVars@@YAXXZ 660361c0 f   DropProtection.obj
 0001:00035200       ?DropProtection_initConfigVars@@YAXXZ 66036200 f   DropProtection.obj
 0001:00035280       ?DropProtection@@YAHPAUUnitAny@@@Z 66036280 f   DropProtection.obj
 0001:00035690       ?canHireMerc@@YAHXZ        66036690 f   DropProtection.obj
 0001:000357f0       ?DropProtectionPacketBlock@@YAHPAEH@Z 660367f0 f   DropProtection.obj
 0001:00035950       ?ClickHireMercMenuItemPatch_ASM@@YAXXZ 66036950 f   DropProtection.obj
 0001:00035970       ?unicode2win@@YAXPADPA_WH@Z 66036970 f   DropProtection.obj
 0001:000359d0       ?DeleteCharacter_Patch_ASM@@YAXXZ 660369d0 f   DropProtection.obj
 0001:00035a60       ?DeleteSelectedCharacter_Patch_ASM@@YAXXZ 66036a60 f   DropProtection.obj
 0001:00036030       ?ClickMenuItem_Patch_ASM@@YAXXZ 66037030 f   DropProtection.obj
 0001:00036150       ?playerHasRune@@YAHH@Z     66037150 f   DropProtection.obj
 0001:000361a0       ?isValidRuneword@@YIHPAUUnitAny@@@Z 660371a0 f   DropProtection.obj
 0001:00036b40       ?AutoEnchantNewGame@@YAXXZ 66037b40 f   enchant.obj
 0001:00036ba0       ?checkUnit@@YAHPAUUnitAny@@@Z 66037ba0 f   enchant.obj
 0001:00036ea0       ?AutoEnchantRunLoop@@YAXXZ 66037ea0 f   enchant.obj
 0001:00037210       ?AutoEnchantPlayerNeedHelp@@YAXH@Z 66038210 f   enchant.obj
 0001:00037250       ?check3bb@@YAXXZ           66038250 f   enchant.obj
 0001:00037510       ?GamePacketPlaySound@@YIXPAE@Z 66038510 f   enchant.obj
 0001:00037570       ?RecvCommand_2C_Patch_ASM@@YAXXZ 66038570 f   enchant.obj
 0001:00037580       ?GameChat_addConfigVars@@YAXXZ 66038580 f   chat.obj
 0001:000375c0       ?chat_initConfigVars@@YAXXZ 660385c0 f   chat.obj
 0001:000375d0       ?setClipboard@@YAHPAUHWND__@@PA_WH@Z 660385d0 f   chat.obj
 0001:000376a0       ?processChatPaste@@YAXXZ   660386a0 f   chat.obj
 0001:000377d0       ?sendQuickMessage@@YAHPAUMessageKey@@@Z 660387d0 f   chat.obj
 0001:00037880       ?addQuickMessage@@YAXHPA_WH@Z 66038880 f   chat.obj
 0001:00037990       ?SendChatMessageW@@YAXPA_W@Z 66038990 f   chat.obj
 0001:00037a50       ?SendChatMessage@@YAXPAD@Z 66038a50 f   chat.obj
 0001:00037b00       ?WisperPatch@@YAXXZ        66038b00 f   chat.obj
 0001:00037b20       ?WisperPatch_ASM@@YAXXZ    66038b20 f   chat.obj
 0001:00037b30       ?CheckD2WinEditBox@@YAXXZ  66038b30 f   chat.obj
 0001:00037b90       ?InputLinePatch@@YAHE@Z    66038b90 f   chat.obj
 0001:00037c30       ?InputLinePatch1_ASM@@YAXXZ 66038c30 f   chat.obj
 0001:00037c50       ?EditBoxCallBack@@YGHPAUD2EditBox@@HPAD@Z 66038c50 f   chat.obj
 0001:00037c50       ?Filterbox_InputHandler@@YGHPAUD2EditBox@@HPAD@Z 66038c50 f   mcp.obj
 0001:00037c60       ?InitD2EditBox@@YAHXZ      66038c60 f   chat.obj
 0001:00037d30       ?InputLinePatch2_ASM@@YAXXZ 66038d30 f   chat.obj
 0001:00037d50       ?SelectTextPatch1@@YGHPAD@Z 66038d50 f   chat.obj
 0001:00037e30       ?SelectTextPatch1_ASM@@YAXXZ 66038e30 f   chat.obj
 0001:00037e50       ?SelectTextPatch2@@YGHPAD@Z 66038e50 f   chat.obj
 0001:00037f00       ?SelectTextPatch2_ASM@@YAXXZ 66038f00 f   chat.obj
 0001:00037f20       ?ResetGameList@@YAXXZ      66038f20 f   mcp.obj
 0001:00037f40       ?gameFilter_addConfigVars@@YAXXZ 66038f40 f   mcp.obj
 0001:00037f80       ?D2MCPPacketHandler_05_Patch@@YIHPAEH@Z 66038f80 f   mcp.obj
 0001:00038210       ?D2MCPPacketHandler_05_Patch_ASM@@YAXXZ 66039210 f   mcp.obj
 0001:00038230       ?Filterbox_ReturnHandler@@YGHPA_W@Z 66039230 f   mcp.obj
 0001:000382a0       ?CreateFilterBox@@YAXXZ    660392a0 f   mcp.obj
 0001:00038320       ?CreateGameBoxPatch_ASM@@YAXXZ 66039320 f   mcp.obj
 0001:00038330       ?DestroyGamelistPatch@@YGXPAUD2EditBox@@@Z 66039330 f   mcp.obj
 0001:00038370       ?GameListRefreshTimePatch_ASM@@YAXXZ 66039370 f   mcp.obj
 0001:000383b0       ?DrawGameListPatch@@YAXXZ  660393b0 f   mcp.obj
 0001:00038540       ?DrawGameListPatch_ASM@@YAXXZ 66039540 f   mcp.obj
 0001:00038550       ?SortGameList_Patch_ASM@@YAXXZ 66039550 f   mcp.obj
 0001:000385e0       ?ShowGameListDifficulty_Patch_ASM@@YAXXZ 660395e0 f   mcp.obj
 0001:00038690       ?clearCharacterTag@@YAXXZ  66039690 f   login.obj
 0001:000386c0       ?addCharacterTag@@YAXPAD0@Z 660396c0 f   login.obj
 0001:00038810       ?getCharTag@@YAPADPAD@Z    66039810 f   login.obj
 0001:000388d0       ?doneCharacterTag@@YAXXZ   660398d0 f   login.obj
 0001:00038900       ?drawCharTags@@YAXXZ       66039900 f   login.obj
 0001:00038a30       ?login_initConfigVars@@YAXXZ 66039a30 f   login.obj
 0001:00038a40       ?addAccount@@YAXHPAD0@Z    66039a40 f   login.obj
 0001:00038b90       ?isLoginScreen@@YAPAUD2EditBox@@XZ 66039b90 f   login.obj
 0001:00038c40       ?getLastUser@@YAPADXZ      66039c40 f   login.obj
 0001:00038cb0       ?inputUserPassword@@YAHPAULoginInfo@@@Z 66039cb0 f   login.obj
 0001:00038e40       ?autoLogin@@YAXXZ          66039e40 f   login.obj
 0001:00038f10       ?LastBNet_Patch@@YGHPAD0H0H@Z 66039f10 f   login.obj
 0001:00038f60       ?SelectCharPatch_ASM@@YAXXZ 66039f60 f   login.obj
 0001:00039080       ?autoSelectChar@@YAXXZ     6603a080 f   login.obj
 0001:000391a0       ?saveCharMenu@@YAXXZ       6603a1a0 f   login.obj
 0001:00039570       ?OpenCharMenuPatch_ASM@@YAXXZ 6603a570 f   login.obj
 0001:00039580       ?misc_addConfigVars@@YAXXZ 6603a580 f   misc.obj
 0001:000395c0       ?ULCPatch_ASM@@YAXXZ       6603a5c0 f   misc.obj
 0001:000395e0       ?OutTownSelectPatch@@YIHPAUUnitAny@@@Z 6603a5e0 f   misc.obj
 0001:00039620       ?OutTownSelectPatch_ASM1@@YAXXZ 6603a620 f   misc.obj
 0001:00039650       ?CheckOutTownSelected@@YGHPAUUnitAny@@@Z 6603a650 f   misc.obj
 0001:000396b0       ?OutTownSelectPatch_ASM2@@YAXXZ 6603a6b0 f   misc.obj
 0001:000396d0       ?NPCMessageLoopPatch_ASM@@YAXXZ 6603a6d0 f   misc.obj
 0001:00039710       ?NPCQuestMessageStartPatch_ASM@@YAXXZ 6603a710 f   misc.obj
 0001:00039730       ?NPCQuestMessageEndPatch1_ASM@@YAXXZ 6603a730 f   misc.obj
 0001:00039750       ?NPCQuestMessageEndPatch2_ASM@@YAXXZ 6603a750 f   misc.obj
 0001:00039760       ?NsPassingActBugFixPatch_ASM@@YAXXZ 6603a760 f   misc.obj
 0001:00039770       ?SetGoldPatch@@YIHH@Z      6603a770 f   misc.obj
 0001:000397f0       ?SetGoldPatch_ASM@@YAXXZ   6603a7f0 f   misc.obj
 0001:00039800       ?SetDefaultGoldPatch_ASM@@YAXXZ 6603a800 f   misc.obj
 0001:00039810       ?multiclient_addConfigVars@@YAXXZ 6603a810 f   multi.obj
 0001:00039850       ?multiclient_initConfigVars@@YAXXZ 6603a850 f   multi.obj
 0001:00039880       ?multiclient_FixValues@@YAXXZ 6603a880 f   multi.obj
 0001:000398b0       ?MultiClientNewGame@@YAXXZ 6603a8b0 f   multi.obj
 0001:00039970       ?MultiClientEndGame@@YAXXZ 6603a970 f   multi.obj
 0001:00039990       ?makeRuntimeInfoPath@@YAHPADH@Z 6603a990 f   multi.obj
 0001:00039a60       ?saveRuntimeInfo@@YAHPAUHWND__@@@Z 6603aa60 f   multi.obj
 0001:00039c00       ?loadRuntimeInfo@@YAHPAUD2Window@@H@Z 6603ac00 f   multi.obj
 0001:0003a340       ?isLocalPlayer@@YAHH@Z     6603b340 f   multi.obj
 0001:0003a3b0       ?refresh_clients@@YAXXZ    6603b3b0 f   multi.obj
 0001:0003a570       ?multiclient_winactive@@YAXXZ 6603b570 f   multi.obj
 0001:0003a6b0       ?getGameWindowHwnd@@YAPAUHWND__@@H@Z 6603b6b0 f   multi.obj
 0001:0003a6f0       ?canRemoteControl@@YAHXZ   6603b6f0 f   multi.obj
 0001:0003a7e0       ?leader_click_object@@YAXHH@Z 6603b7e0 f   multi.obj
 0001:0003a8a0       ?multiclient_recv_info@@YAXH@Z 6603b8a0 f   multi.obj
 0001:0003ac40       ?multiclient_send_info@@YAXH@Z 6603bc40 f   multi.obj
 0001:0003ac90       ?follower_click_object@@YAXHH@Z 6603bc90 f   multi.obj
 0001:0003adf0       ?MultiClientLoop@@YAXXZ    6603bdf0 f   multi.obj
 0001:0003b860       ?follower_left_click_xy@@YAXHH@Z 6603c860 f   multi.obj
 0001:0003b8a0       ?follower_right_click_xy@@YAXHH@Z 6603c8a0 f   multi.obj
 0001:0003b8e0       ?follower_left_click_unit@@YAXHH@Z 6603c8e0 f   multi.obj
 0001:0003b920       ?follower_right_client_unit@@YAXHH@Z 6603c920 f   multi.obj
 0001:0003b960       ?refresh_followers@@YAXH@Z 6603c960 f   multi.obj
 0001:0003ba80       ?toggle_follower@@YAXH@Z   6603ca80 f   multi.obj
 0001:0003bb90       ?follower_stop_follow@@YAXXZ 6603cb90 f   multi.obj
 0001:0003bc30       ?findClosetPortal@@YAPAUUnitAny@@XZ 6603cc30 f   multi.obj
 0001:0003bdb0       ?talkToNpc@@YAXXZ          6603cdb0 f   multi.obj
 0001:0003bf40       ?follower_cmd@@YAXH@Z      6603cf40 f   multi.obj
 0001:0003c2e0       ?MultiClientStartFollow@@YAHH@Z 6603d2e0 f   multi.obj
 0001:0003c3c0       ?MultiClientStopFollow@@YAHXZ 6603d3c0 f   multi.obj
 0001:0003c460       ?MultiClientStartFollow1@@YAHXZ 6603d460 f   multi.obj
 0001:0003c480       ?MultiClientStartFollow2@@YAHXZ 6603d480 f   multi.obj
 0001:0003c4a0       ?MultiClientToggleFollow@@YAHXZ 6603d4a0 f   multi.obj
 0001:0003c4d0       ?MultiClientTalkToNpc@@YAHXZ 6603d4d0 f   multi.obj
 0001:0003c5a0       ?leader_back_to_town@@YAHXZ 6603d5a0 f   multi.obj
 0001:0003c650       ?MultiClientEnterDoor@@YAHXZ 6603d650 f   multi.obj
 0001:0003c7f0       ?MultiClientStartClick@@YAHH@Z 6603d7f0 f   multi.obj
 0001:0003c810       ?MultiClientStopClick@@YAHH@Z 6603d810 f   multi.obj
 0001:0003c830       ?MultiClientInitClick@@YAHXZ 6603d830 f   multi.obj
 0001:0003c890       ?transferClick@@YAHHPAUUnitAny@@HH@Z 6603d890 f   multi.obj
 0001:0003caa0       ?canTranferClick@@YAHXZ    6603daa0 f   multi.obj
 0001:0003cb00       ?shouldLeftClick@@YIHPAH@Z 6603db00 f   multi.obj
 0001:0003cde0       ?shouldRightClick@@YIHPAH@Z 6603dde0 f   multi.obj
 0001:0003cf20       ?LeftClick_Patch_ASM@@YAXXZ 6603df20 f   multi.obj
 0001:0003cf40       ?RightClick_Patch_ASM@@YAXXZ 6603df40 f   multi.obj
 0001:0003cf60       ?NpcTrade_AddConfigVars@@YAXXZ 6603df60 f   NpcTrade.obj
 0001:0003cfa0       ?NpcTradeNewGame@@YAXXZ    6603dfa0 f   NpcTrade.obj
 0001:0003cfb0       ?drawNpcTradeInfo@@YAXH@Z  6603dfb0 f   NpcTrade.obj
 0001:0003dac0       ?NpcTradeLoop@@YAXXZ       6603eac0 f   NpcTrade.obj
 0001:0003dd20       ?NpcTradePatch_ASM@@YAXXZ  6603ed20 f   NpcTrade.obj
 0001:0003dd50       ?PartyHelp_addConfigVars@@YAXXZ 6603ed50 f   party.obj
 0001:0003dd90       ?PartyHelpNewGame@@YAXXZ   6603ed90 f   party.obj
 0001:0003de90       ?PartyHelpEndGame@@YAXXZ   6603ee90 f   party.obj
 0001:0003dea0       ?ResponseInvite@@YAXXZ     6603eea0 f   party.obj
 0001:0003df40       ?CheckInvite@@YAHXZ        6603ef40 f   party.obj
 0001:0003df90       ?AutoParty@@YGXPAE@Z       6603ef90 f   party.obj
 0001:0003e070       ?RecvCommand_5A_Patch_ASM@@YAXXZ 6603f070 f   party.obj
 0001:0003e080       ?AutoInvite@@YIXPAE@Z      6603f080 f   party.obj
 0001:0003e140       ?RecvCommand_5B_Patch_ASM@@YAXXZ 6603f140 f   party.obj
 0001:0003e150       ?quick_addConfigVars@@YAXXZ 6603f150 f   quick.obj
 0001:0003e190       ?quick_NewGame@@YAXXZ      6603f190 f   quick.obj
 0001:0003e1b0       ?quick_EndGame@@YAXXZ      6603f1b0 f   quick.obj
 0001:0003e1c0       ?skillCount@@YAHH@Z        6603f1c0 f   quick.obj
 0001:0003e220       ?BackToTown@@YAHXZ         6603f220 f   quick.obj
 0001:0003e300       ?QuickToLevel@@YAHXZ       6603f300 f   quick.obj
 0001:0003e350       ?quickLoop@@YAXXZ          6603f350 f   quick.obj
 0001:0003e430       ?AutoBackToTown@@YIXPAE@Z  6603f430 f   quick.obj
 0001:0003e560       ?RecvCommand_60_Patch_ASM@@YAXXZ 6603f560 f   quick.obj
 0001:0003e570       ?SaveGameName@@YAXXZ       6603f570 f   quick.obj
 0001:0003e610       ?QuickExitGame@@YAHXZ      6603f610 f   quick.obj
 0001:0003e640       ?QuickNextGame@@YAHH@Z     6603f640 f   quick.obj
 0001:0003e890       ?NextGameNamePatch@@YIXPAUD2EditBox@@P6GH0HPAD@Z@Z 6603f890 f   quick.obj
 0001:0003e8d0       ?NextGamePasswordPatch@@YIXPAUD2EditBox@@P6GH0HPAD@Z@Z 6603f8d0 f   quick.obj
 0001:0003e910       ?NextGameDecriptionPatch@@YIXPAUD2EditBox@@P6GH0HPAD@Z@Z 6603f910 f   quick.obj
 0001:0003e950       ?SelectGamePatch@@YIPAXPAUD2EditBox@@PA_W@Z 6603f950 f   quick.obj
 0001:0003e9f0       ?quickswap_addConfigVars@@YAXXZ 6603f9f0 f   QuickSwapItem.obj
 0001:0003ea30       ?putIntoCubeIndirect@@YAHXZ 6603fa30 f   QuickSwapItem.obj
 0001:0003eb10       ?putItem@@YAHPAUInventoryBIN@@PADH@Z 6603fb10 f   QuickSwapItem.obj
 0001:0003ed00       ?putIntoInv@@YAHXZ         6603fd00 f   QuickSwapItem.obj
 0001:0003ed50       ?putIntoStash@@YAHXZ       6603fd50 f   QuickSwapItem.obj
 0001:0003edb0       ?MoveItem@@YAXPAUD2MSG@@@Z 6603fdb0 f   QuickSwapItem.obj
 0001:0003fbc0       ?RButtonUpHandlerPatch@@YGXPAUD2MSG@@@Z 66040bc0 f   QuickSwapItem.obj
 0001:0003fc00       ?RButtonUpHandlerPatch_ASM@@YAXXZ 66040c00 f   QuickSwapItem.obj
 0001:0003fc20       ?RButtonInTradePatch_ASM@@YAXXZ 66040c20 f   QuickSwapItem.obj
 0001:0003fc30       ?CtrlClickHandlerPatch_ASM@@YAXXZ 66040c30 f   QuickSwapItem.obj
 0001:0003fc60       ?clickCubeTransformButton@@YAXXZ 66040c60 f   QuickSwapItem.obj
 0001:0003fcc0       ?autoCubeTransform@@YAHXZ  66040cc0 f   QuickSwapItem.obj
 0001:000401e0       ?Resolution_AddConfigVars@@YAXXZ 660411e0 f   resolution.obj
 0001:00040220       ?changeResolution@@YAXH@Z  66041220 f   resolution.obj
 0001:00040230       ?resolution_init@@YAXXZ    66041230 f   resolution.obj
 0001:00040280       ?resolution_uninit@@YAXXZ  66041280 f   resolution.obj
 0001:000402d0       ?fitWindowToResolution@@YAXXZ 660412d0 f   resolution.obj
 0001:00040410       ?fitResolution@@YAXXZ      66041410 f   resolution.obj
 0001:000406f0       ?SetBitBlockWidthAndHeightPatch_ASM@@YAXXZ 660416f0 f   resolution.obj
 0001:00040700       ?SetCelDisplayLeftAndRightPatch_ASM@@YAXXZ 66041700 f   resolution.obj
 0001:00040720       ?IsNeedResizeWindowPatchH_ASM@@YAXXZ 66041720 f   resolution.obj
 0001:00040720       ?IsNeedRestoreDownWindowPatchH_ASM@@YAXXZ 66041720 f   resolution.obj
 0001:00040730       ?IsNeedRestoreDownWindowPatchW_ASM@@YAXXZ 66041730 f   resolution.obj
 0001:00040730       ?IsNeedResizeWindowPatchW_ASM@@YAXXZ 66041730 f   resolution.obj
 0001:00040740       ?SetDisplayWidthAndHeightPatch_ASM@@YAXXZ 66041740 f   resolution.obj
 0001:00040760       ?SetGeneralDisplayWidthAndHeightPatch_ASM@@YAXXZ 66041760 f   resolution.obj
 0001:00040780       ?GetGlobalBeltSlotPositionPatch_ASM@@YAXXZ 66041780 f   resolution.obj
 0001:00040830       ?GetGlobalBeltRecordPatch_ASM@@YAXXZ 66041830 f   resolution.obj
 0001:00040900       ?AdjustWindowRectExPatch_ASM@@YAXXZ 66041900 f   resolution.obj
 0001:00040a50       ?ClearFramebufPatch_ASM@@YAXXZ 66041a50 f   resolution.obj
 0001:00040a70       ?DrawLeftOrbImagePatch_ASM@@YAXXZ 66041a70 f   resolution.obj
 0001:00040aa0       ?DrawLeftOrbPatch_ASM@@YAXXZ 66041aa0 f   resolution.obj
 0001:00040ac0       ?DrawRightOrbImagePatch_ASM@@YAXXZ 66041ac0 f   resolution.obj
 0001:00040af0       ?DrawRightOrbPatch_ASM@@YAXXZ 66041af0 f   resolution.obj
 0001:00040b10       ?FillLeftOrbPatch_ASM@@YAXXZ 66041b10 f   resolution.obj
 0001:00040b30       ?FillRightOrbPatch_ASM@@YAXXZ 66041b30 f   resolution.obj
 0001:00040b50       ?DrawLeftSkillButtonPatch_ASM@@YAXXZ 66041b50 f   resolution.obj
 0001:00040b70       ?DrawRightSkillButtonPatch_ASM@@YAXXZ 66041b70 f   resolution.obj
 0001:00040b90       ?DisplayHPTextPatch_ASM@@YAXXZ 66041b90 f   resolution.obj
 0001:00040bb0       ?DisplayManaTextPatch_ASM@@YAXXZ 66041bb0 f   resolution.obj
 0001:00040bd0       ?DrawGroundHeightPatch_ASM@@YAXXZ 66041bd0 f   resolution.obj
 0001:00040c00       ?BottomBoundPatch_ASM@@YAXXZ 66041c00 f   resolution.obj
 0001:00040c20       ?installResolutionPatches@@YAHXZ 66041c20 f   resolution.obj
 0001:000410d0       ?autoskill_addConfigVars@@YAXXZ 660420d0 f   skill.obj
 0001:00041110       ?autoskill_initConfigVars@@YAXXZ 66042110 f   skill.obj
 0001:00041270       ?AutoSkillNewGame@@YAXXZ   66042270 f   skill.obj
 0001:000412e0       ?checkAutoSkill@@YAXXZ     660422e0 f   skill.obj
 0001:00041620       ?checkAutoSkillStatus@@YAXXZ 66042620 f   skill.obj
 0001:000416e0       ?stackThrowing@@YAXXZ      660426e0 f   skill.obj
 0001:000417a0       ?AutoSkillNow@@YAHXZ       660427a0 f   skill.obj
 0001:000417d0       ?AutoSkillRunLoop@@YAXXZ   660427d0 f   skill.obj
 0001:00042c20       ?autoSkillDimVision@@YIXPAD@Z 66043c20 f   skill.obj
 0001:00042c70       ?Snapshot_AddConfigVars@@YAXXZ 66043c70 f   Snapshot.obj
 0001:00042cb0       ?hex@@YAXPAU_iobuf@@HPAXH@Z 66043cb0 f   Snapshot.obj
 0001:00042e40       ?LoadLogNames@@YAXPAU_iobuf@@@Z 66043e40 f   Snapshot.obj
 0001:000434b0       ?getSnapshotPath@@YAXPAD00000D@Z 660444b0 f   Snapshot.obj
 0001:000439b0       ?openDbgFile@@YAPAU_iobuf@@PAD@Z 660449b0 f   Snapshot.obj
 0001:00043be0       ?SnapshotNewGame@@YAXXZ    66044be0 f   Snapshot.obj
 0001:00043dc0       ?SnapshotEndGame@@YAXXZ    66044dc0 f   Snapshot.obj
 0001:000440e0       ?dumpStat@@YAXPAU_iobuf@@HHPAH@Z 660450e0 f   Snapshot.obj
 0001:000445d0       ?countAllGemRunes@@YAXXZ   660455d0 f   Snapshot.obj
 0001:000449c0       ?dumpStatList@@YAHPAU_iobuf@@PAUStatList@@H@Z 660459c0 f   Snapshot.obj
 0001:00045000       ?loadWaypoints@@YAXPADH@Z  66046000 f   Snapshot.obj
 0001:000450b0       ?saveWaypoints@@YAXPADH@Z  660460b0 f   Snapshot.obj
 0001:000487c0       ?dumpUnit2@@YAXPAU_iobuf@@PAUUnitAny@@@Z 660497c0 f   Snapshot.obj
 0001:000489a0       ?dumpMap@@YAXXZ            660499a0 f   Snapshot.obj
 0001:00048f10       ?saveMercInfo@@YIXPAD@Z    66049f10 f   Snapshot.obj
 0001:00049050       ?RecvCommand_81_Patch_ASM@@YAXXZ 6604a050 f   Snapshot.obj
 0001:00049060       ?removeSnapshot@@YAXPAD00@Z 6604a060 f   Snapshot.obj
 0001:000492a0       ?dumpServerQuest@@YAXPAU_iobuf@@@Z 6604a2a0 f   Snapshot.obj
 0001:00049520       ?DoSnapshot@@YAHXZ         6604a520 f   Snapshot.obj
 0001:00049ae0       ?AutoSummonNewGame@@YAXXZ  6604aae0 f   summon.obj
 0001:00049bd0       ?checkSkeletonCount@@YAXXZ 6604abd0 f   summon.obj
 0001:00049da0       ?AutoSummonRunLoop@@YAXXZ  6604ada0 f   summon.obj
 0001:0004a5c0       ?addUnit@@YIXPAUUnitAny@@@Z 6604b5c0 f   summon.obj
 0001:0004a640       ?AddUnitPatch_ASM@@YAXXZ   6604b640 f   summon.obj
 0001:0004a660       ?RemoveUnitPatch1_ASM@@YAXXZ 6604b660 f   summon.obj
 0001:0004a680       ?RemoveUnitPatch2_ASM@@YAXXZ 6604b680 f   summon.obj
 0001:0004a6a0       ?RecvCommand_69_Patch_ASM@@YAXXZ 6604b6a0 f   summon.obj
 0001:0004a6d0       ?RecvCommand_7A_Patch_ASM@@YAXXZ 6604b6d0 f   summon.obj
 0001:0004a700       ?RecvCommand_21_Patch_ASM@@YAXXZ 6604b700 f   summon.obj
 0001:0004a720       ?autoteleport_addConfigVars@@YAXXZ 6604b720 f   teleport.obj
 0001:0004a760       ?autoteleport_initConfigVars@@YAXXZ 6604b760 f   teleport.obj
 0001:0004a780       ?autoteleport_fixValues@@YAXXZ 6604b780 f   teleport.obj
 0001:0004a7a0       ?AutoTeleportStart@@YAHXZ  6604b7a0 f   teleport.obj
 0001:0004a840       ?AutoTeleportEnd@@YAHXZ    6604b840 f   teleport.obj
 0001:0004a8c0       ?AutoTeleport@@YAHXZ       6604b8c0 f   teleport.obj
 0001:0004c630       ?abs@@YAJJ@Z               6604d630 f i teleport.obj
 0001:0004cc20       ?dumpRunewordTxt@@YAXXZ    6604dc20 f   txt.obj
 0001:0004cf90       ?dumpTxt@@YAXXZ            6604df90 f   txt.obj
 0001:0004d560       ?panel_addConfigVars@@YAXXZ 6604e560 f   panel.obj
 0001:0004d5a0       ?printPanelConf@@YAPADHPAD0@Z 6604e5a0 f   panel.obj
 0001:0004d6d0       ?panelNewGame@@YAXXZ       6604e6d0 f   panel.obj
 0001:0004d860       ?panelEndGame@@YAXXZ       6604e860 f   panel.obj
 0001:0004d890       ?modifyStashGrid@@YAXXZ    6604e890 f   panel.obj
 0001:0004dd90       ?MpqLoadPatch@@YIXPAD0@Z   6604ed90 f   panel.obj
 0001:0004de70       ?MqpLoadPathPatch_ASM@@YAXXZ 6604ee70 f   panel.obj
 0001:0004de90       ?ModifyStashImagePatch_ASM@@YAXXZ 6604ee90 f   panel.obj
 0001:0004dea0       ?ModifyCubeImagePatch_ASM@@YAXXZ 6604eea0 f   panel.obj
 0001:0004ded0       ?ModifyInvCharImagePatch_ASM@@YAXXZ 6604eed0 f   panel.obj
 0001:0004df10       ?ChooseInvCharImagePatch_ASM@@YAXXZ 6604ef10 f   panel.obj
 0001:0004df40       ?CalDrawOffsetPatch_ASM@@YAXXZ 6604ef40 f   panel.obj
 0001:0004dfd0       ?GetEquipmentSlotLayoutPatch_ASM@@YAXXZ 6604efd0 f   panel.obj
 0001:0004e170       ?GetInventoryGridLayoutPatch_ASM@@YAXXZ 6604f170 f   panel.obj
 0001:0004e220       ?GetInventoryPositionPatch_ASM@@YAXXZ 6604f220 f   panel.obj
 0001:0004e2d0       ?AddSkillPatch_ASM@@YAXXZ  6604f2d0 f   panel.obj
 0001:0004e350       ?RecvCommand_26_Patch_ASM@@YAXXZ 6604f350 f   panel.obj
 0001:0004e750       ?installPanelPatches@@YAHXZ 6604f750 f   panel.obj
 0001:0004e8f0       ?uninstallBigstashPatches@@YAHXZ 6604f8f0 f   panel.obj
 0001:0004e910       ?installBigstashPatches@@YAHXZ 6604f910 f   panel.obj
 0001:0004edd0       ?server_addConfigVars@@YAXXZ 6604fdd0 f   server.obj
 0001:0004ee10       ?client_unassign_stat@@YAHHH@Z 6604fe10 f   server.obj
 0001:0004eef0       ?client_mouse_stat@@YAHHH@Z 6604fef0 f   server.obj
 0001:0004efc0       ?getSkillDescTxt@@YAPAXH@Z 6604ffc0 f   server.obj
 0001:0004efd0       ?getSkillTreeButtonY@@YAHH@Z 6604ffd0 f   server.obj
 0001:0004efe0       ?getSkillTreeButtonX@@YAHH@Z 6604ffe0 f   server.obj
 0001:0004eff0       ?client_mouse_skillBtn@@YAHHH@Z 6604fff0 f   server.obj
 0001:0004f0f0       ?client_unassign_skill@@YAHHH@Z 660500f0 f   server.obj
 0001:0004f1d0       ?client_reset_quest@@YAHH@Z 660501d0 f   server.obj
 0001:0004f200       ?UndoStr@@YAXPAUUnitAny@@H@Z 66050200 f   server.obj
 0001:0004f2a0       ?UndoDex@@YAXPAUUnitAny@@H@Z 660502a0 f   server.obj
 0001:0004f340       ?UndoVit@@YAXPAUUnitAny@@H@Z 66050340 f   server.obj
 0001:0004f440       ?UndoEne@@YAXPAUUnitAny@@H@Z 66050440 f   server.obj
 0001:0004f510       ?getClient@@YAPAXPAUUnitAny@@@Z 66050510 f   server.obj
 0001:0004f540       ?UndoSkill@@YAXPAUUnitAny@@HH@Z 66050540 f   server.obj
 0001:0004f720       ?getQuest@@YAPAGPAUWorld@@PAUUnitAny@@@Z 66050720 f   server.obj
 0001:0004f760       ?serverUndo@@YAHPAUWorld@@PAUUnitAny@@PAD2@Z 66050760 f   server.obj
 0001:0004fe50       ?ModifyStashGridPatch_ASM@@YAXXZ 66050e50 f   server.obj
 0001:0004fe60       ?compileRunesTxt@@YGPAXHPADPAUTxtField@@PAHH@Z 66050e60 f   server.obj
 0001:0004fec0       ?NoMonsterDropPatch_ASM@@YAXXZ 66050ec0 f   server.obj
 0001:0004ff90       ?GameStartPatch_ASM@@YAXXZ 66050f90 f   server.obj
 0001:00050130       ?server_test@@YAXH@Z       66051130 f   server.obj
 0001:00050150       ?DoServerTest@@YAHXZ       66051150 f   server.obj
 0001:00050240       ?installServerPatches@@YAHXZ 66051240 f   server.obj
 0001:000506f0       ?RepeatAdminCmd@@YAHXZ     660516f0 f   admin.obj
 0001:00050760       ?ClientChatPatch_ASM@@YAXXZ 66051760 f   admin.obj
 0001:00050800       ?setCharLv@@YAXPAUWorld@@PAUUnitAny@@H@Z 66051800 f   admin.obj
 0001:000508a0       ?maxCharStat@@YAXPAUWorld@@PAUUnitAny@@@Z 660518a0 f   admin.obj
 0001:00050950       ?enableAllWaypoints@@YAXPAUUnitAny@@@Z 66051950 f   admin.obj
 0001:000509d0       ?passGame@@YAHPAUWorld@@PAUUnitAny@@H@Z 660519d0 f   admin.obj
 0001:00050bf0       ?itemIndex2txt@@YAHH@Z     66051bf0 f   admin.obj
 0001:00050c80       ?SelectUniquePatch_ASM@@YAXXZ 66051c80 f   admin.obj
 0001:00050d50       ?SelectSetPatch_ASM@@YAXXZ 66051d50 f   admin.obj
 0001:00050de0       ?getItemTxtByCode@@YAHH@Z  66051de0 f   admin.obj
 0001:00050e90       ?getRunewordTxt@@YAPAURuneWordTxt@@H@Z 66051e90 f   admin.obj
 0001:00050ed0       ?pickupItem@@YAXPAUWorld@@PAUUnitAny@@1H@Z 66051ed0 f   admin.obj
 0001:00050f30       ?invToHand@@YAXPAUWorld@@PAUUnitAny@@1@Z 66051f30 f   admin.obj
 0001:00050f70       ?handToBody@@YAXPAUWorld@@PAUUnitAny@@1H@Z 66051f70 f   admin.obj
 0001:00051000       ?putItemIntoSocket@@YAXPAUWorld@@PAUUnitAny@@11@Z 66052000 f   admin.obj
 0001:00051040       ?autoPortal@@YAHPAUWorld@@PAUUnitAny@@@Z 66052040 f   admin.obj
 0001:00051470       ?MonsterSleepPatch_ASM@@YAXXZ 66052470 f   admin.obj
 0001:00051490       ?skipServerPacket15@@YIHPAUWorld@@PAUUnitAny@@PADH@Z 66052490 f   admin.obj
 0001:00054120       ?ServerRecvPacket15Patch_ASM@@YAXXZ 66055120 f   admin.obj
 0001:00054150       ?uber_addConfigVars@@YAXXZ 66055150 f   uber.obj
 0001:00054190       ?resetUberQuest@@YAXXZ     66055190 f   uber.obj
 0001:00054200       ?openPandPortal@@YIHPAUWorld@@PAUUnitAny@@@Z 66055200 f   uber.obj
 0001:000542c0       ?openPandFinalPortal@@YIHPAUWorld@@PAUUnitAny@@@Z 660552c0 f   uber.obj
 0001:00054300       ?spawnSuperUnique@@YAHPAUWorld@@PAUAreaRectData@@HHHHHH@Z 66055300 f   uber.obj
 0001:00054330       ?monsterUseSkill@@YAXPAUWorld@@PAUUnitAny@@HH1HH@Z 66055330 f   uber.obj
 0001:00054370       ?spawnUber@@YGXPAUWorld@@PAUAreaRectData@@@Z 66055370 f   uber.obj
 0001:000545c0       ?GetNbMonsters@@YAHPAUDrlgLevel@@@Z 660555c0 f   uber.obj
 0001:00054650       ?GetNbMonstersRadius@@YAHPAUDrlgLevel@@UtagPOINT@@H@Z 66055650 f   uber.obj
 0001:00054710       ?CastSummonMonster@@YAHPAUWorld@@PAUUnitAny@@HHPAHHH@Z 66055710 f   uber.obj
 0001:00054840       ?randf@@YANXZ              66055840 f   uber.obj
 0001:00054860       ?RandInCircle@@YAXPAUtagPOINT@@H@Z 66055860 f   uber.obj
 0001:000548c0       ?uberMephAI@@YIXPAUWorld@@PAUUnitAny@@PAUAIParam@@@Z 660558c0 f   uber.obj
 0001:00054950       ?uberDiabloAI@@YIXPAUWorld@@PAUUnitAny@@PAUAIParam@@@Z 66055950 f   uber.obj
 0001:00054aa0       ?uberBaalAI@@YIXPAUWorld@@PAUUnitAny@@PAUAIParam@@@Z 66055aa0 f   uber.obj
 0001:00054c70       ?installUberQuestPatches@@YAHXZ 66055c70 f   uber.obj
 0001:00054d96       ??0_LocaleUpdate@@QAE@PAUlocaleinfo_struct@@@Z 66055d96 f i LIBCMT:stricmp.obj
 0001:00054e1d       ___ascii_stricmp           66055e1d f   LIBCMT:stricmp.obj
 0001:00054e56       __stricmp_l                66055e56 f   LIBCMT:stricmp.obj
 0001:00054f2b       __stricmp                  66055f2b f   LIBCMT:stricmp.obj
 0001:00054f7d       __flush                    66055f7d f   LIBCMT:fflush.obj
 0001:00054fe5       __fflush_nolock            66055fe5 f   LIBCMT:fflush.obj
 0001:00055107       _fflush                    66056107 f   LIBCMT:fflush.obj
 0001:0005515a       __flushall                 6605615a f   LIBCMT:fflush.obj
 0001:00055163       _fprintf                   66056163 f   LIBCMT:fprintf.obj
 0001:0005527f       _bsearch                   6605627f f   LIBCMT:bsearch.obj
 0001:00055341       @__security_check_cookie@4 66056341 f   LIBCMT:secchk.obj
 0001:00055350       _sprintf                   66056350 f   LIBCMT:sprintf.obj
 0001:000553d0       _memset                    660563d0 f   LIBCMT:memset.obj
 0001:0005544a       __fclose_nolock            6605644a f   LIBCMT:fclose.obj
 0001:000554c1       _fclose                    660564c1 f   LIBCMT:fclose.obj
 0001:0005553d       _fputs                     6605653d f   LIBCMT:fputs.obj
 0001:00055650       _strncpy                   66056650 f   LIBCMT:strncpy.obj
 0001:00055790       _strchr                    66056790 f   LIBCMT:strchr.obj
 0001:00055796       ___from_strstr_to_strchr   66056796     LIBCMT:strchr.obj
 0001:00055850       _strrchr                   66056850 f   LIBCMT:strrchr.obj
 0001:00055940       _qsort                     66056940 f   LIBCMT:qsort.obj
 0001:00055b8d       _realloc                   66056b8d f   LIBCMT:realloc.obj
 0001:00055db0       _memcpy                    66056db0 f   LIBCMT:memcpy.obj
 0001:00056115       __isalpha_l                66057115 f i LIBCMT:_ctype.obj
 0001:0005616b       _isalpha                   6605716b f i LIBCMT:_ctype.obj
 0001:0005619b       __isdigit_l                6605719b f i LIBCMT:_ctype.obj
 0001:000561ec       _isdigit                   660571ec f i LIBCMT:_ctype.obj
 0001:0005621a       __isspace_l                6605721a f i LIBCMT:_ctype.obj
 0001:0005626b       _isspace                   6605726b f i LIBCMT:_ctype.obj
 0001:00056299       __isalnum_l                66057299 f i LIBCMT:_ctype.obj
 0001:000562ef       _isalnum                   660572ef f i LIBCMT:_ctype.obj
 0001:0005654e       _strtol                    6605754e f   LIBCMT:strtol.obj
 0001:00056579       _strtoul                   66057579 f   LIBCMT:strtol.obj
 0001:000565a5       __toupper_l                660575a5 f   LIBCMT:toupper.obj
 0001:000566bb       _toupper                   660576bb f   LIBCMT:toupper.obj
 0001:000566e7       __memicmp_l                660576e7 f   LIBCMT:memicmp.obj
 0001:000567bc       __memicmp                  660577bc f   LIBCMT:memicmp.obj
 0001:0005681b       ___iob_func                6605781b f   LIBCMT:_file.obj
 0001:00056821       ___initstdio               66057821 f   LIBCMT:_file.obj
 0001:000568d2       ___endstdio                660578d2 f   LIBCMT:_file.obj
 0001:000568f2       __lock_file                660578f2 f   LIBCMT:_file.obj
 0001:00056933       __lock_file2               66057933 f   LIBCMT:_file.obj
 0001:00056965       __unlock_file              66057965 f   LIBCMT:_file.obj
 0001:000569a1       __unlock_file2             660579a1 f   LIBCMT:_file.obj
 0001:000569d0       __cfltcvt_init             660579d0 f   LIBCMT:_fpinit_.obj
 0001:00056a30       __fpmath                   66057a30 f   LIBCMT:_fpinit_.obj
 0001:00056a60       __except_handler4          66057a60 f   LIBCMT:chandler4.obj
 0001:00056bec       _V6_HeapAlloc              66057bec f   LIBCMT:malloc.obj
 0001:00056c3b       _malloc                    66057c3b f   LIBCMT:malloc.obj
 0001:00056d10       _strstr                    66057d10 f   LIBCMT:strstr.obj
 0001:00056d96       _fgets                     66057d96 f   LIBCMT:fgets.obj
 0001:00056ede       __fseek_nolock             66057ede f   LIBCMT:fseek.obj
 0001:00056f68       _fseek                     66057f68 f   LIBCMT:fseek.obj
 0001:00056fed       __fread_nolock_s           66057fed f   LIBCMT:fread.obj
 0001:000571f7       _fread_s                   660581f7 f   LIBCMT:fread.obj
 0001:0005728d       _fread                     6605828d f   LIBCMT:fread.obj
 0001:000572aa       _strtok                    660582aa f   LIBCMT:strtok.obj
 0001:00057370       __ftol2_sse                66058370 f   LIBCMT:ftol2.obj
 0001:00057379       __ftol2_pentium4           66058379 f   LIBCMT:ftol2.obj
 0001:0005738c       __ftol2_sse_excpt          6605838c f   LIBCMT:ftol2.obj
 0001:000573a6       __ftol2                    660583a6 f   LIBCMT:ftol2.obj
 0001:0005741b       ??3@YAXPAX@Z               6605841b f   LIBCMT:delete.obj
 0001:00057426       ??0bad_alloc@std@@QAE@XZ   66058426 f i LIBCMT:new.obj
 0001:00057441       ??1bad_alloc@std@@UAE@XZ   66058441 f i LIBCMT:new.obj
 0001:0005744c       ??_Ebad_alloc@std@@UAEPAXI@Z 6605844c f i LIBCMT:new.obj
 0001:0005744c       ??_Gbad_alloc@std@@UAEPAXI@Z 6605844c f i LIBCMT:new.obj
 0001:00057473       ??0bad_alloc@std@@QAE@ABV01@@Z 66058473 f i LIBCMT:new.obj
 0001:00057490       ??2@YAPAXI@Z               66058490 f   LIBCMT:new.obj
 0001:000574f5       _free                      660584f5 f   LIBCMT:free.obj
 0001:0005765d       __stat64i32                6605865d f   LIBCMT:stati32.obj
 0001:00057a31       __fwrite_nolock            66058a31 f   LIBCMT:fwrite.obj
 0001:00057b93       _fwrite                    66058b93 f   LIBCMT:fwrite.obj
 0001:00057c15       __fsopen                   66058c15 f   LIBCMT:fopen.obj
 0001:00057cd9       _fopen                     66058cd9 f   LIBCMT:fopen.obj
 0001:00057cf0       __snprintf                 66058cf0 f   LIBCMT:snprintf.obj
 0001:00057d9f       __ftell_nolock             66058d9f f   LIBCMT:ftell.obj
 0001:00057f3c       _ftell                     66058f3c f   LIBCMT:ftell.obj
 0001:00057fb0       __alloca_probe             66058fb0     LIBCMT:chkstk.obj
 0001:00057fb0       __chkstk                   66058fb0 f   LIBCMT:chkstk.obj
 0001:00057fe0       __CIsqrt                   66058fe0 f   LIBCMT:_sqrt_.obj
 0001:00057ff4       _sqrt                      66058ff4     LIBCMT:_sqrt_.obj
 0001:0005809a       __vsnprintf_l              6605909a f   LIBCMT:vsnprint.obj
 0001:0005814d       __vsnprintf                6605914d f   LIBCMT:vsnprint.obj
 0001:0005816a       _rand                      6605916a f   LIBCMT:rand.obj
 0001:0005818c       _rename                    6605918c f   LIBCMT:rename.obj
 0001:000581c0       _memmove                   660591c0 f   LIBCMT:memmove.obj
 0001:00058525       __isleadbyte_l             66059525 f i LIBCMT:_wctype.obj
 0001:0005855d       _isleadbyte                6605955d f i LIBCMT:_wctype.obj
 0001:00058570       _iswspace                  66059570 f i LIBCMT:_wctype.obj
 0001:00058583       _fputc                     66059583 f   LIBCMT:fputc.obj
 0001:0005868f       __get_printf_count_output  6605968f f   LIBCMT:printf.obj
 0001:000586a5       __time64                   660596a5 f   LIBCMT:time64.obj
 0001:000586f6       __freea                    660596f6 f i LIBCMT:strupr.obj
 0001:00058894       __strupr_s_l               66059894 f   LIBCMT:strupr.obj
 0001:000588c9       __strupr                   660598c9 f   LIBCMT:strupr.obj
 0001:00058b28       _wcstol                    66059b28 f   LIBCMT:wcstol.obj
 0001:00058b60       __allshr                   66059b60 f   LIBCMT:llshr.obj
 0001:00058b90       _sin                       66059b90 f   LIBCMT:_sin_.obj
 0001:00058bd0       __CIsin                    66059bd0 f   LIBCMT:_sin_.obj
 0001:00058c0b       __CIsin_default            66059c0b f   LIBCMT:_sin_.obj
 0001:00058c1f       __sin_default              66059c1f     LIBCMT:_sin_.obj
 0001:00058cc0       _cos                       66059cc0 f   LIBCMT:_cos_.obj
 0001:00058d00       __CIcos                    66059d00 f   LIBCMT:_cos_.obj
 0001:00058d3b       __CIcos_default            66059d3b f   LIBCMT:_cos_.obj
 0001:00058d4f       __cos_default              66059d4f     LIBCMT:_cos_.obj
 0001:00058de9       __CRT_INIT@12              66059de9 f   LIBCMT:dllcrt0.obj
 0001:00059014       __DllMainCRTStartup@12     6605a014 f   LIBCMT:dllcrt0.obj
 0001:0005925d       ___updatetmbcinfo          6605a25d f   LIBCMT:mbctype.obj
 0001:0005937d       __setmbcp_nolock           6605a37d f   LIBCMT:mbctype.obj
 0001:00059562       __setmbcp                  6605a562 f   LIBCMT:mbctype.obj
 0001:000596fc       ___initmbctable            6605a6fc f   LIBCMT:mbctype.obj
 0001:0005971a       ___freetlocinfo            6605a71a f   LIBCMT:setlocal.obj
 0001:00059863       ___addlocaleref            6605a863 f   LIBCMT:setlocal.obj
 0001:000598f2       ___removelocaleref         6605a8f2 f   LIBCMT:setlocal.obj
 0001:000599c9       ___updatetlocinfo          6605a9c9 f   LIBCMT:setlocal.obj
 0001:00059a3f       __encode_pointer           6605aa3f f   LIBCMT:tidtable.obj
 0001:00059ab1       __encoded_null             6605aab1 f   LIBCMT:tidtable.obj
 0001:00059aba       __decode_pointer           6605aaba f   LIBCMT:tidtable.obj
 0001:00059b2c       ___crtTlsAlloc@4           6605ab2c f   LIBCMT:tidtable.obj
 0001:00059b35       ___set_flsgetvalue         6605ab35 f   LIBCMT:tidtable.obj
 0001:00059b69       __mtterm                   6605ab69 f   LIBCMT:tidtable.obj
 0001:00059ba6       __initptd                  6605aba6 f   LIBCMT:tidtable.obj
 0001:00059c8d       __getptd_noexit            6605ac8d f   LIBCMT:tidtable.obj
 0001:00059d06       __getptd                   6605ad06 f   LIBCMT:tidtable.obj
 0001:00059d20       __freefls@4                6605ad20 f   LIBCMT:tidtable.obj
 0001:00059e4f       __freeptd                  6605ae4f f   LIBCMT:tidtable.obj
 0001:00059ebd       __mtinit                   6605aebd f   LIBCMT:tidtable.obj
 0001:0005a04a       __tolower_l                6605b04a f   LIBCMT:tolower.obj
 0001:0005a15f       _tolower                   6605b15f f   LIBCMT:tolower.obj
 0001:0005a18b       __initp_misc_invarg        6605b18b f   LIBCMT:invarg.obj
 0001:0005a19a       __invoke_watson            6605b19a f   LIBCMT:invarg.obj
 0001:0005a2c2       __invalid_parameter        6605b2c2 f   LIBCMT:invarg.obj
 0001:0005a2e8       __get_errno_from_oserr     6605b2e8 f   LIBCMT:dosmap.obj
 0001:0005a32a       __errno                    6605b32a f   LIBCMT:dosmap.obj
 0001:0005a33d       ___doserrno                6605b33d f   LIBCMT:dosmap.obj
 0001:0005a350       __dosmaperr                6605b350 f   LIBCMT:dosmap.obj
 0001:0005a373       __write_nolock             6605b373 f   LIBCMT:write.obj
 0001:0005aaa6       __write                    6605baa6 f   LIBCMT:write.obj
 0001:0005ab82       __fileno                   6605bb82 f   LIBCMT:fileno.obj
 0001:0005abb4       __commit                   6605bbb4 f   LIBCMT:commit.obj
 0001:0005ac95       __mtinitlocks              6605bc95 f   LIBCMT:mlock.obj
 0001:0005ace0       __mtdeletelocks            6605bce0 f   LIBCMT:mlock.obj
 0001:0005ad37       __unlock                   6605bd37 f   LIBCMT:mlock.obj
 0001:0005ad4e       __mtinitlocknum            6605bd4e f   LIBCMT:mlock.obj
 0001:0005ae11       __lock                     6605be11 f   LIBCMT:mlock.obj
 0001:0005ae44       __SEH_prolog4              6605be44 f   LIBCMT:sehprolg4.obj
 0001:0005ae89       __SEH_epilog4              6605be89 f   LIBCMT:sehprolg4.obj
 0001:0005ae9d       __stbuf                    6605be9d f   LIBCMT:_sftbuf.obj
 0001:0005af39       __ftbuf                    6605bf39 f   LIBCMT:_sftbuf.obj
 0001:0005b013       __output_l                 6605c013 f   LIBCMT:output.obj
 0001:0005bbab       __ioinit                   6605cbab f   LIBCMT:ioinit.obj
 0001:0005bdff       __ioterm                   6605cdff f   LIBCMT:ioinit.obj
 0001:0005be4d       ___report_gsfailure        6605ce4d f   LIBCMT:gs_report.obj
 0001:0005bf53       __flsbuf                   6605cf53 f   LIBCMT:_flsbuf.obj
 0001:0005c10e       __VEC_memzero              6605d10e f   LIBCMT:p4_memset.obj
 0001:0005c1ed       __get_sse2_info            6605d1ed f   LIBCMT:cpu_disp.obj
 0001:0005c24f       ___sse2_available_init     6605d24f f   LIBCMT:cpu_disp.obj
 0001:0005c25c       __close_nolock             6605d25c f   LIBCMT:close.obj
 0001:0005c2f8       __close                    6605d2f8 f   LIBCMT:close.obj
 0001:0005c3c5       __freebuf                  6605d3c5 f   LIBCMT:_freebuf.obj
 0001:0005c400       _strlen                    6605d400 f   LIBCMT:strlen.obj
 0001:0005c48b       __initp_heap_handler       6605d48b f   LIBCMT:handler.obj
 0001:0005c49a       __callnewh                 6605d49a f   LIBCMT:handler.obj
 0001:0005c4c2       __heap_init                6605d4c2 f   LIBCMT:heapinit.obj
 0001:0005c4f2       __heap_term                6605d4f2 f   LIBCMT:heapinit.obj
 0001:0005c566       ___sbh_find_block          6605d566 f   LIBCMT:sbheap.obj
 0001:0005c596       ___sbh_free_block          6605d596 f   LIBCMT:sbheap.obj
 0001:0005c8ac       ___sbh_alloc_new_region    6605d8ac f   LIBCMT:sbheap.obj
 0001:0005c95c       ___sbh_alloc_new_group     6605d95c f   LIBCMT:sbheap.obj
 0001:0005ca64       ___sbh_resize_block        6605da64 f   LIBCMT:sbheap.obj
 0001:0005cd45       ___sbh_alloc_block         6605dd45 f   LIBCMT:sbheap.obj
 0001:0005d0b1       __VEC_memcpy               6605e0b1 f   LIBCMT:p4_memcpy.obj
 0001:0005d194       __isctype_l                6605e194 f   LIBCMT:isctype.obj
 0001:0005d5f1       ___crtLCMapStringA         6605e5f1 f   LIBCMT:a_map.obj
 0001:0005d640       ___ascii_memicmp           6605e640 f   LIBCMT:_memicmp.obj
 0001:0005d699       __malloc_crt               6605e699 f   LIBCMT:crtheap.obj
 0001:0005d6de       __calloc_crt               6605e6de f   LIBCMT:crtheap.obj
 0001:0005d72a       __realloc_crt              6605e72a f   LIBCMT:crtheap.obj
 0001:0005d778       __recalloc_crt             6605e778 f   LIBCMT:crtheap.obj
 0001:0005d7ca       __fcloseall                6605e7ca f   LIBCMT:closeall.obj
 0001:0005d869       __crt_waiting_on_module_handle 6605e869 f   LIBCMT:crt0dat.obj
 0001:0005d899       __amsg_exit                6605e899 f   LIBCMT:crt0dat.obj
 0001:0005d8c2       ___crtCorExitProcess       6605e8c2 f   LIBCMT:crt0dat.obj
 0001:0005d8ed       ___crtExitProcess          6605e8ed f   LIBCMT:crt0dat.obj
 0001:0005d905       __lockexit                 6605e905 f   LIBCMT:crt0dat.obj
 0001:0005d90e       __unlockexit               6605e90e f   LIBCMT:crt0dat.obj
 0001:0005d934       __initterm_e               6605e934 f   LIBCMT:crt0dat.obj
 0001:0005d958       __cinit                    6605e958 f   LIBCMT:crt0dat.obj
 0001:0005db09       __exit                     6605eb09 f   LIBCMT:crt0dat.obj
 0001:0005db1f       __cexit                    6605eb1f f   LIBCMT:crt0dat.obj
 0001:0005db2e       __init_pointers            6605eb2e f   LIBCMT:crt0dat.obj
 0001:0005db7c       __forcdecpt_l              6605eb7c f   LIBCMT:cvt.obj
 0001:0005dbef       __cropzeros_l              6605ebef f   LIBCMT:cvt.obj
 0001:0005dc71       __positive                 6605ec71 f   LIBCMT:cvt.obj
 0001:0005dc8d       __fassign_l                6605ec8d f   LIBCMT:cvt.obj
 0001:0005dccf       __fassign                  6605eccf f   LIBCMT:cvt.obj
 0001:0005dd08       __forcdecpt                6605ed08 f   LIBCMT:cvt.obj
 0001:0005dd1b       __cropzeros                6605ed1b f   LIBCMT:cvt.obj
 0001:0005de9d       __cftoe_l                  6605ee9d f   LIBCMT:cvt.obj
 0001:0005df6d       __cftoe                    6605ef6d f   LIBCMT:cvt.obj
 0001:0005df8d       __cftoa_l                  6605ef8d f   LIBCMT:cvt.obj
 0001:0005e3f7       __cftof_l                  6605f3f7 f   LIBCMT:cvt.obj
 0001:0005e4b2       __cftog_l                  6605f4b2 f   LIBCMT:cvt.obj
 0001:0005e5ac       __cfltcvt_l                6605f5ac f   LIBCMT:cvt.obj
 0001:0005e634       __cfltcvt                  6605f634 f   LIBCMT:cvt.obj
 0001:0005e657       __initp_misc_cfltcvt_tab   6605f657 f   LIBCMT:cmiscdat.obj
 0001:0005e678       __setdefaultprecision      6605f678 f   LIBCMT:fp8.obj
 0001:0005e6a3       __ms_p5_test_fdiv          6605f6a3 f   LIBCMT:_testfdiv_.obj
 0001:0005e6e1       __ms_p5_mp_test_fdiv       6605f6e1 f   LIBCMT:_testfdiv_.obj
 0001:0005e70c       __local_unwind4            6605f70c f   LIBCMT:exsup4.obj
 0001:0005e7e2       __seh_longjmp_unwind4@4    6605f7e2 f   LIBCMT:exsup4.obj
 0001:0005e7fe       @_EH4_CallFilterFunc@8     6605f7fe f   LIBCMT:exsup4.obj
 0001:0005e815       @_EH4_TransferToHandler@8  6605f815 f   LIBCMT:exsup4.obj
 0001:0005e82e       @_EH4_GlobalUnwind@4       6605f82e f   LIBCMT:exsup4.obj
 0001:0005e848       @_EH4_LocalUnwind@16       6605f848 f   LIBCMT:exsup4.obj
 0001:0005e860       __ValidateImageBase        6605f860 f   LIBCMT:pesect.obj
 0001:0005e8a0       __FindPESection            6605f8a0 f   LIBCMT:pesect.obj
 0001:0005e8f0       __IsNonwritableInCurrentImage 6605f8f0 f   LIBCMT:pesect.obj
 0001:0005e9ad       __NMSG_WRITE               6605f9ad f   LIBCMT:crt0msg.obj
 0001:0005eb58       __FF_MSGBANNER             6605fb58 f   LIBCMT:crt0msg.obj
 0001:0005eb91       __filbuf                   6605fb91 f   LIBCMT:_filbuf.obj
 0001:0005ecbc       __lseek_nolock             6605fcbc f   LIBCMT:lseek.obj
 0001:0005ed31       __lseek                    6605fd31 f   LIBCMT:lseek.obj
 0001:0005ee0d       __read_nolock              6605fe0d f   LIBCMT:read.obj
 0001:0005f3cf       __read                     660603cf f   LIBCMT:read.obj
 0001:0005f4cc       _memcpy_s                  660604cc f   LIBCMT:memcpy_s.obj
 0001:0005f549       ??0exception@std@@QAE@ABQBDH@Z 66060549 f   LIBCMT:stdexcpt.obj
 0001:0005f566       ??0exception@std@@QAE@ABV01@@Z 66060566 f   LIBCMT:stdexcpt.obj
 0001:0005f5c3       ??1exception@std@@UAE@XZ   660605c3 f   LIBCMT:stdexcpt.obj
 0001:0005f5d9       ?what@exception@std@@UBEPBDXZ 660605d9 f   LIBCMT:stdexcpt.obj
 0001:0005f5e6       ??_Gexception@std@@UAEPAXI@Z 660605e6 f i LIBCMT:stdexcpt.obj
 0001:0005f5e6       ??_Eexception@std@@UAEPAXI@Z 660605e6 f i LIBCMT:stdexcpt.obj
 0001:0005f607       ??1type_info@@UAE@XZ       66060607 f   LIBCMT:typinfo.obj
 0001:0005f617       ??_Etype_info@@UAEPAXI@Z   66060617 f i LIBCMT:typinfo.obj
 0001:0005f617       ??_Gtype_info@@UAEPAXI@Z   66060617 f i LIBCMT:typinfo.obj
 0001:0005f6f2       ___onexitinit              660606f2 f   LIBCMT:onexit.obj
 0001:0005f723       __onexit                   66060723 f   LIBCMT:onexit.obj
 0001:0005f75f       _atexit                    6606075f f   LIBCMT:onexit.obj
 0001:0005f776       __CxxThrowException@8      66060776 f   LIBCMT:throw.obj
 0001:0005f7c2       __fullpath                 660607c2 f   LIBCMT:fullpath.obj
 0001:0005f8cc       ___dtoxmode                660608cc f   LIBCMT:stat.obj
 0001:0005f989       ___loctotime64_t           66060989 f   LIBCMT:dtoxtm64.obj
 0001:0005fbf4       __getdrive                 66060bf4 f   LIBCMT:drive.obj
 0001:0005fcbd       __mbctolower_l             66060cbd f   LIBCMT:mbtolwr.obj
 0001:0005fd63       __mbctolower               66060d63 f   LIBCMT:mbtolwr.obj
 0001:0005fd76       __mbspbrk_l                66060d76 f   LIBCMT:mbspbrk.obj
 0001:0005fe43       __mbspbrk                  66060e43 f   LIBCMT:mbspbrk.obj
 0001:0005fe5a       __openfile                 66060e5a f   LIBCMT:_open.obj
 0001:00060123       __getstream                66061123 f   LIBCMT:stream.obj
 0001:00060260       __trandisp1                66061260 f   LIBCMT:_87disp_.obj
 0001:000602c7       __trandisp2                660612c7 f   LIBCMT:_87disp_.obj
 0001:00060353       __rttospopde               66061353     LIBCMT:_87disp_.obj
 0001:00060358       __rttospop                 66061358     LIBCMT:_87disp_.obj
 0001:0006035a       __rtnospop                 6606135a     LIBCMT:_87disp_.obj
 0001:0006035c       __rttosnpop                6606135c     LIBCMT:_87disp_.obj
 0001:0006035d       __rtnospopde               6606135d     LIBCMT:_87disp_.obj
 0001:00060364       __rtzeropop                66061364     LIBCMT:_87disp_.obj
 0001:00060366       __rtzeronpop               66061366     LIBCMT:_87disp_.obj
 0001:0006036b       __rtonepop                 6606136b     LIBCMT:_87disp_.obj
 0001:0006036d       __rtonenpop                6606136d     LIBCMT:_87disp_.obj
 0001:00060372       __tosnan1                  66061372     LIBCMT:_87disp_.obj
 0001:0006039d       __nosnan2                  6606139d     LIBCMT:_87disp_.obj
 0001:0006039f       __tosnan2                  6606139f     LIBCMT:_87disp_.obj
 0001:000603c7       __nan2                     660613c7     LIBCMT:_87disp_.obj
 0001:00060406       __rtindfpop                66061406     LIBCMT:_87disp_.obj
 0001:00060408       __rtindfnpop               66061408     LIBCMT:_87disp_.obj
 0001:00060419       __rttosnpopde              66061419     LIBCMT:_87disp_.obj
 0001:00060423       __rtchsifneg               66061423     LIBCMT:_87disp_.obj
 0001:00060430       __startTwoArgErrorHandling 66061430 f   LIBCMT:_genexcep_.obj
 0001:00060447       __startOneArgErrorHandling 66061447 f   LIBCMT:_genexcep_.obj
 0001:00060490       __twoToTOS                 66061490 f   LIBCMT:_common_.obj
 0001:000604a5       __load_CW                  660614a5 f   LIBCMT:_common_.obj
 0001:000604bc       __convertTOStoQNaN         660614bc f   LIBCMT:_common_.obj
 0001:000604d5       __fload_withFB             660614d5 f   LIBCMT:_common_.obj
 0001:00060518       __checkTOS_withFB          66061518 f   LIBCMT:_common_.obj
 0001:0006052e       __fast_exit                6606152e f   LIBCMT:_common_.obj
 0001:0006053b       __math_exit                6606153b f   LIBCMT:_common_.obj
 0001:00060565       __check_overflow_exit      66061565 f   LIBCMT:_common_.obj
 0001:00060579       __check_range_exit         66061579 f   LIBCMT:_common_.obj
 0001:0006061c       __iswctype_l               6606161c f   LIBCMT:iswctype.obj
 0001:000606a6       _iswctype                  660616a6 f   LIBCMT:iswctype.obj
 0001:00060720       __aulldiv                  66061720 f   LIBCMT:ulldiv.obj
 0001:00060788       _strcpy_s                  66061788 f   LIBCMT:strcpy_s.obj
 0001:000607f0       _strnlen                   660617f0 f   LIBCMT:strlen_s.obj
 0001:00060810       __alloca_probe_16          66061810 f   LIBCMT:alloca16.obj
 0001:00060826       __alloca_probe_8           66061826     LIBCMT:alloca16.obj
 0001:0006083c       __wchartodigit             6606183c f   LIBCMT:wchtodig.obj
 0001:00060a17       __sse2_mathfcns_init       66061a17 f   LIBCMT:_mathfcns_.obj
 0001:00060a30       __CIsin_pentium4           66061a30 f   LIBCMT:_sin_pentium4_.obj
 0001:00060a48       __sin_pentium4             66061a48     LIBCMT:_sin_pentium4_.obj
 0001:00060c00       __CIcos_pentium4           66061c00 f   LIBCMT:_cos_pentium4_.obj
 0001:00060c18       __cos_pentium4             66061c18     LIBCMT:_cos_pentium4_.obj
 0001:00060dac       __setenvp                  66061dac f   LIBCMT:stdenvp.obj
 0001:00061024       __setargv                  66062024 f   LIBCMT:stdargv.obj
 0001:000610df       ___crtGetEnvironmentStringsA 660620df f   LIBCMT:a_env.obj
 0001:00061216       __RTC_Initialize           66062216 f   LIBCMT:_initsect_.obj
 0001:0006123c       __RTC_Terminate            6606223c f   LIBCMT:_initsect_.obj
 0001:00061262       __initp_misc_winxfltr      66062262 f   LIBCMT:winxfltr.obj
 0001:00061262       __fpclear                  66062262 f   LIBCMT:_fpinit_.obj
 0001:00061263       __XcptFilter               66062263 f   LIBCMT:winxfltr.obj
 0001:000613c3       ___CppXcptFilter           660623c3 f   LIBCMT:winxfltr.obj
 0001:000613e3       ___security_init_cookie    660623e3 f   LIBCMT:gs_support.obj
 0001:00061633       ___crtGetStringTypeA       66062633 f   LIBCMT:a_str.obj
 0001:00061675       ___free_lc_time            66062675 f   LIBCMT:inittime.obj
 0001:0006180a       ___free_lconv_num          6606280a f   LIBCMT:initnum.obj
 0001:0006184f       ___free_lconv_mon          6606284f f   LIBCMT:initmon.obj
 0001:000618dd       ____lc_codepage_func       660628dd f   LIBCMT:initctyp.obj
 0001:00061903       _strcat_s                  66062903 f   LIBCMT:strcat_s.obj
 0001:00061980       _strcspn                   66062980 f   LIBCMT:strcspn.obj
 0001:000619c6       _strncpy_s                 660629c6 f   LIBCMT:strncpy_s.obj
 0001:00061a80       _strcmp                    66062a80 f   LIBCMT:strcmp.obj
 0001:00061b08       _strncmp                   66062b08 f   LIBCMT:strncmp.obj
 0001:00061bd0       _strpbrk                   66062bd0 f   LIBCMT:strpbrk.obj
 0001:00061c10       __crt_debugger_hook        66062c10 f   LIBCMT:dbghook.obj
 0001:00061c18       __putwch_nolock            66062c18 f   LIBCMT:putwch.obj
 0001:00061cdd       __mbtowc_l                 66062cdd f   LIBCMT:mbtowc.obj
 0001:00061df4       _mbtowc                    66062df4 f   LIBCMT:mbtowc.obj
 0001:00061e0e       __isatty                   66062e0e f   LIBCMT:isatty.obj
 0001:00061e72       __lseeki64_nolock          66062e72 f   LIBCMT:lseeki64.obj
 0001:00061ef7       __lseeki64                 66062ef7 f   LIBCMT:lseeki64.obj
 0001:00062010       __set_osfhnd               66063010 f   LIBCMT:osfinfo.obj
 0001:00062091       __free_osfhnd              66063091 f   LIBCMT:osfinfo.obj
 0001:00062117       __get_osfhandle            66063117 f   LIBCMT:osfinfo.obj
 0001:0006218e       ___lock_fhandle            6606318e f   LIBCMT:osfinfo.obj
 0001:0006222e       __unlock_fhandle           6606322e f   LIBCMT:osfinfo.obj
 0001:00062255       __alloc_osfhnd             66063255 f   LIBCMT:osfinfo.obj
 0001:000623ef       __initp_misc_initcrit      660633ef f   LIBCMT:initcrit.obj
 0001:000623fe       ___crtInitCritSecAndSpinCount 660633fe f   LIBCMT:initcrit.obj
 0001:0006245e       __wctomb_s_l               6606345e f   LIBCMT:wctomb.obj
 0001:000625ca       _wctomb_s                  660635ca f   LIBCMT:wctomb.obj
 0001:000625f0       __aulldvrm                 660635f0 f   LIBCMT:ulldvrm.obj
 0001:00062685       __getbuf                   66063685 f   LIBCMT:_getbuf.obj
 0001:000626ce       ___ansicp                  660636ce f   LIBCMT:convrtcp.obj
 0001:00062717       ___convertcp               66063717 f   LIBCMT:convrtcp.obj
 0001:000628cb       __calloc_impl              660638cb f   LIBCMT:calloc_impl.obj
 0001:000629e9       __recalloc                 660639e9 f   LIBCMT:recalloc.obj
 0001:00062a64       ?terminate@@YAXXZ          66063a64 f   LIBCMT:hooks.obj
 0001:00062a9d       __initp_eh_hooks           66063a9d f   LIBCMT:hooks.obj
 0001:00062aae       __initp_misc_winsig        66063aae f   LIBCMT:winsig.obj
 0001:00062b03       ___get_sigabrt             66063b03 f   LIBCMT:winsig.obj
 0001:00062b10       _raise                     66063b10 f   LIBCMT:winsig.obj
 0001:00062cc0       __initp_misc_rand_s        66063cc0 f   LIBCMT:rand_s.obj
 0001:00062ccf       __initp_misc_purevirt      66063ccf f   LIBCMT:inithelp.obj
 0001:00062cde       __atodbl_l                 66063cde f   LIBCMT:atodbl.obj
 0001:00062d86       __atoflt_l                 66063d86 f   LIBCMT:atodbl.obj
 0001:00062e2e       __fptostr                  66063e2e f   LIBCMT:_fptostr.obj
 0001:00062eed       ___dtold                   66063eed f   LIBCMT:_cfout_.obj
 0001:00062faa       __fltout2                  66063faa f   LIBCMT:_cfout_.obj
 0001:00063040       __alldvrm                  66064040 f   LIBCMT:lldvrm.obj
 0001:00063120       __aullshr                  66064120 f   LIBCMT:ullshr.obj
 0001:0006313f       __fptrap                   6606413f f   LIBCMT:crt0fp.obj
 0001:00063148       __controlfp_s              66064148 f   LIBCMT:_contrlfp_.obj
 0001:000631b4       __global_unwind2           660641b4 f   LIBCMT:exsup.obj
 0001:00063219       __local_unwind2            66064219 f   LIBCMT:exsup.obj
 0001:0006329d       __abnormal_termination     6606429d f   LIBCMT:exsup.obj
 0001:000632c0       __NLG_Notify1              660642c0 f   LIBCMT:exsup.obj
 0001:000632c9       __NLG_Notify               660642c9 f   LIBCMT:exsup.obj
 0001:000632e0       __NLG_Dispatch             660642e0     LIBCMT:exsup.obj
 0001:000632e0       __NLG_Dispatch2            660642e0     LIBCMT:exsup.obj
 0001:000632e8       __NLG_Call                 660642e8 f   LIBCMT:exsup.obj
 0001:000632ea       __NLG_Return2              660642ea     LIBCMT:exsup.obj
 0001:000632eb       ___crtMessageBoxA          660642eb f   LIBCMT:crtmbox.obj
 0001:00063454       __set_error_mode           66064454 f   LIBCMT:errmode.obj
 0001:0006349f       ?_Type_info_dtor@type_info@@CAXPAV1@@Z 6606449f f   LIBCMT:typname.obj
 0001:0006350f       __msize                    6606450f f   LIBCMT:msize.obj
 0001:000635b2       __validdrive               660645b2 f   LIBCMT:getcwd.obj
 0001:000635eb       __getdcwd_nolock           660645eb f   LIBCMT:getcwd.obj
 0001:00063722       __getcwd                   66064722 f   LIBCMT:getcwd.obj
 0001:0006376b       _calloc                    6606476b f   LIBCMT:calloc.obj
 0001:000637ab       __mbsicmp_l                660647ab f   LIBCMT:mbsicmp.obj
 0001:000639d1       __mbsicmp                  660649d1 f   LIBCMT:mbsicmp.obj
 0001:000639e8       __mbsrchr_l                660649e8 f   LIBCMT:mbsrchr.obj
 0001:00063aa4       __mbsrchr                  66064aa4 f   LIBCMT:mbsrchr.obj
 0001:00063abb       __set_daylight             66064abb f i LIBCMT:tzset.obj
 0001:00063acc       __set_dstbias              66064acc f i LIBCMT:tzset.obj
 0001:00063add       __set_timezone             66064add f i LIBCMT:tzset.obj
 0001:00064203       ___tzset                   66065203 f   LIBCMT:tzset.obj
 0001:00064252       __isindst                  66065252 f   LIBCMT:tzset.obj
 0001:00064293       __get_daylight             66065293 f   LIBCMT:timeset.obj
 0001:000642cc       __get_dstbias              660652cc f   LIBCMT:timeset.obj
 0001:00064305       __get_timezone             66065305 f   LIBCMT:timeset.obj
 0001:0006433e       ___daylight                6606533e f   LIBCMT:timeset.obj
 0001:00064344       ___dstbias                 66065344 f   LIBCMT:timeset.obj
 0001:0006434a       ___timezone                6606534a f   LIBCMT:timeset.obj
 0001:00064350       ___tzname                  66065350 f   LIBCMT:timeset.obj
 0001:00064360       __allmul                   66065360 f   LIBCMT:llmul.obj
 0001:00064ab3       __sopen_helper             66065ab3 f   LIBCMT:open.obj
 0001:00064b7f       __sopen_s                  66065b7f f   LIBCMT:open.obj
 0001:00064b9f       __mbsnbicmp_l              66065b9f f   LIBCMT:mbsnbicm.obj
 0001:00064dca       __mbsnbicmp                66065dca f   LIBCMT:mbsnbicm.obj
 0001:00064de4       __mbsnbcmp_l               66065de4 f   LIBCMT:mbsnbcmp.obj
 0001:00064f4e       __mbsnbcmp                 66065f4e f   LIBCMT:mbsnbcmp.obj
 0001:00064f68       __87except                 66065f68 f   LIBCMT:_87except_.obj
 0001:000650a7       ___crtGetStringTypeW       660660a7 f   LIBCMT:w_str.obj
 0001:00065138       __ismbblead                66066138 f   LIBCMT:ismbbyte.obj
 0001:00065150       _atol                      66066150 f   LIBCMT:atox.obj
 0001:00065166       __strnicmp_l               66066166 f   LIBCMT:strnicmp.obj
 0001:00065258       __strnicmp                 66066258 f   LIBCMT:strnicmp.obj
 0001:000652b6       ___initconout              660662b6 f   LIBCMT:initcon.obj
 0001:000652d5       ___termcon                 660662d5 f   LIBCMT:initcon.obj
 0001:00065302       _abort                     66066302 f   LIBCMT:abort.obj
 0001:00065419       __ld12tod                  66066419 f   LIBCMT:_intrncvt_.obj
 0001:0006595d       __ld12tof                  6606695d f   LIBCMT:_intrncvt_.obj
 0001:00065ea1       ___strgtold12_l            66066ea1 f   LIBCMT:_strgtold_.obj
 0001:00066599       _$I10_OUTPUT               66067599 f   LIBCMT:_x10fout_.obj
 0001:00066feb       __control87                66067feb f i LIBCMT:_ieee87_.obj
 0001:000672fa       __getenv_helper_nolock     660682fa f   LIBCMT:getenv.obj
 0001:00067381       __chsize_nolock            66068381 f   LIBCMT:chsize.obj
 0001:00067537       __setmode_nolock           66068537 f   LIBCMT:setmode.obj
 0001:000675f3       __get_fmode                660685f3 f   LIBCMT:setmode.obj
 0001:0006762c       __raise_exc_ex             6606862c f   LIBCMT:_fpexcept_.obj
 0001:00067908       __raise_exc                66068908 f   LIBCMT:_fpexcept_.obj
 0001:0006792b       __handle_exc               6606892b f   LIBCMT:_fpexcept_.obj
 0001:00067b0d       __set_errno_from_matherr   66068b0d f   LIBCMT:_fpexcept_.obj
 0001:00067b3a       __matherr                  66068b3a f   LIBCMT:_matherr_.obj
 0001:00067b3d       __statfp                   66068b3d f   LIBCMT:_fpctrl_.obj
 0001:00067b4d       __clrfp                    66068b4d f   LIBCMT:_fpctrl_.obj
 0001:00067b5e       __ctrlfp                   66068b5e f   LIBCMT:_fpctrl_.obj
 0001:00067b87       __set_statfp               66068b87 f   LIBCMT:_fpctrl_.obj
 0001:00067bdf       ___set_fpsr_sse2           66068bdf f   LIBCMT:_fpctrl_.obj
 0001:00067c60       ___ascii_strnicmp          66068c60 f   LIBCMT:_strnicm.obj
 0001:00067cc1       ___mtold12                 66068cc1 f   LIBCMT:_mantold_.obj
 0001:00067e8f       __mbsnbicoll_l             66068e8f f   LIBCMT:mbsnbico.obj
 0001:00067f7d       __mbsnbicoll               66068f7d f   LIBCMT:mbsnbico.obj
 0001:00067f97       ___wtomb_environ           66068f97 f   LIBCMT:wtombenv.obj
 0001:0006802e       __set_exp                  6606902e f   LIBCMT:_util_.obj
 0001:0006805a       __decomp                   6606905a f   LIBCMT:_util_.obj
 0001:000684a1       ___crtCompareStringA       660694a1 f   LIBCMT:a_cmp.obj
 0001:000684e3       __strnicoll_l              660694e3 f   LIBCMT:strnicol.obj
 0001:00068689       ___crtsetenv               66069689 f   LIBCMT:setenv.obj
 0001:000688d4       __strdup                   660698d4 f   LIBCMT:strdup.obj
 0001:00068929       __mbschr_l                 66069929 f   LIBCMT:mbschr.obj
 0001:000689e5       __mbschr                   660699e5 f   LIBCMT:mbschr.obj
 0001:000689fc       _ImmAssociateContext@8     660699fc f   imm32:IMM32.dll
 0001:00068a02       _RtlUnwind@16              66069a02 f   kernel32:KERNEL32.dll
 0002:00000000       __imp__ImmAssociateContext@8 6606a000     imm32:IMM32.dll
 0002:00000004       \177IMM32_NULL_THUNK_DATA  6606a004     imm32:IMM32.dll
 0002:00000008       __imp__IsBadReadPtr@8      6606a008     kernel32:KERNEL32.dll
 0002:0000000c       __imp__MultiByteToWideChar@24 6606a00c     kernel32:KERNEL32.dll
 0002:00000010       __imp__QueryPerformanceFrequency@4 6606a010     kernel32:KERNEL32.dll
 0002:00000014       __imp__HeapCreate@12       6606a014     kernel32:KERNEL32.dll
 0002:00000018       __imp__HeapDestroy@4       6606a018     kernel32:KERNEL32.dll
 0002:0000001c       __imp__QueryPerformanceCounter@4 6606a01c     kernel32:KERNEL32.dll
 0002:00000020       __imp__GetCommandLineA@0   6606a020     kernel32:KERNEL32.dll
 0002:00000024       __imp__GetModuleFileNameA@12 6606a024     kernel32:KERNEL32.dll
 0002:00000028       __imp__DeleteFileA@4       6606a028     kernel32:KERNEL32.dll
 0002:0000002c       __imp__DisableThreadLibraryCalls@4 6606a02c     kernel32:KERNEL32.dll
 0002:00000030       __imp__LoadLibraryA@4      6606a030     kernel32:KERNEL32.dll
 0002:00000034       __imp__GetModuleHandleA@4  6606a034     kernel32:KERNEL32.dll
 0002:00000038       __imp__VirtualProtect@16   6606a038     kernel32:KERNEL32.dll
 0002:0000003c       __imp__WriteProcessMemory@20 6606a03c     kernel32:KERNEL32.dll
 0002:00000040       __imp__GetCurrentProcess@0 6606a040     kernel32:KERNEL32.dll
 0002:00000044       __imp__GetProcAddress@8    6606a044     kernel32:KERNEL32.dll
 0002:00000048       __imp__IsBadWritePtr@8     6606a048     kernel32:KERNEL32.dll
 0002:0000004c       __imp__LCMapStringA@24     6606a04c     kernel32:KERNEL32.dll
 0002:00000050       __imp__GetProcessTimes@20  6606a050     kernel32:KERNEL32.dll
 0002:00000054       __imp__GetSystemTimeAsFileTime@4 6606a054     kernel32:KERNEL32.dll
 0002:00000058       __imp__IsBadCodePtr@4      6606a058     kernel32:KERNEL32.dll
 0002:0000005c       __imp__WideCharToMultiByte@32 6606a05c     kernel32:KERNEL32.dll
 0002:00000060       __imp__Sleep@4             6606a060     kernel32:KERNEL32.dll
 0002:00000064       __imp__GetTickCount@0      6606a064     kernel32:KERNEL32.dll
 0002:00000068       __imp__GetLocalTime@4      6606a068     kernel32:KERNEL32.dll
 0002:0000006c       __imp__CreateFileA@28      6606a06c     kernel32:KERNEL32.dll
 0002:00000070       __imp__WriteFile@20        6606a070     kernel32:KERNEL32.dll
 0002:00000074       __imp__SetFilePointer@16   6606a074     kernel32:KERNEL32.dll
 0002:00000078       __imp__CloseHandle@4       6606a078     kernel32:KERNEL32.dll
 0002:0000007c       __imp__GetFileSize@8       6606a07c     kernel32:KERNEL32.dll
 0002:00000080       __imp__GetCurrentProcessId@0 6606a080     kernel32:KERNEL32.dll
 0002:00000084       __imp__GlobalFree@4        6606a084     kernel32:KERNEL32.dll
 0002:00000088       __imp__GlobalUnlock@4      6606a088     kernel32:KERNEL32.dll
 0002:0000008c       __imp__HeapAlloc@12        6606a08c     kernel32:KERNEL32.dll
 0002:00000090       __imp__GlobalAlloc@8       6606a090     kernel32:KERNEL32.dll
 0002:00000094       __imp__CreateDirectoryA@8  6606a094     kernel32:KERNEL32.dll
 0002:00000098       __imp__HeapFree@12         6606a098     kernel32:KERNEL32.dll
 0002:0000009c       __imp__GetFileAttributesA@4 6606a09c     kernel32:KERNEL32.dll
 0002:000000a0       __imp__CompareStringW@24   6606a0a0     kernel32:KERNEL32.dll
 0002:000000a4       __imp__CompareStringA@24   6606a0a4     kernel32:KERNEL32.dll
 0002:000000a8       __imp__GetProcessHeap@0    6606a0a8     kernel32:KERNEL32.dll
 0002:000000ac       __imp__SetEndOfFile@4      6606a0ac     kernel32:KERNEL32.dll
 0002:000000b0       __imp__GetTimeZoneInformation@4 6606a0b0     kernel32:KERNEL32.dll
 0002:000000b4       __imp__HeapSize@12         6606a0b4     kernel32:KERNEL32.dll
 0002:000000b8       __imp__InitializeCriticalSectionAndSpinCount@8 6606a0b8     kernel32:KERNEL32.dll
 0002:000000bc       __imp__SetStdHandle@8      6606a0bc     kernel32:KERNEL32.dll
 0002:000000c0       __imp__WriteConsoleW@20    6606a0c0     kernel32:KERNEL32.dll
 0002:000000c4       __imp__GetConsoleOutputCP@0 6606a0c4     kernel32:KERNEL32.dll
 0002:000000c8       __imp__WriteConsoleA@20    6606a0c8     kernel32:KERNEL32.dll
 0002:000000cc       __imp__GetLocaleInfoA@16   6606a0cc     kernel32:KERNEL32.dll
 0002:000000d0       __imp__GetStringTypeW@16   6606a0d0     kernel32:KERNEL32.dll
 0002:000000d4       __imp__GetStringTypeA@20   6606a0d4     kernel32:KERNEL32.dll
 0002:000000d8       __imp__GetEnvironmentStringsW@0 6606a0d8     kernel32:KERNEL32.dll
 0002:000000dc       __imp__FreeEnvironmentStringsW@4 6606a0dc     kernel32:KERNEL32.dll
 0002:000000e0       __imp__GetEnvironmentStrings@0 6606a0e0     kernel32:KERNEL32.dll
 0002:000000e4       __imp__FreeEnvironmentStringsA@4 6606a0e4     kernel32:KERNEL32.dll
 0002:000000e8       __imp__GetCurrentDirectoryA@8 6606a0e8     kernel32:KERNEL32.dll
 0002:000000ec       __imp__GlobalLock@4        6606a0ec     kernel32:KERNEL32.dll
 0002:000000f0       __imp__HeapReAlloc@16      6606a0f0     kernel32:KERNEL32.dll
 0002:000000f4       __imp__GetLastError@0      6606a0f4     kernel32:KERNEL32.dll
 0002:000000f8       __imp__EnterCriticalSection@4 6606a0f8     kernel32:KERNEL32.dll
 0002:000000fc       __imp__LeaveCriticalSection@4 6606a0fc     kernel32:KERNEL32.dll
 0002:00000100       __imp__FindClose@4         6606a100     kernel32:KERNEL32.dll
 0002:00000104       __imp__FileTimeToSystemTime@8 6606a104     kernel32:KERNEL32.dll
 0002:00000108       __imp__FileTimeToLocalFileTime@8 6606a108     kernel32:KERNEL32.dll
 0002:0000010c       __imp__GetDriveTypeA@4     6606a10c     kernel32:KERNEL32.dll
 0002:00000110       __imp__FindFirstFileA@8    6606a110     kernel32:KERNEL32.dll
 0002:00000114       __imp__MoveFileA@8         6606a114     kernel32:KERNEL32.dll
 0002:00000118       __imp__GetCurrentThreadId@0 6606a118     kernel32:KERNEL32.dll
 0002:0000011c       __imp__GetCPInfo@8         6606a11c     kernel32:KERNEL32.dll
 0002:00000120       __imp__InterlockedIncrement@4 6606a120     kernel32:KERNEL32.dll
 0002:00000124       __imp__InterlockedDecrement@4 6606a124     kernel32:KERNEL32.dll
 0002:00000128       __imp__GetACP@0            6606a128     kernel32:KERNEL32.dll
 0002:0000012c       __imp__GetOEMCP@0          6606a12c     kernel32:KERNEL32.dll
 0002:00000130       __imp__IsValidCodePage@4   6606a130     kernel32:KERNEL32.dll
 0002:00000134       __imp__GetModuleHandleW@4  6606a134     kernel32:KERNEL32.dll
 0002:00000138       __imp__TlsGetValue@4       6606a138     kernel32:KERNEL32.dll
 0002:0000013c       __imp__TlsAlloc@0          6606a13c     kernel32:KERNEL32.dll
 0002:00000140       __imp__TlsSetValue@8       6606a140     kernel32:KERNEL32.dll
 0002:00000144       __imp__TlsFree@4           6606a144     kernel32:KERNEL32.dll
 0002:00000148       __imp__SetLastError@4      6606a148     kernel32:KERNEL32.dll
 0002:0000014c       __imp__TerminateProcess@8  6606a14c     kernel32:KERNEL32.dll
 0002:00000150       __imp__UnhandledExceptionFilter@4 6606a150     kernel32:KERNEL32.dll
 0002:00000154       __imp__SetUnhandledExceptionFilter@4 6606a154     kernel32:KERNEL32.dll
 0002:00000158       __imp__IsDebuggerPresent@0 6606a158     kernel32:KERNEL32.dll
 0002:0000015c       __imp__GetConsoleCP@0      6606a15c     kernel32:KERNEL32.dll
 0002:00000160       __imp__GetConsoleMode@8    6606a160     kernel32:KERNEL32.dll
 0002:00000164       __imp__FlushFileBuffers@4  6606a164     kernel32:KERNEL32.dll
 0002:00000168       __imp__DeleteCriticalSection@4 6606a168     kernel32:KERNEL32.dll
 0002:0000016c       __imp__SetHandleCount@4    6606a16c     kernel32:KERNEL32.dll
 0002:00000170       __imp__GetStdHandle@4      6606a170     kernel32:KERNEL32.dll
 0002:00000174       __imp__GetFileType@4       6606a174     kernel32:KERNEL32.dll
 0002:00000178       __imp__GetStartupInfoA@4   6606a178     kernel32:KERNEL32.dll
 0002:0000017c       __imp__VirtualFree@12      6606a17c     kernel32:KERNEL32.dll
 0002:00000180       __imp__VirtualAlloc@16     6606a180     kernel32:KERNEL32.dll
 0002:00000184       __imp__LCMapStringW@24     6606a184     kernel32:KERNEL32.dll
 0002:00000188       __imp__ExitProcess@4       6606a188     kernel32:KERNEL32.dll
 0002:0000018c       __imp__RtlUnwind@16        6606a18c     kernel32:KERNEL32.dll
 0002:00000190       __imp__ReadFile@20         6606a190     kernel32:KERNEL32.dll
 0002:00000194       __imp__RaiseException@16   6606a194     kernel32:KERNEL32.dll
 0002:00000198       __imp__GetFullPathNameA@16 6606a198     kernel32:KERNEL32.dll
 0002:0000019c       __imp__SetEnvironmentVariableA@8 6606a19c     kernel32:KERNEL32.dll
 0002:000001a0       \177KERNEL32_NULL_THUNK_DATA 6606a1a0     kernel32:KERNEL32.dll
 0002:000001a4       __imp__GetWindowRect@8     6606a1a4     user32:USER32.dll
 0002:000001a8       __imp__AdjustWindowRectEx@16 6606a1a8     user32:USER32.dll
 0002:000001ac       __imp__SetWindowPos@28     6606a1ac     user32:USER32.dll
 0002:000001b0       __imp__GetClassNameA@12    6606a1b0     user32:USER32.dll
 0002:000001b4       __imp__OpenClipboard@4     6606a1b4     user32:USER32.dll
 0002:000001b8       __imp__EmptyClipboard@0    6606a1b8     user32:USER32.dll
 0002:000001bc       __imp__SetClipboardData@8  6606a1bc     user32:USER32.dll
 0002:000001c0       __imp__CloseClipboard@0    6606a1c0     user32:USER32.dll
 0002:000001c4       __imp__SetCursorPos@8      6606a1c4     user32:USER32.dll
 0002:000001c8       __imp__GetKeyState@4       6606a1c8     user32:USER32.dll
 0002:000001cc       __imp__PostMessageA@16     6606a1cc     user32:USER32.dll
 0002:000001d0       __imp__SetWindowTextA@8    6606a1d0     user32:USER32.dll
 0002:000001d4       __imp__SetForegroundWindow@4 6606a1d4     user32:USER32.dll
 0002:000001d8       __imp__GetWindowLongA@8    6606a1d8     user32:USER32.dll
 0002:000001dc       __imp__SetWindowLongA@12   6606a1dc     user32:USER32.dll
 0002:000001e0       __imp__ShowWindow@8        6606a1e0     user32:USER32.dll
 0002:000001e4       __imp__GetWindowPlacement@8 6606a1e4     user32:USER32.dll
 0002:000001e8       __imp__GetClipCursor@4     6606a1e8     user32:USER32.dll
 0002:000001ec       __imp__GetClientRect@8     6606a1ec     user32:USER32.dll
 0002:000001f0       __imp__ClientToScreen@8    6606a1f0     user32:USER32.dll
 0002:000001f4       __imp__ClipCursor@4        6606a1f4     user32:USER32.dll
 0002:000001f8       __imp__GetDesktopWindow@0  6606a1f8     user32:USER32.dll
 0002:000001fc       __imp__GetWindowInfo@8     6606a1fc     user32:USER32.dll
 0002:00000200       __imp__SendMessageA@16     6606a200     user32:USER32.dll
 0002:00000204       __imp__wvsprintfW@12       6606a204     user32:USER32.dll
 0002:00000208       __imp__wvsprintfA@12       6606a208     user32:USER32.dll
 0002:0000020c       __imp__MessageBoxA@16      6606a20c     user32:USER32.dll
 0002:00000210       __imp__wsprintfW           6606a210     user32:USER32.dll
 0002:00000214       \177USER32_NULL_THUNK_DATA 6606a214     user32:USER32.dll
 0002:00000218       ___xc_a                    6606a218     LIBCMT:crt0init.obj
 0002:0000021c       ___xc_z                    6606a21c     LIBCMT:crt0init.obj
 0002:00000220       ___xi_a                    6606a220     LIBCMT:crt0init.obj
 0002:00000238       ___xi_z                    6606a238     LIBCMT:crt0init.obj
 0002:0000023c       ___xp_a                    6606a23c     LIBCMT:crt0init.obj
 0002:00000248       ___xp_z                    6606a248     LIBCMT:crt0init.obj
 0002:0000024c       ___xt_a                    6606a24c     LIBCMT:crt0init.obj
 0002:00000250       ___xt_z                    6606a250     LIBCMT:crt0init.obj
 0002:00000f18       __real@408f400000000000    6606af18     config.obj
 0002:00001168       __real@4014000000000000    6606b168     guess.obj
 0002:00001170       __real@4052c00000000000    6606b170     guess.obj
 0002:00001178       __real@4039000000000000    6606b178     guess.obj
 0002:00001180       __real@3fe0000000000000    6606b180     guess.obj
 0002:00001188       __real@4008000000000000    6606b188     guess.obj
 0002:00001190       __real@4040000000000000    6606b190     guess.obj
 0002:00001198       __real@4059000000000000    6606b198     guess.obj
 0002:000011a0       __real@4010000000000000    6606b1a0     guess.obj
 0002:00008cc8       __real@4022000000000000    66072cc8     common.obj
 0002:00008cd0       __real@4070000000000000    66072cd0     common.obj
 0002:00008cd8       __real@3fd999999999999a    66072cd8     common.obj
 0002:0000c2d8       __real@4024000000000000    660762d8     GameMonitor.obj
 0002:0000d420       __real@3ff8000000000000    66077420     item.obj
 0002:0000dd10       __real@4028000000000000    66077d10     dangerous.obj
 0002:0000dd18       __real@4020000000000000    66077d18     dangerous.obj
 0002:000111dc       __real@41200000            6607b1dc     skill.obj
 0002:000111e0       __real@41e80000            6607b1e0     skill.obj
 0002:000111e4       __real@41d00000            6607b1e4     skill.obj
 0002:000111e8       __real@41c00000            6607b1e8     skill.obj
 0002:000111ec       __real@41f00000            6607b1ec     skill.obj
 0002:000111f0       __real@41f80000            6607b1f0     skill.obj
 0002:000111f4       __real@41000000            6607b1f4     skill.obj
 0002:000111f8       __real@41a00000            6607b1f8     skill.obj
 0002:000111fc       __real@41980000            6607b1fc     skill.obj
 0002:00011200       __real@40a00000            6607b200     skill.obj
 0002:00011208       __real@0000000000000000    6607b208     skill.obj
 0002:00011210       __real@42040000            6607b210     skill.obj
 0002:00012880       __real@40c3880000000000    6607c880     Snapshot.obj
 0002:00012888       __real@40a0000000000000    6607c888     Snapshot.obj
 0002:00012be8       __real@401c000000000000    6607cbe8     teleport.obj
 0002:00012bf0       __real@412e848000000000    6607cbf0     teleport.obj
 0002:000140e0       __real@40f0000000000000    6607e0e0     uber.obj
 0002:000140e8       __real@401921fb3fa6defc    6607e0e8     uber.obj
 0002:00014110       __FPinit                   6607e110     LIBCMT:_fpinit_.obj
 0002:00014114       __FPmtinit                 6607e114     LIBCMT:_fpinit_.obj
 0002:00014118       __FPmtterm                 6607e118     LIBCMT:_fpinit_.obj
 0002:0001411c       ??_C@_0P@GHFPNOJB@bad?5allocation?$AA@ 6607e11c     LIBCMT:new.obj
 0002:00014130       ??_7bad_alloc@std@@6B@     6607e130     LIBCMT:new.obj
 0002:00014138       ??_C@_03LLEJOLGL@?4?1?2?$AA@ 6607e138     LIBCMT:stati32.obj
 0002:0001413c       ??_C@_02EAOCEIGI@?$DP?$CK?$AA@ 6607e13c     LIBCMT:stati32.obj
 0002:00014140       __pDefaultRawDllMain       6607e140     LIBCMT:dllcrt0.obj
 0002:00014140       __pRawDllMain              6607e140     LIBCMT:dllcrt0.obj
 0002:000141c8       ??_C@_01NEMOKFLO@?$DN?$AA@ 6607e1c8     LIBCMT:setlocal.obj
 0002:000141ca       ??_C@_00CNPNBAHC@?$AA@     6607e1ca     LIBCMT:setlocal.obj
 0002:000141cc       ??_C@_0O@NLDKAIKN@EncodePointer?$AA@ 6607e1cc     LIBCMT:tidtable.obj
 0002:000141dc       ??_C@_1BK@DBDEIDLH@?$AAK?$AAE?$AAR?$AAN?$AAE?$AAL?$AA3?$AA2?$AA?4?$AAD?$AAL?$AAL?$AA?$AA@ 6607e1dc     LIBCMT:tidtable.obj
 0002:000141f8       ??_C@_0O@KBPMFGHI@DecodePointer?$AA@ 6607e1f8     LIBCMT:tidtable.obj
 0002:00014208       ??_C@_07PEJMOBNF@FlsFree?$AA@ 6607e208     LIBCMT:tidtable.obj
 0002:00014210       ??_C@_0M@JCPCPOEF@FlsSetValue?$AA@ 6607e210     LIBCMT:tidtable.obj
 0002:0001421c       ??_C@_0M@GDNOONDI@FlsGetValue?$AA@ 6607e21c     LIBCMT:tidtable.obj
 0002:00014228       ??_C@_08KNHFBNJ@FlsAlloc?$AA@ 6607e228     LIBCMT:tidtable.obj
 0002:00014234       ??_C@_1O@CEDCILHN@?$AA?$CI?$AAn?$AAu?$AAl?$AAl?$AA?$CJ?$AA?$AA@ 6607e234     LIBCMT:output.obj
 0002:00014244       ??_C@_06OJHGLDPL@?$CInull?$CJ?$AA@ 6607e244     LIBCMT:output.obj
 0002:00014250       ___lookuptable             6607e250     LIBCMT:output.obj
 0002:000142b4       ??_C@_13NOLLCAOD@?$AA?$AA?$AA?$AA@ 6607e2b4     LIBCMT:a_map.obj
 0002:000142b8       ??_C@_0P@MIGLKIOC@CorExitProcess?$AA@ 6607e2b8     LIBCMT:crt0dat.obj
 0002:000142c8       ??_C@_1BI@BGOHAHKC@?$AAm?$AAs?$AAc?$AAo?$AAr?$AAe?$AAe?$AA?4?$AAd?$AAl?$AAl?$AA?$AA@ 6607e2c8     LIBCMT:crt0dat.obj
 0002:000142e0       ??_C@_05KLBDPFGC@e?$CL000?$AA@ 6607e2e0     LIBCMT:cvt.obj
 0002:000142e8       __real@4150017ec0000000    6607e2e8     LIBCMT:_testfdiv_.obj
 0002:000142f0       __real@4147ffff80000000    6607e2f0     LIBCMT:_testfdiv_.obj
 0002:000142f8       ??_C@_0BK@NHEOCAHP@IsProcessorFeaturePresent?$AA@ 6607e2f8     LIBCMT:_testfdiv_.obj
 0002:00014314       ??_C@_08CPNIBGIE@KERNEL32?$AA@ 6607e314     LIBCMT:_testfdiv_.obj
 0002:00014320       ??_C@_0P@GGKDKEEG@runtime?5error?5?$AA@ 6607e320     LIBCMT:crt0msg.obj
 0002:00014330       ??_C@_02PCIJFNDE@?$AN?6?$AA@ 6607e330     LIBCMT:crt0msg.obj
 0002:00014334       ??_C@_0O@MJNIPGOH@TLOSS?5error?$AN?6?$AA@ 6607e334     LIBCMT:crt0msg.obj
 0002:00014344       ??_C@_0N@BONNPDHF@SING?5error?$AN?6?$AA@ 6607e344     LIBCMT:crt0msg.obj
 0002:00014354       ??_C@_0P@MBDAJNE@DOMAIN?5error?$AN?6?$AA@ 6607e354     LIBCMT:crt0msg.obj
 0002:00014368       ??_C@_0JL@DFDOOABL@R6034?$AN?6An?5application?5has?5made?5a@ 6607e368     LIBCMT:crt0msg.obj
 0002:00014408       ??_C@_0PH@EPAFIJ@R6033?$AN?6?9?5Attempt?5to?5use?5MSIL?5cod@ 6607e408     LIBCMT:crt0msg.obj
 0002:00014500       ??_C@_0DD@BKEEABMM@R6032?$AN?6?9?5not?5enough?5space?5for?5lo@ 6607e500     LIBCMT:crt0msg.obj
 0002:00014538       ??_C@_0GD@OFKILIED@R6031?$AN?6?9?5Attempt?5to?5initialize?5t@ 6607e538     LIBCMT:crt0msg.obj
 0002:0001459c       ??_C@_0BP@LPMHJOKI@R6030?$AN?6?9?5CRT?5not?5initialized?$AN?6?$AA@ 6607e59c     LIBCMT:crt0msg.obj
 0002:000145bc       ??_C@_0CF@KJDAIALP@R6028?$AN?6?9?5unable?5to?5initialize?5he@ 6607e5bc     LIBCMT:crt0msg.obj
 0002:000145e4       ??_C@_0DF@GAKBPDFP@R6027?$AN?6?9?5not?5enough?5space?5for?5lo@ 6607e5e4     LIBCMT:crt0msg.obj
 0002:0001461c       ??_C@_0DF@IBLNNAIG@R6026?$AN?6?9?5not?5enough?5space?5for?5st@ 6607e61c     LIBCMT:crt0msg.obj
 0002:00014654       ??_C@_0CG@IOHKGFNJ@R6025?$AN?6?9?5pure?5virtual?5function?5c@ 6607e654     LIBCMT:crt0msg.obj
 0002:0001467c       ??_C@_0DF@JIJJFJDC@R6024?$AN?6?9?5not?5enough?5space?5for?5_o@ 6607e67c     LIBCMT:crt0msg.obj
 0002:000146b4       ??_C@_0CJ@EGEJHFME@R6019?$AN?6?9?5unable?5to?5open?5console?5@ 6607e6b4     LIBCMT:crt0msg.obj
 0002:000146e0       ??_C@_0CB@GNHNIELH@R6018?$AN?6?9?5unexpected?5heap?5error?$AN?6@ 6607e6e0     LIBCMT:crt0msg.obj
 0002:00014704       ??_C@_0CN@FOLDKNG@R6017?$AN?6?9?5unexpected?5multithread?5@ 6607e704     LIBCMT:crt0msg.obj
 0002:00014734       ??_C@_0CM@FAHFJNHO@R6016?$AN?6?9?5not?5enough?5space?5for?5th@ 6607e734     LIBCMT:crt0msg.obj
 0002:00014760       ??_C@_0JG@LBKMGKLD@?$AN?6This?5application?5has?5requested@ 6607e760     LIBCMT:crt0msg.obj
 0002:000147f8       ??_C@_0CM@FLCNIPKK@R6009?$AN?6?9?5not?5enough?5space?5for?5en@ 6607e7f8     LIBCMT:crt0msg.obj
 0002:00014824       ??_C@_0CK@KMMJOAPP@R6008?$AN?6?9?5not?5enough?5space?5for?5ar@ 6607e824     LIBCMT:crt0msg.obj
 0002:00014850       ??_C@_0CN@LEKKICBM@R6002?$AN?6?9?5floating?5point?5support?5@ 6607e850     LIBCMT:crt0msg.obj
 0002:00014880       ??_C@_0CF@GOGNBNAK@Microsoft?5Visual?5C?$CL?$CL?5Runtime?5Lib@ 6607e880     LIBCMT:crt0msg.obj
 0002:000148a8       ??_C@_02PHMGELLB@?6?6?$AA@ 6607e8a8     LIBCMT:crt0msg.obj
 0002:000148ac       ??_C@_03KHICJKCI@?4?4?4?$AA@ 6607e8ac     LIBCMT:crt0msg.obj
 0002:000148b0       ??_C@_0BH@DNAGHKFM@?$DMprogram?5name?5unknown?$DO?$AA@ 6607e8b0     LIBCMT:crt0msg.obj
 0002:000148c8       ??_C@_0BK@OFGJDLJJ@Runtime?5Error?$CB?6?6Program?3?5?$AA@ 6607e8c8     LIBCMT:crt0msg.obj
 0002:000148e8       ??_7exception@std@@6B@     6607e8e8     LIBCMT:stdexcpt.obj
 0002:000148f0       ??_C@_0BC@EOODALEL@Unknown?5exception?$AA@ 6607e8f0     LIBCMT:stdexcpt.obj
 0002:00014908       ??_7type_info@@6B@         6607e908     LIBCMT:typinfo.obj
 0002:0001492c       ??_C@_04PNGHFIJN@?4com?$AA@ 6607e92c     LIBCMT:stat.obj
 0002:00014934       ??_C@_04NEEFLLOK@?4bat?$AA@ 6607e934     LIBCMT:stat.obj
 0002:0001493c       ??_C@_04CPCBDHLK@?4cmd?$AA@ 6607e93c     LIBCMT:stat.obj
 0002:00014944       ??_C@_04JLMDILM@?4exe?$AA@ 6607e944     LIBCMT:stat.obj
 0002:00014978       __DEFAULT_CW_in_mem        6607e978     LIBCMT:_common_.obj
 0002:0001497a       __pi_by_2_to_61            6607e97a     LIBCMT:_common_.obj
 0002:00015b10       __XcptActTab               6607fb10     LIBCMT:winxfltr.obj
 0002:00015b88       ___newctype                6607fb88     LIBCMT:ctype.obj
 0002:00015e88       __wctype                   6607fe88     LIBCMT:ctype.obj
 0002:00016090       ___newclmap                66080090     LIBCMT:ctype.obj
 0002:00016210       ___newcumap                66080210     LIBCMT:ctype.obj
 0002:00016390       ??_C@_08JCCMCCIL@HH?3mm?3ss?$AA@ 66080390     LIBCMT:strftime.obj
 0002:0001639c       ??_C@_0BE@CKGJFCPC@dddd?0?5MMMM?5dd?0?5yyyy?$AA@ 6608039c     LIBCMT:strftime.obj
 0002:000163b0       ??_C@_08BPBNCDIB@MM?1dd?1yy?$AA@ 660803b0     LIBCMT:strftime.obj
 0002:000163bc       ??_C@_02CJNFDJBF@PM?$AA@   660803bc     LIBCMT:strftime.obj
 0002:000163c0       ??_C@_02DEDBPAFC@AM?$AA@   660803c0     LIBCMT:strftime.obj
 0002:000163c4       ??_C@_08EDHMEBNP@December?$AA@ 660803c4     LIBCMT:strftime.obj
 0002:000163d0       ??_C@_08HCHEGEOA@November?$AA@ 660803d0     LIBCMT:strftime.obj
 0002:000163dc       ??_C@_07JJNFCEND@October?$AA@ 660803dc     LIBCMT:strftime.obj
 0002:000163e4       ??_C@_09BHHEALKD@September?$AA@ 660803e4     LIBCMT:strftime.obj
 0002:000163f0       ??_C@_06LBBHFDDG@August?$AA@ 660803f0     LIBCMT:strftime.obj
 0002:000163f8       ??_C@_04MIEPOIFP@July?$AA@ 660803f8     LIBCMT:strftime.obj
 0002:00016400       ??_C@_04CNLMGBGM@June?$AA@ 66080400     LIBCMT:strftime.obj
 0002:00016408       ??_C@_05DMJDNLEJ@April?$AA@ 66080408     LIBCMT:strftime.obj
 0002:00016410       ??_C@_05HPCKOFNC@March?$AA@ 66080410     LIBCMT:strftime.obj
 0002:00016418       ??_C@_08GNJGEPFN@February?$AA@ 66080418     LIBCMT:strftime.obj
 0002:00016424       ??_C@_07CGJPFGJA@January?$AA@ 66080424     LIBCMT:strftime.obj
 0002:0001642c       ??_C@_03MKABNOCG@Dec?$AA@  6608042c     LIBCMT:strftime.obj
 0002:00016430       ??_C@_03JPJOFNIA@Nov?$AA@  66080430     LIBCMT:strftime.obj
 0002:00016434       ??_C@_03BMAOKBAD@Oct?$AA@  66080434     LIBCMT:strftime.obj
 0002:00016438       ??_C@_03GGCAPAJC@Sep?$AA@  66080438     LIBCMT:strftime.obj
 0002:0001643c       ??_C@_03IFJFEIGA@Aug?$AA@  6608043c     LIBCMT:strftime.obj
 0002:00016440       ??_C@_03LBGABGKK@Jul?$AA@  66080440     LIBCMT:strftime.obj
 0002:00016444       ??_C@_03IDFGHECI@Jun?$AA@  66080444     LIBCMT:strftime.obj
 0002:00016448       ??_C@_03CNMDKL@May?$AA@    66080448     LIBCMT:strftime.obj
 0002:0001644c       ??_C@_03LEOLGMJP@Apr?$AA@  6608044c     LIBCMT:strftime.obj
 0002:00016450       ??_C@_03ODNJBKGA@Mar?$AA@  66080450     LIBCMT:strftime.obj
 0002:00016454       ??_C@_03HJBDCHOM@Feb?$AA@  66080454     LIBCMT:strftime.obj
 0002:00016458       ??_C@_03JIHJHPIE@Jan?$AA@  66080458     LIBCMT:strftime.obj
 0002:0001645c       ??_C@_08INBOOONO@Saturday?$AA@ 6608045c     LIBCMT:strftime.obj
 0002:00016468       ??_C@_06JECMNKMI@Friday?$AA@ 66080468     LIBCMT:strftime.obj
 0002:00016470       ??_C@_08HACCIKIA@Thursday?$AA@ 66080470     LIBCMT:strftime.obj
 0002:0001647c       ??_C@_09DLIGFAKA@Wednesday?$AA@ 6608047c     LIBCMT:strftime.obj
 0002:00016488       ??_C@_07BAAGCFCM@Tuesday?$AA@ 66080488     LIBCMT:strftime.obj
 0002:00016490       ??_C@_06JLEDEDGH@Monday?$AA@ 66080490     LIBCMT:strftime.obj
 0002:00016498       ??_C@_06OOPIFAJ@Sunday?$AA@ 66080498     LIBCMT:strftime.obj
 0002:000164a0       ??_C@_03FEFJNEK@Sat?$AA@   660804a0     LIBCMT:strftime.obj
 0002:000164a4       ??_C@_03IDIOELNC@Fri?$AA@  660804a4     LIBCMT:strftime.obj
 0002:000164a8       ??_C@_03IOFIKPDN@Thu?$AA@  660804a8     LIBCMT:strftime.obj
 0002:000164ac       ??_C@_03MHOMLAJA@Wed?$AA@  660804ac     LIBCMT:strftime.obj
 0002:000164b0       ??_C@_03NAGEINEP@Tue?$AA@  660804b0     LIBCMT:strftime.obj
 0002:000164b4       ??_C@_03PDAGKDH@Mon?$AA@   660804b4     LIBCMT:strftime.obj
 0002:000164b8       ??_C@_03KOEHGMDN@Sun?$AA@  660804b8     LIBCMT:strftime.obj
 0002:000164c0       ___lookuptable_s           660804c0     LIBCMT:outputs.obj
 0002:0001651c       ??_C@_0BI@DFKBFLJE@GetProcessWindowStation?$AA@ 6608051c     LIBCMT:crtmbox.obj
 0002:00016534       ??_C@_0BK@CIDNPOGP@GetUserObjectInformationA?$AA@ 66080534     LIBCMT:crtmbox.obj
 0002:00016550       ??_C@_0BD@HHGDFDBJ@GetLastActivePopup?$AA@ 66080550     LIBCMT:crtmbox.obj
 0002:00016564       ??_C@_0BA@HNOPNCHB@GetActiveWindow?$AA@ 66080564     LIBCMT:crtmbox.obj
 0002:00016574       ??_C@_0M@CHKKJDAI@MessageBoxA?$AA@ 66080574     LIBCMT:crtmbox.obj
 0002:00016580       ??_C@_0L@NDEGIDAG@USER32?4DLL?$AA@ 66080580     LIBCMT:crtmbox.obj
 0002:0001658c       ??_C@_02CLFPBFFP@TZ?$AA@   6608058c     LIBCMT:tzset.obj
 0002:00016590       ___dnames                  66080590     LIBCMT:timeset.obj
 0002:000165a8       ___mnames                  660805a8     LIBCMT:timeset.obj
 0002:000165d0       ??_C@_07GPDNMNG@CONOUT$?$AA@ 660805d0     LIBCMT:initcon.obj
 0002:000165d8       ??_C@_06IMKFLFPG@1?$CDQNAN?$AA@ 660805d8     LIBCMT:_x10fout_.obj
 0002:000165e0       ??_C@_05DNEBIAHO@1?$CDINF?$AA@ 660805e0     LIBCMT:_x10fout_.obj
 0002:000165e8       ??_C@_05PHHOCPM@1?$CDIND?$AA@ 660805e8     LIBCMT:_x10fout_.obj
 0002:000165f0       ??_C@_06PGGFOGJG@1?$CDSNAN?$AA@ 660805f0     LIBCMT:_x10fout_.obj
 0002:000165f8       ??_C@_0BK@CFCOFLF@?5Complete?5Object?5Locator?8?$AA@ 660805f8     LIBCMT:undname.obj
 0002:00016614       ??_C@_0BN@MECKDCOJ@?5Class?5Hierarchy?5Descriptor?8?$AA@ 66080614     LIBCMT:undname.obj
 0002:00016634       ??_C@_0BD@LGICGFMM@?5Base?5Class?5Array?8?$AA@ 66080634     LIBCMT:undname.obj
 0002:00016648       ??_C@_0BM@LDKODKLH@?5Base?5Class?5Descriptor?5at?5?$CI?$AA@ 66080648     LIBCMT:undname.obj
 0002:00016664       ??_C@_0BC@DAFEJGAK@?5Type?5Descriptor?8?$AA@ 66080664     LIBCMT:undname.obj
 0002:00016678       ??_C@_0BM@PMGGMLDN@?$GAlocal?5static?5thread?5guard?8?$AA@ 66080678     LIBCMT:undname.obj
 0002:00016694       ??_C@_0CL@FGIJHLCE@?$GAmanaged?5vector?5copy?5constructor@ 66080694     LIBCMT:undname.obj
 0002:000166c0       ??_C@_0CJ@GJELGAMM@?$GAvector?5vbase?5copy?5constructor?5i@ 660806c0     LIBCMT:undname.obj
 0002:000166ec       ??_C@_0CD@CGAJBKEJ@?$GAvector?5copy?5constructor?5iterato@ 660806ec     LIBCMT:undname.obj
 0002:00016710       ??_C@_0CB@PDBIFEP@?$GAdynamic?5atexit?5destructor?5for?5?8@ 66080710     LIBCMT:undname.obj
 0002:00016734       ??_C@_0BL@CLIPGLGB@?$GAdynamic?5initializer?5for?5?8?$AA@ 66080734     LIBCMT:undname.obj
 0002:00016750       ??_C@_0CM@FCBBDIGB@?$GAeh?5vector?5vbase?5copy?5constructo@ 66080750     LIBCMT:undname.obj
 0002:0001677c       ??_C@_0CG@HLDDJMAG@?$GAeh?5vector?5copy?5constructor?5iter@ 6608077c     LIBCMT:undname.obj
 0002:000167a4       ??_C@_0CF@IMGKMJNO@?$GAmanaged?5vector?5destructor?5itera@ 660807a4     LIBCMT:undname.obj
 0002:000167cc       ??_C@_0CG@CFDHKGGD@?$GAmanaged?5vector?5constructor?5iter@ 660807cc     LIBCMT:undname.obj
 0002:000167f4       ??_C@_0BN@CKNJLHMB@?$GAplacement?5delete?$FL?$FN?5closure?8?$AA@ 660807f4     LIBCMT:undname.obj
 0002:00016814       ??_C@_0BL@CNOONJFP@?$GAplacement?5delete?5closure?8?$AA@ 66080814     LIBCMT:undname.obj
 0002:00016830       ??_C@_0P@HJKNJFNN@?$GAomni?5callsig?8?$AA@ 66080830     LIBCMT:undname.obj
 0002:00016840       ??_C@_09LBNFPBCA@?5delete?$FL?$FN?$AA@ 66080840     LIBCMT:undname.obj
 0002:0001684c       ??_C@_06FHBGPFGH@?5new?$FL?$FN?$AA@ 6608084c     LIBCMT:undname.obj
 0002:00016854       ??_C@_0CE@IIHCMGGL@?$GAlocal?5vftable?5constructor?5closu@ 66080854     LIBCMT:undname.obj
 0002:00016878       ??_C@_0BA@KKLDJDLB@?$GAlocal?5vftable?8?$AA@ 66080878     LIBCMT:undname.obj
 0002:00016888       ??_C@_05KHLCHHI@?$GARTTI?$AA@ 66080888     LIBCMT:undname.obj
 0002:00016890       ??_C@_03KLGMFNMG@?$GAEH?$AA@ 66080890     LIBCMT:undname.obj
 0002:00016894       ??_C@_0BA@KBCDOMBN@?$GAudt?5returning?8?$AA@ 66080894     LIBCMT:undname.obj
 0002:000168a4       ??_C@_0BL@LLKPOHJI@?$GAcopy?5constructor?5closure?8?$AA@ 660808a4     LIBCMT:undname.obj
 0002:000168c0       ??_C@_0CH@OOJPLCPH@?$GAeh?5vector?5vbase?5constructor?5ite@ 660808c0     LIBCMT:undname.obj
 0002:000168e8       ??_C@_0CA@GCEOPDGL@?$GAeh?5vector?5destructor?5iterator?8?$AA@ 660808e8     LIBCMT:undname.obj
 0002:00016908       ??_C@_0CB@JONCMFFK@?$GAeh?5vector?5constructor?5iterator?8@ 66080908     LIBCMT:undname.obj
 0002:0001692c       ??_C@_0BL@NILFHHPC@?$GAvirtual?5displacement?5map?8?$AA@ 6608092c     LIBCMT:undname.obj
 0002:00016948       ??_C@_0CE@IKBNEHA@?$GAvector?5vbase?5constructor?5iterat@ 66080948     LIBCMT:undname.obj
 0002:0001696c       ??_C@_0BN@LFPFMEDL@?$GAvector?5destructor?5iterator?8?$AA@ 6608096c     LIBCMT:undname.obj
 0002:0001698c       ??_C@_0BO@PFGOCPJJ@?$GAvector?5constructor?5iterator?8?$AA@ 6608098c     LIBCMT:undname.obj
 0002:000169ac       ??_C@_0BN@IMDCHIKM@?$GAscalar?5deleting?5destructor?8?$AA@ 660809ac     LIBCMT:undname.obj
 0002:000169cc       ??_C@_0BO@OBMKPJIG@?$GAdefault?5constructor?5closure?8?$AA@ 660809cc     LIBCMT:undname.obj
 0002:000169ec       ??_C@_0BN@DEGPLNFK@?$GAvector?5deleting?5destructor?8?$AA@ 660809ec     LIBCMT:undname.obj
 0002:00016a0c       ??_C@_0BD@JDLKDPAB@?$GAvbase?5destructor?8?$AA@ 66080a0c     LIBCMT:undname.obj
 0002:00016a20       ??_C@_08OBABFOLI@?$GAstring?8?$AA@ 66080a20     LIBCMT:undname.obj
 0002:00016a2c       ??_C@_0BF@KDPPACIK@?$GAlocal?5static?5guard?8?$AA@ 66080a2c     LIBCMT:undname.obj
 0002:00016a44       ??_C@_08LLFFHHDJ@?$GAtypeof?8?$AA@ 66080a44     LIBCMT:undname.obj
 0002:00016a50       ??_C@_07FEEIOKP@?$GAvcall?8?$AA@ 66080a50     LIBCMT:undname.obj
 0002:00016a58       ??_C@_09BLBHBJP@?$GAvbtable?8?$AA@ 66080a58     LIBCMT:undname.obj
 0002:00016a64       ??_C@_09IFPLHPGF@?$GAvftable?8?$AA@ 66080a64     LIBCMT:undname.obj
 0002:00016a70       ??_C@_02MHEGNOJ@?$FO?$DN?$AA@ 66080a70     LIBCMT:undname.obj
 0002:00016a74       ??_C@_02DHLNPPGH@?$HM?$DN?$AA@ 66080a74     LIBCMT:undname.obj
 0002:00016a78       ??_C@_02FGJGFEAB@?$CG?$DN?$AA@ 66080a78     LIBCMT:undname.obj
 0002:00016a7c       ??_C@_03CDNPDDLA@?$DM?$DM?$DN?$AA@ 66080a7c     LIBCMT:undname.obj
 0002:00016a80       ??_C@_03IKFCCPFF@?$DO?$DO?$DN?$AA@ 66080a80     LIBCMT:undname.obj
 0002:00016a84       ??_C@_02FENAOKFI@?$CF?$DN?$AA@ 66080a84     LIBCMT:undname.obj
 0002:00016a88       ??_C@_02FJEHGPIO@?1?$DN?$AA@ 66080a88     LIBCMT:undname.obj
 0002:00016a8c       ??_C@_02FKMDLLOA@?9?$DN?$AA@ 66080a8c     LIBCMT:undname.obj
 0002:00016a90       ??_C@_02FOEOMHFC@?$CL?$DN?$AA@ 66080a90     LIBCMT:undname.obj
 0002:00016a94       ??_C@_02FPIMKNGF@?$CK?$DN?$AA@ 66080a94     LIBCMT:undname.obj
 0002:00016a98       ??_C@_02NONPIBCD@?$HM?$HM?$AA@ 66080a98     LIBCMT:undname.obj
 0002:00016a9c       ??_C@_02PPKAJPJL@?$CG?$CG?$AA@ 66080a9c     LIBCMT:undname.obj
 0002:00016aa0       ??_C@_01DNKMNLPK@?$HM?$AA@ 66080aa0     LIBCMT:undname.obj
 0002:00016aa4       ??_C@_01JKBOJNNK@?$FO?$AA@ 66080aa4     LIBCMT:undname.obj
 0002:00016aa8       ??_C@_01PJKLJHI@?$HO?$AA@  66080aa8     LIBCMT:undname.obj
 0002:00016aac       ??_C@_02HCKGKOFO@?$CI?$CJ?$AA@ 66080aac     LIBCMT:undname.obj
 0002:00016ab0       ??_C@_01IHBHIGKO@?0?$AA@   66080ab0     LIBCMT:undname.obj
 0002:00016ab4       ??_C@_02EEKDKGMJ@?$DO?$DN?$AA@ 66080ab4     LIBCMT:undname.obj
 0002:00016ab8       ??_C@_01PPODPGHN@?$DO?$AA@ 66080ab8     LIBCMT:undname.obj
 0002:00016abc       ??_C@_02EHCHHCKH@?$DM?$DN?$AA@ 66080abc     LIBCMT:undname.obj
 0002:00016ac0       ??_C@_01MNNFJEPP@?$DM?$AA@ 66080ac0     LIBCMT:undname.obj
 0002:00016ac4       ??_C@_01FGNFDNOH@?$CF?$AA@ 66080ac4     LIBCMT:undname.obj
 0002:00016ac8       ??_C@_01KMDKNFGN@?1?$AA@   66080ac8     LIBCMT:undname.obj
 0002:00016acc       ??_C@_03MNHNFDLC@?9?$DO?$CK?$AA@ 66080acc     LIBCMT:undname.obj
 0002:00016ad0       ??_C@_01HNPIGOCE@?$CG?$AA@ 66080ad0     LIBCMT:undname.obj
 0002:00016ad4       ??_C@_01MIFGBAGJ@?$CL?$AA@ 66080ad4     LIBCMT:undname.obj
 0002:00016ad8       ??_C@_01JOAMLHOP@?9?$AA@   66080ad8     LIBCMT:undname.obj
 0002:00016adc       ??_C@_02BAABKJLB@?9?9?$AA@ 66080adc     LIBCMT:undname.obj
 0002:00016ae0       ??_C@_02ECNGHCIF@?$CL?$CL?$AA@ 66080ae0     LIBCMT:undname.obj
 0002:00016ae4       ??_C@_01NBENCBCI@?$CK?$AA@ 66080ae4     LIBCMT:undname.obj
 0002:00016ae8       ??_C@_02HBOOOICD@?9?$DO?$AA@ 66080ae8     LIBCMT:undname.obj
 0002:00016aec       ??_C@_08LHJFAFGD@operator?$AA@ 66080aec     LIBCMT:undname.obj
 0002:00016af8       ??_C@_02GPECMEKF@?$FL?$FN?$AA@ 66080af8     LIBCMT:undname.obj
 0002:00016afc       ??_C@_02FDNJECIE@?$CB?$DN?$AA@ 66080afc     LIBCMT:undname.obj
 0002:00016b00       ??_C@_02EGOFBIJA@?$DN?$DN?$AA@ 66080b00     LIBCMT:undname.obj
 0002:00016b04       ??_C@_01DCLJPIOD@?$CB?$AA@ 66080b04     LIBCMT:undname.obj
 0002:00016b08       ??_C@_02FODMEDOG@?$DM?$DM?$AA@ 66080b08     LIBCMT:undname.obj
 0002:00016b0c       ??_C@_02GPIOPFAK@?$DO?$DO?$AA@ 66080b0c     LIBCMT:undname.obj
 0002:00016b10       ??_C@_07FPCDHGMM@?5delete?$AA@ 66080b10     LIBCMT:undname.obj
 0002:00016b18       ??_C@_04NIHEBCM@?5new?$AA@ 66080b18     LIBCMT:undname.obj
 0002:00016b20       ??_C@_0M@GFIIJFMG@__unaligned?$AA@ 66080b20     LIBCMT:undname.obj
 0002:00016b2c       ??_C@_0L@PILCLIHE@__restrict?$AA@ 66080b2c     LIBCMT:undname.obj
 0002:00016b38       ??_C@_07JOMMBBKO@__ptr64?$AA@ 66080b38     LIBCMT:undname.obj
 0002:00016b40       ??_C@_09HIJEGCPM@__clrcall?$AA@ 66080b40     LIBCMT:undname.obj
 0002:00016b4c       ??_C@_0L@JMKHOMEK@__fastcall?$AA@ 66080b4c     LIBCMT:undname.obj
 0002:00016b58       ??_C@_0L@NPHFGOKO@__thiscall?$AA@ 66080b58     LIBCMT:undname.obj
 0002:00016b64       ??_C@_09IFJBGAPI@__stdcall?$AA@ 66080b64     LIBCMT:undname.obj
 0002:00016b70       ??_C@_08GHMPAG@__pascal?$AA@ 66080b70     LIBCMT:undname.obj
 0002:00016b7c       ??_C@_07KOLFKCDI@__cdecl?$AA@ 66080b7c     LIBCMT:undname.obj
 0002:00016b84       ??_C@_08EHJDFFNH@__based?$CI?$AA@ 66080b84     LIBCMT:undname.obj
 0002:00016d10       ??_C@_0L@KDOEJCKC@_nextafter?$AA@ 66080d10     LIBCMT:_fpexcept_.obj
 0002:00016d1c       ??_C@_05JGDBENOH@_logb?$AA@ 66080d1c     LIBCMT:_fpexcept_.obj
 0002:00016d24       ??_C@_03ONILCKOB@_yn?$AA@  66080d24     LIBCMT:_fpexcept_.obj
 0002:00016d28       ??_C@_03NAKIGLHK@_y1?$AA@  66080d28     LIBCMT:_fpexcept_.obj
 0002:00016d2c       ??_C@_03MJLDFKDL@_y0?$AA@  66080d2c     LIBCMT:_fpexcept_.obj
 0002:00016d30       ??_C@_05GKKHEGJL@frexp?$AA@ 66080d30     LIBCMT:_fpexcept_.obj
 0002:00016d38       ??_C@_04KEPJIHGP@fmod?$AA@ 66080d38     LIBCMT:_fpexcept_.obj
 0002:00016d40       ??_C@_06MEIMCGCF@_hypot?$AA@ 66080d40     LIBCMT:_fpexcept_.obj
 0002:00016d48       ??_C@_05KBKMEMPO@_cabs?$AA@ 66080d48     LIBCMT:_fpexcept_.obj
 0002:00016d50       ??_C@_05CEJMAHNP@ldexp?$AA@ 66080d50     LIBCMT:_fpexcept_.obj
 0002:00016d58       ??_C@_04EHEDPDJG@modf?$AA@ 66080d58     LIBCMT:_fpexcept_.obj
 0002:00016d60       ??_C@_04ODHECPBC@fabs?$AA@ 66080d60     LIBCMT:_fpexcept_.obj
 0002:00016d68       ??_C@_05PBJFFIGL@floor?$AA@ 66080d68     LIBCMT:_fpexcept_.obj
 0002:00016d70       ??_C@_04GFPJNGEK@ceil?$AA@ 66080d70     LIBCMT:_fpexcept_.obj
 0002:00016d78       ??_C@_03IIINPABG@tan?$AA@  66080d78     LIBCMT:_fpexcept_.obj
 0002:00016d7c       ??_C@_03LALBNOCG@cos?$AA@  66080d7c     LIBCMT:_fpexcept_.obj
 0002:00016d80       ??_C@_03BLEJJJBH@sin?$AA@  66080d80     LIBCMT:_fpexcept_.obj
 0002:00016d84       ??_C@_04EIAKFFMI@sqrt?$AA@ 66080d84     LIBCMT:_fpexcept_.obj
 0002:00016d8c       ??_C@_05KNGEOGJB@atan2?$AA@ 66080d8c     LIBCMT:_fpexcept_.obj
 0002:00016d94       ??_C@_04MLLJIGOK@atan?$AA@ 66080d94     LIBCMT:_fpexcept_.obj
 0002:00016d9c       ??_C@_04PDIFKINK@acos?$AA@ 66080d9c     LIBCMT:_fpexcept_.obj
 0002:00016da4       ??_C@_04FIHNOPOL@asin?$AA@ 66080da4     LIBCMT:_fpexcept_.obj
 0002:00016dac       ??_C@_04FJHINJAO@tanh?$AA@ 66080dac     LIBCMT:_fpexcept_.obj
 0002:00016db4       ??_C@_04HPJJNFIM@cosh?$AA@ 66080db4     LIBCMT:_fpexcept_.obj
 0002:00016dbc       ??_C@_04COOMCNPB@sinh?$AA@ 66080dbc     LIBCMT:_fpexcept_.obj
 0002:00016dc4       ??_C@_05HGHHAHAP@log10?$AA@ 66080dc4     LIBCMT:_fpexcept_.obj
 0002:00016dcc       ??_C@_03MGHMBJCF@log?$AA@  66080dcc     LIBCMT:_fpexcept_.obj
 0002:00016dd0       ??_C@_03JGHBODFD@pow?$AA@  66080dd0     LIBCMT:_fpexcept_.obj
 0002:00016dd4       ??_C@_03KHJOGHMM@exp?$AA@  66080dd4     LIBCMT:_fpexcept_.obj
 0002:00016dd8       __load_config_used         66080dd8     LIBCMT:loadcfg.obj
 0002:00016e20       ??_R4bad_alloc@std@@6B@    66080e20     LIBCMT:new.obj
 0002:00016e34       ??_R3bad_alloc@std@@8      66080e34     LIBCMT:new.obj
 0002:00016e44       ??_R2bad_alloc@std@@8      66080e44     LIBCMT:new.obj
 0002:00016e50       ??_R1A@?0A@EA@bad_alloc@std@@8 66080e50     LIBCMT:new.obj
 0002:00016e6c       ??_R1A@?0A@EA@exception@std@@8 66080e6c     LIBCMT:new.obj
 0002:00016e88       ??_R3exception@std@@8      66080e88     LIBCMT:new.obj
 0002:00016e98       ??_R2exception@std@@8      66080e98     LIBCMT:new.obj
 0002:00016ea0       ??_R4exception@std@@6B@    66080ea0     LIBCMT:stdexcpt.obj
 0002:00016eb4       ??_R4type_info@@6B@        66080eb4     LIBCMT:typinfo.obj
 0002:00016ec8       ??_R3type_info@@8          66080ec8     LIBCMT:typinfo.obj
 0002:00016ed8       ??_R2type_info@@8          66080ed8     LIBCMT:typinfo.obj
 0002:00016ee0       ??_R1A@?0A@EA@type_info@@8 66080ee0     LIBCMT:typinfo.obj
 0002:00016f00       ___safe_se_handler_table   66080f00     <linker-defined>
 0002:00016f0c       ___rtc_iaa                 66080f0c     LIBCMT:_initsect_.obj
 0002:00016f10       ___rtc_izz                 66080f10     LIBCMT:_initsect_.obj
 0002:00016f14       ___rtc_taa                 66080f14     LIBCMT:_initsect_.obj
 0002:00016f18       ___rtc_tzz                 66080f18     LIBCMT:_initsect_.obj
 0002:0001710c       __TI2?AVbad_alloc@std@@    6608110c     LIBCMT:new.obj
 0002:0001711c       __CTA2?AVbad_alloc@std@@   6608111c     LIBCMT:new.obj
 0002:00017128       __CT??_R0?AVbad_alloc@std@@@8??0bad_alloc@std@@QAE@ABV01@@Z12 66081128     LIBCMT:new.obj
 0002:00017144       __CT??_R0?AVexception@std@@@8??0exception@std@@QAE@ABV01@@Z12 66081144     LIBCMT:new.obj
 0002:00017654       __IMPORT_DESCRIPTOR_KERNEL32 66081654     kernel32:KERNEL32.dll
 0002:00017668       __IMPORT_DESCRIPTOR_USER32 66081668     user32:USER32.dll
 0002:0001767c       __IMPORT_DESCRIPTOR_IMM32  6608167c     imm32:IMM32.dll
 0002:00017690       __NULL_IMPORT_DESCRIPTOR   66081690     kernel32:KERNEL32.dll
 0003:00000000       ?szRuntimePath@@3PADA      66083000     config.obj
 0003:00000100       ?fShowCheckInfo@@3HA       66083100     config.obj
 0003:00000104       ?fLoadItemColours@@3HA     66083104     config.obj
 0003:00000600       ?dwGameWindowId@@3HA       66083600     DllMain.obj
 0003:00000608       ?dwGameLng@@3HA            66083608     install.obj
 0003:0000060c       ?fFixSocketError@@3HA      6608360c     install.obj
 0003:00000610       ?tReloadDll@@3UToggleVar@@A 66083610     install.obj
 0003:00000640       ?tReloadConfig@@3UToggleVar@@A 66083640     install.obj
 0003:00000670       ?tInstallPatches@@3UToggleVar@@A 66083670     install.obj
 0003:0000083c       ?dwPetListChangeCount@@3HA 6608383c     common.obj
 0003:00000840       ?skillTypes@@3PAY0BO@HA    66083840     common.obj
 0003:00000b88       ?tShowTestInfo@@3UToggleVar@@A 66083b88     dbg.obj
 0003:00000bc0       ?fPlayerInTown@@3HA        66083bc0     loop.obj
 0003:00000bc4       ?actlvls@@3PAHA            66083bc4     loop.obj
 0003:00000bdc       ?dwCurrentLevel@@3HA       66083bdc     loop.obj
 0003:00000be0       ?dwLeftSkill@@3HA          66083be0     loop.obj
 0003:00000be4       ?dwRightSkill@@3HA         66083be4     loop.obj
 0003:00000be8       ?fCanUseLeftSkill@@3HA     66083be8     loop.obj
 0003:00000bec       ?fCanUseRightSkill@@3HA    66083bec     loop.obj
 0003:00000bf0       ?dwSlowMs@@3HA             66083bf0     loop.obj
 0003:00000bf4       ?dwSlowSkipMs@@3HA         66083bf4     loop.obj
 0003:00000d3c       ?dwAutoRevealMode@@3HA     66083d3c     map.obj
 0003:00000d40       ?tRevealAct@@3UToggleVar@@A 66083d40     map.obj
 0003:00000d70       ?tRevealLevel@@3UToggleVar@@A 66083d70     map.obj
 0003:00000da0       ?tPrevMapTarget@@3UToggleVar@@A 66083da0     map.obj
 0003:00000dd0       ?tNextMapTarget@@3UToggleVar@@A 66083dd0     map.obj
 0003:00000e00       ?tAutomapLevelNames@@3UToggleVar@@A 66083e00     map.obj
 0003:00000e30       ?tAutoMap@@3UToggleVar@@A  66083e30     map.obj
 0003:00000e60       ?tMiniShrine@@3UToggleVar@@A 66083e60     map.obj
 0003:00000e90       ?tAutomapActiveRect@@3UToggleVar@@A 66083e90     map.obj
 0003:00000ec0       ?tAutomapReadyRect@@3UToggleVar@@A 66083ec0     map.obj
 0003:00000ef0       ?tAutomapScreenArea@@3UToggleVar@@A 66083ef0     map.obj
 0003:00000f20       ?nAutomapActiveRectColors@@3EA 66083f20     map.obj
 0003:00000f21       ?nAutomapReadyRectColors@@3EA 66083f21     map.obj
 0003:00000f22       ?nAutomapScreenColors@@3EA 66083f22     map.obj
 0003:00000f23       ?nMinimapSize@@3EA         66083f23     map.obj
 0003:00000f24       ?routeLineColor@@3EA       66083f24     map.obj
 0003:00000f25       ?fAutomapPartyDefault@@3EA 66083f25     map.obj
 0003:00000f26       ?fAutomapNamesDefault@@3EA 66083f26     map.obj
 0003:00000f27       ?nHostileMissileColor@@3EA 66083f27     map.obj
 0003:00000f28       ?tMinimapDirectLineToggle@@3UToggleVar@@A 66083f28     map.obj
 0003:00000f58       ?tMinimapDebugToggle@@3UToggleVar@@A 66083f58     map.obj
 0003:00000f88       ?tAutomapCorpse@@3UToggleVar@@A 66083f88     map.obj
 0003:00000fb8       ?tAutomapMonsters@@3UToggleVar@@A 66083fb8     map.obj
 0003:00000fe8       ?tAutomapChests@@3UToggleVar@@A 66083fe8     map.obj
 0003:00001018       ?tAutomapMissiles@@3UToggleVar@@A 66084018     map.obj
 0003:00001048       ?tAutomapItems@@3UToggleVar@@A 66084048     map.obj
 0003:00001078       ?nGuidedMissileColor@@3EA  66084078     map.obj
 0003:00001079       ?nTracerMissileColor@@3EA  66084079     map.obj
 0003:0000107a       ?nOtherMissileColor@@3EA   6608407a     map.obj
 0003:0000107b       ?nClosedChestColor@@3EA    6608407b     map.obj
 0003:0000107c       ?nLockedChestColor@@3EA    6608407c     map.obj
 0003:0000107d       ?nNormalCorpseColor@@3EA   6608407d     map.obj
 0003:0000107e       ?nBossCorpseColor@@3EA     6608407e     map.obj
 0003:0000107f       ?nMinionCorpseColor@@3EA   6608407f     map.obj
 0003:00001080       ?nChampionCorpseColor@@3EA 66084080     map.obj
 0003:00001081       ?nMonsterNormalColor@@3EA  66084081     map.obj
 0003:00001082       ?nMonsterBossColor@@3EA    66084082     map.obj
 0003:00001083       ?nMonsterMinionColor@@3EA  66084083     map.obj
 0003:00001084       ?nMonsterChampColor@@3EA   66084084     map.obj
 0003:00001085       ?nSuperUniqueColor@@3EA    66084085     map.obj
 0003:00001086       ?nNeutralPlayerColor@@3EA  66084086     map.obj
 0003:00001087       ?nHostilePlayerColor@@3EA  66084087     map.obj
 0003:00001088       ?nFriendMinionColor@@3EA   66084088     map.obj
 0003:00001089       ?nPlayerMinionColor@@3EA   66084089     map.obj
 0003:0000108a       ?nPartyTextColour@@3EA     6608408a     map.obj
 0003:0000108b       ?nNeutralTextColour@@3EA   6608408b     map.obj
 0003:0000108c       ?nHostileTextColour@@3EA   6608408c     map.obj
 0003:0000108d       ?nMonsterTextCol@@3EA      6608408d     map.obj
 0003:00001090       ?tBossNameToggle@@3UToggleVar@@A 66084090     map.obj
 0003:000010c0       ?tScreenshake@@3UToggleVar@@A 660840c0     map.obj
 0003:000010f0       ?tCenterMap@@3UToggleVar@@A 660840f0     map.obj
 0003:00001120       ?nScrollMode@@3HA          66084120     map.obj
 0003:00001124       ?dwDuranceOfHateLevel3TeleportShift@@3PAHA 66084124     map.obj
 0003:00002520       ?dwSocketTimeOutSec@@3HA   66085520     packet.obj
 0003:00002524       ?dwSocketTimeOut@@3HA      66085524     packet.obj
 0003:00002528       ?dwAddStatMaxCount@@3HA    66085528     packet.obj
 0003:0000252c       ?tPacketHandler@@3UToggleVar@@A 6608552c     packet.obj
 0003:0000255c       ?tDoTest@@3UToggleVar@@A   6608555c     packet.obj
 0003:0000258c       ?tNecTeleportAttract@@3UToggleVar@@A 6608558c     packet.obj
 0003:000026f8       ?tAutomapRouteInfo@@3UToggleVar@@A 660856f8     route.obj
 0003:00002728       ?tScreenRouteGuide@@3UToggleVar@@A 66085728     route.obj
 0003:00002758       ?tReroute@@3UToggleVar@@A  66085758     route.obj
 0003:00002918       ?fWinActive@@3HA           66085918     winmsg.obj
 0003:0000291c       ?dwQuickSwapItemDelayMs@@3HA 6608591c     winmsg.obj
 0003:00002920       ?dwAutoCallToArm@@3HA      66085920     winmsg.obj
 0003:00002924       ?tLockMouseToggle@@3UToggleVar@@A 66085924     winmsg.obj
 0003:00002954       ?tAutoHideMinimapToggle@@3UToggleVar@@A 66085954     winmsg.obj
 0003:00002984       ?tAutoMinimapTeleportToggle@@3UToggleVar@@A 66085984     winmsg.obj
 0003:000029b4       ?tFullScreen@@3UToggleVar@@A 660859b4     winmsg.obj
 0003:000029e4       ?tFullScreenNoCaption@@3UToggleVar@@A 660859e4     winmsg.obj
 0003:00002a14       ?tResizeWindowBar@@3UToggleVar@@A 66085a14     winmsg.obj
 0003:00002a44       ?tAttractNPC@@3UToggleVar@@A 66085a44     winmsg.obj
 0003:00002a74       ?tEnableScreenSaver@@3UToggleVar@@A 66085a74     winmsg.obj
 0003:00002aa4       ?tEnableMenuScreenSaver@@3UToggleVar@@A 66085aa4     winmsg.obj
 0003:00002ad4       ?tNoHide@@3UToggleVar@@A   66085ad4     winmsg.obj
 0003:00002b04       ?tSaveGame@@3UToggleVar@@A 66085b04     winmsg.obj
 0003:00003138       ?newTextBoxData@@3PAKA     66086138     winmsg.obj
 0003:00003168       ?tChangeVisualEffect@@3UToggleVar@@A 66086168     env.obj
 0003:00003198       ?tWeather@@3UToggleVar@@A  66086198     env.obj
 0003:000031c8       ?tHiddenCorpse@@3UToggleVar@@A 660861c8     env.obj
 0003:000031f8       ?tSkipDrawToggle@@3UToggleVar@@A 660861f8     env.obj
 0003:00003388       ?simpleItemStackTxt@@3HA   66086388     GameMonitor.obj
 0003:0000338c       ?simpleItemStackIdx@@3HA   6608638c     GameMonitor.obj
 0003:00003390       ?simpleItemStackStatId@@3HA 66086390     GameMonitor.obj
 0003:00003394       ?changeStashPageCmd@@3HA   66086394     GameMonitor.obj
 0003:00003398       ?changeStashPageCmdOffset@@3HA 66086398     GameMonitor.obj
 0003:0000339c       ?changeStashPageCmdValue@@3HA 6608639c     GameMonitor.obj
 0003:000033a0       ?changeStashPageValueOffset@@3HA 660863a0     GameMonitor.obj
 0003:000033a4       ?curStashPage@@3HA         660863a4     GameMonitor.obj
 0003:000033f0       ?tCountDown@@3UToggleVar@@A 660863f0     GameMonitor.obj
 0003:00003420       ?tDrawSimpleItemStackCount@@3UToggleVar@@A 66086420     GameMonitor.obj
 0003:00003450       ?tDrawMultiPageStashCount@@3UToggleVar@@A 66086450     GameMonitor.obj
 0003:00003480       ?dwGameMonitorX@@3HA       66086480     GameMonitor.obj
 0003:00003484       ?dwGameMonitorY@@3HA       66086484     GameMonitor.obj
 0003:00003488       ?dwCountDownFontSize@@3HA  66086488     GameMonitor.obj
 0003:0000348c       ?dwCountDownGap@@3HA       6608648c     GameMonitor.obj
 0003:00003490       ?dwCountDownFlashSecond@@3HA 66086490     GameMonitor.obj
 0003:00003494       ?tKillCount@@3UToggleVar@@A 66086494     GameMonitor.obj
 0003:000034c4       ?tGetHitCount@@3UToggleVar@@A 660864c4     GameMonitor.obj
 0003:000034f4       ?tNecAutomapCorpsesToggle@@3UToggleVar@@A 660864f4     GameMonitor.obj
 0003:00003524       ?tDrawBossHpToggle@@3UToggleVar@@A 66086524     GameMonitor.obj
 0003:00003554       ?bossLineColor@@3HA        66086554     GameMonitor.obj
 0003:00003558       ?tDrawPlayerNameToggle@@3UToggleVar@@A 66086558     GameMonitor.obj
 0003:00003588       ?dwDrawPlayerNameDy@@3HA   66086588     GameMonitor.obj
 0003:00003c48       ?countDowns@@3PAPAUCountDown@@A 66086c48     GameMonitor.obj
 0003:00003cb0       ?tServerIp@@3UToggleVar@@A 66086cb0     info.obj
 0003:00003ce0       ?tGameTime@@3UToggleVar@@A 66086ce0     info.obj
 0003:00003d10       ?tClock@@3UToggleVar@@A    66086d10     info.obj
 0003:00003d40       ?tLayerLevelNo@@3UToggleVar@@A 66086d40     info.obj
 0003:00003d70       ?tAreaLevel@@3UToggleVar@@A 66086d70     info.obj
 0003:00003da0       ?tPermShowOrb@@3UToggleVar@@A 66086da0     info.obj
 0003:00003dd0       ?tShowExp@@3UToggleVar@@A  66086dd0     info.obj
 0003:00003e00       ?tShowPing@@3UToggleVar@@A 66086e00     info.obj
 0003:00003e30       ?tShowPartyPosition@@3UToggleVar@@A 66086e30     info.obj
 0003:00003e60       ?tShowPartyLevel@@3UToggleVar@@A 66086e60     info.obj
 0003:00003e90       ?tViewEquipmentKey@@3UToggleVar@@A 66086e90     info.obj
 0003:00003ec0       ?tViewPlayerStatsKey@@3UToggleVar@@A 66086ec0     info.obj
 0003:00003ef0       ?tShowBaseStat@@3UToggleVar@@A 66086ef0     info.obj
 0003:00003f20       ?tFirstPlayerStat@@3UToggleVar@@A 66086f20     info.obj
 0003:00003f50       ?tNextPlayerStat@@3UToggleVar@@A 66086f50     info.obj
 0003:00003f80       ?tPrevPlayerStat@@3UToggleVar@@A 66086f80     info.obj
 0003:00004270       ?szOrbPattern@@3PADA       66087270     info.obj
 0003:00004274       ?viewStatUnit@@3UViewUnitInfo@@A 66087274     info.obj
 0003:00004284       ?viewEquUnit@@3UViewUnitInfo@@A 66087284     info.obj
 0003:00004368       ?tLogMessage@@3UToggleVar@@A 66087368     MessageLog.obj
 0003:00004398       ?dwMessageFileSize@@3HA    66087398     MessageLog.obj
 0003:000043f8       ?anGoldGoodCol@@3PADA      660873f8     item.obj
 0003:000043fc       ?anGoldPoorCol@@3PADA      660873fc     item.obj
 0003:00004400       ?tSwitchItemMode@@3UToggleVar@@A 66087400     item.obj
 0003:00004430       ?dwItemShowMode@@3HA       66087430     item.obj
 0003:00004434       ?nQuestItemColour@@3EA     66087434     item.obj
 0003:00004435       ?nDefaultExtInfoColour@@3EA 66087435     item.obj
 0003:00004438       ?tRuneNumbers@@3UToggleVar@@A 66087438     item.obj
 0003:00004468       ?tSocketNumbers@@3UToggleVar@@A 66087468     item.obj
 0003:00004498       ?tItemLevel@@3UToggleVar@@A 66087498     item.obj
 0003:000044c8       ?tItemValue@@3UToggleVar@@A 660874c8     item.obj
 0003:000044f8       ?tItemIndex@@3UToggleVar@@A 660874f8     item.obj
 0003:00004528       ?tItemFileIndex@@3UToggleVar@@A 66087528     item.obj
 0003:00004558       ?tUnitNumber@@3UToggleVar@@A 66087558     item.obj
 0003:00004588       ?tItemQLevel@@3UToggleVar@@A 66087588     item.obj
 0003:000045b8       ?tItemMLevel@@3UToggleVar@@A 660875b8     item.obj
 0003:000045e8       ?tItemALevel@@3UToggleVar@@A 660875e8     item.obj
 0003:00004618       ?tAfterCube@@3UToggleVar@@A 66087618     item.obj
 0003:00004648       ?tLifePerLevel@@3UToggleVar@@A 66087648     item.obj
 0003:00004678       ?dwItemValueNpc@@3PAHA     66087678     item.obj
 0003:0000468c       ?tShowBaseED@@3UToggleVar@@A 6608768c     item.obj
 0003:000046bc       ?tShowIdentifiedItem@@3UToggleVar@@A 660876bc     item.obj
 0003:000046ec       ?tHiddenItems@@3UToggleVar@@A 660876ec     item.obj
 0003:0000471c       ?tPermShowItems@@3UToggleVar@@A 6608771c     item.obj
 0003:0000474c       ?tLockAltToggle@@3UToggleVar@@A 6608774c     item.obj
 0003:0000477c       ?tItemBasicStat@@3UToggleVar@@A 6608777c     item.obj
 0003:000047ac       ?tViewSocketable@@3UToggleVar@@A 660877ac     item.obj
 0003:000047dc       ?tViewSocketBase@@3UToggleVar@@A 660877dc     item.obj
 0003:0000480c       ?tShowItemVariableProp@@3UToggleVar@@A 6608780c     item.obj
 0003:0000483c       ?tSocketProtect@@3UToggleVar@@A 6608783c     item.obj
 0003:0000486c       ?tRunewordProtect@@3UToggleVar@@A 6608786c     item.obj
 0003:0000489c       ?tDrawInvItemInfo@@3UToggleVar@@A 6608789c     item.obj
 0003:000048cc       ?tItemExtInfo@@3UToggleVar@@A 660878cc     item.obj
 0003:000048fc       ?maxTownPortalCount@@3HA   660878fc     item.obj
 0003:00004900       ?maxIdentifyPortalCount@@3HA 66087900     item.obj
 0003:000050e0       ?dwAutoPotionCheckMs@@3HA  660880e0     dangerous.obj
 0003:000050e4       ?dwHirePotionDelayMs@@3HA  660880e4     dangerous.obj
 0003:000050e8       ?dwManaPotionDelayMs@@3HA  660880e8     dangerous.obj
 0003:000050ec       ?nChickenLifeAction@@3HA   660880ec     dangerous.obj
 0003:000050f0       ?tHealingPotion@@3UToggleVar@@A 660880f0     dangerous.obj
 0003:00005120       ?tManaPotion@@3UToggleVar@@A 66088120     dangerous.obj
 0003:00005150       ?tChickenLife@@3UToggleVar@@A 66088150     dangerous.obj
 0003:00005180       ?tChickenHostile@@3UToggleVar@@A 66088180     dangerous.obj
 0003:000051b0       ?tChickenHostileNearby@@3UToggleVar@@A 660881b0     dangerous.obj
 0003:000051e0       ?tChickenDangerousMonster@@3UToggleVar@@A 660881e0     dangerous.obj
 0003:00005210       ?tAutoPotion@@3UToggleVar@@A 66088210     dangerous.obj
 0003:00005240       ?dwChickenLifeForcedClevel@@3HA 66088240     dangerous.obj
 0003:00005244       ?dwChickenLifeEnterGame@@3HA 66088244     dangerous.obj
 0003:00005248       ?nDangerousMonsterAction@@3HA 66088248     dangerous.obj
 0003:00005810       ?dwBarbrianLeft@@3HA       66088810     quest.obj
 0003:00005814       ?dwBugAlertTimes@@3HA      66088814     quest.obj
 0003:00005818       ?tBugKCountess@@3UToggleVar@@A 66088818     quest.obj
 0003:00005848       ?tBugKM@@3UToggleVar@@A    66088848     quest.obj
 0003:00005878       ?tBugKD@@3UToggleVar@@A    66088878     quest.obj
 0003:000058a8       ?tBugKB@@3UToggleVar@@A    660888a8     quest.obj
 0003:000058d8       ?tBugAutoQuit@@3UToggleVar@@A 660888d8     quest.obj
 0003:00005908       ?tBugAutoQuitHell@@3UToggleVar@@A 66088908     quest.obj
 0003:00005938       ?tBugAutoQuitHellAct1@@3UToggleVar@@A 66088938     quest.obj
 0003:00005968       ?tBugAutoQuitHellAct3@@3UToggleVar@@A 66088968     quest.obj
 0003:00005998       ?tBugAutoQuitHellAct4@@3UToggleVar@@A 66088998     quest.obj
 0003:000059c8       ?tBugAutoQuitHellAct5@@3UToggleVar@@A 660889c8     quest.obj
 0003:000059f8       ?tBugAutoQuitAct5@@3UToggleVar@@A 660889f8     quest.obj
 0003:00005a28       ?tBugAllHellAlert@@3UToggleVar@@A 66088a28     quest.obj
 0003:00005a58       ?tAlertNoBug@@3UToggleVar@@A 66088a58     quest.obj
 0003:00005de0       ?tMonsterLevel@@3UToggleVar@@A 66088de0     lifebar.obj
 0003:00005e10       ?tMonsterTC@@3UToggleVar@@A 66088e10     lifebar.obj
 0003:00005e40       ?tMonsterRuneTC@@3UToggleVar@@A 66088e40     lifebar.obj
 0003:00005e70       ?tMonsterResists@@3UToggleVar@@A 66088e70     lifebar.obj
 0003:00005ea0       ?tMonsterHPPercent@@3UToggleVar@@A 66088ea0     lifebar.obj
 0003:00005ed0       ?tMonsterDistance@@3UToggleVar@@A 66088ed0     lifebar.obj
 0003:00005f00       ?tMonsterID@@3UToggleVar@@A 66088f00     lifebar.obj
 0003:00005f30       ?tSPMonsterHP@@3UToggleVar@@A 66088f30     lifebar.obj
 0003:00005f60       ?tSPMonsterExp@@3UToggleVar@@A 66088f60     lifebar.obj
 0003:00005f90       ?nLifeBarTrans@@3EA        66088f90     lifebar.obj
 0003:00005f91       ?nLifeBarColour@@3EA       66088f91     lifebar.obj
 0003:00005f94       ?tPlayerLevel@@3UToggleVar@@A 66088f94     lifebar.obj
 0003:00005fc4       ?tPlayerDistance@@3UToggleVar@@A 66088fc4     lifebar.obj
 0003:00005ff4       ?tPlayerHPPercent@@3UToggleVar@@A 66088ff4     lifebar.obj
 0003:00006370       ?tDropProtectionToggle@@3UToggleVar@@A 66089370     DropProtection.obj
 0003:000063a0       ?tResetProtectionToggle@@3UToggleVar@@A 660893a0     DropProtection.obj
 0003:00006508       ?tWisperNotice@@3UToggleVar@@A 66089508     chat.obj
 0003:00006538       ?tInputLine@@3UToggleVar@@A 66089538     chat.obj
 0003:00006568       ?tUseCustomFont@@3UToggleVar@@A 66089568     chat.obj
 0003:00006598       ?tQuickMessagePasteOnly@@3UToggleVar@@A 66089598     chat.obj
 0003:00006818       ?tOutTownSelect@@3UToggleVar@@A 66089818     misc.obj
 0003:00006848       ?tULCMask@@3UToggleVar@@A  66089848     misc.obj
 0003:00006900       ?dwMultiClientMaxWindowId@@3HA 66089900     multi.obj
 0003:00006904       ?tMultiClient@@3UToggleVar@@A 66089904     multi.obj
 0003:00006934       ?tMultiClientToggleFollow@@3UToggleVar@@A 66089934     multi.obj
 0003:00006964       ?tMultiClientStartFollow1@@3UToggleVar@@A 66089964     multi.obj
 0003:00006994       ?tMultiClientStartFollow2@@3UToggleVar@@A 66089994     multi.obj
 0003:000069c4       ?tMultiClientStopFollow@@3UToggleVar@@A 660899c4     multi.obj
 0003:000069f4       ?tMultiClientEnterDoor@@3UToggleVar@@A 660899f4     multi.obj
 0003:00006a24       ?tMultiClientRetreat@@3UToggleVar@@A 66089a24     multi.obj
 0003:00006a54       ?tMultiClientClick@@3UToggleVar@@A 66089a54     multi.obj
 0003:00006a84       ?tMultiClientClick2@@3UToggleVar@@A 66089a84     multi.obj
 0003:00006ab4       ?tMultiClientTalkToNpc@@3UToggleVar@@A 66089ab4     multi.obj
 0003:00006ae4       ?dwMultiClientGroupSize1@@3HA 66089ae4     multi.obj
 0003:00006ae8       ?dwMultiClientGroupSize2@@3HA 66089ae8     multi.obj
 0003:00006aec       ?dwAutoFollowDistance@@3HA 66089aec     multi.obj
 0003:00006af0       ?dwAutoFollowMaxDistance@@3HA 66089af0     multi.obj
 0003:00006af4       ?dwAutoFollowMoveDistance@@3HA 66089af4     multi.obj
 0003:00006af8       ?dwAutoFollowCheckInterval@@3HA 66089af8     multi.obj
 0003:00006afc       ?dwAutoFollowClickObjectDelayMs@@3HA 66089afc     multi.obj
 0003:00006b00       ?dwWaitTeamEnterPortalMaxDelayMs@@3HA 66089b00     multi.obj
 0003:00006b04       ?tNecNoAttackInHell@@3UToggleVar@@A 66089b04     multi.obj
 0003:00006ed4       ?tNpcTradeShowInfo@@3UToggleVar@@A 66089ed4     NpcTrade.obj
 0003:00006f50       ?mAutoPartyDelays@@3HA     66089f50     party.obj
 0003:00006f54       ?tAutoParty@@3UToggleVar@@A 66089f54     party.obj
 0003:00006f84       ?tAutoInvite@@3UToggleVar@@A 66089f84     party.obj
 0003:00006fb4       ?tAutoPermit@@3UToggleVar@@A 66089fb4     party.obj
 0003:00007098       ?nTownportalAlertNums@@3HA 6608a098     quick.obj
 0003:000070a8       ?tBackToTown@@3UToggleVar@@A 6608a0a8     quick.obj
 0003:000070d8       ?tQuickToLevel@@3UToggleVar@@A 6608a0d8     quick.obj
 0003:00007108       ?tExitGame@@3UToggleVar@@A 6608a108     quick.obj
 0003:00007138       ?tQuickNextGame@@3UToggleVar@@A 6608a138     quick.obj
 0003:00007168       ?tQuickNextGame2@@3UToggleVar@@A 6608a168     quick.obj
 0003:00007408       ?tRightClickSwap@@3UToggleVar@@A 6608a408     QuickSwapItem.obj
 0003:00007438       ?tQuickDropToggle@@3UToggleVar@@A 6608a438     QuickSwapItem.obj
 0003:00007468       ?tEnableGemAutoMerge@@3UToggleVar@@A 6608a468     QuickSwapItem.obj
 0003:0000754c       ?tHighResolution@@3UToggleVar@@A 6608a54c     resolution.obj
 0003:000075a8       ?tAutoPickupToggle@@3UToggleVar@@A 6608a5a8     skill.obj
 0003:000075d8       ?tAutoEnchant@@3UToggleVar@@A 6608a5d8     skill.obj
 0003:00007608       ?dwRenewEnchantMs@@3HA     6608a608     skill.obj
 0003:0000760c       ?dwAutoEnchantMana@@3HA    6608a60c     skill.obj
 0003:00007610       ?dwRenewEnchantMana@@3HA   6608a610     skill.obj
 0003:00007614       ?dwAutoEnchantPlayerLevel@@3HA 6608a614     skill.obj
 0003:00007618       ?tAutoWarCry@@3UToggleVar@@A 6608a618     skill.obj
 0003:00007648       ?tAutoBackgroundSkill@@3UToggleVar@@A 6608a648     skill.obj
 0003:00007678       ?tAutoForegroundSkillToggle@@3UToggleVar@@A 6608a678     skill.obj
 0003:000076a8       ?tAutoForegroundSkill@@3UToggleVar@@A 6608a6a8     skill.obj
 0003:000076d8       ?dwAutoSkillCheckInterval@@3HA 6608a6d8     skill.obj
 0003:000076dc       ?dwAutoSkillIdleDelay@@3HA 6608a6dc     skill.obj
 0003:000076e0       ?dwAutoThrowMinQuantity@@3HA 6608a6e0     skill.obj
 0003:000076e4       ?dwAutoStaticFieldHPPercent@@3HA 6608a6e4     skill.obj
 0003:000076e8       ?tAutoSummon@@3UToggleVar@@A 6608a6e8     skill.obj
 0003:00007718       ?tAutoSummonRevive@@3UToggleVar@@A 6608a718     skill.obj
 0003:00007748       ?tShowSummonInfo@@3UToggleVar@@A 6608a748     skill.obj
 0003:00007778       ?dwAutoSummonMana@@3HA     6608a778     skill.obj
 0003:0000777c       ?dwSwitchSkillMs@@3HA      6608a77c     skill.obj
 0003:00007780       ?dwAutoSummonSkeletonLevelAdjust@@3HA 6608a780     skill.obj
 0003:00007784       ?dwAutoSummonSkeletonMageLevelAdjust@@3HA 6608a784     skill.obj
 0003:00007788       ?dwAutoSummonReviveLevelAdjust@@3HA 6608a788     skill.obj
 0003:0000778c       ?tAutoForegroundSkill2@@3UToggleVar@@A 6608a78c     skill.obj
 0003:00007db0       ?szSnapshotPath@@3PADA     6608adb0     Snapshot.obj
 0003:00007eb0       ?szSnapshotNamesPath@@3PADA 6608aeb0     Snapshot.obj
 0003:00007fb0       ?tDoSnapshot@@3UToggleVar@@A 6608afb0     Snapshot.obj
 0003:00007fe0       ?tSnapshot@@3UToggleVar@@A 6608afe0     Snapshot.obj
 0003:00008010       ?tSnapshotNewGame@@3UToggleVar@@A 6608b010     Snapshot.obj
 0003:00008040       ?tSnapshotEndGame@@3UToggleVar@@A 6608b040     Snapshot.obj
 0003:00008070       ?tSnapshotLog@@3UToggleVar@@A 6608b070     Snapshot.obj
 0003:000080a0       ?tSnapshotSaveD2s@@3UToggleVar@@A 6608b0a0     Snapshot.obj
 0003:000087e8       ?tServerTest@@3UToggleVar@@A 6608b7e8     server.obj
 0003:00008818       ?tRepeatAdminCmd@@3UToggleVar@@A 6608b818     server.obj
 0003:0000886c       ?fEnableAdminCmd@@3HA      6608b86c     server.obj
 0003:00008874       ?adminCmdPrefix@@3PADA     6608b874     server.obj
 0003:00008c24       ?UberMephistoNbMinions@@3HA 6608bc24     uber.obj
 0003:00008c28       ?UberMephistoMinions@@3PAHA 6608bc28     uber.obj
 0003:00008c40       ?UberMephistoSpawnPercent@@3HA 6608bc40     uber.obj
 0003:00008c44       ?UberMephistoSpawnRadius@@3HA 6608bc44     uber.obj
 0003:00008c48       ?UberBaalNbMinions@@3HA    6608bc48     uber.obj
 0003:00008c4c       ?UberBaalMinions@@3PAHA    6608bc4c     uber.obj
 0003:00008c54       ?UberBaalSpawnPercent@@3HA 6608bc54     uber.obj
 0003:00008c58       ?UberBaalSpawnRadius@@3HA  6608bc58     uber.obj
 0003:00008c5c       ?UberDiabloNbMinions@@3HA  6608bc5c     uber.obj
 0003:00008c60       ?UberDiabloMinions@@3PAHA  6608bc60     uber.obj
 0003:00008c64       ?UberDiabloSpawnPercent@@3HA 6608bc64     uber.obj
 0003:00008c68       ?UberDiabloSpawnRadius@@3HA 6608bc68     uber.obj
 0003:00008c6c       ?uberBaalChillingArmorTimer@@3HA 6608bc6c     uber.obj
 0003:00008d20       ?szVersion@@3PADA          6608bd20     version.obj
 0003:00008d24       ?compileTime@@3PADA        6608bd24     version.obj
 0003:00008d28       ___security_cookie         6608bd28     LIBCMT:gs_cookie.obj
 0003:00008d2c       ___security_cookie_complement 6608bd2c     LIBCMT:gs_cookie.obj
 0003:00008d30       __iob                      6608bd30     LIBCMT:_file.obj
 0003:00008fb0       __fltused                  6608bfb0     LIBCMT:_fpinit_.obj
 0003:00008fb4       __ldused                   6608bfb4     LIBCMT:_fpinit_.obj
 0003:00008fc4       ??_R0?AVbad_alloc@std@@@8  6608bfc4     LIBCMT:new.obj
 0003:00008fe0       ??_R0?AVexception@std@@@8  6608bfe0     LIBCMT:new.obj
 0003:00009028       ___initialmbcinfo          6608c028     LIBCMT:mbctype.obj
 0003:00009248       __mbctype                  6608c248     LIBCMT:mbctype.obj
 0003:00009350       __mbcasemap                6608c350     LIBCMT:mbctype.obj
 0003:00009450       ___ptmbcinfo               6608c450     LIBCMT:mbctype.obj
 0003:0000954c       ___globallocalestatus      6608c54c     LIBCMT:glstatus.obj
 0003:00009550       ___clocalestr              6608c550     LIBCMT:nlsdata2.obj
 0003:00009558       ___initiallocinfo          6608c558     LIBCMT:nlsdata2.obj
 0003:00009630       ___ptlocinfo               6608c630     LIBCMT:nlsdata2.obj
 0003:00009634       ___lc_clike                6608c634     LIBCMT:nlsdata2.obj
 0003:00009638       ___initiallocalestructinfo 6608c638     LIBCMT:nlsdata2.obj
 0003:00009640       ___flsindex                6608c640     LIBCMT:tidtable.obj
 0003:00009644       ___getvalueindex           6608c644     LIBCMT:tidtable.obj
 0003:000098d8       ___nullstring              6608c8d8     LIBCMT:output.obj
 0003:000098dc       ___wnullstring             6608c8dc     LIBCMT:output.obj
 0003:000098e0       ___badioinfo               6608c8e0     LIBCMT:ioinit.obj
 0003:00009920       __amblksiz                 6608c920     LIBCMT:heapinit.obj
 0003:00009930       __aexit_rtn                6608c930     LIBCMT:crt0dat.obj
 0003:00009934       __cfltcvt_tab              6608c934     LIBCMT:cmiscdat.obj
 0003:00009a18       __lookuptrailbytes         6608ca18     LIBCMT:read.obj
 0003:00009b20       ??_R0?AVtype_info@@@8      6608cb20     LIBCMT:typinfo.obj
 0003:00009b40       __indefinite               6608cb40     LIBCMT:_87disp_.obj
 0003:00009b4a       __piby2                    6608cb4a     LIBCMT:_87disp_.obj
 0003:00009b70       __First_FPE_Indx           6608cb70     LIBCMT:winxfltr.obj
 0003:00009b74       __Num_FPE                  6608cb74     LIBCMT:winxfltr.obj
 0003:00009b78       __XcptActTabSize           6608cb78     LIBCMT:winxfltr.obj
 0003:00009b7c       __XcptActTabCount          6608cb7c     LIBCMT:winxfltr.obj
 0003:00009b80       __pctype                   6608cb80     LIBCMT:ctype.obj
 0003:00009b84       __pwctype                  6608cb84     LIBCMT:ctype.obj
 0003:00009b88       ___lc_time_c               6608cb88     LIBCMT:strftime.obj
 0003:00009c40       ___lc_time_curr            6608cc40     LIBCMT:strftime.obj
 0003:00009c44       ___lconv_static_decimal    6608cc44     LIBCMT:lconv.obj
 0003:00009c48       ___lconv_c                 6608cc48     LIBCMT:lconv.obj
 0003:00009c78       ___lconv                   6608cc78     LIBCMT:lconv.obj
 0003:00009c7c       ___mb_cur_max              6608cc7c     LIBCMT:nlsdata1.obj
 0003:00009c80       ___decimal_point           6608cc80     LIBCMT:nlsdata1.obj
 0003:00009c84       ___decimal_point_length    6608cc84     LIBCMT:nlsdata1.obj
 0003:00009ca0       __NLG_Destination          6608cca0     LIBCMT:exsup.obj
 0003:00009cd0       __timezone                 6608ccd0     LIBCMT:timeset.obj
 0003:00009cd4       __daylight                 6608ccd4     LIBCMT:timeset.obj
 0003:00009cd8       __dstbias                  6608ccd8     LIBCMT:timeset.obj
 0003:00009d60       __tzname                   6608cd60     LIBCMT:timeset.obj
 0003:00009d68       __lpdays                   6608cd68     LIBCMT:days.obj
 0003:00009d9c       __days                     6608cd9c     LIBCMT:days.obj
 0003:00009dd0       __coninpfh                 6608cdd0     LIBCMT:initcon.obj
 0003:00009dd4       __confh                    6608cdd4     LIBCMT:initcon.obj
 0003:00009dd8       ___abort_behavior          6608cdd8     LIBCMT:abort.obj
 0003:00009ef8       __matherr_flag             6608cef8     LIBCMT:_matherr_.obj
 0003:00009f20       __pow10pos                 6608cf20     LIBCMT:_constpow_.obj
 0003:0000a080       __pow10neg                 6608d080     LIBCMT:_constpow_.obj
 0003:0000a1e0       __d_inf                    6608d1e0     LIBCMT:_util_.obj
 0003:0000a1e8       __d_ind                    6608d1e8     LIBCMT:_util_.obj
 0003:0000a1f0       __d_max                    6608d1f0     LIBCMT:_util_.obj
 0003:0000a1f8       __d_min                    6608d1f8     LIBCMT:_util_.obj
 0003:0000a200       __d_mzero                  6608d200     LIBCMT:_util_.obj
 0003:0000a220       ?tmpSymbols@@3PAUSymbol@@A 6608d220     config.obj
 0003:0000a624       ?logfp@@3PAU_iobuf@@A      6608d624     config.obj
 0003:0000a628       ?tKeyEventMap@@3PAPAUToggleVar@@A 6608d628     config.obj
 0003:0000c630       ?warningMsgs@@3PAUWarningMsg@@A 6608f630     config.obj
 0003:0000c638       ?pSymbols@@3PAUSymbol@@A   6608f638     config.obj
 0003:0000c63c       ?nSymbols@@3HA             6608f63c     config.obj
 0003:0000c640       ?capSymbols@@3HA           6608f640     config.obj
 0003:0000c644       ?nTmpSymbols@@3HA          6608f644     config.obj
 0003:0000c648       ?fSymbolSorted@@3HA        6608f648     config.obj
 0003:0000c650       ?configVarCap@@3HA         6608f650     config.obj
 0003:0000c654       ?configVarCount@@3HA       6608f654     config.obj
 0003:0000c658       ?loadingConfigs@@3PAULoadingConfig@@A 6608f658     config.obj
 0003:0000c660       ?hInstDLL@@3PAUHINSTANCE__@@A 6608f660     DllMain.obj
 0003:0000c664       ?dllHeap@@3PAXA            6608f664     DllMain.obj
 0003:0000c668       ?confHeap@@3PAXA           6608f668     DllMain.obj
 0003:0000c66c       ?gameHeap@@3PAXA           6608f66c     DllMain.obj
 0003:0000c670       ?fIsSinglePlayer@@3HA      6608f670     DllMain.obj
 0003:0000c674       ?fIsTcpIp@@3HA             6608f674     DllMain.obj
 0003:0000c678       ?fIsRealmServer@@3HA       6608f678     DllMain.obj
 0003:0000c67c       ?fIsRealmClient@@3HA       6608f67c     DllMain.obj
 0003:0000c680       ?szDllPath@@3PADA          6608f680     DllMain.obj
 0003:0000c788       ?szPluginPath@@3PADA       6608f788     DllMain.obj
 0003:0000c890       ?reloadStorage@@3PADA      6608f890     DllMain.obj
 0003:0000c894       ?reloadStorageSize@@3HA    6608f894     DllMain.obj
 0003:0000c898       ?storm_pmpq_load_flag@@3PAHA 6608f898     install.obj
 0003:0000c89c       ?storm_pmpq_crypt_table@@3PAHA 6608f89c     install.obj
 0003:0000c8a0       ?storm_regQueryValue@@3P6GHPAD0H0H@ZA 6608f8a0     install.obj
 0003:0000c8a4       ?storm_snprintf@@3P6AHPADHHZZA 6608f8a4     install.obj
 0003:0000c8a8       ?storm_processWinMessage372@@3P6GHHPAUHWND__@@HPAUD2MSG@@@ZA 6608f8a8     install.obj
 0003:0000c8ac       ?storm_processWinMessage@@3P6GHPAUHWND__@@HHHPAX1@ZA 6608f8ac     install.obj
 0003:0000c8b0       ?storm_openMpq@@3P6GHPBDHHPAX@ZA 6608f8b0     install.obj
 0003:0000c8b4       ?storm_mpq_open_block@@3P6GHPADPAUmpq_block@@@ZA 6608f8b4     install.obj
 0003:0000c8b8       ?storm_mpq_open_block_from@@3P6GHPAXPADHPAUmpq_block@@@ZA 6608f8b8     install.obj
 0003:0000c8bc       ?storm_mpq_read_block@@3P6GHPAUmpq_block@@HPADH@ZA 6608f8bc     install.obj
 0003:0000c8c0       ?storm_mk_abs_path@@3P6GPADPADPAX@ZA 6608f8c0     install.obj
 0003:0000c8c4       ?storm_mpq_hashstring@@3P6GHH@ZA 6608f8c4     install.obj
 0003:0000c8c8       ?storm_mpq_uncompress@@3P6GHPAXPAH0H@ZA 6608f8c8     install.obj
 0003:0000c8cc       ?fog_Ord10218@@3P6IHXZA    6608f8cc     install.obj
 0003:0000c8d0       ?fog_getMCPPacket@@3P6GHPAXPADH@ZA 6608f8d0     install.obj
 0003:0000c8d4       ?fog_Ord10089@@3P6IHH@ZA   6608f8d4     install.obj
 0003:0000c8d8       ?fog_uninit@@3P6GHXZA      6608f8d8     install.obj
 0003:0000c8dc       ?fog_realloc@@3P6IPAXHPAXHPADHH@ZA 6608f8dc     install.obj
 0003:0000c8e0       ?fog_allocMemory@@3P6IPAXHHPADHH@ZA 6608f8e0     install.obj
 0003:0000c8e4       ?fog_getCriticalSection@@3P6IPAUCriticalSection@@HPADHH@ZA 6608f8e4     install.obj
 0003:0000c8e8       ?fog_setCriticalSection@@3P6IHPAUCriticalSection@@PADHH@ZA 6608f8e8     install.obj
 0003:0000c8ec       ?fog_freeMemory@@3P6IHHPAXPADHH@ZA 6608f8ec     install.obj
 0003:0000c8f0       ?fog_Ord10101@@3P6IHHH@ZA  6608f8f0     install.obj
 0003:0000c8f4       ?fog_mpq_open_block@@3P6IHPADPAUmpq_block@@@ZA 6608f8f4     install.obj
 0003:0000c8f8       ?fog_initBitStream@@3P6GPAUFogBits@@PAU1@PADH@ZA 6608f8f8     install.obj
 0003:0000c8fc       ?fog_writeBitStream@@3P6GXPAUFogBits@@HH@ZA 6608f8fc     install.obj
 0003:0000c900       ?fog_setBit@@3P6GXPAXH@ZA  6608f900     install.obj
 0003:0000c904       ?fog_clearBit@@3P6GXPAXH@ZA 6608f904     install.obj
 0003:0000c908       ?fog_getBitStreamBytes@@3P6GHPAUFogBits@@@ZA 6608f908     install.obj
 0003:0000c90c       ?fog_alignBitStreamToByte@@3P6GHPAUFogBits@@@ZA 6608f90c     install.obj
 0003:0000c910       ?fog_Ord10019@@3P6IHPADPAX0H@ZA 6608f910     install.obj
 0003:0000c914       ?fog_FogValidateCriticalSection@@3P6IHPAUCriticalSection@@H@ZA 6608f914     install.obj
 0003:0000c918       ?fog_reportError@@3P6AXPAXHH@ZA 6608f918     install.obj
 0003:0000c91c       ?fog_setLogFilePrefix@@3P6IHPAD@ZA 6608f91c     install.obj
 0003:0000c920       ?fog_getEIP@@3P6GHXZA      6608f920     install.obj
 0003:0000c924       ?fog_getClientID@@3P6GHPAUClientInfos@@H@ZA 6608f924     install.obj
 0003:0000c928       ?fog_getClientInfo@@3P6GPAUClientInfo@@PAUClientInfos@@H@ZA 6608f928     install.obj
 0003:0000c92c       ?fog_enableNTFeature@@3P6GHPAH@ZA 6608f92c     install.obj
 0003:0000c930       ?fog_exit@@3P6GXH@ZA       6608f930     install.obj
 0003:0000c934       ?d2win_pDrawHoverY@@3PAHA  6608f934     install.obj
 0003:0000c938       ?d2win_pmusic_volumn@@3PAHA 6608f938     install.obj
 0003:0000c93c       ?d2win_pRunningFlag@@3PAHA 6608f93c     install.obj
 0003:0000c940       ?d2win_pclientProcessMessageFunc@@3PAPAXA 6608f940     install.obj
 0003:0000c944       ?d2win_pFocusedControl@@3PAPAUD2EditBox@@A 6608f944     install.obj
 0003:0000c948       ?d2win_pvar_214A0@@3PAPAXA 6608f948     install.obj
 0003:0000c94c       ?d2win_DrawMainMenu@@3P6IPAXXZA 6608f94c     install.obj
 0003:0000c950       ?d2win_CreateTextBox@@3P6GPAXPAK@ZA 6608f950     install.obj
 0003:0000c954       ?d2win_DestroyListBox@@3P6GXPAUD2EditBox@@@ZA 6608f954     install.obj
 0003:0000c958       ?d2win_processMessage@@3P6GHPAUHWND__@@HHH@ZA 6608f958     install.obj
 0003:0000c95c       ?d2win_CreateEditBox@@3P6IPAUD2EditBox@@HHHHHHPAUCellFile@@KKKPAX@ZA 6608f95c     install.obj
 0003:0000c960       ?d2win_DestroyEditBox@@3P6IHPAUD2EditBox@@@ZA 6608f960     install.obj
 0003:0000c964       ?d2win_AddEditBoxChar@@3P6IKPAUD2EditBox@@E@ZA 6608f964     install.obj
 0003:0000c968       ?d2win_SetEditBoxText@@3P6IPAXPAUD2EditBox@@PA_W@ZA 6608f968     install.obj
 0003:0000c96c       ?d2win_SetEditBoxProc@@3P6IXPAUD2EditBox@@P6GH0HPAD@Z@ZA 6608f96c     install.obj
 0003:0000c970       ?d2win_SelectEditBoxText@@3P6IXPAUD2EditBox@@@ZA 6608f970     install.obj
 0003:0000c974       ?d2win_GetEditBoxText@@3P6IPA_WPAUD2EditBox@@@ZA 6608f974     install.obj
 0003:0000c978       ?d2win_DrawHover@@3P6IXXZA 6608f978     install.obj
 0003:0000c97c       ?d2win_SetTextFont@@3P6IHH@ZA 6608f97c     install.obj
 0003:0000c980       ?d2win_DrawText@@3P6IXPA_WJJHH@ZA 6608f980     install.obj
 0003:0000c984       ?d2win_GetTextPixelLen@@3P6IHPA_W@ZA 6608f984     install.obj
 0003:0000c988       ?d2win_DrawUnitLifeBar@@3P6IHPA_WJJHKK@ZA 6608f988     install.obj
 0003:0000c98c       ?d2win_GetTextAreaSize@@3P6IHPA_WPAH1@ZA 6608f98c     install.obj
 0003:0000c990       ?d2win_DrawHoverText@@3P6IXPA_WJJHH@ZA 6608f990     install.obj
 0003:0000c994       ?d2win_initMPQ@@3P6IHXZA   6608f994     install.obj
 0003:0000c998       ?d2win_uninit@@3P6GHXZA    6608f998     install.obj
 0003:0000c99c       ?d2win_addLineToList@@3P6IXPAUD2EditBox@@PAD@ZA 6608f99c     install.obj
 0003:0000c9a0       ?d2win_PrintLineOnTextBox@@3P6IXPAXPADH@ZA 6608f9a0     install.obj
 0003:0000c9a4       ?d2win_setLineEndText@@3P6IXPAUD2EditBox@@PADPAXH@ZA 6608f9a4     install.obj
 0003:0000c9a8       ?d2win_ToggleSound@@3P6GXXZA 6608f9a8     install.obj
 0003:0000c9ac       ?d2sound_pmusic_volumn@@3PAHA 6608f9ac     install.obj
 0003:0000c9b0       ?d2sound_get_music_volumn@@3P6AHXZA 6608f9b0     install.obj
 0003:0000c9b4       ?d2sound_set_music_volumn@@3P6IHH@ZA 6608f9b4     install.obj
 0003:0000c9b8       ?d2net_pclientInfos@@3PAPAUClientInfos@@A 6608f9b8     install.obj
 0003:0000c9bc       ?d2net_pUnkNetFlag@@3PAKA  6608f9bc     install.obj
 0003:0000c9c0       ?d2net_ppacketSizes@@3PAHA 6608f9c0     install.obj
 0003:0000c9c4       ?d2net_SendPacket@@3P6GXHHPAE@ZA 6608f9c4     install.obj
 0003:0000c9c8       ?d2net_getPacketSize@@3P6IXPADHPAH@ZA 6608f9c8     install.obj
 0003:0000c9cc       ?d2net_initNetwork@@3P6GHHH@ZA 6608f9cc     install.obj
 0003:0000c9d0       ?d2net_SendToClient@@3P6GHHHPAXH@ZA 6608f9d0     install.obj
 0003:0000c9d4       ?d2net_uninit@@3P6GHXZA    6608f9d4     install.obj
 0003:0000c9d8       ?d2net_getWorldId@@3P6GHH@ZA 6608f9d8     install.obj
 0003:0000c9dc       ?d2multi_plastRefreshMs2@@3PAHA 6608f9dc     install.obj
 0003:0000c9e0       ?d2multi_plastRefreshMs1@@3PAHA 6608f9e0     install.obj
 0003:0000c9e4       ?d2multi_pnGames@@3PAHA    6608f9e4     install.obj
 0003:0000c9e8       ?d2multi_pGameDescription@@3PAPAUD2EditBox@@A 6608f9e8     install.obj
 0003:0000c9ec       ?d2multi_pGamePassword@@3PAPAUD2EditBox@@A 6608f9ec     install.obj
 0003:0000c9f0       ?d2multi_pGameName@@3PAPAUD2EditBox@@A 6608f9f0     install.obj
 0003:0000c9f4       ?d2multi_pGameListControl@@3PAPAUD2EditBox@@A 6608f9f4     install.obj
 0003:0000c9f8       ?d2multi_pmcp05_games2@@3PAUMcp05Game@@A 6608f9f8     install.obj
 0003:0000c9fc       ?d2multi_pEditboxPreferences@@3PAPAXA 6608f9fc     install.obj
 0003:0000ca00       ?d2multi_pmcp05_games@@3PAUMcp05Game@@A 6608fa00     install.obj
 0003:0000ca04       ?d2multi_reset_games@@3P6GHXZA 6608fa04     install.obj
 0003:0000ca08       ?d2multi_add_game@@3P6GHXZA 6608fa08     install.obj
 0003:0000ca0c       ?d2multi_show_games@@3P6GHXZA 6608fa0c     install.obj
 0003:0000ca10       ?d2multi_num2str@@3P6AHHPADH@ZA 6608fa10     install.obj
 0003:0000ca14       ?d2multi_num2str1058@@3P6GHHH@ZA 6608fa14     install.obj
 0003:0000ca18       ?d2mcpclient_pmcp05_type@@3PAHA 6608fa18     install.obj
 0003:0000ca1c       ?d2mcpclient_pmcp05_gameName2@@3PADA 6608fa1c     install.obj
 0003:0000ca20       ?d2mcpclient_pmcp05_gameName@@3PADA 6608fa20     install.obj
 0003:0000ca24       ?d2mcpclient_pmcp05_off08@@3PAHA 6608fa24     install.obj
 0003:0000ca28       ?d2mcpclient_pmcp05_nPlayers@@3PAHA 6608fa28     install.obj
 0003:0000ca2c       ?d2mcpclient_pmcp05_idx@@3PAHA 6608fa2c     install.obj
 0003:0000ca30       ?d2mcpclient_pmcp05_seqId@@3PAHA 6608fa30     install.obj
 0003:0000ca34       ?d2mcpclient_pmcp05_buf@@3PAUMcp05Buf@@A 6608fa34     install.obj
 0003:0000ca38       ?d2mcpclient_pmcpSrc@@3PAPAXA 6608fa38     install.obj
 0003:0000ca3c       ?d2mcpclient_pAccountInfo@@3PAUD2AccountInfo@@A 6608fa3c     install.obj
 0003:0000ca40       ?d2mcpclient_pmpc05_seqId@@3PAFA 6608fa40     install.obj
 0003:0000ca44       ?d2mcpclient_processOnePacket@@3P6GHXZA 6608fa44     install.obj
 0003:0000ca48       ?d2mcpclient_getMcp05Buf@@3P6GPAUMcp05Buf@@XZA 6608fa48     install.obj
 0003:0000ca4c       ?d2mcpclient_mcpPacket05@@3P6IHPAUMCPPacket05@@H@ZA 6608fa4c     install.obj
 0003:0000ca50       ?d2launch_pcharCount@@3PAHA 6608fa50     install.obj
 0003:0000ca54       ?d2launch_pD2Characters@@3PAPAUD2Character@@A 6608fa54     install.obj
 0003:0000ca58       ?d2launch_plaunchNumChildren@@3PAHA 6608fa58     install.obj
 0003:0000ca5c       ?d2launch_plaunchChildren@@3PAPAXA 6608fa5c     install.obj
 0003:0000ca60       ?d2launch_pSelectedCharIndex@@3PAHA 6608fa60     install.obj
 0003:0000ca64       ?d2launch_pcreateTextBoxParam11F0@@3PAPAKA 6608fa64     install.obj
 0003:0000ca68       ?d2launch_DeleteCharacter@@3P6IXPAD@ZA 6608fa68     install.obj
 0003:0000ca6c       ?d2launch_DeleteSelectedCharacter@@3P6GHH@ZA 6608fa6c     install.obj
 0003:0000ca70       ?d2launch_sprintf@@3P6AHPAD0ZZA 6608fa70     install.obj
 0003:0000ca74       ?d2lang_strcat@@3P6IPA_WPA_W0@ZA 6608fa74     install.obj
 0003:0000ca78       ?d2lang_initLanguage@@3P6IHHPADH@ZA 6608fa78     install.obj
 0003:0000ca7c       ?d2lang_uninit@@3P6GHXZA   6608fa7c     install.obj
 0003:0000ca80       ?d2lang_GetLocaleText@@3P6IPA_WH@ZA 6608fa80     install.obj
 0003:0000ca84       ?d2gfx_pWinState@@3PAHA    6608fa84     install.obj
 0003:0000ca88       ?d2gfx_pDrawGoundH1@@3PAHA 6608fa88     install.obj
 0003:0000ca8c       ?d2gfx_pDrawGoundH2@@3PAHA 6608fa8c     install.obj
 0003:0000ca90       ?d2gfx_pcallbackTable@@3PAPAXA 6608fa90     install.obj
 0003:0000ca94       ?d2gfx_pResolutionMode@@3PAHA 6608fa94     install.obj
 0003:0000ca98       ?d2gfx_DrawRectangle@@3P6GXJJJJHH@ZA 6608fa98     install.obj
 0003:0000ca9c       ?d2gfx_DrawLine@@3P6GXHHHHHH@ZA 6608fa9c     install.obj
 0003:0000caa0       ?d2gfx_getResolutionMode@@3P6GHXZA 6608faa0     install.obj
 0003:0000caa4       ?d2gfx_DrawCellFile@@3P6GXPAUCellContext@@HHKHPAE@ZA 6608faa4     install.obj
 0003:0000caa8       ?d2gfx_drawSomething@@3P6GXPAXHHHHH@ZA 6608faa8     install.obj
 0003:0000caac       ?d2gfx_FillOrb@@3P6GXHHHHHH@ZA 6608faac     install.obj
 0003:0000cab0       ?d2gfx_DrawAutomapNode@@3P6GXPAUCellContext@@HHPAUtagRECT@@K@ZA 6608fab0     install.obj
 0003:0000cab4       ?d2gfx_drawShadow@@3P6GXPAXHH@ZA 6608fab4     install.obj
 0003:0000cab8       ?d2gfx_clearFramebuf@@3P6GXHHHH@ZA 6608fab8     install.obj
 0003:0000cabc       ?d2gfx_flushFramebuf@@3P6GXXZA 6608fabc     install.obj
 0003:0000cac0       ?d2gfx_Ordinal10043@@3P6GXXZA 6608fac0     install.obj
 0003:0000cac4       ?d2gfx_MinimizeWindows@@3P6GXK@ZA 6608fac4     install.obj
 0003:0000cac8       ?d2gfx_GetHwnd@@3P6GPAUHWND__@@XZA 6608fac8     install.obj
 0003:0000cacc       ?d2gfx_drawGroundPiece@@3P6GXPAX0HHHHHHH@ZA 6608facc     install.obj
 0003:0000cad0       ?d2gdi_pcriticalSection@@3PAPAUCriticalSection@@A 6608fad0     install.obj
 0003:0000cad4       ?d2gdi_pFrameBuf@@3PAPAXA  6608fad4     install.obj
 0003:0000cad8       ?d2gdi_pDisplayRight@@3PAHA 6608fad8     install.obj
 0003:0000cadc       ?d2gdi_pFrameBufHeight@@3PAHA 6608fadc     install.obj
 0003:0000cae0       ?d2gdi_pgdiobj@@3PAPAXA    6608fae0     install.obj
 0003:0000cae4       ?d2gdi_ppalette@@3PAPAUHPALETTE__@@A 6608fae4     install.obj
 0003:0000cae8       ?d2gdi_pFrameBufWidth@@3PAHA 6608fae8     install.obj
 0003:0000caec       ?d2gdi_phwnd@@3PAPAUHWND__@@A 6608faec     install.obj
 0003:0000caf0       ?d2gdi_pColorMap@@3PAHA    6608faf0     install.obj
 0003:0000caf4       ?d2gdi_initCriticalSection@@3P6IHPAX0@ZA 6608faf4     install.obj
 0003:0000caf8       ?d2game_pDropChioceProb@@3PAHA 6608faf8     install.obj
 0003:0000cafc       ?d2game_pDropChioces@@3PAHA 6608fafc     install.obj
 0003:0000cb00       ?d2game_pworldHash@@3PAPAUWorldHash@@A 6608fb00     install.obj
 0003:0000cb04       ?d2game_pcriticalSection@@3PAUCriticalSection@@A 6608fb04     install.obj
 0003:0000cb08       ?d2game_pSPUnitOffsets@@3PAHA 6608fb08     install.obj
 0003:0000cb0c       ?d2game_psgptDataTables@@3PAPAUD2DataTables@@A 6608fb0c     install.obj
 0003:0000cb10       ?d2game_MonsterMove@@3P6IXPAUWorld@@PAUUnitAny@@1HHHHH@ZA 6608fb10     install.obj
 0003:0000cb14       ?d2game_MonsterUseSkill@@3P6IXPAUWorld@@PAUUnitAny@@HH1HH@ZA 6608fb14     install.obj
 0003:0000cb18       ?d2game_SpawnMonster@@3P6IPAUUnitAny@@HHPAUWorld@@PAUAreaRectData@@HHHH@ZA 6608fb18     install.obj
 0003:0000cb1c       ?d2game_SpawnMonsterEF10@@3P6IPAUUnitAny@@PAUSpawnMon@@@ZA 6608fb1c     install.obj
 0003:0000cb20       ?d2game_MakeD2S@@3P6IHPAUUnitAny@@PAUWorld@@PADPAHHHH@ZA 6608fb20     install.obj
 0003:0000cb24       ?d2game_playerUpgrade@@3P6GHPAUWorld@@@ZA 6608fb24     install.obj
 0003:0000cb28       ?d2game_CreateUnit@@3P6IPAUUnitAny@@HHHHPAUWorld@@PAUAreaRectData@@HHH@ZA 6608fb28     install.obj
 0003:0000cb2c       ?d2game_GetUnit@@3P6IHPAUWorld@@H@ZA 6608fb2c     install.obj
 0003:0000cb30       ?d2game_isUnitDead@@3P6GHXZA 6608fb30     install.obj
 0003:0000cb34       ?d2game_swapWeapon@@3P6GHPAUWorld@@PAH@ZA 6608fb34     install.obj
 0003:0000cb38       ?d2game_pickupItem@@3P6GHHPAH@ZA 6608fb38     install.obj
 0003:0000cb3c       ?d2game_putItemInSocketD4A70@@3P6GHPAUWorld@@PAUUnitAny@@HPAHHHHH@ZA 6608fb3c     install.obj
 0003:0000cb40       ?d2game_recv19_invToHand@@3P6IHPAUWorld@@PAUUnitAny@@PADH@ZA 6608fb40     install.obj
 0003:0000cb44       ?d2game_recv16_pickup@@3P6IHPAUWorld@@PAUUnitAny@@PADH@ZA 6608fb44     install.obj
 0003:0000cb48       ?d2game_pickup@@3P6IHPAUWorld@@HPAUUnitAny@@H@ZA 6608fb48     install.obj
 0003:0000cb4c       ?d2game_recv60_swapWeapon@@3P6IHPAUWorld@@PAUUnitAny@@PADH@ZA 6608fb4c     install.obj
 0003:0000cb50       ?d2game_recv1A_handToBody@@3P6IHPAUWorld@@PAUUnitAny@@PADH@ZA 6608fb50     install.obj
 0003:0000cb54       ?d2game_recv28_socket@@3P6IHPAUWorld@@PAUUnitAny@@PADH@ZA 6608fb54     install.obj
 0003:0000cb58       ?d2game_itemNotInInv@@3P6IHHHPAUUnitAny@@@ZA 6608fb58     install.obj
 0003:0000cb5c       ?d2game_processPacket@@3P6GHPAUWorld@@H@ZA 6608fb5c     install.obj
 0003:0000cb60       ?d2game_recv40_quest@@3P6IHPAUWorld@@PAUUnitAny@@PADH@ZA 6608fb60     install.obj
 0003:0000cb64       ?d2game_passClassicB9F20@@3P6IHPAUWorld@@PAUUnitAny@@H@ZA 6608fb64     install.obj
 0003:0000cb68       ?d2game_passClassicB9A30@@3P6IHXZA 6608fb68     install.obj
 0003:0000cb6c       ?d2game_BaalAI@@3P6IXPAUWorld@@PAUUnitAny@@PAX@ZA 6608fb6c     install.obj
 0003:0000cb70       ?d2game_UberBaalAI@@3P6IXPAUWorld@@PAUUnitAny@@PAX@ZA 6608fb70     install.obj
 0003:0000cb74       ?d2game_DiabloAI@@3P6IXPAUWorld@@PAUUnitAny@@PAX@ZA 6608fb74     install.obj
 0003:0000cb78       ?d2game_UberDiabloAI@@3P6IXPAUWorld@@PAUUnitAny@@PAX@ZA 6608fb78     install.obj
 0003:0000cb7c       ?d2game_NecSummon@@3P6IPAUUnitAny@@XZA 6608fb7c     install.obj
 0003:0000cb80       ?d2game_LinkPortal@@3P6GPAUUnitAny@@PAUWorld@@PAU1@HH@ZA 6608fb80     install.obj
 0003:0000cb84       ?d2game_fun_8EBC0@@3P6GHPAUWorld@@PAX@ZA 6608fb84     install.obj
 0003:0000cb88       ?d2game_SetSkillBaseLevelOnClient@@3P6IXPAXPAUUnitAny@@HHH@ZA 6608fb88     install.obj
 0003:0000cb8c       ?d2game_sendPacket@@3P6GHPADH@ZA 6608fb8c     install.obj
 0003:0000cb90       ?d2game_MephAI@@3P6IXPAUWorld@@PAUUnitAny@@PAX@ZA 6608fb90     install.obj
 0003:0000cb94       ?d2game_UberMephAI@@3P6IXPAUWorld@@PAUUnitAny@@PAX@ZA 6608fb94     install.obj
 0003:0000cb98       ?d2game_fun_769A0@@3P6GHPAUWorld@@HH@ZA 6608fb98     install.obj
 0003:0000cb9c       ?d2game_OpenPandPortal@@3P6IXPAUWorld@@PAUUnitAny@@@ZA 6608fb9c     install.obj
 0003:0000cba0       ?d2game_OpenPandFinalPortal@@3P6IXPAUWorld@@PAUUnitAny@@@ZA 6608fba0     install.obj
 0003:0000cba4       ?d2game_passExpansion599E0@@3P6IXPAUWorld@@PAUUnitAny@@H@ZA 6608fba4     install.obj
 0003:0000cba8       ?d2game_passExpansion58BE0@@3P6IXPAUUnitAny@@@ZA 6608fba8     install.obj
 0003:0000cbac       ?d2game_fun_4E2A0@@3P6IXPAUWorld@@PAUUnitAny@@H@ZA 6608fbac     install.obj
 0003:0000cbb0       ?d2game_getNetClient@@3P6IPAUNetClient@@H@ZA 6608fbb0     install.obj
 0003:0000cbb4       ?d2game_processClientQuestReq@@3P6GHPAUWorld@@PAUUnitAny@@@ZA 6608fbb4     install.obj
 0003:0000cbb8       ?d2game_sendQuestToClient@@3P6GHPAUWorld@@@ZA 6608fbb8     install.obj
 0003:0000cbbc       ?d2game_processGame@@3P6GHXZA 6608fbbc     install.obj
 0003:0000cbc0       ?d2game_isBusy@@3P6GHH@ZA  6608fbc0     install.obj
 0003:0000cbc4       ?d2game_Ord10024@@3P6GHHH@ZA 6608fbc4     install.obj
 0003:0000cbc8       ?d2game_endAllGames@@3P6AHH@ZA 6608fbc8     install.obj
 0003:0000cbcc       ?d2game_Ord10038@@3P6GHXZA 6608fbcc     install.obj
 0003:0000cbd0       ?d2game_SendDatabaseCharacter@@3P6GHHPAXHHHHPAUPlayerInfo@@H@ZA 6608fbd0     install.obj
 0003:0000cbd4       ?d2game_removeClientFromGame@@3P6GHH@ZA 6608fbd4     install.obj
 0003:0000cbd8       ?d2game_SaveGame@@3P6GXPAUWorld@@@ZA 6608fbd8     install.obj
 0003:0000cbdc       ?d2game_NewEmptyGame@@3P6GHPAD00HDDDPAF@ZA 6608fbdc     install.obj
 0003:0000cbe0       ?d2game_getWorld@@3P6GPAUWorld@@XZA 6608fbe0     install.obj
 0003:0000cbe4       ?d2game_getWorldByID@@3P6GPAUWorld@@H@ZA 6608fbe4     install.obj
 0003:0000cbe8       ?d2game_uninit@@3P6GHXZA   6608fbe8     install.obj
 0003:0000cbec       ?d2game_setWorldHash@@3P6GHPAUWorldHash@@PAH@ZA 6608fbec     install.obj
 0003:0000cbf0       ?d2game_initCallbackTable@@3P6GHPAX@ZA 6608fbf0     install.obj
 0003:0000cbf4       ?d2game_SpawnSuperUnique@@3P6IHPAUWorld@@PAUAreaRectData@@HHHHHH@ZA 6608fbf4     install.obj
 0003:0000cbf8       ?d2game_Game235C0@@3P6GXPAUWorld@@PAUAreaRectData@@@ZA 6608fbf8     install.obj
 0003:0000cbfc       ?d2game_DropItem1880@@3P6GXPAUWorld@@HHHH@ZA 6608fbfc     install.obj
 0003:0000cc00       ?d2game_DropItem1490@@3P6GPAUUnitAny@@PAUWorld@@PAXH@ZA 6608fc00     install.obj
 0003:0000cc04       ?d2game_GetFreeXY@@3P6GPAUAreaRectData@@PAU1@PAUtagPOINT@@H@ZA 6608fc04     install.obj
 0003:0000cc08       ?d2game_GetUnitLevel@@3P6GHH@ZA 6608fc08     install.obj
 0003:0000cc0c       ?d2game_hasDroppedUnique@@3P6IHH@ZA 6608fc0c     install.obj
 0003:0000cc10       ?d2game_exit@@3P6GHH@ZA    6608fc10     install.obj
 0003:0000cc14       ?d2game_getWorld_2130@@3P6GPAUWorld@@XZA 6608fc14     install.obj
 0003:0000cc18       ?d2game_TestPosition@@3P6IPAUAreaRectData@@XZA 6608fc18     install.obj
 0003:0000cc1c       ?d2game_random@@3P6IHPAUD2Seed@@@ZA 6608fc1c     install.obj
 0003:0000cc20       ?d2common_pnCubeMain@@3PAHA 6608fc20     install.obj
 0003:0000cc24       ?d2common_ppCubeMainTxt@@3PAPAXA 6608fc24     install.obj
 0003:0000cc28       ?d2common_pnMapCache@@3PAHA 6608fc28     install.obj
 0003:0000cc2c       ?d2common_ppMapCache@@3PAPAXA 6608fc2c     install.obj
 0003:0000cc30       ?d2common_ppLvlSubCache@@3PAPAXA 6608fc30     install.obj
 0003:0000cc34       ?d2common_pnLvlSub@@3PAHA  6608fc34     install.obj
 0003:0000cc38       ?d2common_ppLvlSubTxt@@3PAPAXA 6608fc38     install.obj
 0003:0000cc3c       ?d2common_pnLvlMaze@@3PAHA 6608fc3c     install.obj
 0003:0000cc40       ?d2common_ppLvlMazeTxt@@3PAPAXA 6608fc40     install.obj
 0003:0000cc44       ?d2common_pnLvlWarp@@3PAHA 6608fc44     install.obj
 0003:0000cc48       ?d2common_ppLvlWarpTxt@@3PAPAXA 6608fc48     install.obj
 0003:0000cc4c       ?d2common_pnLvlTypes@@3PAHA 6608fc4c     install.obj
 0003:0000cc50       ?d2common_pnWaypoints@@3PAHA 6608fc50     install.obj
 0003:0000cc54       ?d2common_ppWaypoints@@3PAPAXA 6608fc54     install.obj
 0003:0000cc58       ?d2common_ppLvlTypesTxt@@3PAPAXA 6608fc58     install.obj
 0003:0000cc5c       ?d2common_ppArenaTxt@@3PAPAXA 6608fc5c     install.obj
 0003:0000cc60       ?d2common_pnCharTemplate@@3PAHA 6608fc60     install.obj
 0003:0000cc64       ?d2common_ppCharTemplateTxt@@3PAPAXA 6608fc64     install.obj
 0003:0000cc68       ?d2common_pnLvlSubExtraStuff@@3PAHA 6608fc68     install.obj
 0003:0000cc6c       ?d2common_ppLvlSubExtraStuff@@3PAPAXA 6608fc6c     install.obj
 0003:0000cc70       ?d2common_pExpFieldRuntimeData@@3PAPAXA 6608fc70     install.obj
 0003:0000cc74       ?d2common_ppExpFieldD2@@3PAPAXA 6608fc74     install.obj
 0003:0000cc78       ?d2common_pnDifficultyLevels@@3PAHA 6608fc78     install.obj
 0003:0000cc7c       ?d2common_ppDifficultyLevelsTxt@@3PAPAXA 6608fc7c     install.obj
 0003:0000cc80       ?d2common_ppExperienceTxt@@3PAPAXA 6608fc80     install.obj
 0003:0000cc84       ?d2common_ppAnimTables@@3PAPAXA 6608fc84     install.obj
 0003:0000cc88       ?d2common_pItemStatCostStuff@@3PAPAXA 6608fc88     install.obj
 0003:0000cc8c       ?d2common_pnLvlPrest@@3PAHA 6608fc8c     install.obj
 0003:0000cc90       ?d2common_ppLvlPrestTxt@@3PAPAXA 6608fc90     install.obj
 0003:0000cc94       ?d2common_ppLvlDefsBin@@3PAPAXA 6608fc94     install.obj
 0003:0000cc98       ?d2common_pnLevels@@3PAHA  6608fc98     install.obj
 0003:0000cc9c       ?d2common_ppLevelsTxt@@3PAPAXA 6608fc9c     install.obj
 0003:0000cca0       ?d2common_pnMonUMod@@3PAHA 6608fca0     install.obj
 0003:0000cca4       ?d2common_ppMonUModTxt@@3PAPAXA 6608fca4     install.obj
 0003:0000cca8       ?d2common_ppMonUModLink@@3PAPAXA 6608fca8     install.obj
 0003:0000ccac       ?d2common_pnMonTypeNesting@@3PAHA 6608fcac     install.obj
 0003:0000ccb0       ?d2common_ppMonTypeNesting@@3PAPAXA 6608fcb0     install.obj
 0003:0000ccb4       ?d2common_pnMonType@@3PAHA 6608fcb4     install.obj
 0003:0000ccb8       ?d2common_ppMonTypeTxt@@3PAPAXA 6608fcb8     install.obj
 0003:0000ccbc       ?d2common_ppMonTypeLink@@3PAPAXA 6608fcbc     install.obj
 0003:0000ccc0       ?d2common_pnMonProp@@3PAHA 6608fcc0     install.obj
 0003:0000ccc4       ?d2common_ppMonPropTxt@@3PAPAXA 6608fcc4     install.obj
 0003:0000ccc8       ?d2common_ppMonPropLink@@3PAPAXA 6608fcc8     install.obj
 0003:0000cccc       ?d2common_pnUniqueItems@@3PAHA 6608fccc     install.obj
 0003:0000ccd0       ?d2common_ppUniqueItemsTxt@@3PAPAXA 6608fcd0     install.obj
 0003:0000ccd4       ?d2common_ppUniqueItemsLink@@3PAPAXA 6608fcd4     install.obj
 0003:0000ccd8       ?d2common_pnSetItems@@3PAHA 6608fcd8     install.obj
 0003:0000ccdc       ?d2common_ppSetItemsTxt@@3PAPAXA 6608fcdc     install.obj
 0003:0000cce0       ?d2common_ppSetItemsLink@@3PAPAXA 6608fce0     install.obj
 0003:0000cce4       ?d2common_pnSets@@3PAHA    6608fce4     install.obj
 0003:0000cce8       ?d2common_ppSetsTxt@@3PAPAXA 6608fce8     install.obj
 0003:0000ccec       ?d2common_ppSetsLink@@3PAPAXA 6608fcec     install.obj
 0003:0000ccf0       ?d2common_ppItemTypeNesting@@3PAPAXA 6608fcf0     install.obj
 0003:0000ccf4       ?d2common_pnItemTypeNesting@@3PAHA 6608fcf4     install.obj
 0003:0000ccf8       ?d2common_pnItemTypes@@3PAHA 6608fcf8     install.obj
 0003:0000ccfc       ?d2common_ppItemTypesTxt@@3PAPAXA 6608fcfc     install.obj
 0003:0000cd00       ?d2common_ppItemTypesLink@@3PAPAXA 6608fd00     install.obj
 0003:0000cd04       ?d2common_pnPetTypes@@3PAHA 6608fd04     install.obj
 0003:0000cd08       ?d2common_ppPetTypesLink@@3PAPAXA 6608fd08     install.obj
 0003:0000cd0c       ?d2common_ppPetTypesTxt@@3PAPAXA 6608fd0c     install.obj
 0003:0000cd10       ?d2common_pnMonEquip@@3PAHA 6608fd10     install.obj
 0003:0000cd14       ?d2common_ppMonEquipTxt@@3PAPAXA 6608fd14     install.obj
 0003:0000cd18       ?d2common_pnOpStatNesting@@3PAHA 6608fd18     install.obj
 0003:0000cd1c       ?d2common_ppOpStatNesting@@3PAPAXA 6608fd1c     install.obj
 0003:0000cd20       ?d2common_pnItemStatCost@@3PAHA 6608fd20     install.obj
 0003:0000cd24       ?d2common_ppItemStatCostLink@@3PAPAXA 6608fd24     install.obj
 0003:0000cd28       ?d2common_ppItemStatCostTxt@@3PAPAUItemStatCostTxt@@A 6608fd28     install.obj
 0003:0000cd2c       ?d2common_pnCharStats@@3PAHA 6608fd2c     install.obj
 0003:0000cd30       ?d2common_ppCharStatsTxt@@3PAPAXA 6608fd30     install.obj
 0003:0000cd34       ?d2common_pnOverlay@@3PAHA 6608fd34     install.obj
 0003:0000cd38       ?d2common_ppOverlayLink@@3PAPAXA 6608fd38     install.obj
 0003:0000cd3c       ?d2common_ppOverlayTxt@@3PAPAXA 6608fd3c     install.obj
 0003:0000cd40       ?d2common_ppPassiveSkillList@@3PAPAXA 6608fd40     install.obj
 0003:0000cd44       ?d2common_pnPassiveSkillCount@@3PAHA 6608fd44     install.obj
 0003:0000cd48       ?d2common_ppPlayerSkillList@@3PAPAXA 6608fd48     install.obj
 0003:0000cd4c       ?d2common_pnPlayerSkillCount@@3PAHA 6608fd4c     install.obj
 0003:0000cd50       ?d2common_ppPlayerSkillCount@@3PAPAXA 6608fd50     install.obj
 0003:0000cd54       ?d2common_pnSkills@@3PAHA  6608fd54     install.obj
 0003:0000cd58       ?d2common_ppSkillsLink@@3PAPAXA 6608fd58     install.obj
 0003:0000cd5c       ?d2common_ppSkillsTxt@@3PAPAXA 6608fd5c     install.obj
 0003:0000cd60       ?d2common_pnSkillDesc@@3PAHA 6608fd60     install.obj
 0003:0000cd64       ?d2common_ppSkillDescLink@@3PAPAXA 6608fd64     install.obj
 0003:0000cd68       ?d2common_ppSkillDescTxt@@3PAPAXA 6608fd68     install.obj
 0003:0000cd6c       ?d2common_pnMonSequences@@3PAHA 6608fd6c     install.obj
 0003:0000cd70       ?d2common_ppMonSequences@@3PAPAXA 6608fd70     install.obj
 0003:0000cd74       ?d2common_pnMonSeq@@3PAHA  6608fd74     install.obj
 0003:0000cd78       ?d2common_ppMonSeqLink@@3PAPAXA 6608fd78     install.obj
 0003:0000cd7c       ?d2common_ppMonSeqTxt@@3PAPAXA 6608fd7c     install.obj
 0003:0000cd80       ?d2common_pnMonLvl@@3PAHA  6608fd80     install.obj
 0003:0000cd84       ?d2common_ppMonLvlTxt@@3PAPAXA 6608fd84     install.obj
 0003:0000cd88       ?d2common_pnMissiles@@3PAHA 6608fd88     install.obj
 0003:0000cd8c       ?d2common_ppMissilesLink@@3PAPAXA 6608fd8c     install.obj
 0003:0000cd90       ?d2common_ppMissilesTxt@@3PAPAXA 6608fd90     install.obj
 0003:0000cd94       ?d2common_pSuperUniqueHcIdxList@@3PAPAXA 6608fd94     install.obj
 0003:0000cd98       ?d2common_pnSuperUniques@@3PAHA 6608fd98     install.obj
 0003:0000cd9c       ?d2common_ppSuperUniquesLink@@3PAPAXA 6608fd9c     install.obj
 0003:0000cda0       ?d2common_ppSuperUniquesTxt@@3PAPAXA 6608fda0     install.obj
 0003:0000cda4       ?d2common_pnMonPresetEachAct@@3PAHA 6608fda4     install.obj
 0003:0000cda8       ?d2common_ppMonPresetActList@@3PAPAXA 6608fda8     install.obj
 0003:0000cdac       ?d2common_ppMonPresetTxt@@3PAPAXA 6608fdac     install.obj
 0003:0000cdb0       ?d2common_pnMonPlace@@3PAHA 6608fdb0     install.obj
 0003:0000cdb4       ?d2common_ppMonPlaceLink@@3PAPAXA 6608fdb4     install.obj
 0003:0000cdb8       ?d2common_ppMonPlaceTxt@@3PAPAXA 6608fdb8     install.obj
 0003:0000cdbc       ?d2common_pnMonStats2@@3PAHA 6608fdbc     install.obj
 0003:0000cdc0       ?d2common_ppMonStats2Link@@3PAPAXA 6608fdc0     install.obj
 0003:0000cdc4       ?d2common_ppMonStats2Txt@@3PAPAXA 6608fdc4     install.obj
 0003:0000cdc8       ?d2common_pnMonSounds@@3PAHA 6608fdc8     install.obj
 0003:0000cdcc       ?d2common_ppMonSoundsLink@@3PAPAXA 6608fdcc     install.obj
 0003:0000cdd0       ?d2common_ppMonSoundsTxt@@3PAPAXA 6608fdd0     install.obj
 0003:0000cdd4       ?d2common_pnMonStats@@3PAHA 6608fdd4     install.obj
 0003:0000cdd8       ?d2common_ppMonStatsLink@@3PAPAXA 6608fdd8     install.obj
 0003:0000cddc       ?d2common_ppMonStatsTxt@@3PAPAXA 6608fddc     install.obj
 0003:0000cde0       ?d2common_ppChestTreasureClassList@@3PAPAXA 6608fde0     install.obj
 0003:0000cde4       ?d2common_pnTreasureClassEx@@3PAHA 6608fde4     install.obj
 0003:0000cde8       ?d2common_ppTreasureClassExTxt@@3PAPAXA 6608fde8     install.obj
 0003:0000cdec       ?d2common_ppTreasureClassExLink@@3PAPAXA 6608fdec     install.obj
 0003:0000cdf0       ?d2common_ppColorsLink@@3PAPAXA 6608fdf0     install.obj
 0003:0000cdf4       ?d2common_ppColorsTxt@@3PAPAXA 6608fdf4     install.obj
 0003:0000cdf8       ?d2common_pnNpcs@@3PAHA    6608fdf8     install.obj
 0003:0000cdfc       ?d2common_ppNpcsTxt@@3PAPAXA 6608fdfc     install.obj
 0003:0000ce00       ?d2common_pHireNameListEnd@@3PAPAXA 6608fe00     install.obj
 0003:0000ce04       ?d2common_pHireNameListStart@@3PAPAXA 6608fe04     install.obj
 0003:0000ce08       ?d2common_pnHirelings@@3PAHA 6608fe08     install.obj
 0003:0000ce0c       ?d2common_ppHirelingsTxt@@3PAPAXA 6608fe0c     install.obj
 0003:0000ce10       ?d2common_pnSoundCodes@@3PAHA 6608fe10     install.obj
 0003:0000ce14       ?d2common_ppSoundCodesLink@@3PAPAXA 6608fe14     install.obj
 0003:0000ce18       ?d2common_ppSoundCodesBin@@3PAPAXA 6608fe18     install.obj
 0003:0000ce1c       ?d2common_pnColorStates@@3PAHA 6608fe1c     install.obj
 0003:0000ce20       ?d2common_ppColorStates@@3PAPAXA 6608fe20     install.obj
 0003:0000ce24       ?d2common_pnActionStates@@3PAHA 6608fe24     install.obj
 0003:0000ce28       ?d2common_ppActionStates@@3PAPAXA 6608fe28     install.obj
 0003:0000ce2c       ?d2common_pnTransformStates@@3PAHA 6608fe2c     install.obj
 0003:0000ce30       ?d2common_ppTransformStates@@3PAPAXA 6608fe30     install.obj
 0003:0000ce34       ?d2common_pnCurseStates@@3PAHA 6608fe34     install.obj
 0003:0000ce38       ?d2common_ppCurseStates@@3PAPAXA 6608fe38     install.obj
 0003:0000ce3c       ?d2common_pnProgressiveStates@@3PAHA 6608fe3c     install.obj
 0003:0000ce40       ?d2common_ppProgressiveStates@@3PAPAXA 6608fe40     install.obj
 0003:0000ce44       ?d2common_ppStateMaskArray@@3PAPAXA 6608fe44     install.obj
 0003:0000ce48       ?d2common_ppStateMaskFirst@@3PAPAXA 6608fe48     install.obj
 0003:0000ce4c       ?d2common_pnStates@@3PAHA  6608fe4c     install.obj
 0003:0000ce50       ?d2common_ppStatesLink@@3PAPAXA 6608fe50     install.obj
 0003:0000ce54       ?d2common_ppStatesTxt@@3PAPAXA 6608fe54     install.obj
 0003:0000ce58       ?d2common_ppHireDescLink@@3PAPAXA 6608fe58     install.obj
 0003:0000ce5c       ?d2common_ppHireDescTxt@@3PAPAXA 6608fe5c     install.obj
 0003:0000ce60       ?d2common_ppRunesLink@@3PAPAXA 6608fe60     install.obj
 0003:0000ce64       ?d2common_pnProperties@@3PAHA 6608fe64     install.obj
 0003:0000ce68       ?d2common_ppPropertiesLink@@3PAPAXA 6608fe68     install.obj
 0003:0000ce6c       ?d2common_ppPropertiesTxt@@3PAPAXA 6608fe6c     install.obj
 0003:0000ce70       ?d2common_pnItemCalcCacheDelta@@3PAHA 6608fe70     install.obj
 0003:0000ce74       ?d2common_pnItemCalcCache@@3PAHA 6608fe74     install.obj
 0003:0000ce78       ?d2common_ppItemCalcCache@@3PAPAXA 6608fe78     install.obj
 0003:0000ce7c       ?d2common_ppItemLink@@3PAPAXA 6608fe7c     install.obj
 0003:0000ce80       ?d2common_pnMonAi@@3PAHA   6608fe80     install.obj
 0003:0000ce84       ?d2common_ppMonAiLink@@3PAPAXA 6608fe84     install.obj
 0003:0000ce88       ?d2common_ppMonAiTxt@@3PAPAXA 6608fe88     install.obj
 0003:0000ce8c       ?d2common_pnCompCodes@@3PAHA 6608fe8c     install.obj
 0003:0000ce90       ?d2common_ppCompCodesLink@@3PAPAXA 6608fe90     install.obj
 0003:0000ce94       ?d2common_ppCompCodesTxt@@3PAPAXA 6608fe94     install.obj
 0003:0000ce98       ?d2common_ppEventsLink@@3PAPAXA 6608fe98     install.obj
 0003:0000ce9c       ?d2common_ppEventsTxt@@3PAPAXA 6608fe9c     install.obj
 0003:0000cea0       ?d2common_ppSkillCodesLink@@3PAPAXA 6608fea0     install.obj
 0003:0000cea4       ?d2common_ppSkillCodesBin@@3PAPAXA 6608fea4     install.obj
 0003:0000cea8       ?d2common_pnMissCalcCacheDelta@@3PAHA 6608fea8     install.obj
 0003:0000ceac       ?d2common_pnMissCalcCache@@3PAHA 6608feac     install.obj
 0003:0000ceb0       ?d2common_ppMissCalcCache@@3PAPAXA 6608feb0     install.obj
 0003:0000ceb4       ?d2common_ppMissCalcLink@@3PAPAXA 6608feb4     install.obj
 0003:0000ceb8       ?d2common_ppMissCalcTxt@@3PAPAXA 6608feb8     install.obj
 0003:0000cebc       ?d2common_pnSkillDescCalcCacheDelta@@3PAHA 6608febc     install.obj
 0003:0000cec0       ?d2common_pnSkillDescCalcCache@@3PAHA 6608fec0     install.obj
 0003:0000cec4       ?d2common_ppSkillDescCalcCache@@3PAPAXA 6608fec4     install.obj
 0003:0000cec8       ?d2common_pnSkillCalcCacheDelta@@3PAHA 6608fec8     install.obj
 0003:0000cecc       ?d2common_pnSkillCalcCache@@3PAHA 6608fecc     install.obj
 0003:0000ced0       ?d2common_ppSkillCalcCache@@3PAPAXA 6608fed0     install.obj
 0003:0000ced4       ?d2common_ppSkillCalcLink@@3PAPAXA 6608fed4     install.obj
 0003:0000ced8       ?d2common_ppSkillCalcTxt@@3PAPAXA 6608fed8     install.obj
 0003:0000cedc       ?d2common_ppPlrModeLink@@3PAPAXA 6608fedc     install.obj
 0003:0000cee0       ?d2common_ppPlrModeTxt@@3PAPAXA 6608fee0     install.obj
 0003:0000cee4       ?d2common_ppMonModeLink@@3PAPAXA 6608fee4     install.obj
 0003:0000cee8       ?d2common_ppMonModeTxt@@3PAPAXA 6608fee8     install.obj
 0003:0000ceec       ?d2common_ppHitClassLink@@3PAPAXA 6608feec     install.obj
 0003:0000cef0       ?d2common_ppHitClassTxt@@3PAPAXA 6608fef0     install.obj
 0003:0000cef4       ?d2common_ppElemTypesLink@@3PAPAXA 6608fef4     install.obj
 0003:0000cef8       ?d2common_ppElemTypesTxt@@3PAPAXA 6608fef8     install.obj
 0003:0000cefc       ?d2common_ppStorePageLink@@3PAPAXA 6608fefc     install.obj
 0003:0000cf00       ?d2common_ppStorePageTxt@@3PAPAXA 6608ff00     install.obj
 0003:0000cf04       ?d2common_ppBodyLocsLink@@3PAPAXA 6608ff04     install.obj
 0003:0000cf08       ?d2common_ppBodyLocsTxt@@3PAPAXA 6608ff08     install.obj
 0003:0000cf0c       ?d2common_ppPlayerClassLink@@3PAPAXA 6608ff0c     install.obj
 0003:0000cf10       ?d2common_ppPlayerClassTxt@@3PAPAXA 6608ff10     install.obj
 0003:0000cf14       ?d2common_pRuneWordTxt@@3PAPAURuneWordTxt@@A 6608ff14     install.obj
 0003:0000cf18       ?d2common_pRuneWords@@3PAHA 6608ff18     install.obj
 0003:0000cf1c       ?d2common_pArmorTxts@@3PAHA 6608ff1c     install.obj
 0003:0000cf20       ?d2common_pWeaponsTxts@@3PAHA 6608ff20     install.obj
 0003:0000cf24       ?d2common_pItemTxts@@3PAPAUItemTxt@@A 6608ff24     install.obj
 0003:0000cf28       ?d2common_pItemTxtCount@@3PAHA 6608ff28     install.obj
 0003:0000cf2c       ?d2common_pInventoryTxt@@3PAPAUInventoryBIN@@A 6608ff2c     install.obj
 0003:0000cf30       ?d2common_pInventoryTxtCount@@3PAHA 6608ff30     install.obj
 0003:0000cf34       ?d2common_pDataTables@@3PAPAUD2DataTables@@A 6608ff34     install.obj
 0003:0000cf38       ?d2common_compileInventoryTxt@@3P6GPAUInventoryBIN@@H@ZA 6608ff38     install.obj
 0003:0000cf3c       ?d2common_getInventoryPos16@@3P6GXHHPAUEquipmentLayout16@@@ZA 6608ff3c     install.obj
 0003:0000cf40       ?d2common_getInventoryLayout@@3P6GXHHPAUInvLayout@@@ZA 6608ff40     install.obj
 0003:0000cf44       ?d2common_getEquipmentPos@@3P6GXHHPAUEquipmentLayout20@@H@ZA 6608ff44     install.obj
 0003:0000cf48       ?d2common_compileItemStatCostTxt@@3P6GPAXH@ZA 6608ff48     install.obj
 0003:0000cf4c       ?d2common_compileItemTypeTxt@@3P6GPAXH@ZA 6608ff4c     install.obj
 0003:0000cf50       ?d2common_GetItemTxt@@3P6GPAUItemTxt@@H@ZA 6608ff50     install.obj
 0003:0000cf54       ?d2common_getAreaLevel@@3P6GHHHH@ZA 6608ff54     install.obj
 0003:0000cf58       ?d2common_GetLevelTxt@@3P6GPAULevelTxt@@H@ZA 6608ff58     install.obj
 0003:0000cf5c       ?d2common_GetLevelWeather@@3P6GDH@ZA 6608ff5c     install.obj
 0003:0000cf60       ?d2common_GetLevelTxt07@@3P6GDH@ZA 6608ff60     install.obj
 0003:0000cf64       ?d2common_GetLevelTxt06@@3P6GDH@ZA 6608ff64     install.obj
 0003:0000cf68       ?d2common_GetLevelDefTxt@@3P6IPAULevelDefTxt@@H@ZA 6608ff68     install.obj
 0003:0000cf6c       ?d2common_addToRectData1C@@3P6GHPAUUnitAny@@@ZA 6608ff6c     install.obj
 0003:0000cf70       ?d2common_initGameDataTable@@3P6GHHHH@ZA 6608ff70     install.obj
 0003:0000cf74       ?d2common_getLvlOfExp@@3P6GHHH@ZA 6608ff74     install.obj
 0003:0000cf78       ?d2common_CompileTxtFile@@3P6GPAXHPADPAUTxtField@@PAHH@ZA 6608ff78     install.obj
 0003:0000cf7c       ?d2common_uninit@@3P6GHXZA 6608ff7c     install.obj
 0003:0000cf80       ?d2common_GetMinExpToLevel@@3P6GHHH@ZA 6608ff80     install.obj
 0003:0000cf84       ?d2common_getPlayerMaxLvl@@3P6GHH@ZA 6608ff84     install.obj
 0003:0000cf88       ?d2common_compileMonTypeTxt@@3P6GPAXH@ZA 6608ff88     install.obj
 0003:0000cf8c       ?d2common_GetTreasureClasses@@3P6GPAUTreasureClass@@GH@ZA 6608ff8c     install.obj
 0003:0000cf90       ?d2common_GetSuperUniqueTxt@@3P6GPAUSuperUniqueTxt@@H@ZA 6608ff90     install.obj
 0003:0000cf94       ?d2common_SetSkillBaseLevel@@3P6GXPAUUnitAny@@HHHPADH@ZA 6608ff94     install.obj
 0003:0000cf98       ?d2common_getSkillStatus@@3P6GHPAUUnitAny@@PAUSkill@@@ZA 6608ff98     install.obj
 0003:0000cf9c       ?d2common_getMaxSkeletons@@3P6GHPAUUnitAny@@HHH@ZA 6608ff9c     install.obj
 0003:0000cfa0       ?d2common_GetSkillCost@@3P6GHPAUUnitAny@@HHH@ZA 6608ffa0     install.obj
 0003:0000cfa4       ?d2common_GetSkillLevel@@3P6GHPAUUnitAny@@PAUSkill@@H@ZA 6608ffa4     install.obj
 0003:0000cfa8       ?d2common_CheckCorpseCanUse@@3P6GHPAUUnitAny@@K@ZA 6608ffa8     install.obj
 0003:0000cfac       ?d2common_getSkillBonus@@3P6IHXZA 6608ffac     install.obj
 0003:0000cfb0       ?d2common_getSkillId@@3P6GHHH@ZA 6608ffb0     install.obj
 0003:0000cfb4       ?d2common_getPlayerSkillCount@@3P6GHH@ZA 6608ffb4     install.obj
 0003:0000cfb8       ?d2common_setSkillCount@@3P6GXPAUSkill@@H@ZA 6608ffb8     install.obj
 0003:0000cfbc       ?d2common_GetDropPos@@3P6GPAUAreaRectData@@PAU1@PAUtagPOINT@@1HHHH@ZA 6608ffbc     install.obj
 0003:0000cfc0       ?d2common_IsLineBlocked@@3P6GHPAUAreaRectData@@PAUtagPOINT@@1H@ZA 6608ffc0     install.obj
 0003:0000cfc4       ?d2common_setItemEthereal@@3P6GHPAUUnitAny@@@ZA 6608ffc4     install.obj
 0003:0000cfc8       ?d2common_GetObjectTxt@@3P6GPAUObjectTxt@@H@ZA 6608ffc8     install.obj
 0003:0000cfcc       ?d2common_isInTown@@3P6GHPAUAreaRectData@@@ZA 6608ffcc     install.obj
 0003:0000cfd0       ?d2common_GetLevelIdFromRectData@@3P6GHPAUAreaRectData@@@ZA 6608ffd0     install.obj
 0003:0000cfd4       ?d2common_Common11084@@3P6GHPAUAreaRectData@@H@ZA 6608ffd4     install.obj
 0003:0000cfd8       ?d2common_Ord10196@@3P6GHPAUUnitAny@@@ZA 6608ffd8     install.obj
 0003:0000cfdc       ?d2common_stat_10807@@3P6GHPAUUnitAny@@PAUStatList@@H@ZA 6608ffdc     install.obj
 0003:0000cfe0       ?d2common_changeUnitStat@@3P6GHPAUUnitAny@@HHH@ZA 6608ffe0     install.obj
 0003:0000cfe4       ?d2common_AddPlayerStat@@3P6GXPAUUnitAny@@HHH@ZA 6608ffe4     install.obj
 0003:0000cfe8       ?d2common_addStatList@@3P6GHPAUStatList@@HHH@ZA 6608ffe8     install.obj
 0003:0000cfec       ?d2common_changeStatList@@3P6GHPAUStatList@@HHH@ZA 6608ffec     install.obj
 0003:0000cff0       ?d2common_fun39F70@@3P6GHHPAUUnitAny@@@ZA 6608fff0     install.obj
 0003:0000cff4       ?d2common_getStatValue39380@@3P6GHH@ZA 6608fff4     install.obj
 0003:0000cff8       ?d2common_getUnitMaxHP@@3P6GHPAUUnitAny@@@ZA 6608fff8     install.obj
 0003:0000cffc       ?d2common_getUnitMaxMana@@3P6GHPAUUnitAny@@@ZA 6608fffc     install.obj
 0003:0000d000       ?d2common_getUnitMaxStamina@@3P6GHPAUUnitAny@@@ZA 66090000     install.obj
 0003:0000d004       ?d2common_GetUnitBaseStat@@3P6GHPAUUnitAny@@HG@ZA 66090004     install.obj
 0003:0000d008       ?d2common_GetUnitStat@@3P6GHPAUUnitAny@@HG@ZA 66090008     install.obj
 0003:0000d00c       ?d2common_getUnitStatValueB00@@3P6GHPAUItemStatCostTxt@@@ZA 6609000c     install.obj
 0003:0000d010       ?d2common_getStatValueWithMinChecked@@3P6GHPAUItemStatCostTxt@@@ZA 66090010     install.obj
 0003:0000d014       ?d2common_GetStatFromStatList@@3P6GHPAUStatList@@KPAUStatEx@@K@ZA 66090014     install.obj
 0003:0000d018       ?d2common_bsearchStat@@3P6GHXZA 66090018     install.obj
 0003:0000d01c       ?d2common_removeStat@@3P6GHH@ZA 6609001c     install.obj
 0003:0000d020       ?d2common_GetStatListWithFlag@@3P6GPAUStatList@@PAUUnitAny@@HK@ZA 66090020     install.obj
 0003:0000d024       ?d2common_GetUnitPosX@@3P6GHPAUDynamicPath@@@ZA 66090024     install.obj
 0003:0000d028       ?d2common_GetUnitPosY@@3P6GHPAUDynamicPath@@@ZA 66090028     install.obj
 0003:0000d02c       ?d2common_CheckUnitState@@3P6GHPAUUnitAny@@H@ZA 6609002c     install.obj
 0003:0000d030       ?d2common_setUnitMode@@3P6GHPAUUnitAny@@H@ZA 66090030     install.obj
 0003:0000d034       ?d2common_GetMonsterHpPercent@@3P6GHPAUUnitAny@@@ZA 66090034     install.obj
 0003:0000d038       ?d2common_IsUnitBlocked@@3P6GHPAUUnitAny@@0H@ZA 66090038     install.obj
 0003:0000d03c       ?d2common_getUnitSize@@3P6GHPAUUnitAny@@@ZA 6609003c     install.obj
 0003:0000d040       ?d2common_getLeftSkill@@3P6GPAUSkill@@PAUUnitAny@@@ZA 66090040     install.obj
 0003:0000d044       ?d2common_getCurrentSkill@@3P6GPAUSkill@@PAUUnitAny@@@ZA 66090044     install.obj
 0003:0000d048       ?d2common_getUnitPos@@3P6GXPAUUnitAny@@PAUtagPOINT@@@ZA 66090048     install.obj
 0003:0000d04c       ?d2common_getRectData@@3P6GPAUAreaRectData@@PAUUnitAny@@@ZA 6609004c     install.obj
 0003:0000d050       ?d2common_GetBoxType@@3P6GHPAUUnitAny@@EH@ZA 66090050     install.obj
 0003:0000d054       ?d2common_allocUnit@@3P6GPAUUnitAny@@HH@ZA 66090054     install.obj
 0003:0000d058       ?d2common_setStaticUnitX@@3P6GXPAUUnitAny@@H@ZA 66090058     install.obj
 0003:0000d05c       ?d2common_setStaticUnitY@@3P6GXPAUUnitAny@@H@ZA 6609005c     install.obj
 0003:0000d060       ?d2common_GetPlayerData@@3P6GPAUPlayerData@@PAUUnitAny@@@ZA 66090060     install.obj
 0003:0000d064       ?d2common_getObjectFlags@@3P6GHPAUUnitAny@@@ZA 66090064     install.obj
 0003:0000d068       ?d2common_setObjectFlags@@3P6GHPAUUnitAny@@H@ZA 66090068     install.obj
 0003:0000d06c       ?d2common_InitDrlgLevel@@3P6GXPAUDrlgLevel@@@ZA 6609006c     install.obj
 0003:0000d070       ?d2common_GetDrlgLevel@@3P6IPAUDrlgLevel@@PAUDrlgMisc@@H@ZA 66090070     install.obj
 0003:0000d074       ?d2common_CheckQuestFlag@@3P6GHPAUQuestInfo@@HH@ZA 66090074     install.obj
 0003:0000d078       ?d2common_setQuestFlag@@3P6GXPAUQuestInfo@@HH@ZA 66090078     install.obj
 0003:0000d07c       ?d2common_clearQuestFlag@@3P6GXPAUQuestInfo@@HH@ZA 6609007c     install.obj
 0003:0000d080       ?d2common_copyQuestData@@3P6GPAUQuestInfo@@PAU1@PAFHH@ZA 66090080     install.obj
 0003:0000d084       ?d2common_GetMercInfo@@3P6GHHHHPAX@ZA 66090084     install.obj
 0003:0000d088       ?d2common_setItemSocket@@3P6GHPAUUnitAny@@H@ZA 66090088     install.obj
 0003:0000d08c       ?d2common_GetItemPrice@@3P6GHPAUUnitAny@@0HPAUQuestInfo@@HK@ZA 6609008c     install.obj
 0003:0000d090       ?d2common_EncodeItem@@3P6GHPAUUnitAny@@PADHHHH@ZA 66090090     install.obj
 0003:0000d094       ?d2common_EncodeItemBits@@3P6IHPAUUnitAny@@PAUFogBits@@HHH@ZA 66090094     install.obj
 0003:0000d098       ?d2common_EncodeComplexItem@@3P6GHPAUUnitAny@@PAUFogBits@@HH@ZA 66090098     install.obj
 0003:0000d09c       ?d2common_searchRunewordTxt@@3P6GPAURuneWordTxt@@PAUUnitAny@@@ZA 6609009c     install.obj
 0003:0000d0a0       ?d2common_getSocketCount@@3P6GHPAUUnitAny@@@ZA 660900a0     install.obj
 0003:0000d0a4       ?d2common_EncodeCompactItem@@3P6GHPAUUnitAny@@H@ZA 660900a4     install.obj
 0003:0000d0a8       ?d2common_countUsedSocketed@@3P6GHXZA 660900a8     install.obj
 0003:0000d0ac       ?d2common_getItemMaxSocket@@3P6GHPAUUnitAny@@@ZA 660900ac     install.obj
 0003:0000d0b0       ?d2common_checkItemTypeFlags@@3P6GHPAUUnitAny@@H@ZA 660900b0     install.obj
 0003:0000d0b4       ?d2common_isMagicItem@@3P6GHPAUUnitAny@@@ZA 660900b4     install.obj
 0003:0000d0b8       ?d2common_writeBitStream@@3P6GXPAUFogBits@@@ZA 660900b8     install.obj
 0003:0000d0bc       ?d2common_getItemSeed@@3P6GPAUD2Seed@@PAUUnitAny@@@ZA 660900bc     install.obj
 0003:0000d0c0       ?d2common_getItemFingerPrint@@3P6GHPAUUnitAny@@@ZA 660900c0     install.obj
 0003:0000d0c4       ?d2common_setItemFingerPrint@@3P6GXPAUUnitAny@@H@ZA 660900c4     install.obj
 0003:0000d0c8       ?d2common_getItemQuality@@3P6GHPAUUnitAny@@@ZA 660900c8     install.obj
 0003:0000d0cc       ?d2common_setItemQuality@@3P6GXPAUUnitAny@@H@ZA 660900cc     install.obj
 0003:0000d0d0       ?d2common_getItemMagicPrefix@@3P6GHPAUUnitAny@@H@ZA 660900d0     install.obj
 0003:0000d0d4       ?d2common_getItemMagicSuffix@@3P6GHPAUUnitAny@@H@ZA 660900d4     install.obj
 0003:0000d0d8       ?d2common_getRarePrefix@@3P6GFPAUUnitAny@@@ZA 660900d8     install.obj
 0003:0000d0dc       ?d2common_getRareSuffix@@3P6GFPAUUnitAny@@@ZA 660900dc     install.obj
 0003:0000d0e0       ?d2common_CheckItemFlag@@3P6GHPAUUnitAny@@KHPAD@ZA 660900e0     install.obj
 0003:0000d0e4       ?d2common_setItemFlag@@3P6GXPAUUnitAny@@HH@ZA 660900e4     install.obj
 0003:0000d0e8       ?d2common_getItemFlag@@3P6GXPAUUnitAny@@@ZA 660900e8     install.obj
 0003:0000d0ec       ?d2common_setItemLevel@@3P6GHPAUUnitAny@@H@ZA 660900ec     install.obj
 0003:0000d0f0       ?d2common_setItemLocation@@3P6GHPAUUnitAny@@D@ZA 660900f0     install.obj
 0003:0000d0f4       ?d2common_getItemTypeB14@@3P6GHPAUUnitAny@@@ZA 660900f4     install.obj
 0003:0000d0f8       ?d2common_getItemCode@@3P6GPADPAUUnitAny@@@ZA 660900f8     install.obj
 0003:0000d0fc       ?d2common_getItemWidthHeight@@3P6GHPAUUnitAny@@PAD1@ZA 660900fc     install.obj
 0003:0000d100       ?d2common_getItemType@@3P6GHPAUUnitAny@@@ZA 66090100     install.obj
 0003:0000d104       ?d2common_getItemTypeByTxt@@3P6GHH@ZA 66090104     install.obj
 0003:0000d108       ?d2common_getItemCode1@@3P6GPADPAUUnitAny@@@ZA 66090108     install.obj
 0003:0000d10c       ?d2common_isQuestItem@@3P6GHPAUUnitAny@@@ZA 6609010c     install.obj
 0003:0000d110       ?d2common_GetItemFileIndex@@3P6GHPAUUnitAny@@@ZA 66090110     install.obj
 0003:0000d114       ?d2common_setItemFileIndex@@3P6GHPAUUnitAny@@H@ZA 66090114     install.obj
 0003:0000d118       ?d2common_getItemData1C_20@@3P6GXPAUUnitAny@@PAX1@ZA 66090118     install.obj
 0003:0000d11c       ?d2common_setOwnerId@@3P6GXPAUUnitAny@@H@ZA 6609011c     install.obj
 0003:0000d120       ?d2common_isCompactItem@@3P6IDXZA 66090120     install.obj
 0003:0000d124       ?d2common_getItemFormat@@3P6GHPAUUnitAny@@@ZA 66090124     install.obj
 0003:0000d128       ?d2common_setItemFormat@@3P6GXPAUUnitAny@@F@ZA 66090128     install.obj
 0003:0000d12c       ?d2common_isBitSet@@3P6GHHH@ZA 6609012c     install.obj
 0003:0000d130       ?d2common_putItemIntoSocket10405@@3P6GHPAUUnitInventory@@PAUUnitAny@@H@ZA 66090130     install.obj
 0003:0000d134       ?d2common_setCursorItem@@3P6GHPAUUnitInventory@@PAUUnitAny@@@ZA 66090134     install.obj
 0003:0000d138       ?d2common_isItemInside@@3P6GHPAUUnitInventory@@PAUUnitAny@@@ZA 66090138     install.obj
 0003:0000d13c       ?d2common_CheckInvLocation@@3P6GHPAUUnitInventory@@PAUUnitAny@@HHHPAH2E@ZA 6609013c     install.obj
 0003:0000d140       ?d2common_GetNextItemInInv@@3P6GPAUUnitAny@@PAU1@@ZA 66090140     install.obj
 0003:0000d144       ?d2common_getOwnerInventory@@3P6GPAUUnitInventory@@XZA 66090144     install.obj
 0003:0000d148       ?d2common_createInventory@@3P6GPAUUnitInventory@@PAXPAUUnitAny@@@ZA 66090148     install.obj
 0003:0000d14c       ?d2common_getEquippedItemInfo@@3P6GHPAUUnitInventory@@H@ZA 6609014c     install.obj
 0003:0000d150       ?d2common_createEquippedItem@@3P6GPAUEquippedGears@@XZA 66090150     install.obj
 0003:0000d154       ?d2common_GetFirstItemInInv@@3P6GPAUUnitAny@@PAUUnitInventory@@@ZA 66090154     install.obj
 0003:0000d158       ?d2common_GetCursorItem@@3P6GPAUUnitAny@@PAUUnitInventory@@@ZA 66090158     install.obj
 0003:0000d15c       ?d2common_getFilledSockets@@3P6GHPAUUnitInventory@@@ZA 6609015c     install.obj
 0003:0000d160       ?d2common_subEsp@@3P6GHXZA 66090160     install.obj
 0003:0000d164       ?d2common_exit@@3P6GHH@ZA  66090164     install.obj
 0003:0000d168       ?d2common_GetMonStats2@@3P6IPAXXZA 66090168     install.obj
 0003:0000d16c       ?d2common_GetNearRectDataWithPos@@3P6IPAUAreaRectData@@XZA 6609016c     install.obj
 0003:0000d170       ?d2common_GetCharStatsTxt@@3P6GPAXXZA 66090170     install.obj
 0003:0000d174       ?d2cmp_mpq_path_3010@@3P6IHPAD@ZA 66090174     install.obj
 0003:0000d178       ?d2cmp_InitCellFile@@3P6GXPAXPAPAUCellFile@@PADHH2@ZA 66090178     install.obj
 0003:0000d17c       ?d2cmp_DeleteCellFile@@3P6GXPAUCellFile@@@ZA 6609017c     install.obj
 0003:0000d180       ?d2client_pIsEquipment800x600@@3PAHA 66090180     install.obj
 0003:0000d184       ?d2client_pQuestPage@@3PAHA 66090184     install.obj
 0003:0000d188       ?d2client_plpCritialSection@@3PAPAUCriticalSection@@A 66090188     install.obj
 0003:0000d18c       ?d2client_pworldHash@@3PAPAUWorldHash@@A 6609018c     install.obj
 0003:0000d190       ?d2client_pLastChatMessage@@3PA_WA 66090190     install.obj
 0003:0000d194       ?d2client_pPetUnitList@@3PAPAUPetUnit@@A 66090194     install.obj
 0003:0000d198       ?d2client_pShowManaStr@@3PAHA 66090198     install.obj
 0003:0000d19c       ?d2client_pShowLifeStr@@3PAHA 6609019c     install.obj
 0003:0000d1a0       ?d2client_pBeltNotEmpty@@3PADA 660901a0     install.obj
 0003:0000d1a4       ?d2client_pscreenDrawXsub@@3PAHA 660901a4     install.obj
 0003:0000d1a8       ?d2client_pScreenBlocked@@3PAHA 660901a8     install.obj
 0003:0000d1ac       ?d2client_pStandStill@@3PAHA 660901ac     install.obj
 0003:0000d1b0       ?d2client_pDrlgAct@@3PAPAUDrlgAct@@A 660901b0     install.obj
 0003:0000d1b4       ?d2client_pnotAcceptKeys@@3PAHA 660901b4     install.obj
 0003:0000d1b8       ?d2client_pMButton@@3PAHA  660901b8     install.obj
 0003:0000d1bc       ?d2client_pInGame@@3PAHA   660901bc     install.obj
 0003:0000d1c0       ?d2client_pDifficulty@@3PAEA 660901c0     install.obj
 0003:0000d1c4       ?d2client_pMercData32@@3PAHA 660901c4     install.obj
 0003:0000d1c8       ?d2client_pFlagUnknownC2F8@@3PAHA 660901c8     install.obj
 0003:0000d1cc       ?d2client_pHasSelectedObject@@3PAHA 660901cc     install.obj
 0003:0000d1d0       ?d2client_pFps@@3PAHA      660901d0     install.obj
 0003:0000d1d4       ?d2client_pAutoMapSize@@3PAUtagPOINT@@A 660901d4     install.obj
 0003:0000d1d8       ?d2client_pMinimapOffset@@3PAUtagPOINT@@A 660901d8     install.obj
 0003:0000d1dc       ?d2client_pInfoPositionY@@3PAHA 660901dc     install.obj
 0003:0000d1e0       ?d2client_pScreenMinimapY@@3PAHA 660901e0     install.obj
 0003:0000d1e4       ?d2client_pScreenMinimapX@@3PAHA 660901e4     install.obj
 0003:0000d1e8       ?d2client_pAutomapPos@@3PAUtagPOINT@@A 660901e8     install.obj
 0003:0000d1ec       ?d2client_pMinimapCellFile@@3PAPAUCellFile@@A 660901ec     install.obj
 0003:0000d1f0       ?d2client_pAutomapLayer@@3PAPAUAutomapLayer@@A 660901f0     install.obj
 0003:0000d1f4       ?d2client_pAutomapLayerList@@3PAPAUAutomapLayer@@A 660901f4     install.obj
 0003:0000d1f8       ?d2client_pMinimapType@@3PAHA 660901f8     install.obj
 0003:0000d1fc       ?d2client_pChatTextLength@@3PAHA 660901fc     install.obj
 0003:0000d200       ?d2client_pMapShakeX@@3PAJA 66090200     install.obj
 0003:0000d204       ?d2client_pIsMapShakeOn@@3PAHA 66090204     install.obj
 0003:0000d208       ?d2client_pActiveWeapon@@3PAHA 66090208     install.obj
 0003:0000d20c       ?d2client_pStachImage@@3PAPAUCellFile@@A 6609020c     install.obj
 0003:0000d210       ?d2client_pPanelTradeStash@@3PAPAUCellFile@@A 66090210     install.obj
 0003:0000d214       ?d2client_pPanelCube@@3PAPAUCellFile@@A 66090214     install.obj
 0003:0000d218       ?d2client_pPanelBank@@3PAPAUCellFile@@A 66090218     install.obj
 0003:0000d21c       ?d2client_pNpcTradeCurrentTab@@3PAHA 6609021c     install.obj
 0003:0000d220       ?d2client_pCurrentViewItem@@3PAPAUUnitAny@@A 66090220     install.obj
 0003:0000d224       ?d2client_pRosterUnitList@@3PAPAURosterUnit@@A 66090224     install.obj
 0003:0000d228       ?d2client_pnpcInteract@@3PAPAXA 66090228     install.obj
 0003:0000d22c       ?d2client_pPlayerUnit@@3PAPAUUnitAny@@A 6609022c     install.obj
 0003:0000d230       ?d2client_pGoldInTranBox@@3PAHA 66090230     install.obj
 0003:0000d234       ?d2client_pDrawOffsetY@@3PAHA 66090234     install.obj
 0003:0000d238       ?d2client_pDrawOffsetX@@3PAHA 66090238     install.obj
 0003:0000d23c       ?d2client_pDrawOffset@@3PAUtagPOINT@@A 6609023c     install.obj
 0003:0000d240       ?d2client_pIs800x600@@3PAHA 66090240     install.obj
 0003:0000d244       ?d2client_pGameInfo@@3PAPAUGameStructInfo@@A 66090244     install.obj
 0003:0000d248       ?d2client_pMouseX@@3PAHA   66090248     install.obj
 0003:0000d24c       ?d2client_pMouseY@@3PAHA   6609024c     install.obj
 0003:0000d250       ?d2client_pPanelBtn@@3PAPAUCellFile@@A 66090250     install.obj
 0003:0000d254       ?d2client_pPanelInvChar@@3PAPAUCellFile@@A 66090254     install.obj
 0003:0000d258       ?d2client_pXButton1@@3PAHA 66090258     install.obj
 0003:0000d25c       ?d2client_pXButton2@@3PAHA 6609025c     install.obj
 0003:0000d260       ?d2client_pKeyboardSettingEnd@@3PAUKeyboardSetting@@A 66090260     install.obj
 0003:0000d264       ?d2client_pKeyboardSettingStart@@3PAUKeyboardSetting@@A 66090264     install.obj
 0003:0000d268       ?d2client_pSkillHotKeyLeft@@3PAHA 66090268     install.obj
 0003:0000d26c       ?d2client_pSkillHotKeys@@3PAHA 6609026c     install.obj
 0003:0000d270       ?d2client_pscreenDrawX@@3PAHA 66090270     install.obj
 0003:0000d274       ?d2client_pscreenDrawY@@3PAHA 66090274     install.obj
 0003:0000d278       ?d2client_pCastingDelayEndFrame@@3PAHA 66090278     install.obj
 0003:0000d27c       ?d2client_pExpansion@@3PAHA 6609027c     install.obj
 0003:0000d280       ?d2client_pPing@@3PAHA     66090280     install.obj
 0003:0000d284       ?d2client_pCurFrame@@3PAHA 66090284     install.obj
 0003:0000d288       ?d2client_pTradeRelated@@3PAPAHA 66090288     install.obj
 0003:0000d28c       ?d2client_pGameQuestData@@3PAPAUQuestInfo@@A 6609028c     install.obj
 0003:0000d290       ?d2client_pQuestData@@3PAPAUQuestInfo@@A 66090290     install.obj
 0003:0000d294       ?d2client_pAutomapNodeListBaseAddr@@3PAPAXA 66090294     install.obj
 0003:0000d298       ?d2client_pMapShakeY@@3PAJA 66090298     install.obj
 0003:0000d29c       ?d2client_pUnitTable@@3PAPAUUnitAny@@A 6609029c     install.obj
 0003:0000d2a0       ?d2client_pWaypointMenuCount@@3PAHA 660902a0     install.obj
 0003:0000d2a4       ?d2client_pWaypointMenuCurTab@@3PAHA 660902a4     install.obj
 0003:0000d2a8       ?d2client_pWaypointMenuItems@@3PAUWaypointMenuItem@@A 660902a8     install.obj
 0003:0000d2ac       ?d2client_pUiHelpOn@@3PAHA 660902ac     install.obj
 0003:0000d2b0       ?d2client_pUiBeltOn@@3PAHA 660902b0     install.obj
 0003:0000d2b4       ?d2client_pUiCubeOn@@3PAHA 660902b4     install.obj
 0003:0000d2b8       ?d2client_pUiStashOn@@3PAHA 660902b8     install.obj
 0003:0000d2bc       ?d2client_pUiMessageLogOn@@3PAHA 660902bc     install.obj
 0003:0000d2c0       ?d2client_pUiPPLTradeOn@@3PAHA 660902c0     install.obj
 0003:0000d2c4       ?d2client_pUiPartyOn@@3PAHA 660902c4     install.obj
 0003:0000d2c8       ?d2client_pUiWaypointOn@@3PAHA 660902c8     install.obj
 0003:0000d2cc       ?d2client_pUiNewQuestOn@@3PAHA 660902cc     install.obj
 0003:0000d2d0       ?d2client_pUiQuestOn@@3PAHA 660902d0     install.obj
 0003:0000d2d4       ?d2client_pUiModItemOn@@3PAHA 660902d4     install.obj
 0003:0000d2d8       ?d2client_pUiShowItemsOn@@3PAHA 660902d8     install.obj
 0003:0000d2dc       ?d2client_pUiNpcTradeOn@@3PAHA 660902dc     install.obj
 0003:0000d2e0       ?d2client_pAutomapOn@@3PAHA 660902e0     install.obj
 0003:0000d2e4       ?d2client_pUiGameMenuOn@@3PAHA 660902e4     install.obj
 0003:0000d2e8       ?d2client_pUiInteractOn@@3PAHA 660902e8     install.obj
 0003:0000d2ec       ?d2client_pUiNewSkillOn@@3PAHA 660902ec     install.obj
 0003:0000d2f0       ?d2client_pUiNewStatOn@@3PAHA 660902f0     install.obj
 0003:0000d2f4       ?d2client_pUiChatOn@@3PAHA 660902f4     install.obj
 0003:0000d2f8       ?d2client_pUiSkillTreeOn@@3PAHA 660902f8     install.obj
 0003:0000d2fc       ?d2client_pUiSelectSkillOn@@3PAHA 660902fc     install.obj
 0003:0000d300       ?d2client_pUiCharacterOn@@3PAHA 66090300     install.obj
 0003:0000d304       ?d2client_pUiInventoryOn@@3PAHA 66090304     install.obj
 0003:0000d308       ?d2client_pUiDropGoldWindow@@3PAPAXA 66090308     install.obj
 0003:0000d30c       ?d2client_pInfoPositionX@@3PAHA 6609030c     install.obj
 0003:0000d310       ?d2client_pExitAppFlag@@3PAHA 66090310     install.obj
 0003:0000d314       ?d2client_pGameControlEnd@@3PAHA 66090314     install.obj
 0003:0000d318       ?d2client_pGameControlStart@@3PAHA 66090318     install.obj
 0003:0000d31c       ?d2client_pMercData16@@3PAHA 6609031c     install.obj
 0003:0000d320       ?d2client_pMinimapZoom@@3PAHA 66090320     install.obj
 0003:0000d324       ?d2client_pCurSkillClass@@3PAHA 66090324     install.obj
 0003:0000d328       ?d2client_pCursorInvGridY@@3PAHA 66090328     install.obj
 0003:0000d32c       ?d2client_pCursorInvGridX@@3PAHA 6609032c     install.obj
 0003:0000d330       ?d2client_pLastMousePos@@3PAUtagPOINT@@A 66090330     install.obj
 0003:0000d334       ?d2client_pScreenHeight@@3PAHA 66090334     install.obj
 0003:0000d338       ?d2client_pScreenSize@@3PAUtagPOINT@@A 66090338     install.obj
 0003:0000d33c       ?d2client_pScreenWidth@@3PAHA 6609033c     install.obj
 0003:0000d340       ?d2client_psgptDataTables@@3PAPAUD2DataTables@@A 66090340     install.obj
 0003:0000d344       ?d2client_DrawControls@@3P6GHH@ZA 66090344     install.obj
 0003:0000d348       ?d2client_SetUiStatus@@3P6IHHHK@ZA 66090348     install.obj
 0003:0000d34c       ?d2client_LoadUiImageSubpath@@3P6IPAUCellFile@@XZA 6609034c     install.obj
 0003:0000d350       ?d2client_CheckUiStatusStub@@3P6IHH@ZA 66090350     install.obj
 0003:0000d354       ?d2client_RecvPacket9D@@3P6IXPAD@ZA 66090354     install.obj
 0003:0000d358       ?d2client_RecvPacket9C@@3P6IXPAD@ZA 66090358     install.obj
 0003:0000d35c       ?d2client_PacketHandler@@3P6GXH@ZA 6609035c     install.obj
 0003:0000d360       ?d2client_RecvCommand07@@3P6IXPAE@ZA 66090360     install.obj
 0003:0000d364       ?d2client_RecvCommand08@@3P6IXPAE@ZA 66090364     install.obj
 0003:0000d368       ?d2client_removeUnitFromHash@@3P6IHPAPAUUnitAny@@HHH@ZA 66090368     install.obj
 0003:0000d36c       ?d2client_addUnitToHash@@3P6GHXZA 6609036c     install.obj
 0003:0000d370       ?d2client_GetUnitFromId@@3P6IPAUUnitAny@@HH@ZA 66090370     install.obj
 0003:0000d374       ?d2client_CanUseSkillNow@@3P6GHH@ZA 66090374     install.obj
 0003:0000d378       ?d2client_processMessageA3C10@@3P6GHPAUD2MSG@@@ZA 66090378     install.obj
 0003:0000d37c       ?d2client_drawFloatingWindow@@3P6GHXZA 6609037c     install.obj
 0003:0000d380       ?d2client_drawUnits9EE90@@3P6GHPAX@ZA 66090380     install.obj
 0003:0000d384       ?d2client_drawInventory@@3P6GHXZA 66090384     install.obj
 0003:0000d388       ?d2client_func_958A0@@3P6GHPAUUnitAny@@@ZA 66090388     install.obj
 0003:0000d38c       ?d2client_DrawAllUnits@@3P6GHXZA 6609038c     install.obj
 0003:0000d390       ?d2client_CalcShake@@3P6GXPAH0@ZA 66090390     install.obj
 0003:0000d394       ?d2client_packet9C_4@@3P6IXXZA 66090394     install.obj
 0003:0000d398       ?d2client_drawEnvironment@@3P6GXPAX0@ZA 66090398     install.obj
 0003:0000d39c       ?d2client_ShowGameMessage@@3P6GXPA_WH@ZA 6609039c     install.obj
 0003:0000d3a0       ?d2client_ShowPartyMessage@@3P6GXPA_WH@ZA 660903a0     install.obj
 0003:0000d3a4       ?d2client_getSkillTreeButtonY@@3P6IHXZA 660903a4     install.obj
 0003:0000d3a8       ?d2client_getSkillTreeButtonX@@3P6IHXZA 660903a8     install.obj
 0003:0000d3ac       ?d2client_ChatInputStub@@3P6GXPAUD2MSG@@@ZA 660903ac     install.obj
 0003:0000d3b0       ?d2client_drawInvItem@@3P6GHHH@ZA 660903b0     install.obj
 0003:0000d3b4       ?d2client_drawUnit@@3P6GHPAX@ZA 660903b4     install.obj
 0003:0000d3b8       ?d2client_shouldDrawUnit@@3P6GHXZA 660903b8     install.obj
 0003:0000d3bc       ?d2client_InitAutomapLayerStub@@3P6IPAUAutomapLayer@@K@ZA 660903bc     install.obj
 0003:0000d3c0       ?d2client_AddAreaRectToMinimap@@3P6GXPAUAreaRectData@@KPAUAutomapLayer@@@ZA 660903c0     install.obj
 0003:0000d3c4       ?d2client_AddAutomapNode@@3P6IXPAUAutomapNode@@PAPAU1@@ZA 660903c4     install.obj
 0003:0000d3c8       ?d2client_SetAutomapPartyStub@@3P6IXK@ZA 660903c8     install.obj
 0003:0000d3cc       ?d2client_SetAutomapNamesStub@@3P6IXK@ZA 660903cc     install.obj
 0003:0000d3d0       ?d2client_NewAutomapNode@@3P6IPAUAutomapNode@@XZA 660903d0     install.obj
 0003:0000d3d4       ?d2client_drawAllHeads@@3P6GHXZA 660903d4     install.obj
 0003:0000d3d8       ?d2client_GetSelectedUnit@@3P6GPAUUnitAny@@XZA 660903d8     install.obj
 0003:0000d3dc       ?d2client_clickHireMercMenu@@3P6GHXZA 660903dc     install.obj
 0003:0000d3e0       ?d2client_drawNpcInteractMenu@@3P6GHXZA 660903e0     install.obj
 0003:0000d3e4       ?d2client_Unknown6150@@3P6GHXZA 660903e4     install.obj
 0003:0000d3e8       ?d2client_GetScreenDrawY@@3P6GJXZA 660903e8     install.obj
 0003:0000d3ec       ?d2client_GetScreenDrawX@@3P6GJXZA 660903ec     install.obj
 0003:0000d3f0       ?d2client_DrawSkillButtonE5E0@@3P6GXHHHHHH@ZA 660903f0     install.obj
 0003:0000d3f4       ?d2client_SkillUnusable@@3P6IXXZA 660903f4     install.obj
 0003:0000d3f8       ?d2client_processWinMessage@@3P6GHPAUHWND__@@HHH@ZA 660903f8     install.obj
 0003:0000d3fc       ?d2client_processMessages@@3P6IXXZA 660903fc     install.obj
 0003:0000d400       ?d2client_ShowMap@@3P6IXXZA 66090400     install.obj
 0003:0000d404       ?d2client_LoadUiImageFunc@@3P6GPAUCellFile@@H@ZA 66090404     install.obj
 0003:0000d408       ?d2client_UseBelt@@3P6IXPAUUnitInventory@@PAUUnitAny@@H@ZA 66090408     install.obj
 0003:0000d40c       ?d2client_DrawClient@@3P6IXXZA 6609040c     install.obj
 0003:0000d410       ?d2client_DrawSkillButton@@3P6GXPAUSkill@@HHH@ZA 66090410     install.obj
 0003:0000d414       ?d2client_drawHpManaText@@3P6GHXZA 66090414     install.obj
 0003:0000d418       ?d2client_PlaySound@@3P6IHHHH@ZA 66090418     install.obj
 0003:0000d41c       ?d2client_ItemProtect@@3P6GXPAUUnitAny@@K@ZA 6609041c     install.obj
 0003:0000d420       ?d2client_GetMonsterOwner@@3P6IHH@ZA 66090420     install.obj
 0003:0000d424       ?d2client_LeftClickBDE0@@3P6GHXZA 66090424     install.obj
 0003:0000d428       ?d2client_RightClickBC40@@3P6GHXZA 66090428     install.obj
 0003:0000d42c       ?d2client_ShouldClick85E0@@3P6GHXZA 6609042c     install.obj
 0003:0000d430       ?d2client_SendPacket3@@3P6IXF@ZA 66090430     install.obj
 0003:0000d434       ?d2client_SendPacket43E0@@3P6GXPAD@ZA 66090434     install.obj
 0003:0000d438       ?d2client_drawGround@@3P6GHPAX@ZA 66090438     install.obj
 0003:0000d43c       ?d2client_drawGroundPiece@@3P6GXHHHHHH@ZA 6609043c     install.obj
 0003:0000d440       ?d2client_SetResolutionMode@@3P6GXXZA 66090440     install.obj
 0003:0000d444       ?d2client_getNearbyRectData@@3P6GXPAUAreaRectData@@PAPAPAU1@PAH@ZA 66090444     install.obj
 0003:0000d448       ?d2client_Storm511@@3P6GXPAUD2MSG@@@ZA 66090448     install.obj
 0003:0000d44c       ?d2client_subEsp@@3P6GHXZA 6609044c     install.obj
 0003:0000d450       ?d2client_getSkillDescTxt@@3P6IPAXXZA 66090450     install.obj
 0003:0000d454       ?bnclient_pBnChatMessage@@3PAPAKA 66090454     install.obj
 0003:0000d45c       ?bnetIp@@3PADA             6609045c     install.obj
 0003:0000d464       ?load_dll_error@@3HA       66090464     install.obj
 0003:0000d468       ?fLocalizationSupport@@3HA 66090468     install.obj
 0003:0000d46c       ?addr_storm@@3PAUHINSTANCE__@@A 6609046c     install.obj
 0003:0000d470       ?addr_d2client@@3PAUHINSTANCE__@@A 66090470     install.obj
 0003:0000d474       ?addr_d2common@@3PAUHINSTANCE__@@A 66090474     install.obj
 0003:0000d478       ?addr_d2gfx@@3PAUHINSTANCE__@@A 66090478     install.obj
 0003:0000d47c       ?addr_d2win@@3PAUHINSTANCE__@@A 6609047c     install.obj
 0003:0000d480       ?addr_d2lang@@3PAUHINSTANCE__@@A 66090480     install.obj
 0003:0000d484       ?addr_d2cmp@@3PAUHINSTANCE__@@A 66090484     install.obj
 0003:0000d488       ?addr_bnclient@@3PAUHINSTANCE__@@A 66090488     install.obj
 0003:0000d48c       ?addr_d2net@@3PAUHINSTANCE__@@A 6609048c     install.obj
 0003:0000d490       ?addr_fog@@3PAUHINSTANCE__@@A 66090490     install.obj
 0003:0000d494       ?addr_d2game@@3PAUHINSTANCE__@@A 66090494     install.obj
 0003:0000d498       ?addr_d2launch@@3PAUHINSTANCE__@@A 66090498     install.obj
 0003:0000d49c       ?addr_d2gdi@@3PAUHINSTANCE__@@A 6609049c     install.obj
 0003:0000d4a0       ?addr_d2sound@@3PAUHINSTANCE__@@A 660904a0     install.obj
 0003:0000d4a4       ?addr_d2multi@@3PAUHINSTANCE__@@A 660904a4     install.obj
 0003:0000d4a8       ?addr_d2mcpclient@@3PAUHINSTANCE__@@A 660904a8     install.obj
 0003:0000d4ac       ?fGameFilter@@3HA          660904ac     install.obj
 0003:0000d4b0       ?hasPlugY@@3HA             660904b0     install.obj
 0003:0000d4b4       ?pPatchList@@3PAPAUInstalledPatch@@A 660904b4     install.obj
 0003:0000d4c4       ?networkPatch@@3PAUInstalledPatch@@A 660904c4     install.obj
 0003:0000e8d8       ?dwDumpMpqPath@@3HA        660918d8     mpq.obj
 0003:0000e988       ?singlePlayerWorld@@3PAUWorld@@A 66091988     common.obj
 0003:0000e98c       ?forceStandStill@@3HA      6609198c     common.obj
 0003:0000f5b8       ?nPet@@3HA                 660925b8     common.obj
 0003:0000f5bc       ?petCap@@3HA               660925bc     common.obj
 0003:0000f5c0       ?dwPetListChangeVerify@@3HA 660925c0     common.obj
 0003:0000f5c8       ?fPartyListValid@@3HA      660925c8     common.obj
 0003:0000f5f4       ?screenDrawY@@3HA          660925f4     loop.obj
 0003:0000f5f8       ?screenDrawX@@3HA          660925f8     loop.obj
 0003:0000f5fc       ?dwChangeLeftSkill@@3HA    660925fc     loop.obj
 0003:0000f600       ?dwLoopCount@@3HA          66092600     loop.obj
 0003:0000f604       ?fDebugMs@@3HA             66092604     loop.obj
 0003:0000f608       ?dwLevelChangeMs@@3HA      66092608     loop.obj
 0003:0000f60c       ?dwCpuUser@@3HA            6609260c     loop.obj
 0003:0000f610       ?dwCpuKernel@@3HA          66092610     loop.obj
 0003:0000f614       ?dwLoopFPS@@3HA            66092614     loop.obj
 0003:0000f618       ?dwDrawFPS@@3HA            66092618     loop.obj
 0003:0000f61c       ?dwCurMs@@3HC              6609261c     loop.obj
 0003:0000f620       ?dwEnterGameMs@@3HA        66092620     loop.obj
 0003:0000f624       ?fStartingGame@@3HA        66092624     loop.obj
 0003:0000f628       ?fInGame@@3HA              66092628     loop.obj
 0003:0000f62c       ?dwEnterGameShowDifficultyMs@@3HA 6609262c     loop.obj
 0003:0000f630       ?dwCurrentAct@@3HA         66092630     loop.obj
 0003:0000f634       ?dwPlayerX@@3HA            66092634     loop.obj
 0003:0000f638       ?dwPlayerY@@3HA            66092638     loop.obj
 0003:0000f63c       ?dwPlayerId@@3HA           6609263c     loop.obj
 0003:0000f640       ?dwPlayerPartyId@@3HA      66092640     loop.obj
 0003:0000f644       ?dwPlayerClass@@3HA        66092644     loop.obj
 0003:0000f648       ?pLeftSkill@@3PAUSkill@@A  66092648     loop.obj
 0003:0000f64c       ?pRightSkill@@3PAUSkill@@A 6609264c     loop.obj
 0003:0000f650       ?dwLeftSkillStatus@@3HA    66092650     loop.obj
 0003:0000f654       ?dwRightSkillStatus@@3HA   66092654     loop.obj
 0003:0000f658       ?dwPlayerLevel@@3HA        66092658     loop.obj
 0003:0000f65c       ?dwPlayerHP@@3HA           6609265c     loop.obj
 0003:0000f660       ?dwPlayerMaxHP@@3HA        66092660     loop.obj
 0003:0000f664       ?dwPlayerMana@@3HA         66092664     loop.obj
 0003:0000f668       ?dwPlayerMaxMana@@3HA      66092668     loop.obj
 0003:0000f66c       ?dwPlayerFcrFrame@@3HA     6609266c     loop.obj
 0003:0000f670       ?dwPlayerFcrMs@@3HA        66092670     loop.obj
 0003:0000f674       ?dwSlowRestoreMs@@3HA      66092674     loop.obj
 0003:0000f6b0       ?wcsLevelTargetName@@3PA_WA 660926b0     map.obj
 0003:0000f7bc       ?dwRescueBarDy@@3HA        660927bc     map.obj
 0003:0000f7c0       ?dwRescueBarDx@@3HA        660927c0     map.obj
 0003:0000f7d8       ?minimapLevels@@3PAUMinimapLevel@@A 660927d8     map.obj
 0003:00010db8       ?pCurMapLevel@@3PAUMinimapLevel@@A 66093db8     map.obj
 0003:00010ea4       ?pMinimapObjectCell@@3PAUCellFile@@A 66093ea4     map.obj
 0003:00010ea8       ?dwRevealMapMs@@3HA        66093ea8     map.obj
 0003:00010eac       ?dwAutoRevealCLevel@@3HA   66093eac     map.obj
 0003:00010eb0       ?anMonsterColours@@3PAEA   66093eb0     map.obj
 0003:00011298       ?wszStaffTombLvlDesc@@3PA_WA 66094298     map.obj
 0003:000112fc       ?nCaveNameTextCol@@3EA     660942fc     map.obj
 0003:000112fd       ?nSuperUniqueDescFont@@3EA 660942fd     map.obj
 0003:00011300       ?aszUnitBlobFiles@@3PAY0DC@DA 66094300     map.obj
 0003:00011528       ?awszEnchantDescs@@3PAY0BE@_WA 66094528     map.obj
 0003:00011cf8       ?awszAuraDescs@@3PAY0BE@_WA 66094cf8     map.obj
 0003:00011e10       ?awszImmuneDescs@@3PAY0BE@_WA 66094e10     map.obj
 0003:00011f00       ?anMonsterCorpseColors@@3PAEA 66094f00     map.obj
 0003:000122e8       ?anMissileColours@@3PAEA   660952e8     map.obj
 0003:000126d0       ?dwScreenScrollCount@@3HA  660956d0     map.obj
 0003:000126d4       ?dwMinimapScrollCount@@3HA 660956d4     map.obj
 0003:000126d8       ?tScreenScrollKeys@@3PAUToggleVar@@A 660956d8     map.obj
 0003:000129d8       ?dwScreenScrollOffset@@3PAY01HA 660959d8     map.obj
 0003:00012a58       ?tMiniMapScrollKeys@@3PAUToggleVar@@A 66095a58     map.obj
 0003:00012d58       ?dwMiniMapScrollOffset@@3PAY01HA 66095d58     map.obj
 0003:00012fe4       ?dwSendPacketCount@@3HA    66095fe4     packet.obj
 0003:00012fe8       ?fMonitorSendCmd@@3PADA    66095fe8     packet.obj
 0003:000130e8       ?fMonitorRecvCmd@@3PADA    660960e8     packet.obj
 0003:000132e8       ?dwInteractEntityCount@@3HA 660962e8     packet.obj
 0003:000132f4       ?dwTargetDistanceMs@@3HA   660962f4     route.obj
 0003:000132f8       ?dwTargetDistance@@3HA     660962f8     route.obj
 0003:00013324       ?pSrcRect@@3PAURouteRect@@A 66096324     route.obj
 0003:00013328       ?dwTakeWaypointToLevel@@3HA 66096328     waypoint.obj
 0003:0001332c       ?waypointBits@@3PADA       6609632c     waypoint.obj
 0003:00013338       ?waypointMap@@3PAHA        66096338     waypoint.obj
 0003:00013568       ?mouseL@@3HA               66096568     winmsg.obj
 0003:0001356c       ?mouseW@@3HA               6609656c     winmsg.obj
 0003:00015970       ?fSkipPainting@@3HA        66098970     winmsg.obj
 0003:00015974       ?fSkipPaintingMenu@@3HA    66098974     winmsg.obj
 0003:00015978       ?dwQuickSwapItemMs@@3HA    66098978     winmsg.obj
 0003:0001597c       ?dwScreenBlockMask@@3HA    6609897c     winmsg.obj
 0003:00015980       ?dwDrawCount@@3HA          66098980     winmsg.obj
 0003:00015984       ?fInMainMenu@@3HA          66098984     winmsg.obj
 0003:00015988       ?fLeftBtnDown@@3HA         66098988     winmsg.obj
 0003:0001598c       ?fRightBtnDown@@3HA        6609898c     winmsg.obj
 0003:00015990       ?dwBtnReleaseMs@@3HA       66098990     winmsg.obj
 0003:00015994       ?fUserOperating@@3HA       66098994     winmsg.obj
 0003:000159c0       ?fNoBackgroundImage@@3HA   660989c0     winmsg.obj
 0003:000159c4       ?dwAutoHideMinimapKey@@3HA 660989c4     winmsg.obj
 0003:000159c8       ?dwGameControlKeys@@3PAY03HA 660989c8     winmsg.obj
 0003:00015dc8       ?dwGameSoundKeys@@3PAHA    66098dc8     winmsg.obj
 0003:00015fc8       ?tSwitchWindowKeys@@3PAY01UToggleVar@@A 66098fc8     winmsg.obj
 0003:000165c8       ?dwSwitchSkillKeyCount@@3HA 660995c8     winmsg.obj
 0003:000165cc       ?fFullWindows@@3HA         660995cc     winmsg.obj
 0003:000165d0       ?dwSwitchSkillKeys@@3PAHA  660995d0     winmsg.obj
 0003:00016650       ?dwSwitchSkillLeft@@3PAY173HA 66099650     winmsg.obj
 0003:00017650       ?dwSwitchSkillRight@@3PAY173HA 6609a650     winmsg.obj
 0003:00018650       ?dwSwitchSkillLeftUp@@3PAY07HA 6609b650     winmsg.obj
 0003:00018a50       ?dwSwitchSkillRightUp@@3PAY07HA 6609ba50     winmsg.obj
 0003:00018e50       ?dwSwitchSkillStandStill@@3PAHA 6609be50     winmsg.obj
 0003:00018ed0       ?dwSwitchSkillLeftOrg@@3PAHA 6609bed0     winmsg.obj
 0003:00018f50       ?dwSwitchSkillRightOrg@@3PAHA 6609bf50     winmsg.obj
 0003:00018fd0       ?dwTpSwitchBackground@@3PAHA 6609bfd0     winmsg.obj
 0003:00018ff0       ?dwEnterDoorInBackgroundSkill@@3PAY0IM@HA 6609bff0     winmsg.obj
 0003:00019f70       ?skipMonsters@@3PADA       6609cf70     env.obj
 0003:0001a370       ?dwVisualEffectMode@@3HA   6609d370     env.obj
 0003:0001a378       ?afMonsterCorpses@@3PAEA   6609d378     env.obj
 0003:0001a760       ?afMissileCorpses@@3PAEA   6609d760     env.obj
 0003:0001ab48       ?dwNextStackLoc@@3HA       6609db48     GameMonitor.obj
 0003:0001ab4c       ?dwNextStackY@@3HA         6609db4c     GameMonitor.obj
 0003:0001ab50       ?dwNextStackX@@3HA         6609db50     GameMonitor.obj
 0003:0001ab54       ?dwNextStackingId@@3HA     6609db54     GameMonitor.obj
 0003:0001ab58       ?dwThrowWeaponId@@3HA      6609db58     GameMonitor.obj
 0003:0001ab74       ?dwNextMPotionId@@3HA      6609db74     GameMonitor.obj
 0003:0001ab78       ?dwNextHPotionId@@3HA      6609db78     GameMonitor.obj
 0003:0001ab7c       ?beltLayers@@3HA           6609db7c     GameMonitor.obj
 0003:0001ab80       ?dwNeedPotionType@@3HA     6609db80     GameMonitor.obj
 0003:0001ab84       ?beltType@@3PAEA           6609db84     GameMonitor.obj
 0003:0001ab88       ?beltCount@@3PAEA          6609db88     GameMonitor.obj
 0003:0001ab8c       ?fWerebear@@3HA            6609db8c     GameMonitor.obj
 0003:0001ab90       ?fWerewolf@@3HA            6609db90     GameMonitor.obj
 0003:0001ab94       ?dwOakSageLvl@@3HA         6609db94     GameMonitor.obj
 0003:0001ab98       ?dwRecheckSelfItemMs@@3HA  6609db98     GameMonitor.obj
 0003:0001ab9c       ?leftWeapon@@3PAUUnitAny@@A 6609db9c     GameMonitor.obj
 0003:0001aba0       ?rightWeapon@@3PAUUnitAny@@A 6609dba0     GameMonitor.obj
 0003:0001aba4       ?dwTownPortalCount@@3HA    6609dba4     GameMonitor.obj
 0003:0001aba8       ?dwIdentifyPortalCount@@3HA 6609dba8     GameMonitor.obj
 0003:0001abac       ?fUsingBow@@3HA            6609dbac     GameMonitor.obj
 0003:0001abb0       ?fUsingCrossBow@@3HA       6609dbb0     GameMonitor.obj
 0003:0001abb4       ?fUsingThrow@@3HA          6609dbb4     GameMonitor.obj
 0003:0001abb8       ?dwHPotionCount@@3HA       6609dbb8     GameMonitor.obj
 0003:0001abbc       ?dwMPotionCount@@3HA       6609dbbc     GameMonitor.obj
 0003:0001abc0       ?dwRPotionCount@@3HA       6609dbc0     GameMonitor.obj
 0003:0001abc4       ?dwArrowCount@@3HA         6609dbc4     GameMonitor.obj
 0003:0001abc8       ?dwCArrowCount@@3HA        6609dbc8     GameMonitor.obj
 0003:0001abcc       ?dwThrowCount@@3HA         6609dbcc     GameMonitor.obj
 0003:0001abd0       ?stashPages@@3PAPAUStashPage@@A 6609dbd0     GameMonitor.obj
 0003:0001add0       ?nStashPages@@3HA          6609ddd0     GameMonitor.obj
 0003:0001add4       ?fMonitorQuantity@@3HA     6609ddd4     GameMonitor.obj
 0003:0001add8       ?fMonitorDurability@@3HA   6609ddd8     GameMonitor.obj
 0003:0001addc       ?dwKillSum@@3HA            6609dddc     GameMonitor.obj
 0003:0001ade0       ?dwGameKills@@3HA          6609dde0     GameMonitor.obj
 0003:0001ade4       ?dwLastKills@@3HA          6609dde4     GameMonitor.obj
 0003:0001ade8       ?dwGetHitSum@@3HA          6609dde8     GameMonitor.obj
 0003:0001adec       ?dwGetHits@@3HA            6609ddec     GameMonitor.obj
 0003:0001adf0       ?dwOrgMode@@3HA            6609ddf0     GameMonitor.obj
 0003:0001adf4       ?targetNameColor@@3DA      6609ddf4     GameMonitor.obj
 0003:0001adf8       ?fState100HP@@3HA          6609ddf8     GameMonitor.obj
 0003:0001adfc       ?fState106ManaMs@@3HA      6609ddfc     GameMonitor.obj
 0003:0001ae04       ?dwGuessBOMs@@3HA          6609de04     GameMonitor.obj
 0003:0001ae08       ?dwGuessEnchantMs@@3HA     6609de08     GameMonitor.obj
 0003:0001d728       ?fViewingTargetUnit@@3HA   660a0728     info.obj
 0003:0001d72c       ?currentgameexp@@3HA       660a072c     info.obj
 0003:0001d780       ?invItems@@3PAUDrawInvItem@@A 660a0780     item.obj
 0003:00093680       ?dwGoldGoodNum@@3HA        66116680     item.obj
 0003:00093684       ?fSimplifiedPotionName@@3HA 66116684     item.obj
 0003:00093688       ?anRuneColours@@3PAY03DA   66116688     item.obj
 0003:00093818       ?anItemColours@@3PAY37163DA 66116818     item.obj
 0003:001dba18       ?anItemHideLevel@@3PAY07DA 6625ea18     item.obj
 0003:001e17d8       ?anItemShowCLevel@@3PAY01DA 662647d8     item.obj
 0003:001e2f48       ?wszEtherealItemPrefix@@3PA_WA 66265f48     item.obj
 0003:001e2f84       ?wszEtherealItemPostfix@@3PA_WA 66265f84     item.obj
 0003:001e2fc0       ?dwShowValuableItem@@3HA   66265fc0     item.obj
 0003:001e2fc4       ?fViewSockFlag@@3HA        66265fc4     item.obj
 0003:001e2fc8       ?szItemExtInfoCfgName@@3PAY0BAA@DA 66265fc8     item.obj
 0003:001e31c8       ?fViewSocketableOn@@3HA    662661c8     item.obj
 0003:001e31cc       ?pViewingItem@@3PAUUnitAny@@A 662661cc     item.obj
 0003:001e31d0       ?wszDescText@@3PA_WA       662661d0     item.obj
 0003:001e39d4       ?nDrawInvItems@@3HA        662669d4     item.obj
 0003:001e39d8       ?hasDrawInvItemInfo@@3HA   662669d8     item.obj
 0003:001f3300       ?dwCheckMercMs@@3HA        66276300     dangerous.obj
 0003:001f331c       ?dwIronGolemLifeAlertPercent@@3HA 6627631c     dangerous.obj
 0003:001f3320       ?dwIronGolemLifeTownPercent@@3HA 66276320     dangerous.obj
 0003:001f3324       ?dwIronGolemLifeExitPercent@@3HA 66276324     dangerous.obj
 0003:001f3328       ?dwIronGolemTownLifePercent@@3HA 66276328     dangerous.obj
 0003:001f332c       ?dwHirePotionMinCLevel@@3HA 6627632c     dangerous.obj
 0003:001f3330       ?dwHirePotionLifePercent@@3HA 66276330     dangerous.obj
 0003:001f3334       ?dwHirePotionColumn@@3HA   66276334     dangerous.obj
 0003:001f3338       ?dwHealingPotionLifePercent@@3HA 66276338     dangerous.obj
 0003:001f333c       ?dwHealingPotionDelayMs@@3HA 6627633c     dangerous.obj
 0003:001f3340       ?dwManaPotionMax@@3HA      66276340     dangerous.obj
 0003:001f3344       ?dwManaPotionValue@@3HA    66276344     dangerous.obj
 0003:001f3348       ?dwManaPotionNTValue@@3HA  66276348     dangerous.obj
 0003:001f334c       ?dwChickenLife@@3HA        6627634c     dangerous.obj
 0003:001f3350       ?dwChickenMaxLife@@3HA     66276350     dangerous.obj
 0003:001f3354       ?dwChickenHostileLife@@3HA 66276354     dangerous.obj
 0003:001f3358       ?dwChickenHostileNearbyLife@@3HA 66276358     dangerous.obj
 0003:001f335c       ?dwChickenLifePercent@@3HA 6627635c     dangerous.obj
 0003:001f3360       ?dwChickenHostileLifePercent@@3HA 66276360     dangerous.obj
 0003:001f3364       ?dwChickenHostileNearbyLifePercent@@3HA 66276364     dangerous.obj
 0003:001f3368       ?dwChickenLifeMinClevel@@3HA 66276368     dangerous.obj
 0003:001f336c       ?fLifeProtectOn@@3HA       6627636c     dangerous.obj
 0003:001f3370       ?fDangerousMonsterActive@@3HA 66276370     dangerous.obj
 0003:001f3378       ?anDangerousMonster@@3PAY01DA 66276378     dangerous.obj
 0003:001f3bc0       ?dwUpdateQuestMs@@3HA      66276bc0     quest.obj
 0003:001f3bc4       ?dwQuestAlertMs@@3HA       66276bc4     quest.obj
 0003:001f3bc8       ?wszBugKBAlertMessage@@3PA_WA 66276bc8     quest.obj
 0003:001f7d30       ?afMonsterDeathAnims@@3PAEA 6627ad30     lifebar.obj
 0003:001f8150       ?aDropProtectRune@@3PADA   6627b150     DropProtection.obj
 0003:001f8178       ?aDropProtectRuneword@@3PADA 6627b178     DropProtection.obj
 0003:001f8278       ?aDropProtectUnique@@3PADA 6627b278     DropProtection.obj
 0003:001f8478       ?aDropProtectSet@@3PADA    6627b478     DropProtection.obj
 0003:001f8578       ?dwSimpleItemProtectionCount@@3HA 6627b578     DropProtection.obj
 0003:001fc998       ?fAutoEnchantCheckUnit@@3HA 6627f998     enchant.obj
 0003:001fc9a0       ?pD2WinEditBox@@3PAUD2EditBox@@A 6627f9a0     chat.obj
 0003:001fc9a8       ?chatPasteMs@@3HA          6627f9a8     chat.obj
 0003:001fc9b0       ?fMyChatOn@@3HA            6627f9b0     chat.obj
 0003:001fca78       ?dwAutoLoginMs@@3HA        6627fa78     login.obj
 0003:001fca80       ?dwAutoSelectCharMs@@3HA   6627fa80     login.obj
 0003:001fca90       ?nCurCharTags@@3HA         6627fa90     login.obj
 0003:001fcaa8       ?mSkipQuestMessage@@3HA    6627faa8     misc.obj
 0003:001fcabc       ?dwWaitTeamEnterPortalId@@3HA 6627fabc     multi.obj
 0003:001fcac0       ?dwWaitTeamEnterPortalMs@@3HA 6627fac0     multi.obj
 0003:001fcb00       ?d2wins@@3PAUD2Window@@A   6627fb00     multi.obj
 0003:001fe680       ?d2winLastId@@3HA          66281680     multi.obj
 0003:001fe684       ?fAutoFollowMoving@@3HA    66281684     multi.obj
 0003:001fe688       ?wszTransferClick@@3PA_WA  66281688     multi.obj
 0003:001fe708       ?tMCFormationKeys@@3PAUToggleVar@@A 66281708     multi.obj
 0003:001fed08       ?aMCFormation@@3PAY0BA@CA  66281d08     multi.obj
 0003:001fef08       ?fTransferClick@@3HA       66281f08     multi.obj
 0003:001fef0c       ?dwTeamMemberCount@@3HA    66281f0c     multi.obj
 0003:001fef10       ?aAutoFollowClickObject@@3PADA 66281f10     multi.obj
 0003:001ff310       ?dwLeaderId@@3HA           66282310     multi.obj
 0003:001ff330       ?wszNpcTradeInfo@@3PA_WA   66282330     NpcTrade.obj
 0003:001ffe94       ?dwNpcTradeCheckMs@@3HA    66282e94     NpcTrade.obj
 0003:001ffe98       ?fCanInvite@@3HA           66282e98     party.obj
 0003:001ffe9c       ?dwPartyResponseMs@@3HA    66282e9c     party.obj
 0003:001ffea8       ?fCanExitGame@@3HA         66282ea8     quick.obj
 0003:001ffeac       ?dwBackToTownTimeout@@3HA  66282eac     quick.obj
 0003:001ffeb8       ?fAutoNextGameName@@3HA    66282eb8     quick.obj
 0003:001ffebc       ?fAutoNextGamePassword@@3HA 66282ebc     quick.obj
 0003:001ffec0       ?fAutoNextGameDescription@@3HA 66282ec0     quick.obj
 0003:001ffec8       ?wszGameName@@3PA_WA       66282ec8     quick.obj
 0003:001fff08       ?wszGamePassword@@3PA_WA   66282f08     quick.obj
 0003:001fff48       ?wszGameDescription@@3PA_WA 66282f48     quick.obj
 0003:002003dc       ?fHighRes@@3HA             662833dc     resolution.obj
 0003:002044ac       ?dwAutoSkillReloading@@3HA 662874ac     skill.obj
 0003:002044b0       ?dwRescueBarSafeDistance@@3HA 662874b0     skill.obj
 0003:002044b4       ?fAutoEnchant@@3HA         662874b4     skill.obj
 0003:002044b8       ?aAutoPickupItem@@3PADA    662874b8     skill.obj
 0003:00205070       ?fAutoEnchantUseLeftSkill@@3HA 66288070     skill.obj
 0003:00205074       ?fAutoWarCry@@3HA          66288074     skill.obj
 0003:00205078       ?dwAutoEnchantMonster@@3PADA 66288078     skill.obj
 0003:00205478       ?fAutoWarCryUseLeftSkill@@3HA 66288478     skill.obj
 0003:0020547c       ?dwAutoWarCryRenewPercent@@3HA 6628847c     skill.obj
 0003:00205480       ?dwUseLeftSkillFirst@@3HA  66288480     skill.obj
 0003:00205484       ?dwAutoReloadThrowing@@3HA 66288484     skill.obj
 0003:00205488       ?dwAutoSkillCheckMs@@3HA   66288488     skill.obj
 0003:0020548c       ?dwAutoSkillMode@@3HA      6628848c     skill.obj
 0003:00205490       ?fAutoSkillNow@@3HA        66288490     skill.obj
 0003:00205494       ?fAutoSkill@@3HA           66288494     skill.obj
 0003:00205498       ?aAutoDimVisionMonster@@3PADA 66288498     skill.obj
 0003:00205898       ?aAutoSkillMonsterType@@3PADA 66288898     skill.obj
 0003:00205c98       ?aAutoSkillDistance@@3PAY01DA 66288c98     skill.obj
 0003:00206098       ?fAutoSummon@@3HA          66289098     skill.obj
 0003:0020609c       ?fAutoSummonUseLeftSkill@@3HA 6628909c     skill.obj
 0003:002060a0       ?dwAutoSummonStartMs@@3HA  662890a0     skill.obj
 0003:002060a4       ?dwAutoSummonCheckEnchantMs@@3HA 662890a4     skill.obj
 0003:002060a8       ?aAutoReviveMonster@@3PADA 662890a8     skill.obj
 0003:002064a8       ?dwSkeletonCount@@3HA      662894a8     skill.obj
 0003:002064ac       ?dwEnchantSkeletonCount@@3HA 662894ac     skill.obj
 0003:002064b0       ?dwSkeletonMaxCount@@3HA   662894b0     skill.obj
 0003:002064b4       ?dwSkeletonMageCount@@3HA  662894b4     skill.obj
 0003:002064b8       ?dwSkeletonMageMaxCount@@3HA 662894b8     skill.obj
 0003:002064bc       ?dwReviveCount@@3HA        662894bc     skill.obj
 0003:002064c0       ?dwReviveMaxCount@@3HA     662894c0     skill.obj
 0003:002064c4       ?dwSkeletonHPPercent@@3HA  662894c4     skill.obj
 0003:002064c8       ?dwSkeletonMageHPPercent@@3HA 662894c8     skill.obj
 0003:00207e84       ?dwMercNameId@@3HA         6628ae84     Snapshot.obj
 0003:00208e88       ?questNames@@3PAPADA       6628be88     Snapshot.obj
 0003:00208f50       ?dwMercSeed@@3HA           6628bf50     Snapshot.obj
 0003:002090b0       ?dwCheckSkeletonCountMs@@3HA 6628c0b0     summon.obj
 0003:0020d0d8       ?fAutoSummonSwitchSkillTmp@@3HA 662900d8     summon.obj
 0003:0020d0dc       ?fAutoSummonSwitchSkill@@3HA 662900dc     summon.obj
 0003:0020d0e0       ?fAutoSummonNeedCorpse@@3HA 662900e0     summon.obj
 0003:0020d0e4       ?dwNecInfoExpireMs@@3HA    662900e4     summon.obj
 0003:0020d0e8       ?dwNecMana@@3HA            662900e8     summon.obj
 0003:0020d0ec       ?dwTotalMonsterCount@@3HA  662900ec     summon.obj
 0003:0020d0f0       ?dwSkillChangeCount@@3HA   662900f0     summon.obj
 0003:0020d558       ?maxTpDisRaw@@3HA          66290558     teleport.obj
 0003:0020d5cc       ?dwTpDoneMs@@3HA           662905cc     teleport.obj
 0003:0020d5d0       ?dwTpMs@@3HA               662905d0     teleport.obj
 0003:0020d5d4       ?TPfailedRect@@3PAUAreaRectData@@A 662905d4     teleport.obj
 0003:0020d5d8       ?TPtargetRect@@3PAUAreaRectData@@A 662905d8     teleport.obj
 0003:0020d5dc       ?TPtarget@@3UtagPOINT@@A   662905dc     teleport.obj
 0003:0020d610       ?fAutoTeleporting@@3HA     66290610     teleport.obj
 0003:0020d614       ?unexpectedMonCount@@3HA   66290614     teleport.obj
 0003:0020d618       ?unexpectedMonTotalMs@@3HA 66290618     teleport.obj
 0003:0020d630       ?fEnableHighResolutionPatch@@3HA 66290630     panel.obj
 0003:0020d634       ?serverCubeType@@3HA       66290634     panel.obj
 0003:0020d638       ?clientCubeType@@3HA       66290638     panel.obj
 0003:0020d63c       ?serverStashType@@3HA      6629063c     panel.obj
 0003:0020d640       ?clientStashType@@3HA      66290640     panel.obj
 0003:0020d644       ?serverInvType@@3HA        66290644     panel.obj
 0003:0020d648       ?clientInvType@@3HA        66290648     panel.obj
 0003:0020d654       ?fEnableBigStash@@3HA      66290654     panel.obj
 0003:0020d658       ?dwInvType@@3HA            66290658     panel.obj
 0003:0020d65c       ?dwStashType@@3HA          6629065c     panel.obj
 0003:0020d660       ?dwCubeType@@3HA           66290660     panel.obj
 0003:0020d8bc       ?active_UberDiabloRushTweekAI@@3_NA 662908bc     uber.obj
 0003:0020d8bd       ?active_UberBaalTeleportTweekAI@@3_NA 662908bd     uber.obj
 0003:0020d8be       ?active_UberBaalChillingArmorTweekAI@@3_NA 662908be     uber.obj
 0003:0020d8c0       ?uberBaalChillingArmorLastFrame@@3HA 662908c0     uber.obj
 0003:0020d8c4       __cflush                   662908c4     LIBCMT:_file.obj
 0003:0020d8c8       ___fastflag                662908c8     LIBCMT:_fpinit_.obj
 0003:0020d8cc       __adjust_fdiv              662908cc     LIBCMT:_fpinit_.obj
 0003:0020d8e8       __aenvptr                  662908e8     LIBCMT:dllcrt0.obj
 0003:0020d8ec       __wenvptr                  662908ec     LIBCMT:dllcrt0.obj
 0003:0020d8f0       ___error_mode              662908f0     LIBCMT:dllcrt0.obj
 0003:0020d8f4       ___app_type                662908f4     LIBCMT:dllcrt0.obj
 0003:0020d8fc       ___mbulinfo                662908fc     LIBCMT:mbctype.obj
 0003:0020d908       ___mbcodepage              66290908     LIBCMT:mbctype.obj
 0003:0020d90c       ___ismbcodepage            6629090c     LIBCMT:mbctype.obj
 0003:0020d910       ___mblcid                  66290910     LIBCMT:mbctype.obj
 0003:0020d914       ___locale_changed          66290914     LIBCMT:setlocal.obj
 0003:0020d918       ___lc_handle               66290918     LIBCMT:nlsdata2.obj
 0003:0020d930       ___lc_codepage             66290930     LIBCMT:nlsdata2.obj
 0003:0020d934       ___lc_collate_cp           66290934     LIBCMT:nlsdata2.obj
 0003:0020d938       _gpFlsAlloc                66290938     LIBCMT:tidtable.obj
 0003:0020d93c       _gpFlsGetValue             6629093c     LIBCMT:tidtable.obj
 0003:0020d940       _gpFlsSetValue             66290940     LIBCMT:tidtable.obj
 0003:0020d944       _gpFlsFree                 66290944     LIBCMT:tidtable.obj
 0003:0020d948       ___pInvalidArgHandler      66290948     LIBCMT:invarg.obj
 0003:0020daa0       __stdbuf                   66290aa0     LIBCMT:_sftbuf.obj
 0003:0020ddcc       ?_pnhHeap@@3P6AHI@ZA       66290dcc     LIBCMT:handler.obj
 0003:0020ddd0       __newmode                  66290dd0     LIBCMT:_newmode.obj
 0003:0020ddd4       __crtheap                  66290dd4     LIBCMT:heapinit.obj
 0003:0020ddd8       ___sbh_pHeaderDefer        66290dd8     LIBCMT:sbheap.obj
 0003:0020dde0       __maxwait                  66290de0     LIBCMT:crtheap.obj
 0003:0020dde4       __umaskval                 66290de4     LIBCMT:crt0dat.obj
 0003:0020dde8       ___argc                    66290de8     LIBCMT:crt0dat.obj
 0003:0020ddec       ___argv                    66290dec     LIBCMT:crt0dat.obj
 0003:0020ddf0       ___wargv                   66290df0     LIBCMT:crt0dat.obj
 0003:0020ddf4       __environ                  66290df4     LIBCMT:crt0dat.obj
 0003:0020ddf8       ___initenv                 66290df8     LIBCMT:crt0dat.obj
 0003:0020ddfc       __wenviron                 66290dfc     LIBCMT:crt0dat.obj
 0003:0020de00       ___winitenv                66290e00     LIBCMT:crt0dat.obj
 0003:0020de04       __pgmptr                   66290e04     LIBCMT:crt0dat.obj
 0003:0020de08       __wpgmptr                  66290e08     LIBCMT:crt0dat.obj
 0003:0020de0c       __exitflag                 66290e0c     LIBCMT:crt0dat.obj
 0003:0020de10       __C_Termination_Done       66290e10     LIBCMT:crt0dat.obj
 0003:0020de14       __C_Exit_Done              66290e14     LIBCMT:crt0dat.obj
 0003:0020e240       ___lconv_static_null       66291240     LIBCMT:lconv.obj
 0003:0020e248       ?__pInconsistency@@3P6AXXZA 66291248     LIBCMT:hooks.obj
 0003:0020e26c       ___pPurecall               6629126c     LIBCMT:inithelp.obj
 0003:0020e270       __outputformat             66291270     LIBCMT:outputformat.obj
 0003:0020e348       __commode                  66291348     LIBCMT:ncommode.obj
 0003:0020e360       ?pArgList@UnDecorator@@0PAVReplicator@@A 66291360     LIBCMT:undname.obj
 0003:0020e364       ?pZNameList@UnDecorator@@0PAVReplicator@@A 66291364     LIBCMT:undname.obj
 0003:0020e368       ?pTemplateArgList@UnDecorator@@0PAVReplicator@@A 66291368     LIBCMT:undname.obj
 0003:0020e36c       ?gName@UnDecorator@@0PBDB  6629136c     LIBCMT:undname.obj
 0003:0020e370       ?name@UnDecorator@@0PBDB   66291370     LIBCMT:undname.obj
 0003:0020e374       ?outputString@UnDecorator@@0PADA 66291374     LIBCMT:undname.obj
 0003:0020e378       ?maxStringLength@UnDecorator@@0HA 66291378     LIBCMT:undname.obj
 0003:0020e37c       ?disableFlags@UnDecorator@@0KA 6629137c     LIBCMT:undname.obj
 0003:0020e380       ?m_pGetParameter@UnDecorator@@0P6APADJ@ZA 66291380     LIBCMT:undname.obj
 0003:0020e384       ?fExplicitTemplateParams@UnDecorator@@0_NA 66291384     LIBCMT:undname.obj
 0003:0020e385       ?fGetTemplateArgumentList@UnDecorator@@0_NA 66291385     LIBCMT:undname.obj
 0003:0020e388       __fmode                    66291388     LIBCMT:txtmode.obj
 0003:0020e390       __debugger_hook_dummy      66291390     <common>
 0003:0020e394       ___use_sse2_mathfcns       66291394     <common>
 0003:0020e398       ___env_initialized         66291398     <common>
 0003:0020e39c       ___onexitend               6629139c     <common>
 0003:0020e3a0       ___onexitbegin             662913a0     <common>
 0003:0020e3a4       ___mbctype_initialized     662913a4     <common>
 0003:0020e3a8       ___dyn_tls_init_callback   662913a8     <common>
 0003:0020e3ac       ___sbh_cntHeaderList       662913ac     <common>
 0003:0020e3b0       ___sbh_pHeaderList         662913b0     <common>
 0003:0020e3b4       ___sbh_threshold           662913b4     <common>
 0003:0020e3b8       ___sbh_pHeaderScan         662913b8     <common>
 0003:0020e3bc       ___sbh_sizeHeaderList      662913bc     <common>
 0003:0020e3c0       ___sbh_indGroupDefer       662913c0     <common>
 0003:0020e3c4       ___active_heap             662913c4     <common>
 0003:0020e3c8       ___sse2_available          662913c8     <common>
 0003:0020e3cc       __nhandle                  662913cc     <common>
 0003:0020e3e0       ___pioinfo                 662913e0     <common>
 0003:0020e4e0       __acmdln                   662914e0     <common>
 0003:0020e4e4       __pDestructExceptionObject 662914e4     <common>
 0003:0020e4e8       ___piob                    662914e8     <common>
 0003:0020e500       __bufin                    66291500     <common>
 0003:0020f500       __nstream                  66292500     <common>

 entry point at        0001:00059014

 Static symbols

 0001:00000a20       ?initKeyArray@@YAXPAUConfigVar@@HH@Z 66001a20 f   config.obj
 0001:00002d50       ?parseInt@@YAHPADPAPAD@Z   66003d50 f   config.obj
 0001:00002df0       ?parseValues8@@YAXPAD0H@Z  66003df0 f   config.obj
 0001:00002ec0       ?parseValues32@@YAXPAHPADH@Z 66003ec0 f   config.obj
 0001:00003550       ?InitValues@@YAXXZ         66004550 f   config.obj
 0001:00003830       ?changeLogPath@@YAHPAD@Z   66004830 f   config.obj
 0001:000039d0       ?loadConfig@@YAXPAD@Z      660049d0 f   config.obj
 0001:000041e0       ?loadTagFile@@YAXPAD@Z     660051e0 f   config.obj
 0001:00004390       ?loadSymbolFile@@YAXPAD@Z  66005390 f   config.obj
 0001:00004590       ?isNumber@@YAHPAD@Z        66005590 f   config.obj
 0001:000054c0       ?doPatchCALL@@YAXHHH@Z     660064c0 f   install.obj
 0001:00005510       ?doPatchJMP@@YAXHHH@Z      66006510 f   install.obj
 0001:00005560       ?doPatchFILL@@YAXHHH@Z     66006560 f   install.obj
 0001:000055b0       ?doPatchVALUE@@YAXHHH@Z    660065b0 f   install.obj
 0001:000057d0       ?parseOriginalCode@@YAHPADH0HPAH@Z 660067d0 f   install.obj
 0001:00009370       ?InstallPatchAfterLoad@@YAXXZ 6600a370 f   install.obj
 0001:000093a0       ?installD2PatchesAfterLoad@@YAHXZ 6600a3a0 f   install.obj
 0001:00009700       ?installNetworkRecvPatch@@YAHXZ 6600a700 f   install.obj
 0001:00009750       ?installPatchToggle@@YAHXZ 6600a750 f   install.obj
 0001:00009830       ?installD2Patches@@YAHXZ   6600a830 f   install.obj
 0001:000130f0       ?dumpPtr@@YAXPAU_iobuf@@PADHH1H@Z 660140f0 f   install.obj
 0001:00013370       ?dump@@YAXXZ               66014370 f   install.obj
 0001:000138b0       ?ReloadDll@@YAHXZ          660148b0 f   install.obj
 0001:00013910       ?ReloadConfig@@YAHXZ       66014910 f   install.obj
 0001:00014200       _stat                      66015200 f   common.obj
 0001:00014200       _stat                      66015200 f   common.obj
 0001:000145e0       ?d2msg@@YAXHPA_WH@Z        660155e0 f   common.obj
 0001:00016cf0       ?comparePet@@YAHPBX0@Z     66017cf0 f   common.obj
 0001:00016cf0       ?comparePvp@@YAHPBX0@Z     66017cf0 f   common.obj
 0001:00016cf0       ?compareItem@@YAHPBX0@Z    66017cf0 f   common.obj
 0001:00017840       ?sendPacket43E0Patch_ASM@@YAXXZ 66018840 f   dbg.obj
 0001:00017860       ?sendPacket43E0@@YIXPADHH@Z 66018860 f   dbg.obj
 0001:000178b0       ?sendPacket3Patch_ASM@@YAXXZ 660188b0 f   dbg.obj
 0001:000178d0       ?sendPacket3@@YIXDFH@Z     660188d0 f   dbg.obj
 0001:00017920       ?clickMenuItemPatch_ASM@@YAXXZ 66018920 f   dbg.obj
 0001:00017940       ?clickMenuItem@@YIXH@Z     66018940 f   dbg.obj
 0001:00018200       ?gameStart@@YAXXZ          66019200 f   loop.obj
 0001:00018550       ?checkTag@@YAXPAD@Z        66019550 f   loop.obj
 0001:00018f70       ?updateTargetName@@YAXXZ   66019f70 f   map.obj
 0001:000192c0       ?selectWaypointTarget@@YAXXZ 6601a2c0 f   map.obj
 0001:00019890       ?LoadBmpCellFile@@YAPAUCellFile@@PAD@Z 6601a890 f   map.obj
 0001:00019940       ?InitCellFile@@YAPAUCellFile@@PAU1@@Z 6601a940 f   map.obj
 0001:00019a50       ?DeleteCellFile@@YAXPAUCellFile@@@Z 6601aa50 f   map.obj
 0001:00019cb0       ?addCorner@@YAXPAUSC@@HH@Z 6601acb0 f   map.obj
 0001:00019ff0       ?modifyRescueBarTarget@@YAXXZ 6601aff0 f   map.obj
 0001:0001a130       ?target_sort@@YAXPAPAUMinimapLevelTarget@@@Z 6601b130 f   map.obj
 0001:0001a200       ?modifySealTarget@@YAXXZ   6601b200 f   map.obj
 0001:0001a660       ?modifyTempleTarget@@YAXXZ 6601b660 f   map.obj
 0001:0001a710       ?modifyTeleportTarget@@YAXXZ 6601b710 f   map.obj
 0001:0001aa50       ?ResetAutomapNodeCellNo@@YAXPAUAutomapNode@@@Z 6601ba50 f   map.obj
 0001:0001ae40       ?wscolorcpy@@YAPA_WPA_W0E@Z 6601be40 f   map.obj
 0001:0001ae40       ?wscolorcpy@@YAPA_WPA_W0E@Z 6601be40 f   map.obj
 0001:0001c790       ?isConnected@@YAHPAUAreaRectInfo@@0PAUtagPOINT@@@Z 6601d790 f   map.obj
 0001:0001caf0       ?drawAreaRect@@YAXPAUAreaRectInfo@@H@Z 6601daf0 f   map.obj
 0001:0001ce10       ?DrawMinimapPoint@@YAXXZ   6601de10 f   map.obj
 0001:0001dfa0       ?hex@@YAXPAU_iobuf@@HPAXH@Z 6601efa0 f   packet.obj
 0001:0001fc10       ?drawAARect@@YAXPAURouteRect@@@Z 66020c10 f   route.obj
 0001:0001ff70       ?initRectRoute@@YAHPAUMinimapLevelTarget@@@Z 66020f70 f   route.obj
 0001:00020370       ?canTeleport@@YAHPAUAreaRectData@@PAURouteRect@@@Z 66021370 f   route.obj
 0001:000204d0       ?recycleRouteInfo@@YAXPAUMinimapLevelTarget@@@Z 660214d0 f   route.obj
 0001:00020630       ?performRectRoute@@YAXPAUMinimapLevelTarget@@@Z 66021630 f   route.obj
 0001:00021130       ?recvWaypointMenu@@YIHPADH@Z 66022130 f   waypoint.obj
 0001:00021ff0       ?setWinTitle@@YAXPAUHWND__@@H@Z 66022ff0 f   winmsg.obj
 0001:00023020       ?keyDown@@YIHHH@Z          66024020 f   winmsg.obj
 0001:000232d0       ?shouldProcessKey@@YAHHH@Z 660242d0 f   winmsg.obj
 0001:00023390       ?keyUp@@YIHHH@Z            66024390 f   winmsg.obj
 0001:000235c0       ?createVersionTextBox@@YAXXZ 660245c0 f   winmsg.obj
 0001:000236d0       ?debugMsDrawUnitStart@@YAXXZ 660246d0 f   winmsg.obj
 0001:00023750       ?beforeDrawControl@@YAXXZ  66024750 f   winmsg.obj
 0001:00023780       ?debugMsDrawControlStart@@YAXXZ 66024780 f   winmsg.obj
 0001:000237c0       ?debugMsDrawControlEnd@@YAXXZ 660247c0 f   winmsg.obj
 0001:00023820       ?shouldSkipDrawUnitAndControl@@YAHXZ 66024820 f   winmsg.obj
 0001:000238a0       ?shouldSkipAllDrawing@@YAHXZ 660248a0 f   winmsg.obj
 0001:00023940       ?skipDrawMenu2@@YAHXZ      66024940 f   winmsg.obj
 0001:000239c0       ?mainMenuSkip@@YAHXZ       660249c0 f   winmsg.obj
 0001:000240e0       ?drawGroundRect@@YAXPAUAreaRectData@@@Z 660250e0 f   env.obj
 0001:00024860       ?checkWeapon@@YAXPAUUnitAny@@@Z 66025860 f   GameMonitor.obj
 0001:00024960       ?checkItem@@YAXPAUUnitAny@@H@Z 66025960 f   GameMonitor.obj
 0001:000272f0       ?recvState@@YIXPAE@Z       660282f0 f   GameMonitor.obj
 0001:00027880       ?drawSimpleItemStack@@YAXXZ 66028880 f   GameMonitor.obj
 0001:00027980       ?drawUnitsInfoInRect@@YAXPAUAreaRectData@@@Z 66028980 f   GameMonitor.obj
 0001:00027cd0       ?drawPlayerName@@YAXPAUUnitAny@@@Z 66028cd0 f   GameMonitor.obj
 0001:00028120       ?drawBossHp@@YAXPAUUnitAny@@@Z 66029120 f   GameMonitor.obj
 0001:0002d930       ?drawInvItem@@YIXHHPAUUnitAny@@@Z 6602e930 f   item.obj
 0001:0002f470       ?rescanMercPointers@@YAXXZ 66030470 f   dangerous.obj
 0001:00030780       ?checkQuest@@YAXHHHPAD@Z   66031780 f   quest.obj
 0001:00030b90       ?questAlert@@YAXXZ         66031b90 f   quest.obj
 0001:00031b70       ?drawQuestState@@YAXPAG0HHH@Z 66032b70 f   quest.obj
 0001:00033f70       ?switchTo@@YAXH@Z          66034f70 f   bo.obj
 0001:00034070       ?useSkill@@YAHH@Z          66035070 f   bo.obj
 0001:000343e0       _time                      660353e0 f   d2s.obj
 0001:00035570       ?hasProp@@YAHPAUUnitAny@@HH@Z 66036570 f   DropProtection.obj
 0001:000359f0       ?deleteCharacterCallback@@YIXPAD0@Z 660369f0 f   DropProtection.obj
 0001:00035a80       ?canDeleteCharacter@@YIHPAUD2Character@@@Z 66036a80 f   DropProtection.obj
 0001:00036050       ?skipMenuItem@@YIHPAUMenuItem@@@Z 66037050 f   DropProtection.obj
 0001:00036a50       ?findTargetItem@@YAPAUUnitAny@@H@Z 66037a50 f   DropProtection.obj
 0001:000370f0       ?doEnchant@@YAHPAUUnitAny@@@Z 660380f0 f   enchant.obj
 0001:00038570       ?sortGameList@@YAXXZ       66039570 f   mcp.obj
 0001:000385b0       ?compareMcp05Game@@YAHPBX0@Z 660395b0 f   mcp.obj
 0001:00038600       ?showGameListDifficulty@@YIXPAXPAD@Z 66039600 f   mcp.obj
 0001:00038860       ?compareCharTag@@YAHPBX0@Z 66039860 f   login.obj
 0001:00038e00       ?c2w@@YAXPADPA_W@Z         66039e00 f   login.obj
 0001:00038f80       ?selectChar@@YIXH@Z        66039f80 f   login.obj
 0001:0003b450       ?teamMemberInArea@@YAHH@Z  6603c450 f   multi.obj
 0001:0003b4f0       ?interactObject@@YAXXZ     6603c4f0 f   multi.obj
 0001:0003bb30       ?sendStartFollowCmd@@YAHPAUD2Window@@@Z 6603cb30 f   multi.obj
 0001:0003bb60       ?sendStopFollowCmd@@YAHPAUD2Window@@@Z 6603cb60 f   multi.obj
 0001:0003d190       ?checkItems@@YAXHH@Z       6603e190 f   NpcTrade.obj
 0001:0003d2d0       ?checkItem@@YAXPAUUnitAny@@H@Z 6603e2d0 f   NpcTrade.obj
 0001:0003ec90       ?canPutIn@@YAHPADHHHH@Z    6603fc90 f   QuickSwapItem.obj
 0001:0003f530       ?updateCubeInvMap@@YAXXZ   66040530 f   QuickSwapItem.obj
 0001:0003f850       ?dropItemToGound@@YAHXZ    66040850 f   QuickSwapItem.obj
 0001:0003f8c0       ?updateInv@@YAXPAUInventoryType@@H@Z 660408c0 f   QuickSwapItem.obj
 0001:0003f970       ?putIntoSimpleItemStack@@YAXXZ 66040970 f   QuickSwapItem.obj
 0001:0003fa20       ?findSimpleItemStack@@YAPAUUnitAny@@H@Z 66040a20 f   QuickSwapItem.obj
 0001:000400a0       ?pickupItem@@YAHPAUUnitAny@@@Z 660410a0 f   QuickSwapItem.obj
 0001:00040130       ?findGemInv@@YAPAUUnitAny@@HH@Z 66041130 f   QuickSwapItem.obj
 0001:000407a0       ?getGlobalBeltSlotPosition@@YIXPAH0@Z 660417a0 f   resolution.obj
 0001:00040850       ?getGlobalBeltRecord@@YIXPAH@Z 66041850 f   resolution.obj
 0001:00040910       ?adjWinRectEx@@YGHHPAUtagRECT@@HHH@Z 66041910 f   resolution.obj
 0001:000413c0       ?isAutoSkill@@YAHPAUSkill@@@Z 660423c0 f   skill.obj
 0001:00041520       ?checkAutoSkill1@@YAXHH@Z  66042520 f   skill.obj
 0001:00041d60       ?updateSkill@@YAXPAUAutoSkillInfo@@H@Z 66042d60 f   skill.obj
 0001:000423e0       ?processStacking@@YAXXZ    660433e0 f   skill.obj
 0001:00042520       ?canUse@@YAHPAUAutoSkillInfo@@@Z 66043520 f   skill.obj
 0001:00042600       ?checkUnit@@YAXPAUUnitAny@@@Z 66043600 f   skill.obj
 0001:00043d10       ?getLvPercent@@YAHPAUUnitAny@@@Z 66044d10 f   Snapshot.obj
 0001:00043fc0       ?openSnapshotFile@@YAPAU_iobuf@@PAD00D0H@Z 66044fc0 f   Snapshot.obj
 0001:000446f0       ?countGemRunes@@YAXPAUUnitAny@@@Z 660456f0 f   Snapshot.obj
 0001:00044c40       ?dumpStats@@YAHPAU_iobuf@@PAUStat@@@Z 66045c40 f   Snapshot.obj
 0001:00045140       ?dumpInventory@@YAXXZ      66046140 f   Snapshot.obj
 0001:000456c0       ?dumpUnit@@YAXPAU_iobuf@@PAUUnitAny@@@Z 660466c0 f   Snapshot.obj
 0001:000460f0       ?outputGemRune@@YAXPAU_iobuf@@@Z 660470f0 f   Snapshot.obj
 0001:00046380       ?dumpItem@@YAXPAU_iobuf@@PAUUnitAny@@HH@Z 66047380 f   Snapshot.obj
 0001:00047400       ?addItem@@YAXPAUUnitAny@@H@Z 66048400 f   Snapshot.obj
 0001:00047790       ?isStartEq@@YAHPAUUnitAny@@@Z 66048790 f   Snapshot.obj
 0001:00047800       ?dumpItems@@YAXPAU_iobuf@@PAUUnitAny@@H@Z 66048800 f   Snapshot.obj
 0001:000478d0       ?dumpQuests@@YAXPAU_iobuf@@@Z 660488d0 f   Snapshot.obj
 0001:00048040       ?dumpTodo@@YAXPAU_iobuf@@HPADPAUQ@@@Z 66049040 f   Snapshot.obj
 0001:00048160       ?loadQuests@@YAXXZ         66049160 f   Snapshot.obj
 0001:00048230       ?dumpWaypoints@@YAXPAU_iobuf@@@Z 66049230 f   Snapshot.obj
 0001:000483d0       ?dumpSkills@@YAXPAU_iobuf@@PAUUnitAny@@@Z 660493d0 f   Snapshot.obj
 0001:000484e0       ?dumpSkill@@YAXPAU_iobuf@@PAUSkill@@@Z 660494e0 f   Snapshot.obj
 0001:000485f0       ?dumpObject@@YAXPAU_iobuf@@PAUUnitAny@@@Z 660495f0 f   Snapshot.obj
 0001:00048750       ?dumpAreatile@@YAXPAU_iobuf@@PAUUnitAny@@@Z 66049750 f   Snapshot.obj
 0001:00049250       ?doDeleteSnapshotFile@@YAXPAD@Z 6604a250 f   Snapshot.obj
 0001:0004a000       ?checkSummonSkillLevel@@YAXXZ 6604b000 f   summon.obj
 0001:0004a150       ?getSummonCount@@YAHH@Z    6604b150 f   summon.obj
 0001:0004a180       ?needSummon@@YAHXZ         6604b180 f   summon.obj
 0001:0004a390       ?switchSummonSkill@@YAXH@Z 6604b390 f   summon.obj
 0001:0004a3c0       ?checkUnit@@YAXPAUUnitAny@@@Z 6604b3c0 f   summon.obj
 0001:0004ad80       ?findBoss@@YAHHH@Z         6604bd80 f   teleport.obj
 0001:0004ae50       ?resetMonsters@@YAXXZ      6604be50 f   teleport.obj
 0001:0004aed0       ?findMonsters@@YAXXZ       6604bed0 f   teleport.obj
 0001:0004b250       ?addMonMap@@YAXHH@Z        6604c250 f   teleport.obj
 0001:0004b2b0       ?calBoundingBox@@YAXXZ     6604c2b0 f   teleport.obj
 0001:0004b3f0       ?getMonDis@@YAHPAUtagPOINT@@@Z 6604c3f0 f   teleport.obj
 0001:0004b450       ?dis@@YAHPAUtagPOINT@@0@Z  6604c450 f   teleport.obj
 0001:0004b480       ?interact@@YAXPAUtagPOINT@@HH@Z 6604c480 f   teleport.obj
 0001:0004b560       ?interactObj@@YAXPAUUnitAny@@@Z 6604c560 f   teleport.obj
 0001:0004b6e0       ?teleportForward@@YAHXZ    6604c6e0 f   teleport.obj
 0001:0004bb00       ?addPossiblePostions@@YAXPAUAreaRectData@@0PAUtagPOINT@@H@Z 6604cb00 f   teleport.obj
 0001:0004bf20       ?disM256@@YAHPAUtagPOINT@@0@Z 6604cf20 f   teleport.obj
 0001:0004bf50       ?hasMon@@YAHHH@Z           6604cf50 f   teleport.obj
 0001:0004bfb0       ?findValidPosition@@YAHXZ  6604cfb0 f   teleport.obj
 0001:0004c090       ?comparePos@@YAHPBX0@Z     6604d090 f   teleport.obj
 0001:0004c0b0       ?teleportToSafety@@YAHXZ   6604d0b0 f   teleport.obj
 0001:0004c350       ?savePrevMonsters@@YAXXZ   6604d350 f   teleport.obj
 0001:0004c420       ?findSafestPosition@@YAHXZ 6604d420 f   teleport.obj
 0001:0004c4a0       ?tpToBoss@@YAHXZ           6604d4a0 f   teleport.obj
 0001:0004c640       ?autoTarget@@YAHXZ         6604d640 f   teleport.obj
 0001:0004c7b0       ?telekinesisTarget@@YAHPAUUnitAny@@@Z 6604d7b0 f   teleport.obj
 0001:0004cac0       ?findTelekinesisPosition@@YAHXZ 6604dac0 f   teleport.obj
 0001:0004cbb0       ?autoDuranceofHateLevel3@@YAHXZ 6604dbb0 f   teleport.obj
 0001:0004ce30       ?dumpProp@@YAXPAU_iobuf@@PAUItemProp@@@Z 6604de30 f   txt.obj
 0001:0004cfb0       ?dumpItemTxt@@YAXXZ        6604dfb0 f   txt.obj
 0001:0004d120       ?dumpUniqueTxt@@YAXXZ      6604e120 f   txt.obj
 0001:0004d330       ?dumpSetTxt@@YAXXZ         6604e330 f   txt.obj
 0001:0004d9f0       ?setStash@@YAXHH@Z         6604e9f0 f   panel.obj
 0001:0004db50       ?setCube@@YAXH@Z           6604eb50 f   panel.obj
 0001:0004dcd0       ?setCharInv@@YAXHH@Z       6604ecd0 f   panel.obj
 0001:0004def0       ?loadInvChar8x10@@YAXXZ    6604eef0 f   panel.obj
 0001:0004df50       ?calDrawOffset@@YAXXZ      6604ef50 f   panel.obj
 0001:0004dfe0       ?getEquipmentSlotLayout@@YIXPAH0@Z 6604efe0 f   panel.obj
 0001:0004e080       ?getEquipInvDrawOffset@@YAXPAH0PAX@Z 6604f080 f   panel.obj
 0001:0004e180       ?getInventoryGridLayout@@YIXPAH0@Z 6604f180 f   panel.obj
 0001:0004e230       ?getInventoryPosition@@YIXPAH0@Z 6604f230 f   panel.obj
 0001:0004e2e0       ?addSkillPatch@@YIXH@Z     6604f2e0 f   panel.obj
 0001:0004e360       ?recvCommand26@@YIXPAD@Z   6604f360 f   panel.obj
 0001:0004e6e0       ?guessInvType@@YAHHH@Z     6604f6e0 f   panel.obj
 0001:0004e700       ?guessStashType@@YAHHH@Z   6604f700 f   panel.obj
 0001:0004e720       ?guessCubeType@@YAHHH@Z    6604f720 f   panel.obj
 0001:0004f700       ?SetSkillBaseLevelOnClient@@YAXPAXPAUUnitAny@@HHH@Z 66050700 f   server.obj
 0001:0004fc70       ?resetQuest@@YAXPAUWorld@@PAUUnitAny@@H@Z 66050c70 f   server.obj
 0001:0004fee0       ?skipDropTxt@@YIHH@Z       66050ee0 f   server.obj
 0001:0004ffa0       ?gameStart@@YIXPAUNetClient@@@Z 66050fa0 f   server.obj
 0001:0004fff0       ?createHackmapMsg@@YAXXZ   66050ff0 f   server.obj
 0001:00050170       ?serverRecvTest@@YAXPAUWorld@@PAUUnitAny@@H@Z 66051170 f   server.obj
 0001:00050230       ?necSummon@@YAPAUUnitAny@@PAUNecSummon@@@Z 66051230 f   server.obj
 0001:00050770       ?clientChat@@YIXPAD@Z      66051770 f   admin.obj
 0001:00050ca0       ?selectUnique@@YIHHH@Z     66051ca0 f   admin.obj
 0001:00050d80       ?selectSet@@YIHPAHH@Z      66051d80 f   admin.obj
 0001:000520d0       ?dropItem@@YAPAUUnitAny@@PAUWorld@@PAU1@HHHH@Z 660530d0 f   admin.obj
 0001:00052270       ?getFreePos@@YAPAUAreaRectData@@PAU1@PAUtagPOINT@@1H@Z 66053270 f   admin.obj
 0001:00052290       ?dropRuneword@@YAPAUUnitAny@@PAUWorld@@PAU1@HHH@Z 66053290 f   admin.obj
 0001:000524e0       ?dropUnique@@YAPAUUnitAny@@PAUWorld@@PAU1@HHH@Z 660534e0 f   admin.obj
 0001:00052600       ?dropSet@@YAPAUUnitAny@@PAUWorld@@PAU1@HHH@Z 66053600 f   admin.obj
 0001:000526d0       ?setItemStats@@YAXPAUUnitAny@@PAUd2stats@@@Z 660536d0 f   admin.obj
 0001:000527e0       ?parseStats@@YAPADPADPAUd2stats@@@Z 660537e0 f   admin.obj
 0001:00053ff0       ?setStat@@YAHPAUd2stats@@HHH@Z 66054ff0 f   admin.obj
 0001:00054080       ?pickupItemTo@@YAXPAUWorld@@PAUUnitAny@@1H@Z 66055080 f   admin.obj
 0001:0005502d       _flsall                    6605602d f   LIBCMT:fflush.obj
 0001:00055880       _swap                      66056880 f   LIBCMT:qsort.obj
 0001:000558b0       _shortsort                 660568b0 f   LIBCMT:qsort.obj
 0001:0005631f       ?strtoxl@@YAKPAUlocaleinfo_struct@@PBDPAPBDHH@Z 6605731f f   LIBCMT:strtol.obj
 0001:00057583       _IsRootUNCName             66058583 f   LIBCMT:stati32.obj
 0001:000575fd       __fullpath_helper          660585fd f   LIBCMT:stati32.obj
 0001:00058716       ?_strupr_s_l_stat@@YAHPADIPAUlocaleinfo_struct@@@Z 66059716 f   LIBCMT:strupr.obj
 0001:0005892e       ?wcstoxl@@YAKPAUlocaleinfo_struct@@PB_WPAPB_WHH@Z 6605992e f   LIBCMT:wcstol.obj
 0001:00058f1e       ___DllMainCRTStartup       66059f1e f   LIBCMT:dllcrt0.obj
 0001:00059037       ?CPtoLCID@@YAHH@Z          6605a037 f   LIBCMT:mbctype.obj
 0001:00059066       ?setSBCS@@YAXPAUthreadmbcinfostruct@@@Z 6605a066 f   LIBCMT:mbctype.obj
 0001:000590ca       ?setSBUpLow@@YAXPAUthreadmbcinfostruct@@@Z 6605a0ca f   LIBCMT:mbctype.obj
 0001:00059301       ?getSystemCP@@YAHH@Z       6605a301 f   LIBCMT:mbctype.obj
 0001:0005998b       __updatetlocinfoEx_nolock  6605a98b f   LIBCMT:setlocal.obj
 0001:0005af6d       _write_char                6605bf6d f   LIBCMT:output.obj
 0001:0005afa0       _write_multi_char          6605bfa0 f   LIBCMT:output.obj
 0001:0005afc6       _write_string              6605bfc6 f   LIBCMT:output.obj
 0001:0005c0b7       _fastzero_I                6605d0b7 f   LIBCMT:p4_memset.obj
 0001:0005c19d       _has_osfxsr_set            6605d19d f   LIBCMT:cpu_disp.obj
 0001:0005d02a       _fastcopy_I                6605e02a f   LIBCMT:p4_memcpy.obj
 0001:0005d24c       ?__crtLCMapStringA_stat@@YAHPAUlocaleinfo_struct@@KKPBDHPADHHH@Z 6605e24c f   LIBCMT:a_map.obj
 0001:0005d917       __initterm                 6605e917 f   LIBCMT:crt0dat.obj
 0001:0005d9dd       _doexit                    6605e9dd f   LIBCMT:crt0dat.obj
 0001:0005dce9       __shift                    6605ece9 f   LIBCMT:cvt.obj
 0001:0005dd2e       __cftoe2_l                 6605ed2e f   LIBCMT:cvt.obj
 0001:0005e300       __cftof2_l                 6605f300 f   LIBCMT:cvt.obj
 0001:0005e79c       __unwind_handler4          6605f79c f   LIBCMT:exsup4.obj
 0001:0005f638       __onexit_nolock            66060638 f   LIBCMT:onexit.obj
 0001:00060e8a       _parse_cmdline             66061e8a f   LIBCMT:stdargv.obj
 0001:00061479       ?__crtGetStringTypeA_stat@@YAHPAUlocaleinfo_struct@@KPBDHPAGHHH@Z 66062479 f   LIBCMT:a_str.obj
 0001:00062acc       _siglookup                 66063acc f   LIBCMT:winsig.obj
 0001:000631d4       __unwind_handler           660641d4 f   LIBCMT:exsup.obj
 0001:00063aee       __tzset_nolock             66064aee f   LIBCMT:tzset.obj
 0001:00063e34       _cvtdate                   66064e34 f   LIBCMT:tzset.obj
 0001:0006402b       __isindst_nolock           6606502b f   LIBCMT:tzset.obj
 0001:00064394       __tsopen_nolock            66065394 f   LIBCMT:open.obj
 0001:000650e5       ?x_ismbbtype_l@@YAHPAUlocaleinfo_struct@@IHH@Z 660660e5 f   LIBCMT:ismbbyte.obj
 0001:00066ebd       __hw_cw                    66067ebd f   LIBCMT:_ieee87_.obj
 0001:00066f4b       ___hw_cw_sse2              66067f4b f   LIBCMT:_ieee87_.obj
 0001:00068113       ?strncnt@@YAHPBDH@Z        66069113 f   LIBCMT:a_cmp.obj
 0001:00068131       ?__crtCompareStringA_stat@@YAHPAUlocaleinfo_struct@@KKPBDH1HH@Z 66069131 f   LIBCMT:a_cmp.obj
 0001:000685dd       _findenv                   660695dd f   LIBCMT:setenv.obj
 0001:0006862f       _copy_environ              6606962f f   LIBCMT:setenv.obj
 0001:00068a08       ??__Fnomem@?5???2@YAPAXI@Z@YAXXZ 66069a08 f   LIBCMT:new.obj
