 d2hackmap

 Timestamp is 684a8cb1 (Thu Jun 12 16:15:45 2025)

 Preferred load address is 66000000

 Start         Length     Name                   Class
 0001:00000000 0006bb24H .text                   CODE
 0001:0006bb24 00000014H .text$yd                CODE
 0002:00000000 00000218H .idata$5                DATA
 0002:00000218 00000004H .CRT$XCA                DATA
 0002:0000021c 00000004H .CRT$XCZ                DATA
 0002:00000220 00000004H .CRT$XIA                DATA
 0002:00000224 00000014H .CRT$XIC                DATA
 0002:00000238 00000004H .CRT$XIZ                DATA
 0002:0000023c 00000004H .CRT$XPA                DATA
 0002:00000240 00000004H .CRT$XPX                DATA
 0002:00000244 00000004H .CRT$XPXA               DATA
 0002:00000248 00000004H .CRT$XPZ                DATA
 0002:0000024c 00000004H .CRT$XTA                DATA
 0002:00000250 00000004H .CRT$XTZ                DATA
 0002:00000260 000174f0H .rdata                  DATA
 0002:00017750 000000dcH .rdata$r                DATA
 0002:00017830 0000000cH .rdata$sxdata           DATA
 0002:0001783c 00000004H .rtc$IAA                DATA
 0002:00017840 00000004H .rtc$IZZ                DATA
 0002:00017844 00000004H .rtc$TAA                DATA
 0002:00017848 00000004H .rtc$TZZ                DATA
 0002:00017850 00000734H .xdata$x                DATA
 0002:00017f84 0000003cH .idata$2                DATA
 0002:00017fc0 00000014H .idata$3                DATA
 0002:00017fd4 00000218H .idata$4                DATA
 0002:000181ec 0000095eH .idata$6                DATA
 0002:00018b50 000000c7H .edata                  DATA
 0003:00000000 0000a508H .data                   DATA
 0003:0000a520 002049a4H .bss                    DATA

  Address         Publics by Value              Rva+Base       Lib:Object

 0000:00000000       __except_list              00000000     <absolute>
 0000:00000003       ___safe_se_handler_count   00000003     <absolute>
 0000:00000000       ___ImageBase               66000000     <linker-defined>
 0001:00000000       ?bitstream_init@@YAXPAUbitstream@@PAX1@Z 66001000 f   bitstream.obj
 0001:00000040       ?bitstream_seek@@YAXPAUbitstream@@H@Z 66001040 f   bitstream.obj
 0001:00000080       ?bitstream_rbit@@YAHPAUbitstream@@H@Z 66001080 f   bitstream.obj
 0001:00000170       ?bitstream_wbit@@YAHPAUbitstream@@IH@Z 66001170 f   bitstream.obj
 0001:00000250       ?bitstream_wbit_done@@YAXPAUbitstream@@@Z 66001250 f   bitstream.obj
 0001:000002d0       ?compareConfigVar@@YAHPBX0@Z 660012d0 f   config.obj
 0001:000002f0       ?compareSymbol@@YAHPBX0@Z  660012f0 f   config.obj
 0001:00000310       ?findConfigVar@@YAPAUConfigVar@@PAD@Z 66001310 f   config.obj
 0001:00000400       ?addConfigVar@@YAXPAUConfigVar@@@Z 66001400 f   config.obj
 0001:00000470       ?FixValues@@YAXXZ          66001470 f   config.obj
 0001:000004b0       ?formatKey@@YAXPADH@Z      660014b0 f   config.obj
 0001:00000550       ?formatKeyW@@YAXPA_WH@Z    66001550 f   config.obj
 0001:00000680       ?setupKey@@YAXPAUToggleVar@@@Z 66001680 f   config.obj
 0001:000006d0       ?addExtraKey@@YAPAUToggleVar@@H@Z 660016d0 f   config.obj
 0001:00000730       ?InitKeyEvent@@YAXXZ       66001730 f   config.obj
 0001:00000ae0       ?AddWarningMessage@@YAXPADH@Z 66001ae0 f   config.obj
 0001:00000c20       ?ShowWarningMessage@@YAXXZ 66001c20 f   config.obj
 0001:00000c80       ?isquote@@YADD@Z           66001c80 f   config.obj
 0001:00000cb0       ?filterSpace@@YAXPAD@Z     66001cb0 f   config.obj
 0001:00000d70       ?splitLine@@YAXPADPAPAD1@Z 66001d70 f   config.obj
 0001:00000e40       ?strchr@@YAPADPADH@Z       66001e40 f i config.obj
 0001:00000e60       ?strrchr@@YAPADPADH@Z      66001e60 f i config.obj
 0001:00000e80       ?findSymbol@@YAPAUSymbol@@PAD@Z 66001e80 f   config.obj
 0001:00000f40       ?doneNameValues@@YAXXZ     66001f40 f   config.obj
 0001:00000ff0       ?addNameValue@@YAXPAD0@Z   66001ff0 f   config.obj
 0001:00001080       ?replaceSymbols@@YAPADPAD@Z 66002080 f   config.obj
 0001:00001420       ?ConvertToWString@@YAHPA_WPADH@Z 66002420 f   config.obj
 0001:00001450       ?ConvertToD2String@@YAXPA_WPADH@Z 66002450 f   config.obj
 0001:000015a0       ?StoreArrayConfig@@YAHPAUConfigVar@@HHPAD1HH@Z 660025a0 f   config.obj
 0001:00001ac0       ?StoreConfig@@YAXPAUConfigVar@@PAD1@Z 66002ac0 f   config.obj
 0001:00003010       ?LoadConfigFile@@YAHPADH@Z 66004010 f   config.obj
 0001:00003890       ?strstr@@YAPADPADPBD@Z     66004890 f i config.obj
 0001:000047e0       ?ReleaseMem@@YAXXZ         660057e0 f   DllMain.obj
 0001:00004800       _DllMain@12                66005800 f   DllMain.obj
 0001:000049d0       _QueryInterface@0          660059d0 f   DllMain.obj
 0001:000049f0       _PatchClient               660059f0 f   DllMain.obj
 0001:00004a40       _MainMenuFlushFramebuf@0   66005a40 f   DllMain.obj
 0001:00004a60       _PatchServer@4             66005a60 f   DllMain.obj
 0001:00004aa0       ?guessEnchantLevel@@YAHXZ  66005aa0 f   guess.obj
 0001:00004b50       ?guessBOLevel@@YAHH@Z      66005b50 f   guess.obj
 0001:00005380       ?Install_AddConfigVars@@YAXXZ 66006380 f   install.obj
 0001:000053c0       ?Install_FixValues@@YAXXZ  660063c0 f   install.obj
 0001:000053e0       ?get_dll_addr@@YAPAUHINSTANCE__@@PAD@Z 660063e0 f   install.obj
 0001:00005470       ?VirtualProtect@@YAKKKK@Z  66006470 f   install.obj
 0001:000054a0       ?WriteLocalBYTES@@YAXKPAXH@Z 660064a0 f   install.obj
 0001:000054f0       ?FillLocalBYTES@@YAXKEH@Z  660064f0 f   install.obj
 0001:00005550       ?InterceptLocalCode2@@YAXEKKH@Z 66006550 f   install.obj
 0001:000055d0       ?InterceptLocalCode@@YAXEKKH@Z 660065d0 f   install.obj
 0001:00005600       ?patchCall@@YAHPAD0HHHH0@Z 66006600 f   install.obj
 0001:00005650       ?patchJmp@@YAHPAD0HHHH0@Z  66006650 f   install.obj
 0001:000056a0       ?patchFill@@YAHPAD0HHHH0@Z 660066a0 f   install.obj
 0001:000056f0       ?patchValue@@YAHPAD0HHHH0@Z 660066f0 f   install.obj
 0001:00005740       ?installPatch@@YAHP6AXHHH@ZPAD1HHHH1@Z 66006740 f   install.obj
 0001:00005ad0       ?removePatches@@YAHPAPAUInstalledPatch@@@Z 66006ad0 f   install.obj
 0001:00005b60       ?init_d2_ptrs@@YAHH@Z      66006b60 f   install.obj
 0001:00009570       ?init_d2_ptrs2@@YAHXZ      6600a570 f   install.obj
 0001:000095e0       ?InstallPatchAfterLoad_ASM@@YAXXZ 6600a5e0 f   install.obj
 0001:000098d0       ?setResolutionPatch@@YAXH@Z 6600a8d0 f   install.obj
 0001:00009920       ?MonitorPacket@@YAXXZ      6600a920 f   install.obj
 0001:0000bbb0       ?check_d2ptrs@@YAXXZ       6600cbb0 f   install.obj
 0001:00013770       ?Install@@YAHXZ            66014770 f   install.obj
 0001:00013d20       ?patchServer@@YAXXZ        66014d20 f   install.obj
 0001:00013d80       @SetReloadFlag@8           66014d80 f   install.obj
 0001:00013db0       @SetBnetIp@4               66014db0 f   install.obj
 0001:00013dd0       ?unpatchServer@@YAXXZ      66014dd0 f   install.obj
 0001:00013e20       ?Uninstall@@YAXXZ          66014e20 f   install.obj
 0001:00014060       ?init_crypt_table@@YAXXZ   66015060 f   mpq.obj
 0001:00014100       ?mpq_hashstring@@YAIPBDI@Z 66015100 f   mpq.obj
 0001:00014180       ?saveMpqTable@@YAXXZ       66015180 f   mpq.obj
 0001:00014230       ?add_mpq_path@@YIHPAD@Z    66015230 f   mpq.obj
 0001:00014360       ?dump_mpq_path@@YIXH@Z     66015360 f   mpq.obj
 0001:00014500       ?storm268_patch_ASM@@YAXXZ 66015500 f   mpq.obj
 0001:00014530       ?common_addConfigVars@@YAXXZ 66015530 f   common.obj
 0001:00014570       ?UnicodeFix2@@YAXPA_W@Z    66015570 f   common.obj
 0001:00014600       ?MyMultiByteToWideChar@@YAHIKPBDHPA_WH@Z 66015600 f   common.obj
 0001:00014640       ?GB2GBK@@YAXPAD@Z          66015640 f   common.obj
 0001:000147c0       ?readFully@@YAHPAU_iobuf@@PADH@Z 660157c0 f   common.obj
 0001:00014820       ?getFileSize@@YAHPBD@Z     66015820 f   common.obj
 0001:00014850       ?fileExist@@YAHPBD@Z       66015850 f   common.obj
 0001:00014870       ?openFile@@YAPAU_iobuf@@PAD0@Z 66015870 f   common.obj
 0001:00014980       ?heap_strdup@@YAPADPAXPAD@Z 66015980 f   common.obj
 0001:00014a00       ?loadFile@@YAPADPAXPAU_iobuf@@PAH@Z 66015a00 f   common.obj
 0001:00014b50       ?gameMessage@@YAXPADZZ     66015b50 f   common.obj
 0001:00014d10       ?partyMessage@@YAXPADZZ    66015d10 f   common.obj
 0001:00014dd0       ?gameMessageW@@YAXPA_WZZ   66015dd0 f   common.obj
 0001:00014e20       ?partyMessageW@@YAXPA_WZZ  66015e20 f   common.obj
 0001:00014e70       ?partyMessageWcolor@@YAXHPA_WZZ 66015e70 f   common.obj
 0001:00014ed0       ?get_cpu_usage@@YAHPAH0@Z  66015ed0 f   common.obj
 0001:00014fb0       ?getSkillClass@@YAHH@Z     66015fb0 f   common.obj
 0001:00015000       ?getSkillType@@YAHHH@Z     66016000 f   common.obj
 0001:00015050       ?getSkillLevel@@YAHPAUUnitAny@@H@Z 66016050 f   common.obj
 0001:000151b0       ?getUnitRawDistance2@@YAHPAUUnitAny@@0@Z 660161b0 f   common.obj
 0001:000152c0       ?getUnitYardDistance2@@YAMPAUUnitAny@@0@Z 660162c0 f   common.obj
 0001:00015300       ?saveDistanceMap@@YAXXZ    66016300 f   common.obj
 0001:00015360       ?getDistanceM256@@YAHHH@Z  66016360 f   common.obj
 0001:00015490       ?getPlayerDistanceM256@@YAHPAUUnitAny@@@Z 66016490 f   common.obj
 0001:00015520       ?getPlayerDistanceRaw@@YAMPAUUnitAny@@@Z 66016520 f   common.obj
 0001:000155c0       ?getPlayerDistanceYard@@YAMPAUUnitAny@@@Z 660165c0 f   common.obj
 0001:000155f0       ?getRosterUnit@@YAPAURosterUnit@@H@Z 660165f0 f   common.obj
 0001:00015630       ?getAreatileByTxt@@YAPAUUnitAny@@H@Z 66016630 f   common.obj
 0001:00015690       ?findObjectByTxt@@YAPAUUnitAny@@HHH@Z 66016690 f   common.obj
 0001:00015740       ?getPortalToArea@@YAPAUUnitAny@@HPAD@Z 66016740 f   common.obj
 0001:00015880       ?getAreatileTxtToLevel@@YAHH@Z 66016880 f   common.obj
 0001:000158e0       ?getSinglePlayerWorld@@YAPAUWorld@@XZ 660168e0 f   common.obj
 0001:00015910       ?encodeItem@@YAHPAUUnitAny@@PADH@Z 66016910 f   common.obj
 0001:00015950       ?hasSkill@@YAHH@Z          66016950 f   common.obj
 0001:000159d0       ?selectSkill@@YAXHH@Z      660169d0 f   common.obj
 0001:00015a20       ?switchLeftSkill@@YAXH@Z   66016a20 f   common.obj
 0001:00015a40       ?switchRightSkill@@YAXH@Z  66016a40 f   common.obj
 0001:00015a60       ?getSinglePlayerUnit@@YAPAUUnitAny@@HH@Z 66016a60 f   common.obj
 0001:00015b30       ?SendPacket@@YAXPAEH@Z     66016b30 f   common.obj
 0001:00015bc0       ?LeftClickType@@YAHHPAUUnitAny@@HH@Z 66016bc0 f   common.obj
 0001:00015ca0       ?LeftClickPos@@YAHHH@Z     66016ca0 f   common.obj
 0001:00015cc0       ?LeftClickUnit@@YAHPAUUnitAny@@@Z 66016cc0 f   common.obj
 0001:00015ce0       ?ShiftLeftClickUnit@@YAHPAUUnitAny@@@Z 66016ce0 f   common.obj
 0001:00015d30       ?ShiftLeftClickPos@@YAHHH@Z 66016d30 f   common.obj
 0001:00015d80       ?RightSkill@@YAHPAUUnitAny@@HH@Z 66016d80 f   common.obj
 0001:00015dd0       ?RightSkillPos@@YAHHH@Z    66016dd0 f   common.obj
 0001:00015df0       ?RightSkillUnit@@YAHPAUUnitAny@@@Z 66016df0 f   common.obj
 0001:00015e20       ?canUseSkillNow@@YAHPAUUnitAny@@H@Z 66016e20 f   common.obj
 0001:00015e40       ?skillUnusableAsm@@YAHPAUUnitAny@@PAUSkill@@@Z 66016e40 f   common.obj
 0001:00015e60       ?skillUnusable@@YAHPAUUnitAny@@PAUSkill@@@Z 66016e60 f   common.obj
 0001:00015ea0       ?useBelt@@YAXHH@Z          66016ea0 f   common.obj
 0001:00015f20       ?GameControlStart@@YAHH@Z  66016f20 f   common.obj
 0001:00015fb0       ?GameControlEnd@@YAHH@Z    66016fb0 f   common.obj
 0001:00016030       ?GameControl@@YAXH@Z       66017030 f   common.obj
 0001:00016050       ?getGameControlKey@@YAHH@Z 66017050 f   common.obj
 0001:000160a0       ?StandStillPatch_ASM@@YAXXZ 660170a0 f   common.obj
 0001:000160c0       ?SetBottomAlertMsg1@@YAXPA_WHHH@Z 660170c0 f   common.obj
 0001:00016160       ?SetBottomAlertMsg2@@YAXPA_WHHH@Z 66017160 f   common.obj
 0001:00016200       ?sqrt@@YAMM@Z              66017200 f i common.obj
 0001:00016220       _sqrtf                     66017220 f i common.obj
 0001:00016240       ?SetBottomAlertMsg3@@YAXPA_WHHH@Z 66017240 f   common.obj
 0001:000162e0       ?DrawCenterAlertMsg@@YAXXZ 660172e0 f   common.obj
 0001:000164f0       ?GetAreaLevel@@YAHXZ       660174f0 f   common.obj
 0001:00016550       ?GetPetByType@@YAPAUPetUnit@@PAUUnitAny@@H@Z 66017550 f   common.obj
 0001:000165a0       ?GetUnitFromIdSafe@@YAPAUUnitAny@@KK@Z 660175a0 f   common.obj
 0001:00016610       ?GetUnitPet@@YAPAUUnitAny@@PAU1@@Z 66017610 f   common.obj
 0001:00016650       ?getPlayerClass@@YAHH@Z    66017650 f   common.obj
 0001:00016690       ?GetUnitMagicStat@@YAKPAUUnitAny@@K@Z 66017690 f   common.obj
 0001:000166e0       ?GetUnitResist@@YAHPAUUnitAny@@K@Z 660176e0 f   common.obj
 0001:00016730       ?CheckUnitSelect@@YAHPAUUnitAny@@@Z 66017730 f   common.obj
 0001:00016860       ?GetItemILvlAfterCube@@YAHHHH@Z 66017860 f   common.obj
 0001:00016910       ?GetItemAlvl@@YAHHHH@Z     66017910 f   common.obj
 0001:00016990       ?GetTextWidth@@YAKPA_W@Z   66017990 f   common.obj
 0001:000169b0       ?DrawD2Text@@YAXKPA_WHHKK@Z 660179b0 f   common.obj
 0001:000169f0       ?DrawCenterText@@YAXKPA_WHHKHK@Z 660179f0 f   common.obj
 0001:00016a40       ?drawBgText@@YAHPA_WHHHH@Z 66017a40 f   common.obj
 0001:00016ac0       ?drawBgTextMiddle@@YAHPA_WHHHH@Z 66017ac0 f   common.obj
 0001:00016b30       ?drawBgTextLeft@@YAHPA_WHHHH@Z 66017b30 f   common.obj
 0001:00016b90       ?ExitGame@@YAXXZ           66017b90 f   common.obj
 0001:00016bc0       ?GetGameLanguage@@YAHXZ    66017bc0 f   common.obj
 0001:00016c80       ?getFcrFrame@@YAHHPAUUnitAny@@@Z 66017c80 f   common.obj
 0001:00016f40       ?IsFullWindow@@YAHXZ       66017f40 f   common.obj
 0001:00017000       ?getUnitOwnerId@@YAHPAUUnitAny@@@Z 66018000 f   common.obj
 0001:000171e0       ?testPvpFlag@@YAHH@Z       660181e0 f   common.obj
 0001:000173e0       ?sameParty@@YAHH@Z         660183e0 f   common.obj
 0001:00017400       ?isInRect@@YA_NPAUAreaRectData@@HH@Z 66018400 f   common.obj
 0001:00017470       ?testPosition@@YAPAUAreaRectData@@PAU1@HH@Z 66018470 f   common.obj
 0001:00017490       ?portalToLevel@@YAHPAUWorld@@PAUUnitAny@@H@Z 66018490 f   common.obj
 0001:00017640       ?hasPortalInRect@@YAHPAUAreaRectData@@H@Z 66018640 f   common.obj
 0001:000176b0       ?hasPortalNearby@@YAHPAUAreaRectData@@H@Z 660186b0 f   common.obj
 0001:00017720       ?hasPortalInLevel@@YAHPAUDrlgLevel@@H@Z 66018720 f   common.obj
 0001:00017780       ?unitHasItem@@YAHPAUUnitAny@@H@Z 66018780 f   common.obj
 0001:000177f0       ?sendPacketToClient@@YAXPAUNetClient@@PADH@Z 660187f0 f   common.obj
 0001:00017810       ?sendChatMessageToServer@@YAXPADZZ 66018810 f   common.obj
 0001:000178d0       ?sendMessageToClient@@YAXPAUNetClient@@HHPAD1@Z 660188d0 f   common.obj
 0001:00017a70       ?getCharStatsTxt@@YAPAUCharStatsTxt@@H@Z 66018a70 f   common.obj
 0001:00017a80       ?getStatMaxValue@@YAHH@Z   66018a80 f   common.obj
 0001:00017ae0       ?cpLocaleName@@YAHPA_W0H@Z 66018ae0 f   common.obj
 0001:00017b80       ?acpLocaleName@@YAHPADPA_WH@Z 66018b80 f   common.obj
 0001:00017c30       ?getSimpleItemStackContent@@YAHPAUUnitAny@@PAH@Z 66018c30 f   common.obj
 0001:00017d10       ?d2client_SetAutomapParty@@YIXK@Z 66018d10 f   d2callstub.obj
 0001:00017d20       ?d2client_SetAutomapNames@@YIXK@Z 66018d20 f   d2callstub.obj
 0001:00017d30       ?d2client_ChatInput@@YIKPAUD2MSG@@@Z 66018d30 f   d2callstub.obj
 0001:00017d40       ?d2client_CheckUiStatus@@YIHH@Z 66018d40 f   d2callstub.obj
 0001:00017d50       ?d2client_InitAutomapLayer@@YIPAUAutomapLayer@@H@Z 66018d50 f   d2callstub.obj
 0001:00017d60       ?d2common_GetUniqueItemTxt@@YIPAUUniqueItemTxt@@H@Z 66018d60 f   d2callstub.obj
 0001:00017d90       ?d2common_GetItemStatCostTxt@@YIPAUItemStatCostTxt@@H@Z 66018d90 f   d2callstub.obj
 0001:00017dc0       ?d2common_GetPropertiesTxt@@YIPAUPropertiesTxt@@H@Z 66018dc0 f   d2callstub.obj
 0001:00017df0       ?d2common_GetSetItemTxt@@YIPAUSetItemTxt@@H@Z 66018df0 f   d2callstub.obj
 0001:00017e20       ?d2common_GetItemTypeTxt@@YIPAUItemTypeTxt@@H@Z 66018e20 f   d2callstub.obj
 0001:00017e50       ?d2common_GetRuneWordTxt@@YIPAURuneWordTxt@@H@Z 66018e50 f   d2callstub.obj
 0001:00017e80       ?d2common_GetRuneWordTxtIndex@@YIHH@Z 66018e80 f   d2callstub.obj
 0001:00017ec0       ?d2client_LoadUiImage@@YIPAUCellFile@@PAD@Z 66018ec0 f   d2callstub.obj
 0001:00017ed0       ?SaveGame@@YAHXZ           66018ed0 f   dbg.obj
 0001:00017f20       ?DoTest@@YAHXZ             66018f20 f   dbg.obj
 0001:00017f40       ?installAlwaysDebugPatches@@YAHXZ 66018f40 f   dbg.obj
 0001:00017f50       ?installDebugPatches@@YAHXZ 66018f50 f   dbg.obj
 0001:00018140       ?loop_addConfigVars@@YAXXZ 66019140 f   loop.obj
 0001:00018180       ?ToggleIMEInput@@YAXH@Z    66019180 f   loop.obj
 0001:000181d0       ?GameLoopPatch@@YAXXZ      660191d0 f   loop.obj
 0001:00018ed0       ?GameEndPatch@@YAXXZ       66019ed0 f   loop.obj
 0001:000190d0       ?GameLoopPatch_ASM@@YAXXZ  6601a0d0 f   loop.obj
 0001:000190e0       ?GameEndPatch_ASM@@YAXXZ   6601a0e0 f   loop.obj
 0001:000190f0       ?automap_addConfigVars@@YAXXZ 6601a0f0 f   map.obj
 0001:00019130       ?automap_initConfigVars@@YAXXZ 6601a130 f   map.obj
 0001:00019440       ?automap_initKeyEvent@@YAXXZ 6601a440 f   map.obj
 0001:000194c0       ?draw2map@@YAXPAUtagPOINT@@HH@Z 6601a4c0 f   map.obj
 0001:00019530       ?tile2map@@YAXPAUtagPOINT@@HH@Z 6601a530 f   map.obj
 0001:00019580       ?addMapTarget@@YAXHHHPA_W0@Z 6601a580 f   map.obj
 0001:00019660       ?automap_fixValues@@YAXXZ  6601a660 f   map.obj
 0001:000196c0       ?AutoMapNewGame@@YAXXZ     6601a6c0 f   map.obj
 0001:000197b0       ?PrevMapTarget@@YAHXZ      6601a7b0 f   map.obj
 0001:000199f0       ?NextMapTarget@@YAHXZ      6601a9f0 f   map.obj
 0001:00019a90       ?incMapTargetIf@@YAXH@Z    6601aa90 f   map.obj
 0001:00019ac0       ?AutoMapNewLevel@@YAXXZ    6601aac0 f   map.obj
 0001:00019ca0       ?addMinimapTarget@@YAXPAUAreaRectInfo@@HHHHHH@Z 6601aca0 f   map.obj
 0001:00019da0       ?bitmap2dc6@@YAPAUCellFile@@PAEHH@Z 6601ada0 f   map.obj
 0001:00019fd0       ?InitCellFiles@@YAXXZ      6601afd0 f   map.obj
 0001:0001a2d0       ?DeleteCellFiles@@YAXXZ    6601b2d0 f   map.obj
 0001:0001a3e0       ?InitAutomapLayer@@YAXH@Z  6601b3e0 f   map.obj
 0001:0001a400       ?mapReveal@@YAXPAUAreaRectInfo@@@Z 6601b400 f   map.obj
 0001:0001a450       ?mapHide@@YAXPAUAreaRectInfo@@@Z 6601b450 f   map.obj
 0001:0001a4a0       ?addSecretCowLevelCorners@@YAXPAUDrlgLevel@@@Z 6601b4a0 f   map.obj
 0001:0001a650       ?RevealAutomapLevel@@YAXPAUDrlgLevel@@H@Z 6601b650 f   map.obj
 0001:0001b190       ?RevealLevelPlayerIn@@YAHXZ 6601c190 f   map.obj
 0001:0001b1d0       ?RevealCurAct@@YAHXZ       6601c1d0 f   map.obj
 0001:0001b380       ?RemoveMyAutomapNodes@@YAXXZ 6601c380 f   map.obj
 0001:0001b450       ?DrawAutomapNodePatch@@YGXPAUCellContext@@HHPAUtagRECT@@H@Z 6601c450 f   map.obj
 0001:0001b8a0       ?AddShrinePatch_ASM@@YAXXZ 6601c8a0 f   map.obj
 0001:0001b8d0       ?OverrideShrinePatch@@YIXPAUAutomapNode@@0@Z 6601c8d0 f   map.obj
 0001:0001b930       ?OverrideShrinePatch_ASM@@YAXXZ 6601c930 f   map.obj
 0001:0001b950       ?DrawAutomapNode@@YAXPAUCellFile@@HHD@Z 6601c950 f   map.obj
 0001:0001bad0       ?DrawAutomapBlob@@YIXHHHPAUUnitAny@@@Z 6601cad0 f   map.obj
 0001:0001bc50       ?ForceDrawBlob_ASM@@YAXXZ  6601cc50 f   map.obj
 0001:0001bc60       ?DrawBlobPath_ASM@@YAXXZ   6601cc60 f   map.obj
 0001:0001bc70       ?DrawPartyPlayerBlobPatch_ASM@@YAXXZ 6601cc70 f   map.obj
 0001:0001bc80       ?HostilePlayerPatch@@YIEPAUUnitAny@@@Z 6601cc80 f   map.obj
 0001:0001bcc0       ?HostilePlayerColor_ASM@@YAXXZ 6601ccc0 f   map.obj
 0001:0001bcd0       ?DrawPlayerTextPatch@@YIEPAUUnitAny@@@Z 6601ccd0 f   map.obj
 0001:0001bd30       ?DrawPlayerTextPatch_ASM@@YAXXZ 6601cd30 f   map.obj
 0001:0001bd50       ?MonsterBlobDesc@@YIXPAUUnitAny@@@Z 6601cd50 f   map.obj
 0001:0001c240       ?MonsterBlobDescPatch_ASM@@YAXXZ 6601d240 f   map.obj
 0001:0001c260       ?MonsterBlobCol@@YIEPAUUnitAny@@@Z 6601d260 f   map.obj
 0001:0001c390       ?CorpseBlobCol@@YIEPAUUnitAny@@@Z 6601d390 f   map.obj
 0001:0001c440       ?ObjectBlobCol@@YIEPAUUnitAny@@@Z 6601d440 f   map.obj
 0001:0001c600       ?MissileBlobCol@@YIEPAUUnitAny@@@Z 6601d600 f   map.obj
 0001:0001c700       ?MixedBlobColPatch@@YIEPAUUnitAny@@@Z 6601d700 f   map.obj
 0001:0001c7b0       ?MixedBlobColPatch_ASM@@YAXXZ 6601d7b0 f   map.obj
 0001:0001c7d0       ?AddRectToMinimap@@YAHPAUAreaRectInfo@@H@Z 6601d7d0 f   map.obj
 0001:0001d420       ?drawActiveRectAreaOnMinimap@@YAXXZ 6601e420 f   map.obj
 0001:0001d580       ?drawScreenAreaOnMinimap@@YAXXZ 6601e580 f   map.obj
 0001:0001d6a0       ?MinimapPatch@@YAXXZ       6601e6a0 f   map.obj
 0001:0001d980       ?MinimapPatch_ASM@@YAXXZ   6601e980 f   map.obj
 0001:0001d990       ?InitScrollLock@@YAXH@Z    6601e990 f   map.obj
 0001:0001d9c0       ?SetScrollMapPos@@YAXHH@Z  6601e9c0 f   map.obj
 0001:0001da20       ?MiniMapScroll@@YAHH@Z     6601ea20 f   map.obj
 0001:0001da50       ?CenterMap@@YAHXZ          6601ea50 f   map.obj
 0001:0001da70       ?ShakeScreenPatch@@YGXPAH0@Z 6601ea70 f   map.obj
 0001:0001db10       ?ScrollScreenEnd@@YAHH@Z   6601eb10 f   map.obj
 0001:0001db50       ?ScrollScreenStart@@YAHH@Z 6601eb50 f   map.obj
 0001:0001dc20       ?DrawScrollOffset@@YAXPA_WH@Z 6601ec20 f   map.obj
 0001:0001dc70       ?recvObjectState@@YIXPAD@Z 6601ec70 f   map.obj
 0001:0001dd00       ?RecvPacket0EPatch_ASM@@YAXXZ 6601ed00 f   map.obj
 0001:0001dd10       ?packet_addConfigVars@@YAXXZ 6601ed10 f   packet.obj
 0001:0001dd50       ?packet_initConfigVars@@YAXXZ 6601ed50 f   packet.obj
 0001:0001dd80       ?packet_FixValues@@YAXXZ   6601ed80 f   packet.obj
 0001:0001ddc0       ?ResetPacketHandlerTimer@@YAXXZ 6601edc0 f   packet.obj
 0001:0001ddd0       ?PacketNewGame@@YAXXZ      6601edd0 f   packet.obj
 0001:0001ddf0       ?FixSocketTimeOut_ASM@@YAXXZ 6601edf0 f   packet.obj
 0001:0001de00       ?FixSocketErrRet_ASM@@YAXXZ 6601ee00 f   packet.obj
 0001:0001de20       ?dump9c@@YAXPAEH@Z         6601ee20 f   packet.obj
 0001:0001df80       ?GamePacketReceivedInterceptPatch_ASM@@YAXXZ 6601ef80 f   packet.obj
 0001:0001dfb0       ?dumpRecvPacket@@YIXPAEH@Z 6601efb0 f   packet.obj
 0001:0001eb80       ?GamePacketSendInterceptPatch_ASM@@YAXXZ 6601fb80 f   packet.obj
 0001:0001ebe0       ?dumpSendPacket@@YIXPAH@Z  6601fbe0 f   packet.obj
 0001:0001f290       ?showResetProtectMsg@@YAXXZ 66020290 f   packet.obj
 0001:0001f300       ?activeBufferItem@@YAHHHH@Z 66020300 f   packet.obj
 0001:0001f370       ?ResetSkillPatch_ASM@@YAXXZ 66020370 f   packet.obj
 0001:0001f390       ?packetDebug@@YAXXZ        66020390 f   packet.obj
 0001:0001f3a0       ?blockSendPacket@@YIHPAH@Z 660203a0 f   packet.obj
 0001:0001fb30       ?initSendPacketCheckTable@@YAXXZ 66020b30 f   packet.obj
 0001:0001fbc0       ?autoroute_addConfigVars@@YAXXZ 66020bc0 f   route.obj
 0001:0001fc00       ?autoroute_fixValues@@YAXXZ 66020c00 f   route.obj
 0001:0001fc20       ?AutoRouteNewGame@@YAXXZ   66020c20 f   route.obj
 0001:0001fc50       ?AutoRouteLocateSource@@YAHH@Z 66020c50 f   route.obj
 0001:0001fdf0       ?minimapDebug@@YAXXZ       66020df0 f   route.obj
 0001:0001ff40       ?AutoRouteDrawScreenPath@@YAXXZ 66020f40 f   route.obj
 0001:00020200       ?AutoRouteDrawMinimapPath@@YAXXZ 66021200 f   route.obj
 0001:000208a0       ?markNextPathInvalid@@YAXH@Z 660218a0 f   route.obj
 0001:00020910       ?AutoTeleportGetTarget@@YAHPAUtagPOINT@@PAH11@Z 66021910 f   route.obj
 0001:00020a70       ?RerouteRectPath@@YAHXZ    66021a70 f   route.obj
 0001:00021630       ?AutoMapRoute@@YAXXZ       66022630 f   route.obj
 0001:00021720       ?waypoint_initConfigVars@@YAXXZ 66022720 f   waypoint.obj
 0001:000217a0       ?waypointExist@@YAHH@Z     660227a0 f   waypoint.obj
 0001:000217e0       ?hasWaypoint@@YAHH@Z       660227e0 f   waypoint.obj
 0001:00021840       ?WaypointNewGame@@YAXXZ    66022840 f   waypoint.obj
 0001:00021860       ?isWaypointTxt@@YAHH@Z     66022860 f   waypoint.obj
 0001:00021a20       ?findWaypoint@@YAPAUUnitAny@@H@Z 66022a20 f   waypoint.obj
 0001:00021c60       ?takeWaypointToLevel@@YAHPAUUnitAny@@H@Z 66022c60 f   waypoint.obj
 0001:00021cd0       ?takeWaypointToLvl@@YAHHH@Z 66022cd0 f   waypoint.obj
 0001:00021d10       ?RecvCommand_63_Patch_ASM@@YAXXZ 66022d10 f   waypoint.obj
 0001:00021e00       ?winmsg_addConfigVars@@YAXXZ 66022e00 f   winmsg.obj
 0001:00021e40       ?winmsg_initConfigVars@@YAXXZ 66022e40 f   winmsg.obj
 0001:00021f50       ?WinMessageFixValues@@YAXXZ 66022f50 f   winmsg.obj
 0001:00021fe0       ?WinMessage_initKeyEvent@@YAXXZ 66022fe0 f   winmsg.obj
 0001:00022420       ?IsKeyDown@@YAHH@Z         66023420 f   winmsg.obj
 0001:00022440       ?LockMouse@@YAHXZ          66023440 f   winmsg.obj
 0001:00022600       ?switchSkillStart@@YAHH@Z  66023600 f   winmsg.obj
 0001:00022780       ?switchSkillEnd@@YAHH@Z    66023780 f   winmsg.obj
 0001:00022900       ?GameSound@@YAHH@Z         66023900 f   winmsg.obj
 0001:00022940       ?FullScreen@@YAHXZ         66023940 f   winmsg.obj
 0001:00022a30       ?AttractNPC@@YAHXZ         66023a30 f   winmsg.obj
 0001:00022ad0       ?SwitchWindow@@YAHH@Z      66023ad0 f   winmsg.obj
 0001:00022b30       ?WinMessageNewGame@@YAXXZ  66023b30 f   winmsg.obj
 0001:00022d70       ?WinMessageEndGame@@YAXXZ  66023d70 f   winmsg.obj
 0001:00022da0       ?refreshScreenSaver@@YAXXZ 66023da0 f   winmsg.obj
 0001:00022de0       ?refreshMenuScreenSaver@@YAXXZ 66023de0 f   winmsg.obj
 0001:00022e20       ?winActiveMsg@@YAXH@Z      66023e20 f   winmsg.obj
 0001:00022f50       ?hasCTA@@YAHXZ             66023f50 f   winmsg.obj
 0001:00023000       ?WinMessageRunLoop@@YAXXZ  66024000 f   winmsg.obj
 0001:000232d0       ?WinMessage@@YAHHHPAUHWND__@@HHH@Z 660242d0 f   winmsg.obj
 0001:00024170       ?WinMessagePatch_ASM@@YAXXZ 66025170 f   winmsg.obj
 0001:00024180       ?KeydownPatch_ASM@@YAXXZ   66025180 f   winmsg.obj
 0001:000241a0       ?KeyupPatch_ASM@@YAXXZ     660251a0 f   winmsg.obj
 0001:000241c0       ?ReceiveSwapWeapon_ASM@@YAXXZ 660251c0 f   winmsg.obj
 0001:00024200       ?ShowVersion_Patch_ASM@@YAXXZ 66025200 f   winmsg.obj
 0001:000242a0       ?SetCursorPosPatch_ASM@@YAXXZ 660252a0 f   winmsg.obj
 0001:000242c0       ?DrawLeftBackImagePatch_ASM@@YAXXZ 660252c0 f   winmsg.obj
 0001:000242e0       ?DrawRightBackImagePatch_ASM@@YAXXZ 660252e0 f   winmsg.obj
 0001:00024300       ?DrawGroundAndUnitPatch_ASM@@YAXXZ 66025300 f   winmsg.obj
 0001:00024360       ?DrawControlsPatch_ASM@@YAXXZ 66025360 f   winmsg.obj
 0001:00024450       ?SkipDrawUnitAndControlPatch_ASM@@YAXXZ 66025450 f   winmsg.obj
 0001:000244e0       ?SkipAllDrawingPatch_ASM@@YAXXZ 660254e0 f   winmsg.obj
 0001:00024590       ?SkipDrawMenuPatch2_ASM@@YAXXZ 66025590 f   winmsg.obj
 0001:00024610       ?SkipDrawMenuPatch_ASM@@YAXXZ 66025610 f   winmsg.obj
 0001:000246d0       ?NoHidePatch_ASM@@YAXXZ    660256d0 f   winmsg.obj
 0001:00024700       ?env_addConfigVars@@YAXXZ  66025700 f   env.obj
 0001:00024740       ?env_initConfigVars@@YAXXZ 66025740 f   env.obj
 0001:00024790       ?ChangeVisualEffect@@YAHXZ 66025790 f   env.obj
 0001:00024810       ?WeatherPatch_ASM@@YAXXZ   66025810 f   env.obj
 0001:00024820       ?LightingPatch_ASM@@YAXXZ  66025820 f   env.obj
 0001:00024850       ?InfravisionPatch@@YIKPAUUnitAny@@@Z 66025850 f   env.obj
 0001:00024cd0       ?InfravisionPatch_ASM@@YAXXZ 66025cd0 f   env.obj
 0001:00024cf0       ?drawMyGround@@YAXXZ       66025cf0 f   env.obj
 0001:00024e90       ?SkipDrawGroundPatch_ASM@@YAXXZ 66025e90 f   env.obj
 0001:00024eb0       ?gamemonitor_addConfigVars@@YAXXZ 66025eb0 f   GameMonitor.obj
 0001:00024ef0       ?gamemonitor_initConfigVars@@YAXXZ 66025ef0 f   GameMonitor.obj
 0001:00024f30       ?usePotion@@YAXH@Z         66025f30 f   GameMonitor.obj
 0001:00025010       ?updateCurStashPage@@YAXXZ 66026010 f   GameMonitor.obj
 0001:000251d0       ?recheckSelfItems@@YAXXZ   660261d0 f   GameMonitor.obj
 0001:000258f0       ?setKDCountDown@@YAXH@Z    660268f0 f   GameMonitor.obj
 0001:00025910       ?setKBCountDown@@YAXHH@Z   66026910 f   GameMonitor.obj
 0001:00025940       ?setCountDownEndTime@@YAXPAUCountDown@@@Z 66026940 f   GameMonitor.obj
 0001:00025a20       ?setupCountdown@@YAXPAUCountDown@@@Z 66026a20 f   GameMonitor.obj
 0001:00025a70       ?onRightSkillMap@@YAXHH@Z  66026a70 f   GameMonitor.obj
 0001:00025c20       ?onRightSkillUnit@@YAXHH@Z 66026c20 f   GameMonitor.obj
 0001:00025d80       ?GameMonitorNewGame@@YAXXZ 66026d80 f   GameMonitor.obj
 0001:00025e30       ?GameMonitorEndGame@@YAXXZ 66026e30 f   GameMonitor.obj
 0001:00025e50       ?ShowGameCount@@YAXXZ      66026e50 f   GameMonitor.obj
 0001:000260e0       ?SetKills@@YIXK@Z          660270e0 f   GameMonitor.obj
 0001:00026130       ?KillCountPatch_ASM@@YAXXZ 66027130 f   GameMonitor.obj
 0001:00026150       ?UnitModeChangePatch_ASM@@YAXXZ 66027150 f   GameMonitor.obj
 0001:00026190       ?drawSimpleItemStackInfo@@YAXPAUUnitAny@@HH@Z 66027190 f   GameMonitor.obj
 0001:000263e0       ?DrawMonitorInfo@@YAXXZ    660273e0 f   GameMonitor.obj
 0001:00027b10       ?SetState@@YGXKH@Z         66028b10 f   GameMonitor.obj
 0001:00027e40       ?RecvCommand_A7_Patch_ASM@@YAXXZ 66028e40 f   GameMonitor.obj
 0001:00027fc0       ?RecvCommand_A8_Patch_ASM@@YAXXZ 66028fc0 f   GameMonitor.obj
 0001:00028010       ?RecvCommand_A9_Patch_ASM@@YAXXZ 66029010 f   GameMonitor.obj
 0001:00028060       ?itemAction@@YAXPAUbitstream@@PAD@Z 66029060 f   GameMonitor.obj
 0001:000281d0       ?changeStashPage@@YAXH@Z   660291d0 f   GameMonitor.obj
 0001:000282e0       ?itemAction9C@@YIXPAD@Z    660292e0 f   GameMonitor.obj
 0001:00028360       ?itemAction9D@@YIXPAD@Z    66029360 f   GameMonitor.obj
 0001:000283e0       ?updateItemSkill@@YIXPAD@Z 660293e0 f   GameMonitor.obj
 0001:00028470       ?RecvCommand_9C_Patch_ASM@@YAXXZ 66029470 f   GameMonitor.obj
 0001:00028480       ?RecvCommand_9D_Patch_ASM@@YAXXZ 66029480 f   GameMonitor.obj
 0001:00028490       ?RecvCommand_22_Patch_ASM@@YAXXZ 66029490 f   GameMonitor.obj
 0001:000284a0       ?drawUnitsInfo@@YAXXZ      660294a0 f   GameMonitor.obj
 0001:00029170       ?info_AddConfigVars@@YAXXZ 6602a170 f   info.obj
 0001:000291b0       ?infoNewGame@@YAXXZ        6602a1b0 f   info.obj
 0001:000291d0       ?wsprintfW2@@YAPA_WPA_WPADZZ 6602a1d0 f   info.obj
 0001:00029230       ?DrawGameInfoPatch@@YIXH@Z 6602a230 f   info.obj
 0001:000294f0       ?DrawPetHeadPatch@@YIXHPAUUnitAny@@@Z 6602a4f0 f   info.obj
 0001:00029570       ?DrawPetHeadPatch_ASM@@YAXXZ 6602a570 f   info.obj
 0001:00029580       ?getGameWinId@@YAHH@Z      6602a580 f   info.obj
 0001:000295e0       ?DrawPartyHeadPatch@@YIXHPAURosterUnit@@@Z 6602a5e0 f   info.obj
 0001:00029ae0       ?StartDrawPartyHeadPatch_ASM@@YAXXZ 6602aae0 f   info.obj
 0001:00029b00       ?DrawPartyHeadPatch_ASM@@YAXXZ 6602ab00 f   info.obj
 0001:00029b20       ?DrawSkeletonHeadPatch@@YIXHH@Z 6602ab20 f   info.obj
 0001:00029c40       ?DrawSkeletonHeadPatch_ASM@@YAXXZ 6602ac40 f   info.obj
 0001:00029c50       ?UpdateExp@@YAXXZ          6602ac50 f   info.obj
 0001:00029e70       ?InitExp@@YAXXZ            6602ae70 f   info.obj
 0001:00029ea0       ?UpdateExp_ASM@@YAXXZ      6602aea0 f   info.obj
 0001:00029ec0       ?info_FixValues@@YAXXZ     6602aec0 f   info.obj
 0001:00029fa0       ?DrawClientPatch@@YAXXZ    6602afa0 f   info.obj
 0001:0002a120       ?DrawClientPatch_ASM@@YAXXZ 6602b120 f   info.obj
 0001:0002a140       ?ShowLifeWithMyPattern@@YGKKHH@Z 6602b140 f   info.obj
 0001:0002a1c0       ?ShowManaWithMyPattern@@YGKKHH@Z 6602b1c0 f   info.obj
 0001:0002a240       ?ShowLifePatch_ASM@@YAXXZ  6602b240 f   info.obj
 0001:0002a260       ?ShowManaPatch_ASM@@YAXXZ  6602b260 f   info.obj
 0001:0002a280       ?SetLifeManaShow@@YAHXZ    6602b280 f   info.obj
 0001:0002a2c0       ?GetViewEquUnit@@YAPAUUnitAny@@XZ 6602b2c0 f   info.obj
 0001:0002a2f0       ?GetViewStatUnit@@YAPAUUnitAny@@XZ 6602b2f0 f   info.obj
 0001:0002a320       ?SetViewUnit@@YAXXZ        6602b320 f   info.obj
 0001:0002a410       ?ViewUnit@@YAHH@Z          6602b410 f   info.obj
 0001:0002a4b0       ?GetViewingStatsPlayerPatch1_ASM@@YAXXZ 6602b4b0 f   info.obj
 0001:0002a4c0       ?GetViewingStatsPlayerPatch2_ASM@@YAXXZ 6602b4c0 f   info.obj
 0001:0002a4d0       ?GetUnitDrawEquipItemPatch_ASM@@YAXXZ 6602b4d0 f   info.obj
 0001:0002a4e0       ?GetUnitDrawItemDescPath_ASM@@YAXXZ 6602b4e0 f   info.obj
 0001:0002a4f0       ?GetUnitTestHasItem_ASM@@YAXXZ 6602b4f0 f   info.obj
 0001:0002a510       ?GetUnitText@@YIPA_WPA_WPAUUnitAny@@@Z 6602b510 f   info.obj
 0001:0002a5b0       ?ViewDrawInvItemPatch@@YAPAUUnitAny@@XZ 6602b5b0 f   info.obj
 0001:0002a630       ?GetUnitDrawInvItemPatch_ASM@@YAXXZ 6602b630 f   info.obj
 0001:0002a640       ?GetUnitProtectClickEquipPatch_ASM@@YAXXZ 6602b640 f   info.obj
 0001:0002a680       ?GetUnitProtectClickInvPatch_ASM@@YAXXZ 6602b680 f   info.obj
 0001:0002a6b0       ?DrawDefaultFontText@@YAXPA_WHHKHK@Z 6602b6b0 f   info.obj
 0001:0002a6e0       ?SwitchStatPage@@YAHH@Z    6602b6e0 f   info.obj
 0001:0002a730       ?DrawUnitStat@@YAXHHHHPAD00KHH@Z 6602b730 f   info.obj
 0001:0002a810       ?ViewUnitStatPatch@@YIXPAUUnitAny@@@Z 6602b810 f   info.obj
 0001:0002ac10       ?ViewUnitStatPatch_ASM@@YAXXZ 6602bc10 f   info.obj
 0001:0002ac30       ?ViewPetStatPatch@@YIXPAUUnitAny@@@Z 6602bc30 f   info.obj
 0001:0002aea0       ?ViewPetStatPatch_ASM@@YAXXZ 6602bea0 f   info.obj
 0001:0002aec0       ?messagelog_AddConfigVars@@YAXXZ 6602bec0 f   MessageLog.obj
 0001:0002af00       ?OpenFileNew@@YAPAXPAD@Z   6602bf00 f   MessageLog.obj
 0001:0002af30       ?OpenFileWrite@@YAPAXPAD@Z 6602bf30 f   MessageLog.obj
 0001:0002af60       ?WriteFile@@YAKPAX0K@Z     6602bf60 f   MessageLog.obj
 0001:0002af90       ?LogMessage@@YIXPA_W@Z     6602bf90 f   MessageLog.obj
 0001:0002b430       ?MessageLogPatch1_ASM@@YAXXZ 6602c430 f   MessageLog.obj
 0001:0002b450       ?MessageLogPatch2_ASM@@YAXXZ 6602c450 f   MessageLog.obj
 0001:0002b470       ?MessageLogExitGame@@YAXXZ 6602c470 f   MessageLog.obj
 0001:0002b760       ?item_addConfigVars@@YAXXZ 6602c760 f   item.obj
 0001:0002b7a0       ?item_initConfigVars@@YAXXZ 6602c7a0 f   item.obj
 0001:0002b830       ?item_NewGame@@YAXXZ       6602c830 f   item.obj
 0001:0002b850       ?wcs_insert@@YAPA_WPA_W0@Z 6602c850 f   item.obj
 0001:0002b920       ?GetItemIndex@@YAHH@Z      6602c920 f   item.obj
 0001:0002b970       ?CheckItemVisible@@YAHPAUUnitAny@@@Z 6602c970 f   item.obj
 0001:0002ba70       ?GetItemColour@@YAEPAUUnitAny@@H@Z 6602ca70 f   item.obj
 0001:0002bd10       ?SwitchItemMode@@YAHXZ     6602cd10 f   item.obj
 0001:0002bdc0       ?trimspaces@@YAXPA_W@Z     6602cdc0 f   item.obj
 0001:0002be80       ?ColourD2String@@YIPA_WPA_WK@Z 6602ce80 f   item.obj
 0001:0002bf10       ?ItemHaveLevel@@YAHE@Z     6602cf10 f   item.obj
 0001:0002bf70       ?ItemNamePatch@@YIXPA_WPAUUnitAny@@PAUItemTxt@@@Z 6602cf70 f   item.obj
 0001:0002caf0       ?ItemNamePatch_ASM@@YAXXZ  6602daf0 f   item.obj
 0001:0002cb10       ?OpenCubeStringPatch@@YIPA_WPA_WK@Z 6602db10 f   item.obj
 0001:0002cb70       ?OpenCubeStringPatch_ASM@@YAXXZ 6602db70 f   item.obj
 0001:0002cb80       ?PermShowItemsPatch1@@YAHXZ 6602db80 f   item.obj
 0001:0002cbb0       ?PermShowItemsPatch2@@YAHXZ 6602dbb0 f   item.obj
 0001:0002cc00       ?PermShowItemsPatch3@@YAHXZ 6602dc00 f   item.obj
 0001:0002cc70       ?PermShowItemsPatch1_ASM@@YAXXZ 6602dc70 f   item.obj
 0001:0002cc80       ?PermShowItemsPatch2_ASM@@YAXXZ 6602dc80 f   item.obj
 0001:0002cca0       ?PermShowItemsPatch3_ASM@@YAXXZ 6602dca0 f   item.obj
 0001:0002ccc0       ?PermShowItemsPatch4_ASM@@YAXXZ 6602dcc0 f   item.obj
 0001:0002ccd0       ?ItemDescPath@@YIXPA_WHHHH@Z 6602dcd0 f   item.obj
 0001:0002cdd0       ?SocketViewCallRoutine@@YIXPAUUnitAny@@KP6GX0K@Z@Z 6602ddd0 f   item.obj
 0001:0002cde0       ?ItemSocketViewPatch@@YGXP6GXPAUUnitAny@@K@Z0K@Z 6602dde0 f   item.obj
 0001:0002ceb0       ?ItemSocketViewPatch_ASM@@YAXXZ 6602deb0 f   item.obj
 0001:0002cec0       ?SocketItemStatViewPatch_ASM@@YAXXZ 6602dec0 f   item.obj
 0001:0002cee0       ?GetItemExtStatListPatch@@YGPAUStatList@@PAUUnitAny@@KK@Z 6602dee0 f   item.obj
 0001:0002cf10       ?ItemBasicStatPatch_ASM@@YAXXZ 6602df10 f   item.obj
 0001:0002cf40       ?SetPropInfo@@YAXHHHPAUItemProp@@@Z 6602df40 f   item.obj
 0001:0002d3c0       ?GetStatRange@@YAPA_WPA_WKK@Z 6602e3c0 f   item.obj
 0001:0002d7b0       ?GetItemPropStringPatch@@YIKPA_WPAUStatEx@@K@Z 6602e7b0 f   item.obj
 0001:0002d880       ?GetItemPropStringPatch_ASM@@YAXXZ 6602e880 f   item.obj
 0001:0002d8a0       ?StrcatItemPropStringPatch@@YIXPA_W0K@Z 6602e8a0 f   item.obj
 0001:0002d9c0       ?StrcatItemPropStringPatch_ASM@@YAXXZ 6602e9c0 f   item.obj
 0001:0002d9d0       ?StrcatSocketStringPatch@@YIPA_WPA_W@Z 6602e9d0 f   item.obj
 0001:0002da00       ?StrcatSocketStringPatch_ASM@@YAXXZ 6602ea00 f   item.obj
 0001:0002da10       ?StrcatDefenseStringPatch@@YIPA_WPA_W@Z 6602ea10 f   item.obj
 0001:0002dcb0       ?StrcatDefenseStringPatch_ASM@@YAXXZ 6602ecb0 f   item.obj
 0001:0002dcc0       ?StrcatDamageStringPatch@@YIPA_WPA_W@Z 6602ecc0 f   item.obj
 0001:0002dee0       ?StrcatDamageStringPatch_ASM1@@YAXXZ 6602eee0 f   item.obj
 0001:0002def0       ?StrcatDamageStringPatch_ASM2@@YAXXZ 6602eef0 f   item.obj
 0001:0002df10       ?ShowSocketProtectInfo@@YAXXZ 6602ef10 f   item.obj
 0001:0002df80       ?SocketProtectPatch_ASM@@YAXXZ 6602ef80 f   item.obj
 0001:0002dfa0       ?SocketProtectPatch1_ASM@@YAXXZ 6602efa0 f   item.obj
 0001:0002dfe0       ?SocketProtectPatch2_ASM@@YAXXZ 6602efe0 f   item.obj
 0001:0002e020       ?searchStat@@YAHPAUUnitAny@@HPAH@Z 6602f020 f   item.obj
 0001:0002e0f0       ?drawInvItemInfo@@YAXPAUUnitAny@@HH@Z 6602f0f0 f   item.obj
 0001:0002f750       ?drawInvItemPatch@@YIHPAUDrawCellFileArgs@@PAUUnitAny@@@Z 66030750 f   item.obj
 0001:0002f7b0       ?DrawInvItemPatch_ASM@@YAXXZ 660307b0 f   item.obj
 0001:0002f7d0       ?activeBufferItem@@YIXHHH@Z 660307d0 f   item.obj
 0001:0002f8e0       ?ActiveBufferItemPatch_ASM@@YAXXZ 660308e0 f   item.obj
 0001:0002f900       ?ItemExtInfoNewGame@@YAXXZ 66030900 f   ItemExtInfo.obj
 0001:0002f910       ?ConvertToColorString@@YAXPAEPADH@Z 66030910 f   ItemExtInfo.obj
 0001:0002fab0       ?LoadExtInfo@@YAHXZ        66030ab0 f   ItemExtInfo.obj
 0001:00030ab0       ?UnLoadExtInfo@@YAXXZ      66031ab0 f   ItemExtInfo.obj
 0001:00030c90       ?SetExtInfoPos@@YAXHHHH@Z  66031c90 f   ItemExtInfo.obj
 0001:00030d80       ?ShowItemExtInfo@@YAXXZ    66031d80 f   ItemExtInfo.obj
 0001:000310a0       ?DrawHoverPatch_ASM@@YAXXZ 660320a0 f   ItemExtInfo.obj
 0001:000310b0       ?dangerous_addConfigVars@@YAXXZ 660320b0 f   dangerous.obj
 0001:000310f0       ?dangerous_initConfigVars@@YAXXZ 660320f0 f   dangerous.obj
 0001:00031110       ?ProtectAction@@YAHPA_WHE@Z 66032110 f   dangerous.obj
 0001:00031330       ?ChickenLifeNewGame@@YAXXZ 66032330 f   dangerous.obj
 0001:00031610       ?ChickenLifeLoop@@YAXXZ    66032610 f   dangerous.obj
 0001:00031d40       ?isCowKing@@YAHPAUMonsterData@@@Z 66032d40 f   dangerous.obj
 0001:00031e00       ?checkBossMonster@@YAXPAUUnitAny@@@Z 66032e00 f   dangerous.obj
 0001:00031ec0       ?CheckDangerousPlayer@@YAXPAUUnitAny@@@Z 66032ec0 f   dangerous.obj
 0001:00031f70       ?TestMonsterOnScreen@@YAHPAUUnitAny@@0@Z 66032f70 f   dangerous.obj
 0001:00032000       ?CheckDangerousMonster@@YAXPAUUnitAny@@@Z 66033000 f   dangerous.obj
 0001:000320f0       ?quest_addConfigVars@@YAXXZ 660330f0 f   quest.obj
 0001:00032130       ?ReSetTimer@@YAHXZ         66033130 f   quest.obj
 0001:00032150       ?QuestNewAct@@YAXXZ        66033150 f   quest.obj
 0001:00032160       ?QuestNewLevel@@YAXXZ      66033160 f   quest.obj
 0001:00032910       ?quest_FixValues@@YAXXZ    66033910 f   quest.obj
 0001:000329e0       ?QuestNewGame@@YAXXZ       660339e0 f   quest.obj
 0001:00032b30       ?QuestRunLoop@@YAXXZ       66033b30 f   quest.obj
 0001:00032e90       ?BugKDProtect@@YIXK@Z      66033e90 f   quest.obj
 0001:000330f0       ?BugKBProtect@@YIXPAE@Z    660340f0 f   quest.obj
 0001:000336c0       ?RecvCommand_89_Patch_ASM@@YAXXZ 660346c0 f   quest.obj
 0001:000336e0       ?RecvCommand_5D_Patch_ASM@@YAXXZ 660346e0 f   quest.obj
 0001:000336f0       ?CheckUnitKM@@YAXXZ        660346f0 f   quest.obj
 0001:000337c0       ?getMouseQuestId@@YAHHH@Z  660347c0 f   quest.obj
 0001:000338a0       ?DrawQuestPagePatch@@YIXHH@Z 660348a0 f   quest.obj
 0001:00033d80       ?DrawQuestPagePatch_ASM@@YAXXZ 66034d80 f   quest.obj
 0001:00033d90       ?PacketA4@@YIXPAD@Z        66034d90 f   quest.obj
 0001:00033f10       ?Packet4D@@YIXPAD@Z        66034f10 f   quest.obj
 0001:00033f50       ?RecvCommand_A4_Patch_ASM@@YAXXZ 66034f50 f   quest.obj
 0001:00033f60       ?RecvCommand_4D_Patch_ASM@@YAXXZ 66034f60 f   quest.obj
 0001:00033f70       ?RecvCommand_28_Patch_ASM@@YAXXZ 66034f70 f   quest.obj
 0001:000340a0       ?UnicodeFix@@YAXPA_WPAK@Z  660350a0 f   unicode.obj
 0001:00034290       ?D2Lang_Unicode2WinPatch@@YIPBDPADPA_WH@Z 66035290 f   unicode.obj
 0001:000342d0       ?D2Lang_Win2UnicodePatch@@YIPA_WPA_WPBDH@Z 660352d0 f   unicode.obj
 0001:00034300       ?EditDeleteSelect@@YAXPAUD2EditBox@@@Z 66035300 f   unicode.obj
 0001:00034430       ?ChannelEnterCharPatch@@YIKPAUD2EditBox@@E@Z 66035430 f   unicode.obj
 0001:00034760       ?UnicodeToUTF_8@@YAXPADPA_W@Z 66035760 f   unicode.obj
 0001:000347d0       ?MultiByteFix@@YGXPAD@Z    660357d0 f   unicode.obj
 0001:000349c0       ?MultiByteFixPatch_ASM@@YAXXZ 660359c0 f   unicode.obj
 0001:000349d0       ?IsPritableCharacterPatch_ASM@@YAXXZ 660359d0 f   unicode.obj
 0001:000349f0       ?lifebar_addConfigVars@@YAXXZ 660359f0 f   lifebar.obj
 0001:00034a30       ?lifebar_initConfigVars@@YAXXZ 66035a30 f   lifebar.obj
 0001:00034a50       ?lifebarNewGame@@YAXXZ     66035a50 f   lifebar.obj
 0001:00034a70       ?MonsterNamePatch@@YIJPA_WJPAUUnitAny@@JJ@Z 66035a70 f   lifebar.obj
 0001:00035580       ?MonsterNamePatch_ASM@@YAXXZ 66036580 f   lifebar.obj
 0001:000355a0       ?MonsterDescCommaPatch1_ASM@@YAXXZ 660365a0 f   lifebar.obj
 0001:000355b0       ?MonsterDescCommaPatch2_ASM@@YAXXZ 660365b0 f   lifebar.obj
 0001:000355c0       ?MonsterDescCommaPatch3@@YIXPA_WPAUMonsterTxt@@@Z 660365c0 f   lifebar.obj
 0001:00035650       ?MonsterDescCommaPatch3_ASM@@YAXXZ 66036650 f   lifebar.obj
 0001:00035660       ?LifeBarPatch_ASM@@YAXXZ   66036660 f   lifebar.obj
 0001:00035680       ?MonsterDeathPatch_ASM@@YAXXZ 66036680 f   lifebar.obj
 0001:000356a0       ?CalculateHighestTC@@YAXHG@Z 660366a0 f   lifebar.obj
 0001:000358e0       ?InitTCList@@YAXXZ         660368e0 f   lifebar.obj
 0001:00035960       ?GetTcLevel@@YAPAUMonTC@@GH@Z 66036960 f   lifebar.obj
 0001:000359f0       ?GetPlayerHpPercent@@YAHPAUUnitAny@@@Z 660369f0 f   lifebar.obj
 0001:00035a30       ?PlayerNamePatch@@YIXPA_WPAUUnitAny@@@Z 66036a30 f   lifebar.obj
 0001:00035ba0       ?PlayerNamePatch_ASM@@YAXXZ 66036ba0 f   lifebar.obj
 0001:00035bc0       ?AutoWarCryNewGame@@YAXXZ  66036bc0 f   bo.obj
 0001:00035c30       ?AutoWarCryRunLoop@@YAXXZ  66036c30 f   bo.obj
 0001:00036390       ?d2s_init@@YAXPAUd2s_file@@@Z 66037390 f   d2s.obj
 0001:000365f0       ?d2s_write@@YAHPAUd2s_file@@PADH@Z 660375f0 f   d2s.obj
 0001:00036710       ?d2s_checksum@@YAXPADH@Z   66037710 f   d2s.obj
 0001:00036790       ?d2s_generate@@YAHPAU_iobuf@@PAUUnitAny@@1PAGPAD1@Z 66037790 f   d2s.obj
 0001:000373b0       ?DropProtection_addConfigVars@@YAXXZ 660383b0 f   DropProtection.obj
 0001:000373f0       ?DropProtection_initConfigVars@@YAXXZ 660383f0 f   DropProtection.obj
 0001:00037470       ?DropProtection@@YAHPAUUnitAny@@@Z 66038470 f   DropProtection.obj
 0001:00037880       ?canHireMerc@@YAHXZ        66038880 f   DropProtection.obj
 0001:000379e0       ?DropProtectionPacketBlock@@YAHPAEH@Z 660389e0 f   DropProtection.obj
 0001:00037b40       ?ClickHireMercMenuItemPatch_ASM@@YAXXZ 66038b40 f   DropProtection.obj
 0001:00037b60       ?unicode2win@@YAXPADPA_WH@Z 66038b60 f   DropProtection.obj
 0001:00037bc0       ?DeleteCharacter_Patch_ASM@@YAXXZ 66038bc0 f   DropProtection.obj
 0001:00037c50       ?DeleteSelectedCharacter_Patch_ASM@@YAXXZ 66038c50 f   DropProtection.obj
 0001:00038340       ?ClickMenuItem_Patch_ASM@@YAXXZ 66039340 f   DropProtection.obj
 0001:00038460       ?playerHasRune@@YAHH@Z     66039460 f   DropProtection.obj
 0001:000384b0       ?isValidRuneword@@YIHPAUUnitAny@@@Z 660394b0 f   DropProtection.obj
 0001:00038e50       ?AutoEnchantNewGame@@YAXXZ 66039e50 f   enchant.obj
 0001:00038eb0       ?checkUnit@@YAHPAUUnitAny@@@Z 66039eb0 f   enchant.obj
 0001:000391c0       ?AutoEnchantRunLoop@@YAXXZ 6603a1c0 f   enchant.obj
 0001:00039530       ?AutoEnchantPlayerNeedHelp@@YAXH@Z 6603a530 f   enchant.obj
 0001:00039570       ?check3bb@@YAXXZ           6603a570 f   enchant.obj
 0001:00039830       ?GamePacketPlaySound@@YIXPAE@Z 6603a830 f   enchant.obj
 0001:00039890       ?RecvCommand_2C_Patch_ASM@@YAXXZ 6603a890 f   enchant.obj
 0001:000398a0       ?GameChat_addConfigVars@@YAXXZ 6603a8a0 f   chat.obj
 0001:000398e0       ?chat_initConfigVars@@YAXXZ 6603a8e0 f   chat.obj
 0001:000398f0       ?setClipboard@@YAHPAUHWND__@@PA_WH@Z 6603a8f0 f   chat.obj
 0001:000399c0       ?processChatPaste@@YAXXZ   6603a9c0 f   chat.obj
 0001:00039af0       ?sendQuickMessage@@YAHPAUMessageKey@@@Z 6603aaf0 f   chat.obj
 0001:00039ba0       ?addQuickMessage@@YAXHPA_WH@Z 6603aba0 f   chat.obj
 0001:00039cb0       ?SendChatMessageW@@YAXPA_W@Z 6603acb0 f   chat.obj
 0001:00039d70       ?SendChatMessage@@YAXPAD@Z 6603ad70 f   chat.obj
 0001:00039e20       ?WisperPatch@@YAXXZ        6603ae20 f   chat.obj
 0001:00039e40       ?WisperPatch_ASM@@YAXXZ    6603ae40 f   chat.obj
 0001:00039e50       ?CheckD2WinEditBox@@YAXXZ  6603ae50 f   chat.obj
 0001:00039eb0       ?InputLinePatch@@YAHE@Z    6603aeb0 f   chat.obj
 0001:00039f50       ?InputLinePatch1_ASM@@YAXXZ 6603af50 f   chat.obj
 0001:00039f70       ?InitD2EditBox@@YAHXZ      6603af70 f   chat.obj
 0001:0003a040       ?InputLinePatch2_ASM@@YAXXZ 6603b040 f   chat.obj
 0001:0003a060       ?SelectTextPatch1@@YGHPAD@Z 6603b060 f   chat.obj
 0001:0003a140       ?SelectTextPatch1_ASM@@YAXXZ 6603b140 f   chat.obj
 0001:0003a160       ?SelectTextPatch2@@YGHPAD@Z 6603b160 f   chat.obj
 0001:0003a210       ?SelectTextPatch2_ASM@@YAXXZ 6603b210 f   chat.obj
 0001:0003a230       ?ResetGameList@@YAXXZ      6603b230 f   mcp.obj
 0001:0003a250       ?gameFilter_addConfigVars@@YAXXZ 6603b250 f   mcp.obj
 0001:0003a290       ?D2MCPPacketHandler_05_Patch@@YIHPAEH@Z 6603b290 f   mcp.obj
 0001:0003a520       ?D2MCPPacketHandler_05_Patch_ASM@@YAXXZ 6603b520 f   mcp.obj
 0001:0003a540       ?Filterbox_ReturnHandler@@YGHPA_W@Z 6603b540 f   mcp.obj
 0001:0003a5b0       ?EditBoxCallBack@@YGHPAUD2EditBox@@HPAD@Z 6603b5b0 f   chat.obj
 0001:0003a5b0       ?Filterbox_InputHandler@@YGHPAUD2EditBox@@HPAD@Z 6603b5b0 f   mcp.obj
 0001:0003a5c0       ?CreateFilterBox@@YAXXZ    6603b5c0 f   mcp.obj
 0001:0003a640       ?CreateGameBoxPatch_ASM@@YAXXZ 6603b640 f   mcp.obj
 0001:0003a650       ?DestroyGamelistPatch@@YGXPAUD2EditBox@@@Z 6603b650 f   mcp.obj
 0001:0003a690       ?GameListRefreshTimePatch_ASM@@YAXXZ 6603b690 f   mcp.obj
 0001:0003a6d0       ?DrawGameListPatch@@YAXXZ  6603b6d0 f   mcp.obj
 0001:0003a860       ?DrawGameListPatch_ASM@@YAXXZ 6603b860 f   mcp.obj
 0001:0003a870       ?SortGameList_Patch_ASM@@YAXXZ 6603b870 f   mcp.obj
 0001:0003a900       ?ShowGameListDifficulty_Patch_ASM@@YAXXZ 6603b900 f   mcp.obj
 0001:0003a9b0       ?clearCharacterTag@@YAXXZ  6603b9b0 f   login.obj
 0001:0003a9e0       ?addCharacterTag@@YAXPAD0@Z 6603b9e0 f   login.obj
 0001:0003ab30       ?getCharTag@@YAPADPAD@Z    6603bb30 f   login.obj
 0001:0003abf0       ?doneCharacterTag@@YAXXZ   6603bbf0 f   login.obj
 0001:0003ac20       ?drawCharTags@@YAXXZ       6603bc20 f   login.obj
 0001:0003ad50       ?login_initConfigVars@@YAXXZ 6603bd50 f   login.obj
 0001:0003ad60       ?addAccount@@YAXHPAD0@Z    6603bd60 f   login.obj
 0001:0003aeb0       ?isLoginScreen@@YAPAUD2EditBox@@XZ 6603beb0 f   login.obj
 0001:0003af60       ?getLastUser@@YAPADXZ      6603bf60 f   login.obj
 0001:0003afe0       ?inputUserPassword@@YAHPAULoginInfo@@@Z 6603bfe0 f   login.obj
 0001:0003b1b0       ?autoLogin@@YAXXZ          6603c1b0 f   login.obj
 0001:0003b280       ?LastBNet_Patch@@YGHPAD0H0H@Z 6603c280 f   login.obj
 0001:0003b2d0       ?SelectCharPatch_ASM@@YAXXZ 6603c2d0 f   login.obj
 0001:0003b3f0       ?autoSelectChar@@YAXXZ     6603c3f0 f   login.obj
 0001:0003b510       ?saveCharMenu@@YAXXZ       6603c510 f   login.obj
 0001:0003b8e0       ?OpenCharMenuPatch_ASM@@YAXXZ 6603c8e0 f   login.obj
 0001:0003b8f0       ?misc_addConfigVars@@YAXXZ 6603c8f0 f   misc.obj
 0001:0003b930       ?ULCPatch_ASM@@YAXXZ       6603c930 f   misc.obj
 0001:0003b950       ?OutTownSelectPatch@@YIHPAUUnitAny@@@Z 6603c950 f   misc.obj
 0001:0003b990       ?OutTownSelectPatch_ASM1@@YAXXZ 6603c990 f   misc.obj
 0001:0003b9c0       ?CheckOutTownSelected@@YGHPAUUnitAny@@@Z 6603c9c0 f   misc.obj
 0001:0003ba20       ?OutTownSelectPatch_ASM2@@YAXXZ 6603ca20 f   misc.obj
 0001:0003ba40       ?NPCMessageLoopPatch_ASM@@YAXXZ 6603ca40 f   misc.obj
 0001:0003ba80       ?NPCQuestMessageStartPatch_ASM@@YAXXZ 6603ca80 f   misc.obj
 0001:0003baa0       ?NPCQuestMessageEndPatch1_ASM@@YAXXZ 6603caa0 f   misc.obj
 0001:0003bac0       ?NPCQuestMessageEndPatch2_ASM@@YAXXZ 6603cac0 f   misc.obj
 0001:0003bad0       ?NsPassingActBugFixPatch_ASM@@YAXXZ 6603cad0 f   misc.obj
 0001:0003bae0       ?SetGoldPatch@@YIHH@Z      6603cae0 f   misc.obj
 0001:0003bb60       ?SetGoldPatch_ASM@@YAXXZ   6603cb60 f   misc.obj
 0001:0003bb70       ?SetDefaultGoldPatch_ASM@@YAXXZ 6603cb70 f   misc.obj
 0001:0003bb80       ?multiclient_addConfigVars@@YAXXZ 6603cb80 f   multi.obj
 0001:0003bbc0       ?multiclient_initConfigVars@@YAXXZ 6603cbc0 f   multi.obj
 0001:0003bbf0       ?multiclient_FixValues@@YAXXZ 6603cbf0 f   multi.obj
 0001:0003bc20       ?MultiClientNewGame@@YAXXZ 6603cc20 f   multi.obj
 0001:0003bcf0       ?MultiClientEndGame@@YAXXZ 6603ccf0 f   multi.obj
 0001:0003bd10       ?makeRuntimeInfoPath@@YAHPADH@Z 6603cd10 f   multi.obj
 0001:0003bde0       ?saveRuntimeInfo@@YAHPAUHWND__@@@Z 6603cde0 f   multi.obj
 0001:0003bf80       ?loadRuntimeInfo@@YAHPAUD2Window@@H@Z 6603cf80 f   multi.obj
 0001:0003c6c0       ?isLocalPlayer@@YAHH@Z     6603d6c0 f   multi.obj
 0001:0003c730       ?refresh_clients@@YAXXZ    6603d730 f   multi.obj
 0001:0003c8f0       ?multiclient_winactive@@YAXXZ 6603d8f0 f   multi.obj
 0001:0003ca30       ?getGameWindowHwnd@@YAPAUHWND__@@H@Z 6603da30 f   multi.obj
 0001:0003ca70       ?pressESC@@YAXXZ           6603da70 f   multi.obj
 0001:0003cad0       ?canRemoteControl@@YAHXZ   6603dad0 f   multi.obj
 0001:0003cb80       ?leader_click_object@@YAXHH@Z 6603db80 f   multi.obj
 0001:0003cc40       ?send_multi_quest_info@@YAXH@Z 6603dc40 f   multi.obj
 0001:0003cc70       ?recv_multi_quest_info@@YAXPAUD2Window@@H@Z 6603dc70 f   multi.obj
 0001:0003ccc0       ?send_multi_reply@@YAXH@Z  6603dcc0 f   multi.obj
 0001:0003ccf0       ?recv_multi_quest_reply@@YAXPAUD2Window@@H@Z 6603dcf0 f   multi.obj
 0001:0003cd20       ?multiclient_recv_info@@YAXH@Z 6603dd20 f   multi.obj
 0001:0003d0f0       ?multiclient_send_info@@YAXH@Z 6603e0f0 f   multi.obj
 0001:0003d140       ?follower_click_object@@YAXHH@Z 6603e140 f   multi.obj
 0001:0003d2a0       ?MultiClientLoop@@YAXXZ    6603e2a0 f   multi.obj
 0001:0003dd50       ?follower_left_click_xy@@YAXHH@Z 6603ed50 f   multi.obj
 0001:0003dd90       ?follower_right_click_xy@@YAXHH@Z 6603ed90 f   multi.obj
 0001:0003ddd0       ?follower_left_click_unit@@YAXHH@Z 6603edd0 f   multi.obj
 0001:0003de10       ?follower_right_client_unit@@YAXHH@Z 6603ee10 f   multi.obj
 0001:0003de50       ?refresh_followers@@YAXH@Z 6603ee50 f   multi.obj
 0001:0003df70       ?toggle_follower@@YAXH@Z   6603ef70 f   multi.obj
 0001:0003e080       ?follower_stop_follow@@YAXXZ 6603f080 f   multi.obj
 0001:0003e120       ?findClosetPortal@@YAPAUUnitAny@@XZ 6603f120 f   multi.obj
 0001:0003e2a0       ?talkToNpc@@YAXXZ          6603f2a0 f   multi.obj
 0001:0003e530       ?follower_cmd@@YAXH@Z      6603f530 f   multi.obj
 0001:0003e8d0       ?MultiClientStartFollow@@YAHH@Z 6603f8d0 f   multi.obj
 0001:0003e9b0       ?MultiClientStopFollow@@YAHXZ 6603f9b0 f   multi.obj
 0001:0003ea50       ?MultiClientStartFollow1@@YAHXZ 6603fa50 f   multi.obj
 0001:0003ea70       ?MultiClientStartFollow2@@YAHXZ 6603fa70 f   multi.obj
 0001:0003ea90       ?MultiClientToggleFollow@@YAHXZ 6603fa90 f   multi.obj
 0001:0003eac0       ?MultiClientTalkToNpc@@YAHXZ 6603fac0 f   multi.obj
 0001:0003eb90       ?leader_back_to_town@@YAHXZ 6603fb90 f   multi.obj
 0001:0003ec40       ?MultiClientEnterDoor@@YAHXZ 6603fc40 f   multi.obj
 0001:0003ede0       ?MultiClientStartClick@@YAHH@Z 6603fde0 f   multi.obj
 0001:0003ee00       ?MultiClientStopClick@@YAHH@Z 6603fe00 f   multi.obj
 0001:0003ee20       ?MultiClientInitClick@@YAHXZ 6603fe20 f   multi.obj
 0001:0003ee80       ?transferClick@@YAHHPAUUnitAny@@HH@Z 6603fe80 f   multi.obj
 0001:0003f090       ?canTranferClick@@YAHXZ    66040090 f   multi.obj
 0001:0003f0f0       ?shouldLeftClick@@YIHPAH@Z 660400f0 f   multi.obj
 0001:0003f3d0       ?shouldRightClick@@YIHPAH@Z 660403d0 f   multi.obj
 0001:0003f510       ?LeftClick_Patch_ASM@@YAXXZ 66040510 f   multi.obj
 0001:0003f530       ?RightClick_Patch_ASM@@YAXXZ 66040530 f   multi.obj
 0001:0003f550       ?NpcTrade_AddConfigVars@@YAXXZ 66040550 f   NpcTrade.obj
 0001:0003f590       ?NpcTradeNewGame@@YAXXZ    66040590 f   NpcTrade.obj
 0001:0003f5a0       ?drawNpcTradeInfo@@YAXH@Z  660405a0 f   NpcTrade.obj
 0001:000400b0       ?NpcTradeLoop@@YAXXZ       660410b0 f   NpcTrade.obj
 0001:00040310       ?NpcTradePatch_ASM@@YAXXZ  66041310 f   NpcTrade.obj
 0001:00040340       ?PartyHelp_addConfigVars@@YAXXZ 66041340 f   party.obj
 0001:00040380       ?PartyHelpNewGame@@YAXXZ   66041380 f   party.obj
 0001:000404e0       ?PartyHelpEndGame@@YAXXZ   660414e0 f   party.obj
 0001:000404f0       ?ResponseInvite@@YAXXZ     660414f0 f   party.obj
 0001:000405a0       ?CheckInvite@@YAHXZ        660415a0 f   party.obj
 0001:000405f0       ?AutoParty@@YGXPAE@Z       660415f0 f   party.obj
 0001:000406e0       ?RecvCommand_5A_Patch_ASM@@YAXXZ 660416e0 f   party.obj
 0001:000406f0       ?AutoInvite@@YIXPAE@Z      660416f0 f   party.obj
 0001:000407c0       ?RecvCommand_5B_Patch_ASM@@YAXXZ 660417c0 f   party.obj
 0001:000407d0       ?quick_addConfigVars@@YAXXZ 660417d0 f   quick.obj
 0001:00040810       ?quick_NewGame@@YAXXZ      66041810 f   quick.obj
 0001:00040830       ?quick_EndGame@@YAXXZ      66041830 f   quick.obj
 0001:00040840       ?skillCount@@YAHH@Z        66041840 f   quick.obj
 0001:000408a0       ?BackToTown@@YAHXZ         660418a0 f   quick.obj
 0001:00040980       ?QuickToLevel@@YAHPAUstQuickToLevel@@@Z 66041980 f   quick.obj
 0001:000409d0       ?addQuickToLevel@@YAXHHH@Z 660419d0 f   quick.obj
 0001:00040ae0       ?quickLoop@@YAXXZ          66041ae0 f   quick.obj
 0001:00040bc0       ?AutoBackToTown@@YIXPAE@Z  66041bc0 f   quick.obj
 0001:00040cf0       ?RecvCommand_60_Patch_ASM@@YAXXZ 66041cf0 f   quick.obj
 0001:00040d00       ?SaveGameName@@YAXXZ       66041d00 f   quick.obj
 0001:00040da0       ?QuickExitGame@@YAHXZ      66041da0 f   quick.obj
 0001:00040dd0       ?QuickNextGame@@YAHH@Z     66041dd0 f   quick.obj
 0001:00041020       ?NextGameNamePatch@@YIXPAUD2EditBox@@P6GH0HPAD@Z@Z 66042020 f   quick.obj
 0001:00041060       ?NextGamePasswordPatch@@YIXPAUD2EditBox@@P6GH0HPAD@Z@Z 66042060 f   quick.obj
 0001:000410a0       ?NextGameDecriptionPatch@@YIXPAUD2EditBox@@P6GH0HPAD@Z@Z 660420a0 f   quick.obj
 0001:000410e0       ?SelectGamePatch@@YIPAXPAUD2EditBox@@PA_W@Z 660420e0 f   quick.obj
 0001:00041180       ?quickswap_addConfigVars@@YAXXZ 66042180 f   QuickSwapItem.obj
 0001:000411c0       ?getInvTxt@@YAPAUInventoryBIN@@XZ 660421c0 f   QuickSwapItem.obj
 0001:00041240       ?putIntoCubeIndirect@@YAHXZ 66042240 f   QuickSwapItem.obj
 0001:00041320       ?putItem@@YAHPAUInventoryBIN@@PADH@Z 66042320 f   QuickSwapItem.obj
 0001:00041510       ?putIntoInv@@YAHXZ         66042510 f   QuickSwapItem.obj
 0001:00041530       ?putIntoStash@@YAHXZ       66042530 f   QuickSwapItem.obj
 0001:00041590       ?MoveItem@@YAXPAUD2MSG@@@Z 66042590 f   QuickSwapItem.obj
 0001:00042520       ?RButtonUpHandlerPatch@@YGXPAUD2MSG@@@Z 66043520 f   QuickSwapItem.obj
 0001:00042560       ?RButtonUpHandlerPatch_ASM@@YAXXZ 66043560 f   QuickSwapItem.obj
 0001:00042580       ?RButtonInTradePatch_ASM@@YAXXZ 66043580 f   QuickSwapItem.obj
 0001:00042590       ?CtrlClickHandlerPatch_ASM@@YAXXZ 66043590 f   QuickSwapItem.obj
 0001:000425c0       ?clickCubeTransformButton@@YAXXZ 660435c0 f   QuickSwapItem.obj
 0001:00042610       ?autoCubeTransform@@YAHXZ  66043610 f   QuickSwapItem.obj
 0001:00042b30       ?quickswap_NewGame@@YAXXZ  66043b30 f   QuickSwapItem.obj
 0001:00042b60       ?RecvPacket3FPatch_ASM@@YAXXZ 66043b60 f   QuickSwapItem.obj
 0001:00042b80       ?activeItemStack@@YAXH@Z   66043b80 f   QuickSwapItem.obj
 0001:00042bf0       ?autoIdentify@@YAHXZ       66043bf0 f   QuickSwapItem.obj
 0001:00042d20       ?autoSimpleItemStack@@YAHXZ 66043d20 f   QuickSwapItem.obj
 0001:00042ed0       ?Resolution_AddConfigVars@@YAXXZ 66043ed0 f   resolution.obj
 0001:00042f10       ?changeResolution@@YAXH@Z  66043f10 f   resolution.obj
 0001:00042f20       ?resolution_init@@YAXXZ    66043f20 f   resolution.obj
 0001:00042f70       ?resolution_uninit@@YAXXZ  66043f70 f   resolution.obj
 0001:00042fc0       ?fitWindowToResolution@@YAXXZ 66043fc0 f   resolution.obj
 0001:00043100       ?fitResolution@@YAXXZ      66044100 f   resolution.obj
 0001:000433e0       ?SetBitBlockWidthAndHeightPatch_ASM@@YAXXZ 660443e0 f   resolution.obj
 0001:000433f0       ?SetCelDisplayLeftAndRightPatch_ASM@@YAXXZ 660443f0 f   resolution.obj
 0001:00043410       ?IsNeedRestoreDownWindowPatchH_ASM@@YAXXZ 66044410 f   resolution.obj
 0001:00043410       ?IsNeedResizeWindowPatchH_ASM@@YAXXZ 66044410 f   resolution.obj
 0001:00043420       ?IsNeedResizeWindowPatchW_ASM@@YAXXZ 66044420 f   resolution.obj
 0001:00043420       ?IsNeedRestoreDownWindowPatchW_ASM@@YAXXZ 66044420 f   resolution.obj
 0001:00043430       ?SetDisplayWidthAndHeightPatch_ASM@@YAXXZ 66044430 f   resolution.obj
 0001:00043450       ?SetGeneralDisplayWidthAndHeightPatch_ASM@@YAXXZ 66044450 f   resolution.obj
 0001:00043470       ?GetGlobalBeltSlotPositionPatch_ASM@@YAXXZ 66044470 f   resolution.obj
 0001:00043520       ?GetGlobalBeltRecordPatch_ASM@@YAXXZ 66044520 f   resolution.obj
 0001:000435f0       ?AdjustWindowRectExPatch_ASM@@YAXXZ 660445f0 f   resolution.obj
 0001:00043740       ?ClearFramebufPatch_ASM@@YAXXZ 66044740 f   resolution.obj
 0001:00043760       ?DrawLeftOrbImagePatch_ASM@@YAXXZ 66044760 f   resolution.obj
 0001:00043790       ?DrawLeftOrbPatch_ASM@@YAXXZ 66044790 f   resolution.obj
 0001:000437b0       ?DrawRightOrbImagePatch_ASM@@YAXXZ 660447b0 f   resolution.obj
 0001:000437e0       ?DrawRightOrbPatch_ASM@@YAXXZ 660447e0 f   resolution.obj
 0001:00043800       ?FillLeftOrbPatch_ASM@@YAXXZ 66044800 f   resolution.obj
 0001:00043820       ?FillRightOrbPatch_ASM@@YAXXZ 66044820 f   resolution.obj
 0001:00043840       ?DrawLeftSkillButtonPatch_ASM@@YAXXZ 66044840 f   resolution.obj
 0001:00043860       ?DrawRightSkillButtonPatch_ASM@@YAXXZ 66044860 f   resolution.obj
 0001:00043880       ?DisplayHPTextPatch_ASM@@YAXXZ 66044880 f   resolution.obj
 0001:000438a0       ?DisplayManaTextPatch_ASM@@YAXXZ 660448a0 f   resolution.obj
 0001:000438c0       ?DrawGroundHeightPatch_ASM@@YAXXZ 660448c0 f   resolution.obj
 0001:000438f0       ?BottomBoundPatch_ASM@@YAXXZ 660448f0 f   resolution.obj
 0001:00043910       ?installResolutionPatches@@YAHXZ 66044910 f   resolution.obj
 0001:00043dc0       ?autoskill_addConfigVars@@YAXXZ 66044dc0 f   skill.obj
 0001:00043e00       ?autoskill_initConfigVars@@YAXXZ 66044e00 f   skill.obj
 0001:00043f60       ?AutoSkillNewGame@@YAXXZ   66044f60 f   skill.obj
 0001:00043fd0       ?checkAutoSkill@@YAXXZ     66044fd0 f   skill.obj
 0001:00044310       ?checkAutoSkillStatus@@YAXXZ 66045310 f   skill.obj
 0001:000443f0       ?stackThrowing@@YAXXZ      660453f0 f   skill.obj
 0001:000444b0       ?AutoSkillNow@@YAHXZ       660454b0 f   skill.obj
 0001:000444e0       ?AutoSkillRunLoop@@YAXXZ   660454e0 f   skill.obj
 0001:00045990       ?autoSkillDimVision@@YIXPAD@Z 66046990 f   skill.obj
 0001:000459e0       ?autoTelekinesis@@YAHXZ    660469e0 f   skill.obj
 0001:00045b00       ?Snapshot_AddConfigVars@@YAXXZ 66046b00 f   Snapshot.obj
 0001:00045b40       ?hex@@YAXPAU_iobuf@@HPAXH@Z 66046b40 f   Snapshot.obj
 0001:00045cd0       ?LoadLogNames@@YAXPAU_iobuf@@@Z 66046cd0 f   Snapshot.obj
 0001:00046340       ?getSnapshotPath@@YAXPAD00000D@Z 66047340 f   Snapshot.obj
 0001:00046840       ?openDbgFile@@YAPAU_iobuf@@PAD@Z 66047840 f   Snapshot.obj
 0001:00046a70       ?SnapshotNewGame@@YAXXZ    66047a70 f   Snapshot.obj
 0001:00046c80       ?SnapshotEndGame@@YAXXZ    66047c80 f   Snapshot.obj
 0001:00047040       ?dumpStat@@YAXPAU_iobuf@@HHPAH@Z 66048040 f   Snapshot.obj
 0001:00047540       ?countAllGemRunes@@YAXXZ   66048540 f   Snapshot.obj
 0001:000479e0       ?dumpStatList@@YAHPAU_iobuf@@PAUStatList@@H@Z 660489e0 f   Snapshot.obj
 0001:00047f10       ?loadWaypoints@@YAXPADH@Z  66048f10 f   Snapshot.obj
 0001:00047fd0       ?saveWaypoints@@YAXPADH@Z  66048fd0 f   Snapshot.obj
 0001:0004b790       ?dumpUnit2@@YAXPAU_iobuf@@PAUUnitAny@@@Z 6604c790 f   Snapshot.obj
 0001:0004b970       ?dumpMap@@YAXXZ            6604c970 f   Snapshot.obj
 0001:0004bee0       ?saveMercInfo@@YIXPAD@Z    6604cee0 f   Snapshot.obj
 0001:0004c020       ?RecvCommand_81_Patch_ASM@@YAXXZ 6604d020 f   Snapshot.obj
 0001:0004c030       ?removeSnapshot@@YAXPAD00@Z 6604d030 f   Snapshot.obj
 0001:0004c270       ?dumpServerQuest@@YAXPAU_iobuf@@@Z 6604d270 f   Snapshot.obj
 0001:0004c4f0       ?DoSnapshot@@YAHXZ         6604d4f0 f   Snapshot.obj
 0001:0004cab0       ?AutoSummonNewGame@@YAXXZ  6604dab0 f   summon.obj
 0001:0004cba0       ?checkSkeletonCount@@YAXXZ 6604dba0 f   summon.obj
 0001:0004cd70       ?AutoSummonRunLoop@@YAXXZ  6604dd70 f   summon.obj
 0001:0004d590       ?addUnit@@YIXPAUUnitAny@@@Z 6604e590 f   summon.obj
 0001:0004d610       ?AddUnitPatch_ASM@@YAXXZ   6604e610 f   summon.obj
 0001:0004d630       ?RemoveUnitPatch1_ASM@@YAXXZ 6604e630 f   summon.obj
 0001:0004d650       ?RemoveUnitPatch2_ASM@@YAXXZ 6604e650 f   summon.obj
 0001:0004d670       ?RecvCommand_69_Patch_ASM@@YAXXZ 6604e670 f   summon.obj
 0001:0004d6a0       ?RecvCommand_7A_Patch_ASM@@YAXXZ 6604e6a0 f   summon.obj
 0001:0004d6d0       ?RecvCommand_21_Patch_ASM@@YAXXZ 6604e6d0 f   summon.obj
 0001:0004d6f0       ?autoteleport_addConfigVars@@YAXXZ 6604e6f0 f   teleport.obj
 0001:0004d730       ?autoteleport_initConfigVars@@YAXXZ 6604e730 f   teleport.obj
 0001:0004d750       ?autoteleport_fixValues@@YAXXZ 6604e750 f   teleport.obj
 0001:0004d770       ?AutoTeleportStart@@YAHXZ  6604e770 f   teleport.obj
 0001:0004d810       ?AutoTeleportEnd@@YAHXZ    6604e810 f   teleport.obj
 0001:0004d890       ?AutoTeleport@@YAHXZ       6604e890 f   teleport.obj
 0001:0004f780       ?abs@@YAJJ@Z               66050780 f i teleport.obj
 0001:0004fdf0       ?dumpRunewordTxt@@YAXXZ    66050df0 f   txt.obj
 0001:00050160       ?dumpTxt@@YAXXZ            66051160 f   txt.obj
 0001:00050730       ?panel_addConfigVars@@YAXXZ 66051730 f   panel.obj
 0001:00050770       ?printPanelConf@@YAPADHPAD0@Z 66051770 f   panel.obj
 0001:000508a0       ?panelNewGame@@YAXXZ       660518a0 f   panel.obj
 0001:00050a30       ?panelEndGame@@YAXXZ       66051a30 f   panel.obj
 0001:00050a60       ?modifyStashGrid@@YAXXZ    66051a60 f   panel.obj
 0001:00050f60       ?MpqLoadPatch@@YIXPAD0@Z   66051f60 f   panel.obj
 0001:00051040       ?MqpLoadPathPatch_ASM@@YAXXZ 66052040 f   panel.obj
 0001:00051060       ?ModifyStashImagePatch_ASM@@YAXXZ 66052060 f   panel.obj
 0001:00051070       ?ModifyCubeImagePatch_ASM@@YAXXZ 66052070 f   panel.obj
 0001:000510a0       ?ModifyInvCharImagePatch_ASM@@YAXXZ 660520a0 f   panel.obj
 0001:000510e0       ?ChooseInvCharImagePatch_ASM@@YAXXZ 660520e0 f   panel.obj
 0001:00051110       ?CalDrawOffsetPatch_ASM@@YAXXZ 66052110 f   panel.obj
 0001:000511a0       ?GetEquipmentSlotLayoutPatch_ASM@@YAXXZ 660521a0 f   panel.obj
 0001:00051340       ?GetInventoryGridLayoutPatch_ASM@@YAXXZ 66052340 f   panel.obj
 0001:000513f0       ?GetInventoryPositionPatch_ASM@@YAXXZ 660523f0 f   panel.obj
 0001:000514a0       ?AddSkillPatch_ASM@@YAXXZ  660524a0 f   panel.obj
 0001:00051520       ?RecvCommand_26_Patch_ASM@@YAXXZ 66052520 f   panel.obj
 0001:00051920       ?installPanelPatches@@YAHXZ 66052920 f   panel.obj
 0001:00051ac0       ?uninstallBigstashPatches@@YAHXZ 66052ac0 f   panel.obj
 0001:00051ae0       ?installBigstashPatches@@YAHXZ 66052ae0 f   panel.obj
 0001:00051fa0       ?server_addConfigVars@@YAXXZ 66052fa0 f   server.obj
 0001:00051ff0       ?client_unassign_stat@@YAHHH@Z 66052ff0 f   server.obj
 0001:000520d0       ?client_mouse_stat@@YAHHH@Z 660530d0 f   server.obj
 0001:000521a0       ?getSkillDescTxt@@YAPAXH@Z 660531a0 f   server.obj
 0001:000521b0       ?getSkillTreeButtonY@@YAHH@Z 660531b0 f   server.obj
 0001:000521c0       ?getSkillTreeButtonX@@YAHH@Z 660531c0 f   server.obj
 0001:000521d0       ?client_mouse_skillBtn@@YAHHH@Z 660531d0 f   server.obj
 0001:000522d0       ?client_unassign_skill@@YAHHH@Z 660532d0 f   server.obj
 0001:000523b0       ?client_reset_quest@@YAHH@Z 660533b0 f   server.obj
 0001:000523e0       ?UndoStr@@YAXPAUUnitAny@@H@Z 660533e0 f   server.obj
 0001:00052480       ?UndoDex@@YAXPAUUnitAny@@H@Z 66053480 f   server.obj
 0001:00052520       ?UndoVit@@YAXPAUUnitAny@@H@Z 66053520 f   server.obj
 0001:00052620       ?UndoEne@@YAXPAUUnitAny@@H@Z 66053620 f   server.obj
 0001:000526f0       ?getClient@@YAPAXPAUUnitAny@@@Z 660536f0 f   server.obj
 0001:00052720       ?UndoSkill@@YAXPAUUnitAny@@HH@Z 66053720 f   server.obj
 0001:00052900       ?getQuest@@YAPAGPAUWorld@@PAUUnitAny@@@Z 66053900 f   server.obj
 0001:00052940       ?serverUndo@@YAHPAUWorld@@PAUUnitAny@@PAD2@Z 66053940 f   server.obj
 0001:00053030       ?ModifyStashGridPatch_ASM@@YAXXZ 66054030 f   server.obj
 0001:00053040       ?compileRunesTxt@@YGPAXHPADPAUTxtField@@PAHH@Z 66054040 f   server.obj
 0001:000530a0       ?GameStartPatch_ASM@@YAXXZ 660540a0 f   server.obj
 0001:00053240       ?DoServerTest@@YAHXZ       66054240 f   server.obj
 0001:00053320       ?installServerPatches@@YAHXZ 66054320 f   server.obj
 0001:000537a0       ?RepeatAdminCmd@@YAHXZ     660547a0 f   admin.obj
 0001:00053810       ?ClientChatPatch_ASM@@YAXXZ 66054810 f   admin.obj
 0001:000538b0       ?setCharLv@@YAXPAUWorld@@PAUUnitAny@@H@Z 660548b0 f   admin.obj
 0001:00053950       ?maxCharStat@@YAXPAUWorld@@PAUUnitAny@@@Z 66054950 f   admin.obj
 0001:00053a20       ?enableAllWaypoints@@YAXPAUUnitAny@@@Z 66054a20 f   admin.obj
 0001:00053aa0       ?passGame@@YAHPAUWorld@@PAUUnitAny@@H@Z 66054aa0 f   admin.obj
 0001:00053cc0       ?itemIndex2txt@@YAHH@Z     66054cc0 f   admin.obj
 0001:00053d50       ?SelectUniquePatch_ASM@@YAXXZ 66054d50 f   admin.obj
 0001:00053e20       ?SelectSetPatch_ASM@@YAXXZ 66054e20 f   admin.obj
 0001:00053eb0       ?getItemTxtByCode@@YAHH@Z  66054eb0 f   admin.obj
 0001:00053f60       ?getRunewordTxt@@YAPAURuneWordTxt@@H@Z 66054f60 f   admin.obj
 0001:00053fa0       ?pickupItem@@YAXPAUWorld@@PAUUnitAny@@1H@Z 66054fa0 f   admin.obj
 0001:00054000       ?invToHand@@YAXPAUWorld@@PAUUnitAny@@1@Z 66055000 f   admin.obj
 0001:00054040       ?handToBody@@YAXPAUWorld@@PAUUnitAny@@1H@Z 66055040 f   admin.obj
 0001:000540d0       ?putItemIntoSocket@@YAXPAUWorld@@PAUUnitAny@@11@Z 660550d0 f   admin.obj
 0001:00054110       ?autoPortal@@YAHPAUWorld@@PAUUnitAny@@@Z 66055110 f   admin.obj
 0001:00054540       ?MonsterSleepPatch_ASM@@YAXXZ 66055540 f   admin.obj
 0001:00054560       ?skipServerPacket15@@YIHPAUWorld@@PAUUnitAny@@PADH@Z 66055560 f   admin.obj
 0001:00057230       ?ServerRecvPacket15Patch_ASM@@YAXXZ 66058230 f   admin.obj
 0001:00057260       ?uber_addConfigVars@@YAXXZ 66058260 f   uber.obj
 0001:000572a0       ?resetUberQuest@@YAXXZ     660582a0 f   uber.obj
 0001:00057310       ?openPandPortal@@YIHPAUWorld@@PAUUnitAny@@@Z 66058310 f   uber.obj
 0001:000573d0       ?openPandFinalPortal@@YIHPAUWorld@@PAUUnitAny@@@Z 660583d0 f   uber.obj
 0001:00057410       ?spawnSuperUnique@@YAHPAUWorld@@PAUAreaRectData@@HHHHHH@Z 66058410 f   uber.obj
 0001:00057440       ?monsterUseSkill@@YAXPAUWorld@@PAUUnitAny@@HH1HH@Z 66058440 f   uber.obj
 0001:00057480       ?spawnUber@@YGXPAUWorld@@PAUAreaRectData@@@Z 66058480 f   uber.obj
 0001:000576d0       ?GetNbMonsters@@YAHPAUDrlgLevel@@@Z 660586d0 f   uber.obj
 0001:00057760       ?GetNbMonstersRadius@@YAHPAUDrlgLevel@@UtagPOINT@@H@Z 66058760 f   uber.obj
 0001:00057820       ?CastSummonMonster@@YAHPAUWorld@@PAUUnitAny@@HHPAHHH@Z 66058820 f   uber.obj
 0001:00057950       ?randf@@YANXZ              66058950 f   uber.obj
 0001:00057970       ?RandInCircle@@YAXPAUtagPOINT@@H@Z 66058970 f   uber.obj
 0001:000579d0       ?uberMephAI@@YIXPAUWorld@@PAUUnitAny@@PAUAIParam@@@Z 660589d0 f   uber.obj
 0001:00057a60       ?uberDiabloAI@@YIXPAUWorld@@PAUUnitAny@@PAUAIParam@@@Z 66058a60 f   uber.obj
 0001:00057bb0       ?uberBaalAI@@YIXPAUWorld@@PAUUnitAny@@PAUAIParam@@@Z 66058bb0 f   uber.obj
 0001:00057d80       ?installUberQuestPatches@@YAHXZ 66058d80 f   uber.obj
 0001:00057ea6       ??0_LocaleUpdate@@QAE@PAUlocaleinfo_struct@@@Z 66058ea6 f i LIBCMT:stricmp.obj
 0001:00057f2d       ___ascii_stricmp           66058f2d f   LIBCMT:stricmp.obj
 0001:00057f66       __stricmp_l                66058f66 f   LIBCMT:stricmp.obj
 0001:0005803b       __stricmp                  6605903b f   LIBCMT:stricmp.obj
 0001:0005808d       __flush                    6605908d f   LIBCMT:fflush.obj
 0001:000580f5       __fflush_nolock            660590f5 f   LIBCMT:fflush.obj
 0001:00058217       _fflush                    66059217 f   LIBCMT:fflush.obj
 0001:0005826a       __flushall                 6605926a f   LIBCMT:fflush.obj
 0001:00058273       _fprintf                   66059273 f   LIBCMT:fprintf.obj
 0001:0005838f       _bsearch                   6605938f f   LIBCMT:bsearch.obj
 0001:00058451       @__security_check_cookie@4 66059451 f   LIBCMT:secchk.obj
 0001:00058460       _sprintf                   66059460 f   LIBCMT:sprintf.obj
 0001:000584e0       _memset                    660594e0 f   LIBCMT:memset.obj
 0001:0005855a       __fclose_nolock            6605955a f   LIBCMT:fclose.obj
 0001:000585d1       _fclose                    660595d1 f   LIBCMT:fclose.obj
 0001:0005864d       _fputs                     6605964d f   LIBCMT:fputs.obj
 0001:00058760       _strncpy                   66059760 f   LIBCMT:strncpy.obj
 0001:000588a0       _strchr                    660598a0 f   LIBCMT:strchr.obj
 0001:000588a6       ___from_strstr_to_strchr   660598a6     LIBCMT:strchr.obj
 0001:00058960       _strrchr                   66059960 f   LIBCMT:strrchr.obj
 0001:00058a50       _qsort                     66059a50 f   LIBCMT:qsort.obj
 0001:00058c9d       _realloc                   66059c9d f   LIBCMT:realloc.obj
 0001:00058ec0       _memcpy                    66059ec0 f   LIBCMT:memcpy.obj
 0001:00059225       __isalpha_l                6605a225 f i LIBCMT:_ctype.obj
 0001:0005927b       _isalpha                   6605a27b f i LIBCMT:_ctype.obj
 0001:000592ab       __isdigit_l                6605a2ab f i LIBCMT:_ctype.obj
 0001:000592fc       _isdigit                   6605a2fc f i LIBCMT:_ctype.obj
 0001:0005932a       __isspace_l                6605a32a f i LIBCMT:_ctype.obj
 0001:0005937b       _isspace                   6605a37b f i LIBCMT:_ctype.obj
 0001:000593a9       __isalnum_l                6605a3a9 f i LIBCMT:_ctype.obj
 0001:000593ff       _isalnum                   6605a3ff f i LIBCMT:_ctype.obj
 0001:0005965e       _strtol                    6605a65e f   LIBCMT:strtol.obj
 0001:00059689       _strtoul                   6605a689 f   LIBCMT:strtol.obj
 0001:000596b5       __toupper_l                6605a6b5 f   LIBCMT:toupper.obj
 0001:000597cb       _toupper                   6605a7cb f   LIBCMT:toupper.obj
 0001:000597f7       __memicmp_l                6605a7f7 f   LIBCMT:memicmp.obj
 0001:000598cc       __memicmp                  6605a8cc f   LIBCMT:memicmp.obj
 0001:0005992b       ___iob_func                6605a92b f   LIBCMT:_file.obj
 0001:00059931       ___initstdio               6605a931 f   LIBCMT:_file.obj
 0001:000599e2       ___endstdio                6605a9e2 f   LIBCMT:_file.obj
 0001:00059a02       __lock_file                6605aa02 f   LIBCMT:_file.obj
 0001:00059a43       __lock_file2               6605aa43 f   LIBCMT:_file.obj
 0001:00059a75       __unlock_file              6605aa75 f   LIBCMT:_file.obj
 0001:00059ab1       __unlock_file2             6605aab1 f   LIBCMT:_file.obj
 0001:00059ae0       __cfltcvt_init             6605aae0 f   LIBCMT:_fpinit_.obj
 0001:00059b40       __fpmath                   6605ab40 f   LIBCMT:_fpinit_.obj
 0001:00059b70       __except_handler4          6605ab70 f   LIBCMT:chandler4.obj
 0001:00059cfc       _V6_HeapAlloc              6605acfc f   LIBCMT:malloc.obj
 0001:00059d4b       _malloc                    6605ad4b f   LIBCMT:malloc.obj
 0001:00059e20       _strstr                    6605ae20 f   LIBCMT:strstr.obj
 0001:00059ea6       _fgets                     6605aea6 f   LIBCMT:fgets.obj
 0001:00059fee       __fseek_nolock             6605afee f   LIBCMT:fseek.obj
 0001:0005a078       _fseek                     6605b078 f   LIBCMT:fseek.obj
 0001:0005a0fd       __fread_nolock_s           6605b0fd f   LIBCMT:fread.obj
 0001:0005a307       _fread_s                   6605b307 f   LIBCMT:fread.obj
 0001:0005a39d       _fread                     6605b39d f   LIBCMT:fread.obj
 0001:0005a3ba       _strtok                    6605b3ba f   LIBCMT:strtok.obj
 0001:0005a480       __ftol2_sse                6605b480 f   LIBCMT:ftol2.obj
 0001:0005a489       __ftol2_pentium4           6605b489 f   LIBCMT:ftol2.obj
 0001:0005a49c       __ftol2_sse_excpt          6605b49c f   LIBCMT:ftol2.obj
 0001:0005a4b6       __ftol2                    6605b4b6 f   LIBCMT:ftol2.obj
 0001:0005a52b       ??3@YAXPAX@Z               6605b52b f   LIBCMT:delete.obj
 0001:0005a536       ??0bad_alloc@std@@QAE@XZ   6605b536 f i LIBCMT:new.obj
 0001:0005a551       ??1bad_alloc@std@@UAE@XZ   6605b551 f i LIBCMT:new.obj
 0001:0005a55c       ??_Ebad_alloc@std@@UAEPAXI@Z 6605b55c f i LIBCMT:new.obj
 0001:0005a55c       ??_Gbad_alloc@std@@UAEPAXI@Z 6605b55c f i LIBCMT:new.obj
 0001:0005a583       ??0bad_alloc@std@@QAE@ABV01@@Z 6605b583 f i LIBCMT:new.obj
 0001:0005a5a0       ??2@YAPAXI@Z               6605b5a0 f   LIBCMT:new.obj
 0001:0005a605       _free                      6605b605 f   LIBCMT:free.obj
 0001:0005a76d       __stat64i32                6605b76d f   LIBCMT:stati32.obj
 0001:0005ab41       __fwrite_nolock            6605bb41 f   LIBCMT:fwrite.obj
 0001:0005aca3       _fwrite                    6605bca3 f   LIBCMT:fwrite.obj
 0001:0005ad25       __fsopen                   6605bd25 f   LIBCMT:fopen.obj
 0001:0005ade9       _fopen                     6605bde9 f   LIBCMT:fopen.obj
 0001:0005ae00       __snprintf                 6605be00 f   LIBCMT:snprintf.obj
 0001:0005aeaf       __ftell_nolock             6605beaf f   LIBCMT:ftell.obj
 0001:0005b04c       _ftell                     6605c04c f   LIBCMT:ftell.obj
 0001:0005b0c0       __chkstk                   6605c0c0 f   LIBCMT:chkstk.obj
 0001:0005b0c0       __alloca_probe             6605c0c0     LIBCMT:chkstk.obj
 0001:0005b0f0       __CIsqrt                   6605c0f0 f   LIBCMT:_sqrt_.obj
 0001:0005b104       _sqrt                      6605c104     LIBCMT:_sqrt_.obj
 0001:0005b1aa       __vsnprintf_l              6605c1aa f   LIBCMT:vsnprint.obj
 0001:0005b25d       __vsnprintf                6605c25d f   LIBCMT:vsnprint.obj
 0001:0005b27a       __strdup                   6605c27a f   LIBCMT:strdup.obj
 0001:0005b2cf       _fputc                     6605c2cf f   LIBCMT:fputc.obj
 0001:0005b3db       _rand                      6605c3db f   LIBCMT:rand.obj
 0001:0005b3fd       _rename                    6605c3fd f   LIBCMT:rename.obj
 0001:0005b430       _memmove                   6605c430 f   LIBCMT:memmove.obj
 0001:0005b795       __isleadbyte_l             6605c795 f i LIBCMT:_wctype.obj
 0001:0005b7cd       _isleadbyte                6605c7cd f i LIBCMT:_wctype.obj
 0001:0005b7e0       _iswspace                  6605c7e0 f i LIBCMT:_wctype.obj
 0001:0005b7f3       __get_printf_count_output  6605c7f3 f   LIBCMT:printf.obj
 0001:0005b809       __time64                   6605c809 f   LIBCMT:time64.obj
 0001:0005b85a       __freea                    6605c85a f i LIBCMT:strupr.obj
 0001:0005b9f8       __strupr_s_l               6605c9f8 f   LIBCMT:strupr.obj
 0001:0005ba2d       __strupr                   6605ca2d f   LIBCMT:strupr.obj
 0001:0005bc8c       _wcstol                    6605cc8c f   LIBCMT:wcstol.obj
 0001:0005bcc0       __allshr                   6605ccc0 f   LIBCMT:llshr.obj
 0001:0005bcf0       _sin                       6605ccf0 f   LIBCMT:_sin_.obj
 0001:0005bd30       __CIsin                    6605cd30 f   LIBCMT:_sin_.obj
 0001:0005bd6b       __CIsin_default            6605cd6b f   LIBCMT:_sin_.obj
 0001:0005bd7f       __sin_default              6605cd7f     LIBCMT:_sin_.obj
 0001:0005be20       _cos                       6605ce20 f   LIBCMT:_cos_.obj
 0001:0005be60       __CIcos                    6605ce60 f   LIBCMT:_cos_.obj
 0001:0005be9b       __CIcos_default            6605ce9b f   LIBCMT:_cos_.obj
 0001:0005beaf       __cos_default              6605ceaf     LIBCMT:_cos_.obj
 0001:0005bf49       __CRT_INIT@12              6605cf49 f   LIBCMT:dllcrt0.obj
 0001:0005c174       __DllMainCRTStartup@12     6605d174 f   LIBCMT:dllcrt0.obj
 0001:0005c3bd       ___updatetmbcinfo          6605d3bd f   LIBCMT:mbctype.obj
 0001:0005c4dd       __setmbcp_nolock           6605d4dd f   LIBCMT:mbctype.obj
 0001:0005c6c2       __setmbcp                  6605d6c2 f   LIBCMT:mbctype.obj
 0001:0005c85c       ___initmbctable            6605d85c f   LIBCMT:mbctype.obj
 0001:0005c87a       ___freetlocinfo            6605d87a f   LIBCMT:setlocal.obj
 0001:0005c9c3       ___addlocaleref            6605d9c3 f   LIBCMT:setlocal.obj
 0001:0005ca52       ___removelocaleref         6605da52 f   LIBCMT:setlocal.obj
 0001:0005cb29       ___updatetlocinfo          6605db29 f   LIBCMT:setlocal.obj
 0001:0005cb9f       __encode_pointer           6605db9f f   LIBCMT:tidtable.obj
 0001:0005cc11       __encoded_null             6605dc11 f   LIBCMT:tidtable.obj
 0001:0005cc1a       __decode_pointer           6605dc1a f   LIBCMT:tidtable.obj
 0001:0005cc8c       ___crtTlsAlloc@4           6605dc8c f   LIBCMT:tidtable.obj
 0001:0005cc95       ___set_flsgetvalue         6605dc95 f   LIBCMT:tidtable.obj
 0001:0005ccc9       __mtterm                   6605dcc9 f   LIBCMT:tidtable.obj
 0001:0005cd06       __initptd                  6605dd06 f   LIBCMT:tidtable.obj
 0001:0005cded       __getptd_noexit            6605dded f   LIBCMT:tidtable.obj
 0001:0005ce66       __getptd                   6605de66 f   LIBCMT:tidtable.obj
 0001:0005ce80       __freefls@4                6605de80 f   LIBCMT:tidtable.obj
 0001:0005cfaf       __freeptd                  6605dfaf f   LIBCMT:tidtable.obj
 0001:0005d01d       __mtinit                   6605e01d f   LIBCMT:tidtable.obj
 0001:0005d1aa       __tolower_l                6605e1aa f   LIBCMT:tolower.obj
 0001:0005d2bf       _tolower                   6605e2bf f   LIBCMT:tolower.obj
 0001:0005d2eb       __initp_misc_invarg        6605e2eb f   LIBCMT:invarg.obj
 0001:0005d2fa       __invoke_watson            6605e2fa f   LIBCMT:invarg.obj
 0001:0005d422       __invalid_parameter        6605e422 f   LIBCMT:invarg.obj
 0001:0005d448       __get_errno_from_oserr     6605e448 f   LIBCMT:dosmap.obj
 0001:0005d48a       __errno                    6605e48a f   LIBCMT:dosmap.obj
 0001:0005d49d       ___doserrno                6605e49d f   LIBCMT:dosmap.obj
 0001:0005d4b0       __dosmaperr                6605e4b0 f   LIBCMT:dosmap.obj
 0001:0005d4d3       __write_nolock             6605e4d3 f   LIBCMT:write.obj
 0001:0005dc06       __write                    6605ec06 f   LIBCMT:write.obj
 0001:0005dce2       __fileno                   6605ece2 f   LIBCMT:fileno.obj
 0001:0005dd14       __commit                   6605ed14 f   LIBCMT:commit.obj
 0001:0005ddf5       __mtinitlocks              6605edf5 f   LIBCMT:mlock.obj
 0001:0005de40       __mtdeletelocks            6605ee40 f   LIBCMT:mlock.obj
 0001:0005de97       __unlock                   6605ee97 f   LIBCMT:mlock.obj
 0001:0005deae       __mtinitlocknum            6605eeae f   LIBCMT:mlock.obj
 0001:0005df71       __lock                     6605ef71 f   LIBCMT:mlock.obj
 0001:0005dfa4       __SEH_prolog4              6605efa4 f   LIBCMT:sehprolg4.obj
 0001:0005dfe9       __SEH_epilog4              6605efe9 f   LIBCMT:sehprolg4.obj
 0001:0005dffd       __stbuf                    6605effd f   LIBCMT:_sftbuf.obj
 0001:0005e099       __ftbuf                    6605f099 f   LIBCMT:_sftbuf.obj
 0001:0005e173       __output_l                 6605f173 f   LIBCMT:output.obj
 0001:0005ed0b       __ioinit                   6605fd0b f   LIBCMT:ioinit.obj
 0001:0005ef5f       __ioterm                   6605ff5f f   LIBCMT:ioinit.obj
 0001:0005efad       ___report_gsfailure        6605ffad f   LIBCMT:gs_report.obj
 0001:0005f0b3       __flsbuf                   660600b3 f   LIBCMT:_flsbuf.obj
 0001:0005f26e       __VEC_memzero              6606026e f   LIBCMT:p4_memset.obj
 0001:0005f34d       __get_sse2_info            6606034d f   LIBCMT:cpu_disp.obj
 0001:0005f3af       ___sse2_available_init     660603af f   LIBCMT:cpu_disp.obj
 0001:0005f3bc       __close_nolock             660603bc f   LIBCMT:close.obj
 0001:0005f458       __close                    66060458 f   LIBCMT:close.obj
 0001:0005f525       __freebuf                  66060525 f   LIBCMT:_freebuf.obj
 0001:0005f560       _strlen                    66060560 f   LIBCMT:strlen.obj
 0001:0005f5eb       __initp_heap_handler       660605eb f   LIBCMT:handler.obj
 0001:0005f5fa       __callnewh                 660605fa f   LIBCMT:handler.obj
 0001:0005f622       __heap_init                66060622 f   LIBCMT:heapinit.obj
 0001:0005f652       __heap_term                66060652 f   LIBCMT:heapinit.obj
 0001:0005f6c6       ___sbh_find_block          660606c6 f   LIBCMT:sbheap.obj
 0001:0005f6f6       ___sbh_free_block          660606f6 f   LIBCMT:sbheap.obj
 0001:0005fa0c       ___sbh_alloc_new_region    66060a0c f   LIBCMT:sbheap.obj
 0001:0005fabc       ___sbh_alloc_new_group     66060abc f   LIBCMT:sbheap.obj
 0001:0005fbc4       ___sbh_resize_block        66060bc4 f   LIBCMT:sbheap.obj
 0001:0005fea5       ___sbh_alloc_block         66060ea5 f   LIBCMT:sbheap.obj
 0001:00060211       __VEC_memcpy               66061211 f   LIBCMT:p4_memcpy.obj
 0001:000602f4       __isctype_l                660612f4 f   LIBCMT:isctype.obj
 0001:00060751       ___crtLCMapStringA         66061751 f   LIBCMT:a_map.obj
 0001:000607a0       ___ascii_memicmp           660617a0 f   LIBCMT:_memicmp.obj
 0001:000607f9       __malloc_crt               660617f9 f   LIBCMT:crtheap.obj
 0001:0006083e       __calloc_crt               6606183e f   LIBCMT:crtheap.obj
 0001:0006088a       __realloc_crt              6606188a f   LIBCMT:crtheap.obj
 0001:000608d8       __recalloc_crt             660618d8 f   LIBCMT:crtheap.obj
 0001:0006092a       __fcloseall                6606192a f   LIBCMT:closeall.obj
 0001:000609c9       __crt_waiting_on_module_handle 660619c9 f   LIBCMT:crt0dat.obj
 0001:000609f9       __amsg_exit                660619f9 f   LIBCMT:crt0dat.obj
 0001:00060a22       ___crtCorExitProcess       66061a22 f   LIBCMT:crt0dat.obj
 0001:00060a4d       ___crtExitProcess          66061a4d f   LIBCMT:crt0dat.obj
 0001:00060a65       __lockexit                 66061a65 f   LIBCMT:crt0dat.obj
 0001:00060a6e       __unlockexit               66061a6e f   LIBCMT:crt0dat.obj
 0001:00060a94       __initterm_e               66061a94 f   LIBCMT:crt0dat.obj
 0001:00060ab8       __cinit                    66061ab8 f   LIBCMT:crt0dat.obj
 0001:00060c69       __exit                     66061c69 f   LIBCMT:crt0dat.obj
 0001:00060c7f       __cexit                    66061c7f f   LIBCMT:crt0dat.obj
 0001:00060c8e       __init_pointers            66061c8e f   LIBCMT:crt0dat.obj
 0001:00060cdc       __forcdecpt_l              66061cdc f   LIBCMT:cvt.obj
 0001:00060d4f       __cropzeros_l              66061d4f f   LIBCMT:cvt.obj
 0001:00060dd1       __positive                 66061dd1 f   LIBCMT:cvt.obj
 0001:00060ded       __fassign_l                66061ded f   LIBCMT:cvt.obj
 0001:00060e2f       __fassign                  66061e2f f   LIBCMT:cvt.obj
 0001:00060e68       __forcdecpt                66061e68 f   LIBCMT:cvt.obj
 0001:00060e7b       __cropzeros                66061e7b f   LIBCMT:cvt.obj
 0001:00060ffd       __cftoe_l                  66061ffd f   LIBCMT:cvt.obj
 0001:000610cd       __cftoe                    660620cd f   LIBCMT:cvt.obj
 0001:000610ed       __cftoa_l                  660620ed f   LIBCMT:cvt.obj
 0001:00061557       __cftof_l                  66062557 f   LIBCMT:cvt.obj
 0001:00061612       __cftog_l                  66062612 f   LIBCMT:cvt.obj
 0001:0006170c       __cfltcvt_l                6606270c f   LIBCMT:cvt.obj
 0001:00061794       __cfltcvt                  66062794 f   LIBCMT:cvt.obj
 0001:000617b7       __initp_misc_cfltcvt_tab   660627b7 f   LIBCMT:cmiscdat.obj
 0001:000617d8       __setdefaultprecision      660627d8 f   LIBCMT:fp8.obj
 0001:00061803       __ms_p5_test_fdiv          66062803 f   LIBCMT:_testfdiv_.obj
 0001:00061841       __ms_p5_mp_test_fdiv       66062841 f   LIBCMT:_testfdiv_.obj
 0001:0006186c       __local_unwind4            6606286c f   LIBCMT:exsup4.obj
 0001:00061942       __seh_longjmp_unwind4@4    66062942 f   LIBCMT:exsup4.obj
 0001:0006195e       @_EH4_CallFilterFunc@8     6606295e f   LIBCMT:exsup4.obj
 0001:00061975       @_EH4_TransferToHandler@8  66062975 f   LIBCMT:exsup4.obj
 0001:0006198e       @_EH4_GlobalUnwind@4       6606298e f   LIBCMT:exsup4.obj
 0001:000619a8       @_EH4_LocalUnwind@16       660629a8 f   LIBCMT:exsup4.obj
 0001:000619c0       __ValidateImageBase        660629c0 f   LIBCMT:pesect.obj
 0001:00061a00       __FindPESection            66062a00 f   LIBCMT:pesect.obj
 0001:00061a50       __IsNonwritableInCurrentImage 66062a50 f   LIBCMT:pesect.obj
 0001:00061b0d       __NMSG_WRITE               66062b0d f   LIBCMT:crt0msg.obj
 0001:00061cb8       __FF_MSGBANNER             66062cb8 f   LIBCMT:crt0msg.obj
 0001:00061cf1       __filbuf                   66062cf1 f   LIBCMT:_filbuf.obj
 0001:00061e1c       __lseek_nolock             66062e1c f   LIBCMT:lseek.obj
 0001:00061e91       __lseek                    66062e91 f   LIBCMT:lseek.obj
 0001:00061f6d       __read_nolock              66062f6d f   LIBCMT:read.obj
 0001:0006252f       __read                     6606352f f   LIBCMT:read.obj
 0001:0006262c       _memcpy_s                  6606362c f   LIBCMT:memcpy_s.obj
 0001:000626a9       ??0exception@std@@QAE@ABQBDH@Z 660636a9 f   LIBCMT:stdexcpt.obj
 0001:000626c6       ??0exception@std@@QAE@ABV01@@Z 660636c6 f   LIBCMT:stdexcpt.obj
 0001:00062723       ??1exception@std@@UAE@XZ   66063723 f   LIBCMT:stdexcpt.obj
 0001:00062739       ?what@exception@std@@UBEPBDXZ 66063739 f   LIBCMT:stdexcpt.obj
 0001:00062746       ??_Eexception@std@@UAEPAXI@Z 66063746 f i LIBCMT:stdexcpt.obj
 0001:00062746       ??_Gexception@std@@UAEPAXI@Z 66063746 f i LIBCMT:stdexcpt.obj
 0001:00062767       ??1type_info@@UAE@XZ       66063767 f   LIBCMT:typinfo.obj
 0001:00062777       ??_Etype_info@@UAEPAXI@Z   66063777 f i LIBCMT:typinfo.obj
 0001:00062777       ??_Gtype_info@@UAEPAXI@Z   66063777 f i LIBCMT:typinfo.obj
 0001:00062852       ___onexitinit              66063852 f   LIBCMT:onexit.obj
 0001:00062883       __onexit                   66063883 f   LIBCMT:onexit.obj
 0001:000628bf       _atexit                    660638bf f   LIBCMT:onexit.obj
 0001:000628d6       __CxxThrowException@8      660638d6 f   LIBCMT:throw.obj
 0001:00062922       __fullpath                 66063922 f   LIBCMT:fullpath.obj
 0001:00062a2c       ___dtoxmode                66063a2c f   LIBCMT:stat.obj
 0001:00062ae9       ___loctotime64_t           66063ae9 f   LIBCMT:dtoxtm64.obj
 0001:00062d54       __getdrive                 66063d54 f   LIBCMT:drive.obj
 0001:00062e1d       __mbctolower_l             66063e1d f   LIBCMT:mbtolwr.obj
 0001:00062ec3       __mbctolower               66063ec3 f   LIBCMT:mbtolwr.obj
 0001:00062ed6       __mbspbrk_l                66063ed6 f   LIBCMT:mbspbrk.obj
 0001:00062fa3       __mbspbrk                  66063fa3 f   LIBCMT:mbspbrk.obj
 0001:00062fba       __openfile                 66063fba f   LIBCMT:_open.obj
 0001:00063283       __getstream                66064283 f   LIBCMT:stream.obj
 0001:000633c0       __trandisp1                660643c0 f   LIBCMT:_87disp_.obj
 0001:00063427       __trandisp2                66064427 f   LIBCMT:_87disp_.obj
 0001:000634b3       __rttospopde               660644b3     LIBCMT:_87disp_.obj
 0001:000634b8       __rttospop                 660644b8     LIBCMT:_87disp_.obj
 0001:000634ba       __rtnospop                 660644ba     LIBCMT:_87disp_.obj
 0001:000634bc       __rttosnpop                660644bc     LIBCMT:_87disp_.obj
 0001:000634bd       __rtnospopde               660644bd     LIBCMT:_87disp_.obj
 0001:000634c4       __rtzeropop                660644c4     LIBCMT:_87disp_.obj
 0001:000634c6       __rtzeronpop               660644c6     LIBCMT:_87disp_.obj
 0001:000634cb       __rtonepop                 660644cb     LIBCMT:_87disp_.obj
 0001:000634cd       __rtonenpop                660644cd     LIBCMT:_87disp_.obj
 0001:000634d2       __tosnan1                  660644d2     LIBCMT:_87disp_.obj
 0001:000634fd       __nosnan2                  660644fd     LIBCMT:_87disp_.obj
 0001:000634ff       __tosnan2                  660644ff     LIBCMT:_87disp_.obj
 0001:00063527       __nan2                     66064527     LIBCMT:_87disp_.obj
 0001:00063566       __rtindfpop                66064566     LIBCMT:_87disp_.obj
 0001:00063568       __rtindfnpop               66064568     LIBCMT:_87disp_.obj
 0001:00063579       __rttosnpopde              66064579     LIBCMT:_87disp_.obj
 0001:00063583       __rtchsifneg               66064583     LIBCMT:_87disp_.obj
 0001:00063590       __startTwoArgErrorHandling 66064590 f   LIBCMT:_genexcep_.obj
 0001:000635a7       __startOneArgErrorHandling 660645a7 f   LIBCMT:_genexcep_.obj
 0001:000635f0       __twoToTOS                 660645f0 f   LIBCMT:_common_.obj
 0001:00063605       __load_CW                  66064605 f   LIBCMT:_common_.obj
 0001:0006361c       __convertTOStoQNaN         6606461c f   LIBCMT:_common_.obj
 0001:00063635       __fload_withFB             66064635 f   LIBCMT:_common_.obj
 0001:00063678       __checkTOS_withFB          66064678 f   LIBCMT:_common_.obj
 0001:0006368e       __fast_exit                6606468e f   LIBCMT:_common_.obj
 0001:0006369b       __math_exit                6606469b f   LIBCMT:_common_.obj
 0001:000636c5       __check_overflow_exit      660646c5 f   LIBCMT:_common_.obj
 0001:000636d9       __check_range_exit         660646d9 f   LIBCMT:_common_.obj
 0001:0006377c       _strcpy_s                  6606477c f   LIBCMT:strcpy_s.obj
 0001:000637e4       __iswctype_l               660647e4 f   LIBCMT:iswctype.obj
 0001:0006386e       _iswctype                  6606486e f   LIBCMT:iswctype.obj
 0001:000638f0       __aulldiv                  660648f0 f   LIBCMT:ulldiv.obj
 0001:00063958       _strnlen                   66064958 f   LIBCMT:strlen_s.obj
 0001:00063980       __alloca_probe_16          66064980 f   LIBCMT:alloca16.obj
 0001:00063996       __alloca_probe_8           66064996     LIBCMT:alloca16.obj
 0001:000639ac       __wchartodigit             660649ac f   LIBCMT:wchtodig.obj
 0001:00063b87       __sse2_mathfcns_init       66064b87 f   LIBCMT:_mathfcns_.obj
 0001:00063ba0       __CIsin_pentium4           66064ba0 f   LIBCMT:_sin_pentium4_.obj
 0001:00063bb8       __sin_pentium4             66064bb8     LIBCMT:_sin_pentium4_.obj
 0001:00063d70       __CIcos_pentium4           66064d70 f   LIBCMT:_cos_pentium4_.obj
 0001:00063d88       __cos_pentium4             66064d88     LIBCMT:_cos_pentium4_.obj
 0001:00063f1c       __setenvp                  66064f1c f   LIBCMT:stdenvp.obj
 0001:00064194       __setargv                  66065194 f   LIBCMT:stdargv.obj
 0001:0006424f       ___crtGetEnvironmentStringsA 6606524f f   LIBCMT:a_env.obj
 0001:00064386       __RTC_Initialize           66065386 f   LIBCMT:_initsect_.obj
 0001:000643ac       __RTC_Terminate            660653ac f   LIBCMT:_initsect_.obj
 0001:000643d2       __initp_misc_winxfltr      660653d2 f   LIBCMT:winxfltr.obj
 0001:000643d2       __fpclear                  660653d2 f   LIBCMT:_fpinit_.obj
 0001:000643d3       __XcptFilter               660653d3 f   LIBCMT:winxfltr.obj
 0001:00064533       ___CppXcptFilter           66065533 f   LIBCMT:winxfltr.obj
 0001:00064553       ___security_init_cookie    66065553 f   LIBCMT:gs_support.obj
 0001:000647a3       ___crtGetStringTypeA       660657a3 f   LIBCMT:a_str.obj
 0001:000647e5       ___free_lc_time            660657e5 f   LIBCMT:inittime.obj
 0001:0006497a       ___free_lconv_num          6606597a f   LIBCMT:initnum.obj
 0001:000649bf       ___free_lconv_mon          660659bf f   LIBCMT:initmon.obj
 0001:00064a4d       ____lc_codepage_func       66065a4d f   LIBCMT:initctyp.obj
 0001:00064a73       _strcat_s                  66065a73 f   LIBCMT:strcat_s.obj
 0001:00064af0       _strcspn                   66065af0 f   LIBCMT:strcspn.obj
 0001:00064b36       _strncpy_s                 66065b36 f   LIBCMT:strncpy_s.obj
 0001:00064bf0       _strcmp                    66065bf0 f   LIBCMT:strcmp.obj
 0001:00064c78       _strncmp                   66065c78 f   LIBCMT:strncmp.obj
 0001:00064d40       _strpbrk                   66065d40 f   LIBCMT:strpbrk.obj
 0001:00064d80       __crt_debugger_hook        66065d80 f   LIBCMT:dbghook.obj
 0001:00064d88       __putwch_nolock            66065d88 f   LIBCMT:putwch.obj
 0001:00064e4d       __mbtowc_l                 66065e4d f   LIBCMT:mbtowc.obj
 0001:00064f64       _mbtowc                    66065f64 f   LIBCMT:mbtowc.obj
 0001:00064f7e       __isatty                   66065f7e f   LIBCMT:isatty.obj
 0001:00064fe2       __lseeki64_nolock          66065fe2 f   LIBCMT:lseeki64.obj
 0001:00065067       __lseeki64                 66066067 f   LIBCMT:lseeki64.obj
 0001:00065180       __set_osfhnd               66066180 f   LIBCMT:osfinfo.obj
 0001:00065201       __free_osfhnd              66066201 f   LIBCMT:osfinfo.obj
 0001:00065287       __get_osfhandle            66066287 f   LIBCMT:osfinfo.obj
 0001:000652fe       ___lock_fhandle            660662fe f   LIBCMT:osfinfo.obj
 0001:0006539e       __unlock_fhandle           6606639e f   LIBCMT:osfinfo.obj
 0001:000653c5       __alloc_osfhnd             660663c5 f   LIBCMT:osfinfo.obj
 0001:0006555f       __initp_misc_initcrit      6606655f f   LIBCMT:initcrit.obj
 0001:0006556e       ___crtInitCritSecAndSpinCount 6606656e f   LIBCMT:initcrit.obj
 0001:000655ce       __wctomb_s_l               660665ce f   LIBCMT:wctomb.obj
 0001:0006573a       _wctomb_s                  6606673a f   LIBCMT:wctomb.obj
 0001:00065760       __aulldvrm                 66066760 f   LIBCMT:ulldvrm.obj
 0001:000657f5       __getbuf                   660667f5 f   LIBCMT:_getbuf.obj
 0001:0006583e       ___ansicp                  6606683e f   LIBCMT:convrtcp.obj
 0001:00065887       ___convertcp               66066887 f   LIBCMT:convrtcp.obj
 0001:00065a3b       __calloc_impl              66066a3b f   LIBCMT:calloc_impl.obj
 0001:00065b59       __recalloc                 66066b59 f   LIBCMT:recalloc.obj
 0001:00065bd4       ?terminate@@YAXXZ          66066bd4 f   LIBCMT:hooks.obj
 0001:00065c0d       __initp_eh_hooks           66066c0d f   LIBCMT:hooks.obj
 0001:00065c1e       __initp_misc_winsig        66066c1e f   LIBCMT:winsig.obj
 0001:00065c73       ___get_sigabrt             66066c73 f   LIBCMT:winsig.obj
 0001:00065c80       _raise                     66066c80 f   LIBCMT:winsig.obj
 0001:00065e30       __initp_misc_rand_s        66066e30 f   LIBCMT:rand_s.obj
 0001:00065e3f       __initp_misc_purevirt      66066e3f f   LIBCMT:inithelp.obj
 0001:00065e4e       __atodbl_l                 66066e4e f   LIBCMT:atodbl.obj
 0001:00065ef6       __atoflt_l                 66066ef6 f   LIBCMT:atodbl.obj
 0001:00065f9e       __fptostr                  66066f9e f   LIBCMT:_fptostr.obj
 0001:0006605d       ___dtold                   6606705d f   LIBCMT:_cfout_.obj
 0001:0006611a       __fltout2                  6606711a f   LIBCMT:_cfout_.obj
 0001:000661b0       __alldvrm                  660671b0 f   LIBCMT:lldvrm.obj
 0001:00066290       __aullshr                  66067290 f   LIBCMT:ullshr.obj
 0001:000662af       __fptrap                   660672af f   LIBCMT:crt0fp.obj
 0001:000662b8       __controlfp_s              660672b8 f   LIBCMT:_contrlfp_.obj
 0001:00066324       __global_unwind2           66067324 f   LIBCMT:exsup.obj
 0001:00066389       __local_unwind2            66067389 f   LIBCMT:exsup.obj
 0001:0006640d       __abnormal_termination     6606740d f   LIBCMT:exsup.obj
 0001:00066430       __NLG_Notify1              66067430 f   LIBCMT:exsup.obj
 0001:00066439       __NLG_Notify               66067439 f   LIBCMT:exsup.obj
 0001:00066450       __NLG_Dispatch             66067450     LIBCMT:exsup.obj
 0001:00066450       __NLG_Dispatch2            66067450     LIBCMT:exsup.obj
 0001:00066458       __NLG_Call                 66067458 f   LIBCMT:exsup.obj
 0001:0006645a       __NLG_Return2              6606745a     LIBCMT:exsup.obj
 0001:0006645b       ___crtMessageBoxA          6606745b f   LIBCMT:crtmbox.obj
 0001:000665c4       __set_error_mode           660675c4 f   LIBCMT:errmode.obj
 0001:0006660f       ?_Type_info_dtor@type_info@@CAXPAV1@@Z 6606760f f   LIBCMT:typname.obj
 0001:0006667f       __msize                    6606767f f   LIBCMT:msize.obj
 0001:00066722       __validdrive               66067722 f   LIBCMT:getcwd.obj
 0001:0006675b       __getdcwd_nolock           6606775b f   LIBCMT:getcwd.obj
 0001:00066892       __getcwd                   66067892 f   LIBCMT:getcwd.obj
 0001:000668db       _calloc                    660678db f   LIBCMT:calloc.obj
 0001:0006691b       __mbsicmp_l                6606791b f   LIBCMT:mbsicmp.obj
 0001:00066b41       __mbsicmp                  66067b41 f   LIBCMT:mbsicmp.obj
 0001:00066b58       __mbsrchr_l                66067b58 f   LIBCMT:mbsrchr.obj
 0001:00066c14       __mbsrchr                  66067c14 f   LIBCMT:mbsrchr.obj
 0001:00066c2b       __set_daylight             66067c2b f i LIBCMT:tzset.obj
 0001:00066c3c       __set_dstbias              66067c3c f i LIBCMT:tzset.obj
 0001:00066c4d       __set_timezone             66067c4d f i LIBCMT:tzset.obj
 0001:00067373       ___tzset                   66068373 f   LIBCMT:tzset.obj
 0001:000673c2       __isindst                  660683c2 f   LIBCMT:tzset.obj
 0001:00067403       __get_daylight             66068403 f   LIBCMT:timeset.obj
 0001:0006743c       __get_dstbias              6606843c f   LIBCMT:timeset.obj
 0001:00067475       __get_timezone             66068475 f   LIBCMT:timeset.obj
 0001:000674ae       ___daylight                660684ae f   LIBCMT:timeset.obj
 0001:000674b4       ___dstbias                 660684b4 f   LIBCMT:timeset.obj
 0001:000674ba       ___timezone                660684ba f   LIBCMT:timeset.obj
 0001:000674c0       ___tzname                  660684c0 f   LIBCMT:timeset.obj
 0001:000674d0       __allmul                   660684d0 f   LIBCMT:llmul.obj
 0001:00067c23       __sopen_helper             66068c23 f   LIBCMT:open.obj
 0001:00067cef       __sopen_s                  66068cef f   LIBCMT:open.obj
 0001:00067d0f       __mbsnbicmp_l              66068d0f f   LIBCMT:mbsnbicm.obj
 0001:00067f3a       __mbsnbicmp                66068f3a f   LIBCMT:mbsnbicm.obj
 0001:00067f54       __mbsnbcmp_l               66068f54 f   LIBCMT:mbsnbcmp.obj
 0001:000680be       __mbsnbcmp                 660690be f   LIBCMT:mbsnbcmp.obj
 0001:000680d8       __87except                 660690d8 f   LIBCMT:_87except_.obj
 0001:00068217       ___crtGetStringTypeW       66069217 f   LIBCMT:w_str.obj
 0001:000682a8       __ismbblead                660692a8 f   LIBCMT:ismbbyte.obj
 0001:000682c0       _atol                      660692c0 f   LIBCMT:atox.obj
 0001:000682d6       __strnicmp_l               660692d6 f   LIBCMT:strnicmp.obj
 0001:000683c8       __strnicmp                 660693c8 f   LIBCMT:strnicmp.obj
 0001:00068426       ___initconout              66069426 f   LIBCMT:initcon.obj
 0001:00068445       ___termcon                 66069445 f   LIBCMT:initcon.obj
 0001:00068472       _abort                     66069472 f   LIBCMT:abort.obj
 0001:00068589       __ld12tod                  66069589 f   LIBCMT:_intrncvt_.obj
 0001:00068acd       __ld12tof                  66069acd f   LIBCMT:_intrncvt_.obj
 0001:00069011       ___strgtold12_l            6606a011 f   LIBCMT:_strgtold_.obj
 0001:00069709       _$I10_OUTPUT               6606a709 f   LIBCMT:_x10fout_.obj
 0001:0006a15b       __control87                6606b15b f i LIBCMT:_ieee87_.obj
 0001:0006a46a       __getenv_helper_nolock     6606b46a f   LIBCMT:getenv.obj
 0001:0006a4f1       __chsize_nolock            6606b4f1 f   LIBCMT:chsize.obj
 0001:0006a6a7       __setmode_nolock           6606b6a7 f   LIBCMT:setmode.obj
 0001:0006a763       __get_fmode                6606b763 f   LIBCMT:setmode.obj
 0001:0006a79c       __raise_exc_ex             6606b79c f   LIBCMT:_fpexcept_.obj
 0001:0006aa78       __raise_exc                6606ba78 f   LIBCMT:_fpexcept_.obj
 0001:0006aa9b       __handle_exc               6606ba9b f   LIBCMT:_fpexcept_.obj
 0001:0006ac7d       __set_errno_from_matherr   6606bc7d f   LIBCMT:_fpexcept_.obj
 0001:0006acaa       __matherr                  6606bcaa f   LIBCMT:_matherr_.obj
 0001:0006acad       __statfp                   6606bcad f   LIBCMT:_fpctrl_.obj
 0001:0006acbd       __clrfp                    6606bcbd f   LIBCMT:_fpctrl_.obj
 0001:0006acce       __ctrlfp                   6606bcce f   LIBCMT:_fpctrl_.obj
 0001:0006acf7       __set_statfp               6606bcf7 f   LIBCMT:_fpctrl_.obj
 0001:0006ad4f       ___set_fpsr_sse2           6606bd4f f   LIBCMT:_fpctrl_.obj
 0001:0006add0       ___ascii_strnicmp          6606bdd0 f   LIBCMT:_strnicm.obj
 0001:0006ae31       ___mtold12                 6606be31 f   LIBCMT:_mantold_.obj
 0001:0006afff       __mbsnbicoll_l             6606bfff f   LIBCMT:mbsnbico.obj
 0001:0006b0ed       __mbsnbicoll               6606c0ed f   LIBCMT:mbsnbico.obj
 0001:0006b107       ___wtomb_environ           6606c107 f   LIBCMT:wtombenv.obj
 0001:0006b19e       __set_exp                  6606c19e f   LIBCMT:_util_.obj
 0001:0006b1ca       __decomp                   6606c1ca f   LIBCMT:_util_.obj
 0001:0006b611       ___crtCompareStringA       6606c611 f   LIBCMT:a_cmp.obj
 0001:0006b653       __strnicoll_l              6606c653 f   LIBCMT:strnicol.obj
 0001:0006b7f9       ___crtsetenv               6606c7f9 f   LIBCMT:setenv.obj
 0001:0006ba44       __mbschr_l                 6606ca44 f   LIBCMT:mbschr.obj
 0001:0006bb00       __mbschr                   6606cb00 f   LIBCMT:mbschr.obj
 0001:0006bb18       _ImmAssociateContext@8     6606cb18 f   imm32:IMM32.dll
 0001:0006bb1e       _RtlUnwind@16              6606cb1e f   kernel32:KERNEL32.dll
 0002:00000000       __imp__ImmAssociateContext@8 6606d000     imm32:IMM32.dll
 0002:00000004       \177IMM32_NULL_THUNK_DATA  6606d004     imm32:IMM32.dll
 0002:00000008       __imp__IsBadReadPtr@8      6606d008     kernel32:KERNEL32.dll
 0002:0000000c       __imp__MultiByteToWideChar@24 6606d00c     kernel32:KERNEL32.dll
 0002:00000010       __imp__QueryPerformanceFrequency@4 6606d010     kernel32:KERNEL32.dll
 0002:00000014       __imp__HeapCreate@12       6606d014     kernel32:KERNEL32.dll
 0002:00000018       __imp__HeapDestroy@4       6606d018     kernel32:KERNEL32.dll
 0002:0000001c       __imp__QueryPerformanceCounter@4 6606d01c     kernel32:KERNEL32.dll
 0002:00000020       __imp__GetCommandLineA@0   6606d020     kernel32:KERNEL32.dll
 0002:00000024       __imp__GetModuleFileNameA@12 6606d024     kernel32:KERNEL32.dll
 0002:00000028       __imp__DeleteFileA@4       6606d028     kernel32:KERNEL32.dll
 0002:0000002c       __imp__HeapFree@12         6606d02c     kernel32:KERNEL32.dll
 0002:00000030       __imp__WideCharToMultiByte@32 6606d030     kernel32:KERNEL32.dll
 0002:00000034       __imp__DisableThreadLibraryCalls@4 6606d034     kernel32:KERNEL32.dll
 0002:00000038       __imp__LoadLibraryA@4      6606d038     kernel32:KERNEL32.dll
 0002:0000003c       __imp__GetModuleHandleA@4  6606d03c     kernel32:KERNEL32.dll
 0002:00000040       __imp__VirtualProtect@16   6606d040     kernel32:KERNEL32.dll
 0002:00000044       __imp__WriteProcessMemory@20 6606d044     kernel32:KERNEL32.dll
 0002:00000048       __imp__GetCurrentProcess@0 6606d048     kernel32:KERNEL32.dll
 0002:0000004c       __imp__GetProcAddress@8    6606d04c     kernel32:KERNEL32.dll
 0002:00000050       __imp__IsBadWritePtr@8     6606d050     kernel32:KERNEL32.dll
 0002:00000054       __imp__LCMapStringA@24     6606d054     kernel32:KERNEL32.dll
 0002:00000058       __imp__GetProcessTimes@20  6606d058     kernel32:KERNEL32.dll
 0002:0000005c       __imp__GetSystemTimeAsFileTime@4 6606d05c     kernel32:KERNEL32.dll
 0002:00000060       __imp__IsBadCodePtr@4      6606d060     kernel32:KERNEL32.dll
 0002:00000064       __imp__Sleep@4             6606d064     kernel32:KERNEL32.dll
 0002:00000068       __imp__GetTickCount@0      6606d068     kernel32:KERNEL32.dll
 0002:0000006c       __imp__GetLocalTime@4      6606d06c     kernel32:KERNEL32.dll
 0002:00000070       __imp__CreateFileA@28      6606d070     kernel32:KERNEL32.dll
 0002:00000074       __imp__WriteFile@20        6606d074     kernel32:KERNEL32.dll
 0002:00000078       __imp__SetFilePointer@16   6606d078     kernel32:KERNEL32.dll
 0002:0000007c       __imp__CloseHandle@4       6606d07c     kernel32:KERNEL32.dll
 0002:00000080       __imp__GetFileSize@8       6606d080     kernel32:KERNEL32.dll
 0002:00000084       __imp__GetCurrentProcessId@0 6606d084     kernel32:KERNEL32.dll
 0002:00000088       __imp__GlobalFree@4        6606d088     kernel32:KERNEL32.dll
 0002:0000008c       __imp__GlobalUnlock@4      6606d08c     kernel32:KERNEL32.dll
 0002:00000090       __imp__GlobalLock@4        6606d090     kernel32:KERNEL32.dll
 0002:00000094       __imp__HeapAlloc@12        6606d094     kernel32:KERNEL32.dll
 0002:00000098       __imp__CreateDirectoryA@8  6606d098     kernel32:KERNEL32.dll
 0002:0000009c       __imp__GetFileAttributesA@4 6606d09c     kernel32:KERNEL32.dll
 0002:000000a0       __imp__CompareStringW@24   6606d0a0     kernel32:KERNEL32.dll
 0002:000000a4       __imp__CompareStringA@24   6606d0a4     kernel32:KERNEL32.dll
 0002:000000a8       __imp__GetProcessHeap@0    6606d0a8     kernel32:KERNEL32.dll
 0002:000000ac       __imp__SetEndOfFile@4      6606d0ac     kernel32:KERNEL32.dll
 0002:000000b0       __imp__GetTimeZoneInformation@4 6606d0b0     kernel32:KERNEL32.dll
 0002:000000b4       __imp__HeapSize@12         6606d0b4     kernel32:KERNEL32.dll
 0002:000000b8       __imp__InitializeCriticalSectionAndSpinCount@8 6606d0b8     kernel32:KERNEL32.dll
 0002:000000bc       __imp__SetStdHandle@8      6606d0bc     kernel32:KERNEL32.dll
 0002:000000c0       __imp__WriteConsoleW@20    6606d0c0     kernel32:KERNEL32.dll
 0002:000000c4       __imp__GetConsoleOutputCP@0 6606d0c4     kernel32:KERNEL32.dll
 0002:000000c8       __imp__WriteConsoleA@20    6606d0c8     kernel32:KERNEL32.dll
 0002:000000cc       __imp__GetLocaleInfoA@16   6606d0cc     kernel32:KERNEL32.dll
 0002:000000d0       __imp__GetStringTypeW@16   6606d0d0     kernel32:KERNEL32.dll
 0002:000000d4       __imp__GetStringTypeA@20   6606d0d4     kernel32:KERNEL32.dll
 0002:000000d8       __imp__GetEnvironmentStringsW@0 6606d0d8     kernel32:KERNEL32.dll
 0002:000000dc       __imp__FreeEnvironmentStringsW@4 6606d0dc     kernel32:KERNEL32.dll
 0002:000000e0       __imp__GetEnvironmentStrings@0 6606d0e0     kernel32:KERNEL32.dll
 0002:000000e4       __imp__FreeEnvironmentStringsA@4 6606d0e4     kernel32:KERNEL32.dll
 0002:000000e8       __imp__GetCurrentDirectoryA@8 6606d0e8     kernel32:KERNEL32.dll
 0002:000000ec       __imp__GetFullPathNameA@16 6606d0ec     kernel32:KERNEL32.dll
 0002:000000f0       __imp__RaiseException@16   6606d0f0     kernel32:KERNEL32.dll
 0002:000000f4       __imp__ReadFile@20         6606d0f4     kernel32:KERNEL32.dll
 0002:000000f8       __imp__RtlUnwind@16        6606d0f8     kernel32:KERNEL32.dll
 0002:000000fc       __imp__GlobalAlloc@8       6606d0fc     kernel32:KERNEL32.dll
 0002:00000100       __imp__HeapReAlloc@16      6606d100     kernel32:KERNEL32.dll
 0002:00000104       __imp__GetLastError@0      6606d104     kernel32:KERNEL32.dll
 0002:00000108       __imp__EnterCriticalSection@4 6606d108     kernel32:KERNEL32.dll
 0002:0000010c       __imp__LeaveCriticalSection@4 6606d10c     kernel32:KERNEL32.dll
 0002:00000110       __imp__FindClose@4         6606d110     kernel32:KERNEL32.dll
 0002:00000114       __imp__FileTimeToSystemTime@8 6606d114     kernel32:KERNEL32.dll
 0002:00000118       __imp__FileTimeToLocalFileTime@8 6606d118     kernel32:KERNEL32.dll
 0002:0000011c       __imp__GetDriveTypeA@4     6606d11c     kernel32:KERNEL32.dll
 0002:00000120       __imp__FindFirstFileA@8    6606d120     kernel32:KERNEL32.dll
 0002:00000124       __imp__MoveFileA@8         6606d124     kernel32:KERNEL32.dll
 0002:00000128       __imp__GetCurrentThreadId@0 6606d128     kernel32:KERNEL32.dll
 0002:0000012c       __imp__GetCPInfo@8         6606d12c     kernel32:KERNEL32.dll
 0002:00000130       __imp__InterlockedIncrement@4 6606d130     kernel32:KERNEL32.dll
 0002:00000134       __imp__InterlockedDecrement@4 6606d134     kernel32:KERNEL32.dll
 0002:00000138       __imp__GetACP@0            6606d138     kernel32:KERNEL32.dll
 0002:0000013c       __imp__GetOEMCP@0          6606d13c     kernel32:KERNEL32.dll
 0002:00000140       __imp__IsValidCodePage@4   6606d140     kernel32:KERNEL32.dll
 0002:00000144       __imp__GetModuleHandleW@4  6606d144     kernel32:KERNEL32.dll
 0002:00000148       __imp__TlsGetValue@4       6606d148     kernel32:KERNEL32.dll
 0002:0000014c       __imp__TlsAlloc@0          6606d14c     kernel32:KERNEL32.dll
 0002:00000150       __imp__TlsSetValue@8       6606d150     kernel32:KERNEL32.dll
 0002:00000154       __imp__TlsFree@4           6606d154     kernel32:KERNEL32.dll
 0002:00000158       __imp__SetLastError@4      6606d158     kernel32:KERNEL32.dll
 0002:0000015c       __imp__TerminateProcess@8  6606d15c     kernel32:KERNEL32.dll
 0002:00000160       __imp__UnhandledExceptionFilter@4 6606d160     kernel32:KERNEL32.dll
 0002:00000164       __imp__SetUnhandledExceptionFilter@4 6606d164     kernel32:KERNEL32.dll
 0002:00000168       __imp__IsDebuggerPresent@0 6606d168     kernel32:KERNEL32.dll
 0002:0000016c       __imp__GetConsoleCP@0      6606d16c     kernel32:KERNEL32.dll
 0002:00000170       __imp__GetConsoleMode@8    6606d170     kernel32:KERNEL32.dll
 0002:00000174       __imp__FlushFileBuffers@4  6606d174     kernel32:KERNEL32.dll
 0002:00000178       __imp__DeleteCriticalSection@4 6606d178     kernel32:KERNEL32.dll
 0002:0000017c       __imp__SetHandleCount@4    6606d17c     kernel32:KERNEL32.dll
 0002:00000180       __imp__GetStdHandle@4      6606d180     kernel32:KERNEL32.dll
 0002:00000184       __imp__GetFileType@4       6606d184     kernel32:KERNEL32.dll
 0002:00000188       __imp__GetStartupInfoA@4   6606d188     kernel32:KERNEL32.dll
 0002:0000018c       __imp__VirtualFree@12      6606d18c     kernel32:KERNEL32.dll
 0002:00000190       __imp__VirtualAlloc@16     6606d190     kernel32:KERNEL32.dll
 0002:00000194       __imp__LCMapStringW@24     6606d194     kernel32:KERNEL32.dll
 0002:00000198       __imp__ExitProcess@4       6606d198     kernel32:KERNEL32.dll
 0002:0000019c       __imp__SetEnvironmentVariableA@8 6606d19c     kernel32:KERNEL32.dll
 0002:000001a0       \177KERNEL32_NULL_THUNK_DATA 6606d1a0     kernel32:KERNEL32.dll
 0002:000001a4       __imp__GetWindowRect@8     6606d1a4     user32:USER32.dll
 0002:000001a8       __imp__AdjustWindowRectEx@16 6606d1a8     user32:USER32.dll
 0002:000001ac       __imp__SetWindowPos@28     6606d1ac     user32:USER32.dll
 0002:000001b0       __imp__GetClassNameA@12    6606d1b0     user32:USER32.dll
 0002:000001b4       __imp__OpenClipboard@4     6606d1b4     user32:USER32.dll
 0002:000001b8       __imp__EmptyClipboard@0    6606d1b8     user32:USER32.dll
 0002:000001bc       __imp__SetClipboardData@8  6606d1bc     user32:USER32.dll
 0002:000001c0       __imp__CloseClipboard@0    6606d1c0     user32:USER32.dll
 0002:000001c4       __imp__SetCursorPos@8      6606d1c4     user32:USER32.dll
 0002:000001c8       __imp__GetKeyState@4       6606d1c8     user32:USER32.dll
 0002:000001cc       __imp__PostMessageA@16     6606d1cc     user32:USER32.dll
 0002:000001d0       __imp__SetWindowTextA@8    6606d1d0     user32:USER32.dll
 0002:000001d4       __imp__GetWindowLongA@8    6606d1d4     user32:USER32.dll
 0002:000001d8       __imp__SetWindowLongA@12   6606d1d8     user32:USER32.dll
 0002:000001dc       __imp__ShowWindow@8        6606d1dc     user32:USER32.dll
 0002:000001e0       __imp__GetWindowPlacement@8 6606d1e0     user32:USER32.dll
 0002:000001e4       __imp__GetClipCursor@4     6606d1e4     user32:USER32.dll
 0002:000001e8       __imp__GetClientRect@8     6606d1e8     user32:USER32.dll
 0002:000001ec       __imp__ClientToScreen@8    6606d1ec     user32:USER32.dll
 0002:000001f0       __imp__ClipCursor@4        6606d1f0     user32:USER32.dll
 0002:000001f4       __imp__GetDesktopWindow@0  6606d1f4     user32:USER32.dll
 0002:000001f8       __imp__GetWindowInfo@8     6606d1f8     user32:USER32.dll
 0002:000001fc       __imp__SendMessageA@16     6606d1fc     user32:USER32.dll
 0002:00000200       __imp__wvsprintfW@12       6606d200     user32:USER32.dll
 0002:00000204       __imp__wvsprintfA@12       6606d204     user32:USER32.dll
 0002:00000208       __imp__MessageBoxA@16      6606d208     user32:USER32.dll
 0002:0000020c       __imp__wsprintfW           6606d20c     user32:USER32.dll
 0002:00000210       __imp__SetForegroundWindow@4 6606d210     user32:USER32.dll
 0002:00000214       \177USER32_NULL_THUNK_DATA 6606d214     user32:USER32.dll
 0002:00000218       ___xc_a                    6606d218     LIBCMT:crt0init.obj
 0002:0000021c       ___xc_z                    6606d21c     LIBCMT:crt0init.obj
 0002:00000220       ___xi_a                    6606d220     LIBCMT:crt0init.obj
 0002:00000238       ___xi_z                    6606d238     LIBCMT:crt0init.obj
 0002:0000023c       ___xp_a                    6606d23c     LIBCMT:crt0init.obj
 0002:00000248       ___xp_z                    6606d248     LIBCMT:crt0init.obj
 0002:0000024c       ___xt_a                    6606d24c     LIBCMT:crt0init.obj
 0002:00000250       ___xt_z                    6606d250     LIBCMT:crt0init.obj
 0002:00000f18       __real@408f400000000000    6606df18     config.obj
 0002:00001168       __real@4014000000000000    6606e168     guess.obj
 0002:00001170       __real@4052c00000000000    6606e170     guess.obj
 0002:00001178       __real@4039000000000000    6606e178     guess.obj
 0002:00001180       __real@3fe0000000000000    6606e180     guess.obj
 0002:00001188       __real@4008000000000000    6606e188     guess.obj
 0002:00001190       __real@4040000000000000    6606e190     guess.obj
 0002:00001198       __real@4059000000000000    6606e198     guess.obj
 0002:000011a0       __real@4010000000000000    6606e1a0     guess.obj
 0002:00008f60       __real@4022000000000000    66075f60     common.obj
 0002:00008f68       __real@4070000000000000    66075f68     common.obj
 0002:00008f70       __real@3fd999999999999a    66075f70     common.obj
 0002:0000c708       __real@4024000000000000    66079708     GameMonitor.obj
 0002:0000dae8       __real@3ff8000000000000    6607aae8     item.obj
 0002:0000e420       __real@4028000000000000    6607b420     dangerous.obj
 0002:0000e428       __real@4020000000000000    6607b428     dangerous.obj
 0002:00011a3c       __real@41200000            6607ea3c     skill.obj
 0002:00011a40       __real@41e80000            6607ea40     skill.obj
 0002:00011a44       __real@41d00000            6607ea44     skill.obj
 0002:00011a48       __real@41c00000            6607ea48     skill.obj
 0002:00011a4c       __real@41f00000            6607ea4c     skill.obj
 0002:00011a50       __real@41f80000            6607ea50     skill.obj
 0002:00011a54       __real@41000000            6607ea54     skill.obj
 0002:00011a58       __real@41a00000            6607ea58     skill.obj
 0002:00011a5c       __real@41980000            6607ea5c     skill.obj
 0002:00011a60       __real@40a00000            6607ea60     skill.obj
 0002:00011a68       __real@0000000000000000    6607ea68     skill.obj
 0002:00011a70       __real@42040000            6607ea70     skill.obj
 0002:00013168       __real@40c3880000000000    66080168     Snapshot.obj
 0002:00013170       __real@4054400000000000    66080170     Snapshot.obj
 0002:00013178       __real@40a0000000000000    66080178     Snapshot.obj
 0002:00013540       __real@401c000000000000    66080540     teleport.obj
 0002:00013548       __real@412e848000000000    66080548     teleport.obj
 0002:00014a08       __real@40f0000000000000    66081a08     uber.obj
 0002:00014a10       __real@401921fb3fa6defc    66081a10     uber.obj
 0002:00014a38       __FPinit                   66081a38     LIBCMT:_fpinit_.obj
 0002:00014a3c       __FPmtinit                 66081a3c     LIBCMT:_fpinit_.obj
 0002:00014a40       __FPmtterm                 66081a40     LIBCMT:_fpinit_.obj
 0002:00014a44       ??_C@_0P@GHFPNOJB@bad?5allocation?$AA@ 66081a44     LIBCMT:new.obj
 0002:00014a58       ??_7bad_alloc@std@@6B@     66081a58     LIBCMT:new.obj
 0002:00014a60       ??_C@_03LLEJOLGL@?4?1?2?$AA@ 66081a60     LIBCMT:stati32.obj
 0002:00014a64       ??_C@_02EAOCEIGI@?$DP?$CK?$AA@ 66081a64     LIBCMT:stati32.obj
 0002:00014a68       __pRawDllMain              66081a68     LIBCMT:dllcrt0.obj
 0002:00014a68       __pDefaultRawDllMain       66081a68     LIBCMT:dllcrt0.obj
 0002:00014af0       ??_C@_01NEMOKFLO@?$DN?$AA@ 66081af0     LIBCMT:setlocal.obj
 0002:00014af2       ??_C@_00CNPNBAHC@?$AA@     66081af2     LIBCMT:setlocal.obj
 0002:00014af4       ??_C@_0O@NLDKAIKN@EncodePointer?$AA@ 66081af4     LIBCMT:tidtable.obj
 0002:00014b04       ??_C@_1BK@DBDEIDLH@?$AAK?$AAE?$AAR?$AAN?$AAE?$AAL?$AA3?$AA2?$AA?4?$AAD?$AAL?$AAL?$AA?$AA@ 66081b04     LIBCMT:tidtable.obj
 0002:00014b20       ??_C@_0O@KBPMFGHI@DecodePointer?$AA@ 66081b20     LIBCMT:tidtable.obj
 0002:00014b30       ??_C@_07PEJMOBNF@FlsFree?$AA@ 66081b30     LIBCMT:tidtable.obj
 0002:00014b38       ??_C@_0M@JCPCPOEF@FlsSetValue?$AA@ 66081b38     LIBCMT:tidtable.obj
 0002:00014b44       ??_C@_0M@GDNOONDI@FlsGetValue?$AA@ 66081b44     LIBCMT:tidtable.obj
 0002:00014b50       ??_C@_08KNHFBNJ@FlsAlloc?$AA@ 66081b50     LIBCMT:tidtable.obj
 0002:00014b5c       ??_C@_1O@CEDCILHN@?$AA?$CI?$AAn?$AAu?$AAl?$AAl?$AA?$CJ?$AA?$AA@ 66081b5c     LIBCMT:output.obj
 0002:00014b6c       ??_C@_06OJHGLDPL@?$CInull?$CJ?$AA@ 66081b6c     LIBCMT:output.obj
 0002:00014b78       ___lookuptable             66081b78     LIBCMT:output.obj
 0002:00014bdc       ??_C@_13NOLLCAOD@?$AA?$AA?$AA?$AA@ 66081bdc     LIBCMT:a_map.obj
 0002:00014be0       ??_C@_0P@MIGLKIOC@CorExitProcess?$AA@ 66081be0     LIBCMT:crt0dat.obj
 0002:00014bf0       ??_C@_1BI@BGOHAHKC@?$AAm?$AAs?$AAc?$AAo?$AAr?$AAe?$AAe?$AA?4?$AAd?$AAl?$AAl?$AA?$AA@ 66081bf0     LIBCMT:crt0dat.obj
 0002:00014c08       ??_C@_05KLBDPFGC@e?$CL000?$AA@ 66081c08     LIBCMT:cvt.obj
 0002:00014c10       __real@4150017ec0000000    66081c10     LIBCMT:_testfdiv_.obj
 0002:00014c18       __real@4147ffff80000000    66081c18     LIBCMT:_testfdiv_.obj
 0002:00014c20       ??_C@_0BK@NHEOCAHP@IsProcessorFeaturePresent?$AA@ 66081c20     LIBCMT:_testfdiv_.obj
 0002:00014c3c       ??_C@_08CPNIBGIE@KERNEL32?$AA@ 66081c3c     LIBCMT:_testfdiv_.obj
 0002:00014c48       ??_C@_0P@GGKDKEEG@runtime?5error?5?$AA@ 66081c48     LIBCMT:crt0msg.obj
 0002:00014c58       ??_C@_02PCIJFNDE@?$AN?6?$AA@ 66081c58     LIBCMT:crt0msg.obj
 0002:00014c5c       ??_C@_0O@MJNIPGOH@TLOSS?5error?$AN?6?$AA@ 66081c5c     LIBCMT:crt0msg.obj
 0002:00014c6c       ??_C@_0N@BONNPDHF@SING?5error?$AN?6?$AA@ 66081c6c     LIBCMT:crt0msg.obj
 0002:00014c7c       ??_C@_0P@MBDAJNE@DOMAIN?5error?$AN?6?$AA@ 66081c7c     LIBCMT:crt0msg.obj
 0002:00014c90       ??_C@_0JL@DFDOOABL@R6034?$AN?6An?5application?5has?5made?5a@ 66081c90     LIBCMT:crt0msg.obj
 0002:00014d30       ??_C@_0PH@EPAFIJ@R6033?$AN?6?9?5Attempt?5to?5use?5MSIL?5cod@ 66081d30     LIBCMT:crt0msg.obj
 0002:00014e28       ??_C@_0DD@BKEEABMM@R6032?$AN?6?9?5not?5enough?5space?5for?5lo@ 66081e28     LIBCMT:crt0msg.obj
 0002:00014e60       ??_C@_0GD@OFKILIED@R6031?$AN?6?9?5Attempt?5to?5initialize?5t@ 66081e60     LIBCMT:crt0msg.obj
 0002:00014ec4       ??_C@_0BP@LPMHJOKI@R6030?$AN?6?9?5CRT?5not?5initialized?$AN?6?$AA@ 66081ec4     LIBCMT:crt0msg.obj
 0002:00014ee4       ??_C@_0CF@KJDAIALP@R6028?$AN?6?9?5unable?5to?5initialize?5he@ 66081ee4     LIBCMT:crt0msg.obj
 0002:00014f0c       ??_C@_0DF@GAKBPDFP@R6027?$AN?6?9?5not?5enough?5space?5for?5lo@ 66081f0c     LIBCMT:crt0msg.obj
 0002:00014f44       ??_C@_0DF@IBLNNAIG@R6026?$AN?6?9?5not?5enough?5space?5for?5st@ 66081f44     LIBCMT:crt0msg.obj
 0002:00014f7c       ??_C@_0CG@IOHKGFNJ@R6025?$AN?6?9?5pure?5virtual?5function?5c@ 66081f7c     LIBCMT:crt0msg.obj
 0002:00014fa4       ??_C@_0DF@JIJJFJDC@R6024?$AN?6?9?5not?5enough?5space?5for?5_o@ 66081fa4     LIBCMT:crt0msg.obj
 0002:00014fdc       ??_C@_0CJ@EGEJHFME@R6019?$AN?6?9?5unable?5to?5open?5console?5@ 66081fdc     LIBCMT:crt0msg.obj
 0002:00015008       ??_C@_0CB@GNHNIELH@R6018?$AN?6?9?5unexpected?5heap?5error?$AN?6@ 66082008     LIBCMT:crt0msg.obj
 0002:0001502c       ??_C@_0CN@FOLDKNG@R6017?$AN?6?9?5unexpected?5multithread?5@ 6608202c     LIBCMT:crt0msg.obj
 0002:0001505c       ??_C@_0CM@FAHFJNHO@R6016?$AN?6?9?5not?5enough?5space?5for?5th@ 6608205c     LIBCMT:crt0msg.obj
 0002:00015088       ??_C@_0JG@LBKMGKLD@?$AN?6This?5application?5has?5requested@ 66082088     LIBCMT:crt0msg.obj
 0002:00015120       ??_C@_0CM@FLCNIPKK@R6009?$AN?6?9?5not?5enough?5space?5for?5en@ 66082120     LIBCMT:crt0msg.obj
 0002:0001514c       ??_C@_0CK@KMMJOAPP@R6008?$AN?6?9?5not?5enough?5space?5for?5ar@ 6608214c     LIBCMT:crt0msg.obj
 0002:00015178       ??_C@_0CN@LEKKICBM@R6002?$AN?6?9?5floating?5point?5support?5@ 66082178     LIBCMT:crt0msg.obj
 0002:000151a8       ??_C@_0CF@GOGNBNAK@Microsoft?5Visual?5C?$CL?$CL?5Runtime?5Lib@ 660821a8     LIBCMT:crt0msg.obj
 0002:000151d0       ??_C@_02PHMGELLB@?6?6?$AA@ 660821d0     LIBCMT:crt0msg.obj
 0002:000151d4       ??_C@_03KHICJKCI@?4?4?4?$AA@ 660821d4     LIBCMT:crt0msg.obj
 0002:000151d8       ??_C@_0BH@DNAGHKFM@?$DMprogram?5name?5unknown?$DO?$AA@ 660821d8     LIBCMT:crt0msg.obj
 0002:000151f0       ??_C@_0BK@OFGJDLJJ@Runtime?5Error?$CB?6?6Program?3?5?$AA@ 660821f0     LIBCMT:crt0msg.obj
 0002:00015210       ??_7exception@std@@6B@     66082210     LIBCMT:stdexcpt.obj
 0002:00015218       ??_C@_0BC@EOODALEL@Unknown?5exception?$AA@ 66082218     LIBCMT:stdexcpt.obj
 0002:00015230       ??_7type_info@@6B@         66082230     LIBCMT:typinfo.obj
 0002:00015254       ??_C@_04PNGHFIJN@?4com?$AA@ 66082254     LIBCMT:stat.obj
 0002:0001525c       ??_C@_04NEEFLLOK@?4bat?$AA@ 6608225c     LIBCMT:stat.obj
 0002:00015264       ??_C@_04CPCBDHLK@?4cmd?$AA@ 66082264     LIBCMT:stat.obj
 0002:0001526c       ??_C@_04JLMDILM@?4exe?$AA@ 6608226c     LIBCMT:stat.obj
 0002:000152a8       __DEFAULT_CW_in_mem        660822a8     LIBCMT:_common_.obj
 0002:000152aa       __pi_by_2_to_61            660822aa     LIBCMT:_common_.obj
 0002:00016440       __XcptActTab               66083440     LIBCMT:winxfltr.obj
 0002:000164b8       ___newctype                660834b8     LIBCMT:ctype.obj
 0002:000167b8       __wctype                   660837b8     LIBCMT:ctype.obj
 0002:000169c0       ___newclmap                660839c0     LIBCMT:ctype.obj
 0002:00016b40       ___newcumap                66083b40     LIBCMT:ctype.obj
 0002:00016cc0       ??_C@_08JCCMCCIL@HH?3mm?3ss?$AA@ 66083cc0     LIBCMT:strftime.obj
 0002:00016ccc       ??_C@_0BE@CKGJFCPC@dddd?0?5MMMM?5dd?0?5yyyy?$AA@ 66083ccc     LIBCMT:strftime.obj
 0002:00016ce0       ??_C@_08BPBNCDIB@MM?1dd?1yy?$AA@ 66083ce0     LIBCMT:strftime.obj
 0002:00016cec       ??_C@_02CJNFDJBF@PM?$AA@   66083cec     LIBCMT:strftime.obj
 0002:00016cf0       ??_C@_02DEDBPAFC@AM?$AA@   66083cf0     LIBCMT:strftime.obj
 0002:00016cf4       ??_C@_08EDHMEBNP@December?$AA@ 66083cf4     LIBCMT:strftime.obj
 0002:00016d00       ??_C@_08HCHEGEOA@November?$AA@ 66083d00     LIBCMT:strftime.obj
 0002:00016d0c       ??_C@_07JJNFCEND@October?$AA@ 66083d0c     LIBCMT:strftime.obj
 0002:00016d14       ??_C@_09BHHEALKD@September?$AA@ 66083d14     LIBCMT:strftime.obj
 0002:00016d20       ??_C@_06LBBHFDDG@August?$AA@ 66083d20     LIBCMT:strftime.obj
 0002:00016d28       ??_C@_04MIEPOIFP@July?$AA@ 66083d28     LIBCMT:strftime.obj
 0002:00016d30       ??_C@_04CNLMGBGM@June?$AA@ 66083d30     LIBCMT:strftime.obj
 0002:00016d38       ??_C@_05DMJDNLEJ@April?$AA@ 66083d38     LIBCMT:strftime.obj
 0002:00016d40       ??_C@_05HPCKOFNC@March?$AA@ 66083d40     LIBCMT:strftime.obj
 0002:00016d48       ??_C@_08GNJGEPFN@February?$AA@ 66083d48     LIBCMT:strftime.obj
 0002:00016d54       ??_C@_07CGJPFGJA@January?$AA@ 66083d54     LIBCMT:strftime.obj
 0002:00016d5c       ??_C@_03MKABNOCG@Dec?$AA@  66083d5c     LIBCMT:strftime.obj
 0002:00016d60       ??_C@_03JPJOFNIA@Nov?$AA@  66083d60     LIBCMT:strftime.obj
 0002:00016d64       ??_C@_03BMAOKBAD@Oct?$AA@  66083d64     LIBCMT:strftime.obj
 0002:00016d68       ??_C@_03GGCAPAJC@Sep?$AA@  66083d68     LIBCMT:strftime.obj
 0002:00016d6c       ??_C@_03IFJFEIGA@Aug?$AA@  66083d6c     LIBCMT:strftime.obj
 0002:00016d70       ??_C@_03LBGABGKK@Jul?$AA@  66083d70     LIBCMT:strftime.obj
 0002:00016d74       ??_C@_03IDFGHECI@Jun?$AA@  66083d74     LIBCMT:strftime.obj
 0002:00016d78       ??_C@_03CNMDKL@May?$AA@    66083d78     LIBCMT:strftime.obj
 0002:00016d7c       ??_C@_03LEOLGMJP@Apr?$AA@  66083d7c     LIBCMT:strftime.obj
 0002:00016d80       ??_C@_03ODNJBKGA@Mar?$AA@  66083d80     LIBCMT:strftime.obj
 0002:00016d84       ??_C@_03HJBDCHOM@Feb?$AA@  66083d84     LIBCMT:strftime.obj
 0002:00016d88       ??_C@_03JIHJHPIE@Jan?$AA@  66083d88     LIBCMT:strftime.obj
 0002:00016d8c       ??_C@_08INBOOONO@Saturday?$AA@ 66083d8c     LIBCMT:strftime.obj
 0002:00016d98       ??_C@_06JECMNKMI@Friday?$AA@ 66083d98     LIBCMT:strftime.obj
 0002:00016da0       ??_C@_08HACCIKIA@Thursday?$AA@ 66083da0     LIBCMT:strftime.obj
 0002:00016dac       ??_C@_09DLIGFAKA@Wednesday?$AA@ 66083dac     LIBCMT:strftime.obj
 0002:00016db8       ??_C@_07BAAGCFCM@Tuesday?$AA@ 66083db8     LIBCMT:strftime.obj
 0002:00016dc0       ??_C@_06JLEDEDGH@Monday?$AA@ 66083dc0     LIBCMT:strftime.obj
 0002:00016dc8       ??_C@_06OOPIFAJ@Sunday?$AA@ 66083dc8     LIBCMT:strftime.obj
 0002:00016dd0       ??_C@_03FEFJNEK@Sat?$AA@   66083dd0     LIBCMT:strftime.obj
 0002:00016dd4       ??_C@_03IDIOELNC@Fri?$AA@  66083dd4     LIBCMT:strftime.obj
 0002:00016dd8       ??_C@_03IOFIKPDN@Thu?$AA@  66083dd8     LIBCMT:strftime.obj
 0002:00016ddc       ??_C@_03MHOMLAJA@Wed?$AA@  66083ddc     LIBCMT:strftime.obj
 0002:00016de0       ??_C@_03NAGEINEP@Tue?$AA@  66083de0     LIBCMT:strftime.obj
 0002:00016de4       ??_C@_03PDAGKDH@Mon?$AA@   66083de4     LIBCMT:strftime.obj
 0002:00016de8       ??_C@_03KOEHGMDN@Sun?$AA@  66083de8     LIBCMT:strftime.obj
 0002:00016df0       ___lookuptable_s           66083df0     LIBCMT:outputs.obj
 0002:00016e4c       ??_C@_0BI@DFKBFLJE@GetProcessWindowStation?$AA@ 66083e4c     LIBCMT:crtmbox.obj
 0002:00016e64       ??_C@_0BK@CIDNPOGP@GetUserObjectInformationA?$AA@ 66083e64     LIBCMT:crtmbox.obj
 0002:00016e80       ??_C@_0BD@HHGDFDBJ@GetLastActivePopup?$AA@ 66083e80     LIBCMT:crtmbox.obj
 0002:00016e94       ??_C@_0BA@HNOPNCHB@GetActiveWindow?$AA@ 66083e94     LIBCMT:crtmbox.obj
 0002:00016ea4       ??_C@_0M@CHKKJDAI@MessageBoxA?$AA@ 66083ea4     LIBCMT:crtmbox.obj
 0002:00016eb0       ??_C@_0L@NDEGIDAG@USER32?4DLL?$AA@ 66083eb0     LIBCMT:crtmbox.obj
 0002:00016ebc       ??_C@_02CLFPBFFP@TZ?$AA@   66083ebc     LIBCMT:tzset.obj
 0002:00016ec0       ___dnames                  66083ec0     LIBCMT:timeset.obj
 0002:00016ed8       ___mnames                  66083ed8     LIBCMT:timeset.obj
 0002:00016f00       ??_C@_07GPDNMNG@CONOUT$?$AA@ 66083f00     LIBCMT:initcon.obj
 0002:00016f08       ??_C@_06IMKFLFPG@1?$CDQNAN?$AA@ 66083f08     LIBCMT:_x10fout_.obj
 0002:00016f10       ??_C@_05DNEBIAHO@1?$CDINF?$AA@ 66083f10     LIBCMT:_x10fout_.obj
 0002:00016f18       ??_C@_05PHHOCPM@1?$CDIND?$AA@ 66083f18     LIBCMT:_x10fout_.obj
 0002:00016f20       ??_C@_06PGGFOGJG@1?$CDSNAN?$AA@ 66083f20     LIBCMT:_x10fout_.obj
 0002:00016f28       ??_C@_0BK@CFCOFLF@?5Complete?5Object?5Locator?8?$AA@ 66083f28     LIBCMT:undname.obj
 0002:00016f44       ??_C@_0BN@MECKDCOJ@?5Class?5Hierarchy?5Descriptor?8?$AA@ 66083f44     LIBCMT:undname.obj
 0002:00016f64       ??_C@_0BD@LGICGFMM@?5Base?5Class?5Array?8?$AA@ 66083f64     LIBCMT:undname.obj
 0002:00016f78       ??_C@_0BM@LDKODKLH@?5Base?5Class?5Descriptor?5at?5?$CI?$AA@ 66083f78     LIBCMT:undname.obj
 0002:00016f94       ??_C@_0BC@DAFEJGAK@?5Type?5Descriptor?8?$AA@ 66083f94     LIBCMT:undname.obj
 0002:00016fa8       ??_C@_0BM@PMGGMLDN@?$GAlocal?5static?5thread?5guard?8?$AA@ 66083fa8     LIBCMT:undname.obj
 0002:00016fc4       ??_C@_0CL@FGIJHLCE@?$GAmanaged?5vector?5copy?5constructor@ 66083fc4     LIBCMT:undname.obj
 0002:00016ff0       ??_C@_0CJ@GJELGAMM@?$GAvector?5vbase?5copy?5constructor?5i@ 66083ff0     LIBCMT:undname.obj
 0002:0001701c       ??_C@_0CD@CGAJBKEJ@?$GAvector?5copy?5constructor?5iterato@ 6608401c     LIBCMT:undname.obj
 0002:00017040       ??_C@_0CB@PDBIFEP@?$GAdynamic?5atexit?5destructor?5for?5?8@ 66084040     LIBCMT:undname.obj
 0002:00017064       ??_C@_0BL@CLIPGLGB@?$GAdynamic?5initializer?5for?5?8?$AA@ 66084064     LIBCMT:undname.obj
 0002:00017080       ??_C@_0CM@FCBBDIGB@?$GAeh?5vector?5vbase?5copy?5constructo@ 66084080     LIBCMT:undname.obj
 0002:000170ac       ??_C@_0CG@HLDDJMAG@?$GAeh?5vector?5copy?5constructor?5iter@ 660840ac     LIBCMT:undname.obj
 0002:000170d4       ??_C@_0CF@IMGKMJNO@?$GAmanaged?5vector?5destructor?5itera@ 660840d4     LIBCMT:undname.obj
 0002:000170fc       ??_C@_0CG@CFDHKGGD@?$GAmanaged?5vector?5constructor?5iter@ 660840fc     LIBCMT:undname.obj
 0002:00017124       ??_C@_0BN@CKNJLHMB@?$GAplacement?5delete?$FL?$FN?5closure?8?$AA@ 66084124     LIBCMT:undname.obj
 0002:00017144       ??_C@_0BL@CNOONJFP@?$GAplacement?5delete?5closure?8?$AA@ 66084144     LIBCMT:undname.obj
 0002:00017160       ??_C@_0P@HJKNJFNN@?$GAomni?5callsig?8?$AA@ 66084160     LIBCMT:undname.obj
 0002:00017170       ??_C@_09LBNFPBCA@?5delete?$FL?$FN?$AA@ 66084170     LIBCMT:undname.obj
 0002:0001717c       ??_C@_06FHBGPFGH@?5new?$FL?$FN?$AA@ 6608417c     LIBCMT:undname.obj
 0002:00017184       ??_C@_0CE@IIHCMGGL@?$GAlocal?5vftable?5constructor?5closu@ 66084184     LIBCMT:undname.obj
 0002:000171a8       ??_C@_0BA@KKLDJDLB@?$GAlocal?5vftable?8?$AA@ 660841a8     LIBCMT:undname.obj
 0002:000171b8       ??_C@_05KHLCHHI@?$GARTTI?$AA@ 660841b8     LIBCMT:undname.obj
 0002:000171c0       ??_C@_03KLGMFNMG@?$GAEH?$AA@ 660841c0     LIBCMT:undname.obj
 0002:000171c4       ??_C@_0BA@KBCDOMBN@?$GAudt?5returning?8?$AA@ 660841c4     LIBCMT:undname.obj
 0002:000171d4       ??_C@_0BL@LLKPOHJI@?$GAcopy?5constructor?5closure?8?$AA@ 660841d4     LIBCMT:undname.obj
 0002:000171f0       ??_C@_0CH@OOJPLCPH@?$GAeh?5vector?5vbase?5constructor?5ite@ 660841f0     LIBCMT:undname.obj
 0002:00017218       ??_C@_0CA@GCEOPDGL@?$GAeh?5vector?5destructor?5iterator?8?$AA@ 66084218     LIBCMT:undname.obj
 0002:00017238       ??_C@_0CB@JONCMFFK@?$GAeh?5vector?5constructor?5iterator?8@ 66084238     LIBCMT:undname.obj
 0002:0001725c       ??_C@_0BL@NILFHHPC@?$GAvirtual?5displacement?5map?8?$AA@ 6608425c     LIBCMT:undname.obj
 0002:00017278       ??_C@_0CE@IKBNEHA@?$GAvector?5vbase?5constructor?5iterat@ 66084278     LIBCMT:undname.obj
 0002:0001729c       ??_C@_0BN@LFPFMEDL@?$GAvector?5destructor?5iterator?8?$AA@ 6608429c     LIBCMT:undname.obj
 0002:000172bc       ??_C@_0BO@PFGOCPJJ@?$GAvector?5constructor?5iterator?8?$AA@ 660842bc     LIBCMT:undname.obj
 0002:000172dc       ??_C@_0BN@IMDCHIKM@?$GAscalar?5deleting?5destructor?8?$AA@ 660842dc     LIBCMT:undname.obj
 0002:000172fc       ??_C@_0BO@OBMKPJIG@?$GAdefault?5constructor?5closure?8?$AA@ 660842fc     LIBCMT:undname.obj
 0002:0001731c       ??_C@_0BN@DEGPLNFK@?$GAvector?5deleting?5destructor?8?$AA@ 6608431c     LIBCMT:undname.obj
 0002:0001733c       ??_C@_0BD@JDLKDPAB@?$GAvbase?5destructor?8?$AA@ 6608433c     LIBCMT:undname.obj
 0002:00017350       ??_C@_08OBABFOLI@?$GAstring?8?$AA@ 66084350     LIBCMT:undname.obj
 0002:0001735c       ??_C@_0BF@KDPPACIK@?$GAlocal?5static?5guard?8?$AA@ 6608435c     LIBCMT:undname.obj
 0002:00017374       ??_C@_08LLFFHHDJ@?$GAtypeof?8?$AA@ 66084374     LIBCMT:undname.obj
 0002:00017380       ??_C@_07FEEIOKP@?$GAvcall?8?$AA@ 66084380     LIBCMT:undname.obj
 0002:00017388       ??_C@_09BLBHBJP@?$GAvbtable?8?$AA@ 66084388     LIBCMT:undname.obj
 0002:00017394       ??_C@_09IFPLHPGF@?$GAvftable?8?$AA@ 66084394     LIBCMT:undname.obj
 0002:000173a0       ??_C@_02MHEGNOJ@?$FO?$DN?$AA@ 660843a0     LIBCMT:undname.obj
 0002:000173a4       ??_C@_02DHLNPPGH@?$HM?$DN?$AA@ 660843a4     LIBCMT:undname.obj
 0002:000173a8       ??_C@_02FGJGFEAB@?$CG?$DN?$AA@ 660843a8     LIBCMT:undname.obj
 0002:000173ac       ??_C@_03CDNPDDLA@?$DM?$DM?$DN?$AA@ 660843ac     LIBCMT:undname.obj
 0002:000173b0       ??_C@_03IKFCCPFF@?$DO?$DO?$DN?$AA@ 660843b0     LIBCMT:undname.obj
 0002:000173b4       ??_C@_02FENAOKFI@?$CF?$DN?$AA@ 660843b4     LIBCMT:undname.obj
 0002:000173b8       ??_C@_02FJEHGPIO@?1?$DN?$AA@ 660843b8     LIBCMT:undname.obj
 0002:000173bc       ??_C@_02FKMDLLOA@?9?$DN?$AA@ 660843bc     LIBCMT:undname.obj
 0002:000173c0       ??_C@_02FOEOMHFC@?$CL?$DN?$AA@ 660843c0     LIBCMT:undname.obj
 0002:000173c4       ??_C@_02FPIMKNGF@?$CK?$DN?$AA@ 660843c4     LIBCMT:undname.obj
 0002:000173c8       ??_C@_02NONPIBCD@?$HM?$HM?$AA@ 660843c8     LIBCMT:undname.obj
 0002:000173cc       ??_C@_02PPKAJPJL@?$CG?$CG?$AA@ 660843cc     LIBCMT:undname.obj
 0002:000173d0       ??_C@_01DNKMNLPK@?$HM?$AA@ 660843d0     LIBCMT:undname.obj
 0002:000173d4       ??_C@_01JKBOJNNK@?$FO?$AA@ 660843d4     LIBCMT:undname.obj
 0002:000173d8       ??_C@_01PJKLJHI@?$HO?$AA@  660843d8     LIBCMT:undname.obj
 0002:000173dc       ??_C@_02HCKGKOFO@?$CI?$CJ?$AA@ 660843dc     LIBCMT:undname.obj
 0002:000173e0       ??_C@_01IHBHIGKO@?0?$AA@   660843e0     LIBCMT:undname.obj
 0002:000173e4       ??_C@_02EEKDKGMJ@?$DO?$DN?$AA@ 660843e4     LIBCMT:undname.obj
 0002:000173e8       ??_C@_01PPODPGHN@?$DO?$AA@ 660843e8     LIBCMT:undname.obj
 0002:000173ec       ??_C@_02EHCHHCKH@?$DM?$DN?$AA@ 660843ec     LIBCMT:undname.obj
 0002:000173f0       ??_C@_01MNNFJEPP@?$DM?$AA@ 660843f0     LIBCMT:undname.obj
 0002:000173f4       ??_C@_01FGNFDNOH@?$CF?$AA@ 660843f4     LIBCMT:undname.obj
 0002:000173f8       ??_C@_01KMDKNFGN@?1?$AA@   660843f8     LIBCMT:undname.obj
 0002:000173fc       ??_C@_03MNHNFDLC@?9?$DO?$CK?$AA@ 660843fc     LIBCMT:undname.obj
 0002:00017400       ??_C@_01HNPIGOCE@?$CG?$AA@ 66084400     LIBCMT:undname.obj
 0002:00017404       ??_C@_01MIFGBAGJ@?$CL?$AA@ 66084404     LIBCMT:undname.obj
 0002:00017408       ??_C@_01JOAMLHOP@?9?$AA@   66084408     LIBCMT:undname.obj
 0002:0001740c       ??_C@_02BAABKJLB@?9?9?$AA@ 6608440c     LIBCMT:undname.obj
 0002:00017410       ??_C@_02ECNGHCIF@?$CL?$CL?$AA@ 66084410     LIBCMT:undname.obj
 0002:00017414       ??_C@_01NBENCBCI@?$CK?$AA@ 66084414     LIBCMT:undname.obj
 0002:00017418       ??_C@_02HBOOOICD@?9?$DO?$AA@ 66084418     LIBCMT:undname.obj
 0002:0001741c       ??_C@_08LHJFAFGD@operator?$AA@ 6608441c     LIBCMT:undname.obj
 0002:00017428       ??_C@_02GPECMEKF@?$FL?$FN?$AA@ 66084428     LIBCMT:undname.obj
 0002:0001742c       ??_C@_02FDNJECIE@?$CB?$DN?$AA@ 6608442c     LIBCMT:undname.obj
 0002:00017430       ??_C@_02EGOFBIJA@?$DN?$DN?$AA@ 66084430     LIBCMT:undname.obj
 0002:00017434       ??_C@_01DCLJPIOD@?$CB?$AA@ 66084434     LIBCMT:undname.obj
 0002:00017438       ??_C@_02FODMEDOG@?$DM?$DM?$AA@ 66084438     LIBCMT:undname.obj
 0002:0001743c       ??_C@_02GPIOPFAK@?$DO?$DO?$AA@ 6608443c     LIBCMT:undname.obj
 0002:00017440       ??_C@_07FPCDHGMM@?5delete?$AA@ 66084440     LIBCMT:undname.obj
 0002:00017448       ??_C@_04NIHEBCM@?5new?$AA@ 66084448     LIBCMT:undname.obj
 0002:00017450       ??_C@_0M@GFIIJFMG@__unaligned?$AA@ 66084450     LIBCMT:undname.obj
 0002:0001745c       ??_C@_0L@PILCLIHE@__restrict?$AA@ 6608445c     LIBCMT:undname.obj
 0002:00017468       ??_C@_07JOMMBBKO@__ptr64?$AA@ 66084468     LIBCMT:undname.obj
 0002:00017470       ??_C@_09HIJEGCPM@__clrcall?$AA@ 66084470     LIBCMT:undname.obj
 0002:0001747c       ??_C@_0L@JMKHOMEK@__fastcall?$AA@ 6608447c     LIBCMT:undname.obj
 0002:00017488       ??_C@_0L@NPHFGOKO@__thiscall?$AA@ 66084488     LIBCMT:undname.obj
 0002:00017494       ??_C@_09IFJBGAPI@__stdcall?$AA@ 66084494     LIBCMT:undname.obj
 0002:000174a0       ??_C@_08GHMPAG@__pascal?$AA@ 660844a0     LIBCMT:undname.obj
 0002:000174ac       ??_C@_07KOLFKCDI@__cdecl?$AA@ 660844ac     LIBCMT:undname.obj
 0002:000174b4       ??_C@_08EHJDFFNH@__based?$CI?$AA@ 660844b4     LIBCMT:undname.obj
 0002:00017640       ??_C@_0L@KDOEJCKC@_nextafter?$AA@ 66084640     LIBCMT:_fpexcept_.obj
 0002:0001764c       ??_C@_05JGDBENOH@_logb?$AA@ 6608464c     LIBCMT:_fpexcept_.obj
 0002:00017654       ??_C@_03ONILCKOB@_yn?$AA@  66084654     LIBCMT:_fpexcept_.obj
 0002:00017658       ??_C@_03NAKIGLHK@_y1?$AA@  66084658     LIBCMT:_fpexcept_.obj
 0002:0001765c       ??_C@_03MJLDFKDL@_y0?$AA@  6608465c     LIBCMT:_fpexcept_.obj
 0002:00017660       ??_C@_05GKKHEGJL@frexp?$AA@ 66084660     LIBCMT:_fpexcept_.obj
 0002:00017668       ??_C@_04KEPJIHGP@fmod?$AA@ 66084668     LIBCMT:_fpexcept_.obj
 0002:00017670       ??_C@_06MEIMCGCF@_hypot?$AA@ 66084670     LIBCMT:_fpexcept_.obj
 0002:00017678       ??_C@_05KBKMEMPO@_cabs?$AA@ 66084678     LIBCMT:_fpexcept_.obj
 0002:00017680       ??_C@_05CEJMAHNP@ldexp?$AA@ 66084680     LIBCMT:_fpexcept_.obj
 0002:00017688       ??_C@_04EHEDPDJG@modf?$AA@ 66084688     LIBCMT:_fpexcept_.obj
 0002:00017690       ??_C@_04ODHECPBC@fabs?$AA@ 66084690     LIBCMT:_fpexcept_.obj
 0002:00017698       ??_C@_05PBJFFIGL@floor?$AA@ 66084698     LIBCMT:_fpexcept_.obj
 0002:000176a0       ??_C@_04GFPJNGEK@ceil?$AA@ 660846a0     LIBCMT:_fpexcept_.obj
 0002:000176a8       ??_C@_03IIINPABG@tan?$AA@  660846a8     LIBCMT:_fpexcept_.obj
 0002:000176ac       ??_C@_03LALBNOCG@cos?$AA@  660846ac     LIBCMT:_fpexcept_.obj
 0002:000176b0       ??_C@_03BLEJJJBH@sin?$AA@  660846b0     LIBCMT:_fpexcept_.obj
 0002:000176b4       ??_C@_04EIAKFFMI@sqrt?$AA@ 660846b4     LIBCMT:_fpexcept_.obj
 0002:000176bc       ??_C@_05KNGEOGJB@atan2?$AA@ 660846bc     LIBCMT:_fpexcept_.obj
 0002:000176c4       ??_C@_04MLLJIGOK@atan?$AA@ 660846c4     LIBCMT:_fpexcept_.obj
 0002:000176cc       ??_C@_04PDIFKINK@acos?$AA@ 660846cc     LIBCMT:_fpexcept_.obj
 0002:000176d4       ??_C@_04FIHNOPOL@asin?$AA@ 660846d4     LIBCMT:_fpexcept_.obj
 0002:000176dc       ??_C@_04FJHINJAO@tanh?$AA@ 660846dc     LIBCMT:_fpexcept_.obj
 0002:000176e4       ??_C@_04HPJJNFIM@cosh?$AA@ 660846e4     LIBCMT:_fpexcept_.obj
 0002:000176ec       ??_C@_04COOMCNPB@sinh?$AA@ 660846ec     LIBCMT:_fpexcept_.obj
 0002:000176f4       ??_C@_05HGHHAHAP@log10?$AA@ 660846f4     LIBCMT:_fpexcept_.obj
 0002:000176fc       ??_C@_03MGHMBJCF@log?$AA@  660846fc     LIBCMT:_fpexcept_.obj
 0002:00017700       ??_C@_03JGHBODFD@pow?$AA@  66084700     LIBCMT:_fpexcept_.obj
 0002:00017704       ??_C@_03KHJOGHMM@exp?$AA@  66084704     LIBCMT:_fpexcept_.obj
 0002:00017708       __load_config_used         66084708     LIBCMT:loadcfg.obj
 0002:00017750       ??_R4bad_alloc@std@@6B@    66084750     LIBCMT:new.obj
 0002:00017764       ??_R3bad_alloc@std@@8      66084764     LIBCMT:new.obj
 0002:00017774       ??_R2bad_alloc@std@@8      66084774     LIBCMT:new.obj
 0002:00017780       ??_R1A@?0A@EA@bad_alloc@std@@8 66084780     LIBCMT:new.obj
 0002:0001779c       ??_R1A@?0A@EA@exception@std@@8 6608479c     LIBCMT:new.obj
 0002:000177b8       ??_R3exception@std@@8      660847b8     LIBCMT:new.obj
 0002:000177c8       ??_R2exception@std@@8      660847c8     LIBCMT:new.obj
 0002:000177d0       ??_R4exception@std@@6B@    660847d0     LIBCMT:stdexcpt.obj
 0002:000177e4       ??_R4type_info@@6B@        660847e4     LIBCMT:typinfo.obj
 0002:000177f8       ??_R3type_info@@8          660847f8     LIBCMT:typinfo.obj
 0002:00017808       ??_R2type_info@@8          66084808     LIBCMT:typinfo.obj
 0002:00017810       ??_R1A@?0A@EA@type_info@@8 66084810     LIBCMT:typinfo.obj
 0002:00017830       ___safe_se_handler_table   66084830     <linker-defined>
 0002:0001783c       ___rtc_iaa                 6608483c     LIBCMT:_initsect_.obj
 0002:00017840       ___rtc_izz                 66084840     LIBCMT:_initsect_.obj
 0002:00017844       ___rtc_taa                 66084844     LIBCMT:_initsect_.obj
 0002:00017848       ___rtc_tzz                 66084848     LIBCMT:_initsect_.obj
 0002:00017a3c       __TI2?AVbad_alloc@std@@    66084a3c     LIBCMT:new.obj
 0002:00017a4c       __CTA2?AVbad_alloc@std@@   66084a4c     LIBCMT:new.obj
 0002:00017a58       __CT??_R0?AVbad_alloc@std@@@8??0bad_alloc@std@@QAE@ABV01@@Z12 66084a58     LIBCMT:new.obj
 0002:00017a74       __CT??_R0?AVexception@std@@@8??0exception@std@@QAE@ABV01@@Z12 66084a74     LIBCMT:new.obj
 0002:00017f84       __IMPORT_DESCRIPTOR_KERNEL32 66084f84     kernel32:KERNEL32.dll
 0002:00017f98       __IMPORT_DESCRIPTOR_USER32 66084f98     user32:USER32.dll
 0002:00017fac       __IMPORT_DESCRIPTOR_IMM32  66084fac     imm32:IMM32.dll
 0002:00017fc0       __NULL_IMPORT_DESCRIPTOR   66084fc0     kernel32:KERNEL32.dll
 0003:00000000       ?szRuntimePath@@3PADA      66086000     config.obj
 0003:00000100       ?fShowCheckInfo@@3HA       66086100     config.obj
 0003:00000104       ?fLoadItemColours@@3HA     66086104     config.obj
 0003:00000600       ?dwGameWindowId@@3HA       66086600     DllMain.obj
 0003:00000608       ?dwGameLng@@3HA            66086608     install.obj
 0003:0000060c       ?fFixSocketError@@3HA      6608660c     install.obj
 0003:00000610       ?tReloadDll@@3UToggleVar@@A 66086610     install.obj
 0003:00000640       ?tReloadConfig@@3UToggleVar@@A 66086640     install.obj
 0003:00000670       ?tInstallPatches@@3UToggleVar@@A 66086670     install.obj
 0003:0000083c       ?dwPetListChangeCount@@3HA 6608683c     common.obj
 0003:00000840       ?skillTypes@@3PAY0BO@HA    66086840     common.obj
 0003:00000b88       ?tShowTestInfo@@3UToggleVar@@A 66086b88     dbg.obj
 0003:00000bc0       ?fPlayerInTown@@3HA        66086bc0     loop.obj
 0003:00000bc4       ?actlvls@@3PAHA            66086bc4     loop.obj
 0003:00000bdc       ?dwCurrentLevel@@3HA       66086bdc     loop.obj
 0003:00000be0       ?dwLeftSkill@@3HA          66086be0     loop.obj
 0003:00000be4       ?dwRightSkill@@3HA         66086be4     loop.obj
 0003:00000be8       ?fCanUseLeftSkill@@3HA     66086be8     loop.obj
 0003:00000bec       ?fCanUseRightSkill@@3HA    66086bec     loop.obj
 0003:00000bf0       ?dwSlowMs@@3HA             66086bf0     loop.obj
 0003:00000bf4       ?dwSlowSkipMs@@3HA         66086bf4     loop.obj
 0003:00000d3c       ?dwAutoRevealMode@@3HA     66086d3c     map.obj
 0003:00000d40       ?tRevealAct@@3UToggleVar@@A 66086d40     map.obj
 0003:00000d70       ?tRevealLevel@@3UToggleVar@@A 66086d70     map.obj
 0003:00000da0       ?tPrevMapTarget@@3UToggleVar@@A 66086da0     map.obj
 0003:00000dd0       ?tNextMapTarget@@3UToggleVar@@A 66086dd0     map.obj
 0003:00000e00       ?tAutomapLevelNames@@3UToggleVar@@A 66086e00     map.obj
 0003:00000e30       ?tAutoMap@@3UToggleVar@@A  66086e30     map.obj
 0003:00000e60       ?tMiniShrine@@3UToggleVar@@A 66086e60     map.obj
 0003:00000e90       ?tAutomapActiveRect@@3UToggleVar@@A 66086e90     map.obj
 0003:00000ec0       ?tAutomapReadyRect@@3UToggleVar@@A 66086ec0     map.obj
 0003:00000ef0       ?tAutomapScreenArea@@3UToggleVar@@A 66086ef0     map.obj
 0003:00000f20       ?nAutomapActiveRectColors@@3EA 66086f20     map.obj
 0003:00000f21       ?nAutomapReadyRectColors@@3EA 66086f21     map.obj
 0003:00000f22       ?nAutomapScreenColors@@3EA 66086f22     map.obj
 0003:00000f23       ?nMinimapSize@@3EA         66086f23     map.obj
 0003:00000f24       ?routeLineColor@@3EA       66086f24     map.obj
 0003:00000f25       ?fAutomapPartyDefault@@3EA 66086f25     map.obj
 0003:00000f26       ?fAutomapNamesDefault@@3EA 66086f26     map.obj
 0003:00000f27       ?nHostileMissileColor@@3EA 66086f27     map.obj
 0003:00000f28       ?tMinimapDirectLineToggle@@3UToggleVar@@A 66086f28     map.obj
 0003:00000f58       ?tMinimapDebugToggle@@3UToggleVar@@A 66086f58     map.obj
 0003:00000f88       ?tAutomapCorpse@@3UToggleVar@@A 66086f88     map.obj
 0003:00000fb8       ?tAutomapMonsters@@3UToggleVar@@A 66086fb8     map.obj
 0003:00000fe8       ?tAutomapChests@@3UToggleVar@@A 66086fe8     map.obj
 0003:00001018       ?tAutomapMissiles@@3UToggleVar@@A 66087018     map.obj
 0003:00001048       ?tAutomapItems@@3UToggleVar@@A 66087048     map.obj
 0003:00001078       ?nGuidedMissileColor@@3EA  66087078     map.obj
 0003:00001079       ?nTracerMissileColor@@3EA  66087079     map.obj
 0003:0000107a       ?nOtherMissileColor@@3EA   6608707a     map.obj
 0003:0000107b       ?nClosedChestColor@@3EA    6608707b     map.obj
 0003:0000107c       ?nLockedChestColor@@3EA    6608707c     map.obj
 0003:0000107d       ?nNormalCorpseColor@@3EA   6608707d     map.obj
 0003:0000107e       ?nBossCorpseColor@@3EA     6608707e     map.obj
 0003:0000107f       ?nMinionCorpseColor@@3EA   6608707f     map.obj
 0003:00001080       ?nChampionCorpseColor@@3EA 66087080     map.obj
 0003:00001081       ?nMonsterNormalColor@@3EA  66087081     map.obj
 0003:00001082       ?nMonsterBossColor@@3EA    66087082     map.obj
 0003:00001083       ?nMonsterMinionColor@@3EA  66087083     map.obj
 0003:00001084       ?nMonsterChampColor@@3EA   66087084     map.obj
 0003:00001085       ?nSuperUniqueColor@@3EA    66087085     map.obj
 0003:00001086       ?nNeutralPlayerColor@@3EA  66087086     map.obj
 0003:00001087       ?nHostilePlayerColor@@3EA  66087087     map.obj
 0003:00001088       ?nFriendMinionColor@@3EA   66087088     map.obj
 0003:00001089       ?nPlayerMinionColor@@3EA   66087089     map.obj
 0003:0000108a       ?nPartyTextColour@@3EA     6608708a     map.obj
 0003:0000108b       ?nNeutralTextColour@@3EA   6608708b     map.obj
 0003:0000108c       ?nHostileTextColour@@3EA   6608708c     map.obj
 0003:0000108d       ?nMonsterTextCol@@3EA      6608708d     map.obj
 0003:00001090       ?tBossNameToggle@@3UToggleVar@@A 66087090     map.obj
 0003:000010c0       ?tScreenshake@@3UToggleVar@@A 660870c0     map.obj
 0003:000010f0       ?tCenterMap@@3UToggleVar@@A 660870f0     map.obj
 0003:00001120       ?nScrollMode@@3HA          66087120     map.obj
 0003:00001124       ?dwDuranceOfHateLevel3TeleportShift@@3PAHA 66087124     map.obj
 0003:00001130       ?dwDuranceOfHateLevel3TeleportShiftBugKM@@3PAHA 66087130     map.obj
 0003:00002560       ?dwSocketTimeOutSec@@3HA   66088560     packet.obj
 0003:00002564       ?dwSocketTimeOut@@3HA      66088564     packet.obj
 0003:00002568       ?dwAddStatMaxCount@@3HA    66088568     packet.obj
 0003:0000256c       ?tPacketHandler@@3UToggleVar@@A 6608856c     packet.obj
 0003:0000259c       ?tDoTest@@3UToggleVar@@A   6608859c     packet.obj
 0003:000025cc       ?tNecTeleportAttract@@3UToggleVar@@A 660885cc     packet.obj
 0003:00002738       ?tAutomapRouteInfo@@3UToggleVar@@A 66088738     route.obj
 0003:00002768       ?tScreenRouteGuide@@3UToggleVar@@A 66088768     route.obj
 0003:00002798       ?tReroute@@3UToggleVar@@A  66088798     route.obj
 0003:00002958       ?fWinActive@@3HA           66088958     winmsg.obj
 0003:0000295c       ?dwQuickSwapItemDelayMs@@3HA 6608895c     winmsg.obj
 0003:00002960       ?dwAutoCallToArm@@3HA      66088960     winmsg.obj
 0003:00002964       ?tLockMouseToggle@@3UToggleVar@@A 66088964     winmsg.obj
 0003:00002994       ?tAutoHideMinimapToggle@@3UToggleVar@@A 66088994     winmsg.obj
 0003:000029c4       ?tAutoMinimapTeleportToggle@@3UToggleVar@@A 660889c4     winmsg.obj
 0003:000029f4       ?tFullScreen@@3UToggleVar@@A 660889f4     winmsg.obj
 0003:00002a24       ?tFullScreenNoCaption@@3UToggleVar@@A 66088a24     winmsg.obj
 0003:00002a54       ?tResizeWindowBar@@3UToggleVar@@A 66088a54     winmsg.obj
 0003:00002a84       ?tAttractNPC@@3UToggleVar@@A 66088a84     winmsg.obj
 0003:00002ab4       ?tEnableScreenSaver@@3UToggleVar@@A 66088ab4     winmsg.obj
 0003:00002ae4       ?tEnableMenuScreenSaver@@3UToggleVar@@A 66088ae4     winmsg.obj
 0003:00002b14       ?tNoHide@@3UToggleVar@@A   66088b14     winmsg.obj
 0003:00002b44       ?tSaveGame@@3UToggleVar@@A 66088b44     winmsg.obj
 0003:00003178       ?newTextBoxData@@3PAKA     66089178     winmsg.obj
 0003:000031a8       ?tChangeVisualEffect@@3UToggleVar@@A 660891a8     env.obj
 0003:000031d8       ?tWeather@@3UToggleVar@@A  660891d8     env.obj
 0003:00003208       ?tHiddenCorpse@@3UToggleVar@@A 66089208     env.obj
 0003:00003238       ?tSkipDrawToggle@@3UToggleVar@@A 66089238     env.obj
 0003:000033c8       ?simpleItemStackTxt@@3HA   660893c8     GameMonitor.obj
 0003:000033cc       ?simpleItemStackIdx@@3HA   660893cc     GameMonitor.obj
 0003:000033d0       ?simpleItemStackStatId@@3HA 660893d0     GameMonitor.obj
 0003:000033d4       ?changeStashPageCmd@@3HA   660893d4     GameMonitor.obj
 0003:000033d8       ?changeStashPageCmdOffset@@3HA 660893d8     GameMonitor.obj
 0003:000033dc       ?changeStashPageCmdValue@@3HA 660893dc     GameMonitor.obj
 0003:000033e0       ?changeStashPageValueOffset@@3HA 660893e0     GameMonitor.obj
 0003:00003428       ?tCountDown@@3UToggleVar@@A 66089428     GameMonitor.obj
 0003:00003458       ?tDrawMultiPageStashCount@@3UToggleVar@@A 66089458     GameMonitor.obj
 0003:00003488       ?dwGameMonitorX@@3HA       66089488     GameMonitor.obj
 0003:0000348c       ?dwGameMonitorY@@3HA       6608948c     GameMonitor.obj
 0003:00003490       ?dwCountDownFontSize@@3HA  66089490     GameMonitor.obj
 0003:00003494       ?dwCountDownGap@@3HA       66089494     GameMonitor.obj
 0003:00003498       ?dwCountDownFlashSecond@@3HA 66089498     GameMonitor.obj
 0003:0000349c       ?tKillCount@@3UToggleVar@@A 6608949c     GameMonitor.obj
 0003:000034cc       ?tGetHitCount@@3UToggleVar@@A 660894cc     GameMonitor.obj
 0003:000034fc       ?tNecAutomapCorpsesToggle@@3UToggleVar@@A 660894fc     GameMonitor.obj
 0003:0000352c       ?tDrawBossHpToggle@@3UToggleVar@@A 6608952c     GameMonitor.obj
 0003:0000355c       ?bossLineColor@@3HA        6608955c     GameMonitor.obj
 0003:00003560       ?tDrawPlayerNameToggle@@3UToggleVar@@A 66089560     GameMonitor.obj
 0003:00003590       ?dwDrawPlayerNameDy@@3HA   66089590     GameMonitor.obj
 0003:00003594       ?HasCowKing@@3HA           66089594     GameMonitor.obj
 0003:00003c54       ?countDowns@@3PAPAUCountDown@@A 66089c54     GameMonitor.obj
 0003:00003cc0       ?tServerIp@@3UToggleVar@@A 66089cc0     info.obj
 0003:00003cf0       ?tGameTime@@3UToggleVar@@A 66089cf0     info.obj
 0003:00003d20       ?tClock@@3UToggleVar@@A    66089d20     info.obj
 0003:00003d50       ?tLayerLevelNo@@3UToggleVar@@A 66089d50     info.obj
 0003:00003d80       ?tAreaLevel@@3UToggleVar@@A 66089d80     info.obj
 0003:00003db0       ?tPermShowOrb@@3UToggleVar@@A 66089db0     info.obj
 0003:00003de0       ?tShowExp@@3UToggleVar@@A  66089de0     info.obj
 0003:00003e10       ?tShowPing@@3UToggleVar@@A 66089e10     info.obj
 0003:00003e40       ?tShowPartyPosition@@3UToggleVar@@A 66089e40     info.obj
 0003:00003e70       ?tShowPartyLevel@@3UToggleVar@@A 66089e70     info.obj
 0003:00003ea0       ?tViewEquipmentKey@@3UToggleVar@@A 66089ea0     info.obj
 0003:00003ed0       ?tViewPlayerStatsKey@@3UToggleVar@@A 66089ed0     info.obj
 0003:00003f00       ?tShowBaseStat@@3UToggleVar@@A 66089f00     info.obj
 0003:00003f30       ?tFirstPlayerStat@@3UToggleVar@@A 66089f30     info.obj
 0003:00003f60       ?tNextPlayerStat@@3UToggleVar@@A 66089f60     info.obj
 0003:00003f90       ?tPrevPlayerStat@@3UToggleVar@@A 66089f90     info.obj
 0003:00004280       ?szOrbPattern@@3PADA       6608a280     info.obj
 0003:00004284       ?viewStatUnit@@3UViewUnitInfo@@A 6608a284     info.obj
 0003:00004294       ?viewEquUnit@@3UViewUnitInfo@@A 6608a294     info.obj
 0003:00004378       ?tLogMessage@@3UToggleVar@@A 6608a378     MessageLog.obj
 0003:000043a8       ?dwMessageFileSize@@3HA    6608a3a8     MessageLog.obj
 0003:00004408       ?anGoldGoodCol@@3PADA      6608a408     item.obj
 0003:0000440c       ?anGoldPoorCol@@3PADA      6608a40c     item.obj
 0003:00004410       ?tSwitchItemMode@@3UToggleVar@@A 6608a410     item.obj
 0003:00004440       ?dwItemShowMode@@3HA       6608a440     item.obj
 0003:00004444       ?nQuestItemColour@@3EA     6608a444     item.obj
 0003:00004445       ?nDefaultExtInfoColour@@3EA 6608a445     item.obj
 0003:00004448       ?tRuneNumbers@@3UToggleVar@@A 6608a448     item.obj
 0003:00004478       ?tSocketNumbers@@3UToggleVar@@A 6608a478     item.obj
 0003:000044a8       ?tItemLevel@@3UToggleVar@@A 6608a4a8     item.obj
 0003:000044d8       ?tItemValue@@3UToggleVar@@A 6608a4d8     item.obj
 0003:00004508       ?tItemIndex@@3UToggleVar@@A 6608a508     item.obj
 0003:00004538       ?tItemFileIndex@@3UToggleVar@@A 6608a538     item.obj
 0003:00004568       ?tUnitNumber@@3UToggleVar@@A 6608a568     item.obj
 0003:00004598       ?tItemQLevel@@3UToggleVar@@A 6608a598     item.obj
 0003:000045c8       ?tItemMLevel@@3UToggleVar@@A 6608a5c8     item.obj
 0003:000045f8       ?tItemALevel@@3UToggleVar@@A 6608a5f8     item.obj
 0003:00004628       ?tAfterCube@@3UToggleVar@@A 6608a628     item.obj
 0003:00004658       ?tLifePerLevel@@3UToggleVar@@A 6608a658     item.obj
 0003:00004688       ?dwItemValueNpc@@3PAHA     6608a688     item.obj
 0003:0000469c       ?tShowBaseED@@3UToggleVar@@A 6608a69c     item.obj
 0003:000046cc       ?tShowIdentifiedItem@@3UToggleVar@@A 6608a6cc     item.obj
 0003:000046fc       ?tHiddenItems@@3UToggleVar@@A 6608a6fc     item.obj
 0003:0000472c       ?tPermShowItems@@3UToggleVar@@A 6608a72c     item.obj
 0003:0000475c       ?tLockAltToggle@@3UToggleVar@@A 6608a75c     item.obj
 0003:0000478c       ?tItemBasicStat@@3UToggleVar@@A 6608a78c     item.obj
 0003:000047bc       ?tViewSocketable@@3UToggleVar@@A 6608a7bc     item.obj
 0003:000047ec       ?tViewSocketBase@@3UToggleVar@@A 6608a7ec     item.obj
 0003:0000481c       ?tShowItemVariableProp@@3UToggleVar@@A 6608a81c     item.obj
 0003:0000484c       ?tSocketProtect@@3UToggleVar@@A 6608a84c     item.obj
 0003:0000487c       ?tRunewordProtect@@3UToggleVar@@A 6608a87c     item.obj
 0003:000048ac       ?tDrawInvItemInfo@@3UToggleVar@@A 6608a8ac     item.obj
 0003:000048dc       ?tItemExtInfo@@3UToggleVar@@A 6608a8dc     item.obj
 0003:0000490c       ?maxTownPortalCount@@3HA   6608a90c     item.obj
 0003:00004910       ?maxIdentifyPortalCount@@3HA 6608a910     item.obj
 0003:00004914       ?batchSimpleItemStackCount@@3HA 6608a914     item.obj
 0003:00004918       ?tDrawSimpleItemStackCount@@3UToggleVar@@A 6608a918     item.obj
 0003:00005290       ?dwAutoPotionCheckMs@@3HA  6608b290     dangerous.obj
 0003:00005294       ?dwHirePotionDelayMs@@3HA  6608b294     dangerous.obj
 0003:00005298       ?dwManaPotionDelayMs@@3HA  6608b298     dangerous.obj
 0003:0000529c       ?nChickenLifeAction@@3HA   6608b29c     dangerous.obj
 0003:000052a0       ?tHealingPotion@@3UToggleVar@@A 6608b2a0     dangerous.obj
 0003:000052d0       ?tManaPotion@@3UToggleVar@@A 6608b2d0     dangerous.obj
 0003:00005300       ?tChickenLife@@3UToggleVar@@A 6608b300     dangerous.obj
 0003:00005330       ?tChickenHostile@@3UToggleVar@@A 6608b330     dangerous.obj
 0003:00005360       ?tChickenHostileNearby@@3UToggleVar@@A 6608b360     dangerous.obj
 0003:00005390       ?tChickenDangerousMonster@@3UToggleVar@@A 6608b390     dangerous.obj
 0003:000053c0       ?tAutoPotion@@3UToggleVar@@A 6608b3c0     dangerous.obj
 0003:000053f0       ?dwChickenLifeForcedClevel@@3HA 6608b3f0     dangerous.obj
 0003:000053f4       ?dwNoQuitIfDeadClevel@@3HA 6608b3f4     dangerous.obj
 0003:000053f8       ?dwChickenLifeEnterGame@@3HA 6608b3f8     dangerous.obj
 0003:000053fc       ?nDangerousMonsterAction@@3HA 6608b3fc     dangerous.obj
 0003:000059e8       ?dwBarbrianLeft@@3HA       6608b9e8     quest.obj
 0003:000059ec       ?dwBugAlertTimes@@3HA      6608b9ec     quest.obj
 0003:000059f0       ?tBugKCountess@@3UToggleVar@@A 6608b9f0     quest.obj
 0003:00005a20       ?tBugKM@@3UToggleVar@@A    6608ba20     quest.obj
 0003:00005a50       ?tBugKD@@3UToggleVar@@A    6608ba50     quest.obj
 0003:00005a80       ?tBugKB@@3UToggleVar@@A    6608ba80     quest.obj
 0003:00005ab0       ?tBugAutoQuit@@3UToggleVar@@A 6608bab0     quest.obj
 0003:00005ae0       ?tBugAutoQuitHell@@3UToggleVar@@A 6608bae0     quest.obj
 0003:00005b10       ?tBugAutoQuitHellAct1@@3UToggleVar@@A 6608bb10     quest.obj
 0003:00005b40       ?tBugAutoQuitHellAct3@@3UToggleVar@@A 6608bb40     quest.obj
 0003:00005b70       ?tBugAutoQuitHellAct4@@3UToggleVar@@A 6608bb70     quest.obj
 0003:00005ba0       ?tBugAutoQuitHellAct5@@3UToggleVar@@A 6608bba0     quest.obj
 0003:00005bd0       ?tBugAutoQuitAct5@@3UToggleVar@@A 6608bbd0     quest.obj
 0003:00005c00       ?tBugAllHellAlert@@3UToggleVar@@A 6608bc00     quest.obj
 0003:00005c30       ?tAlertNoBug@@3UToggleVar@@A 6608bc30     quest.obj
 0003:00005fb8       ?tMonsterLevel@@3UToggleVar@@A 6608bfb8     lifebar.obj
 0003:00005fe8       ?tMonsterTC@@3UToggleVar@@A 6608bfe8     lifebar.obj
 0003:00006018       ?tMonsterRuneTC@@3UToggleVar@@A 6608c018     lifebar.obj
 0003:00006048       ?tMonsterResists@@3UToggleVar@@A 6608c048     lifebar.obj
 0003:00006078       ?tMonsterHPPercent@@3UToggleVar@@A 6608c078     lifebar.obj
 0003:000060a8       ?tMonsterDistance@@3UToggleVar@@A 6608c0a8     lifebar.obj
 0003:000060d8       ?tMonsterID@@3UToggleVar@@A 6608c0d8     lifebar.obj
 0003:00006108       ?tSPMonsterHP@@3UToggleVar@@A 6608c108     lifebar.obj
 0003:00006138       ?tSPMonsterExp@@3UToggleVar@@A 6608c138     lifebar.obj
 0003:00006168       ?nLifeBarTrans@@3EA        6608c168     lifebar.obj
 0003:00006169       ?nLifeBarColour@@3EA       6608c169     lifebar.obj
 0003:0000616c       ?tPlayerLevel@@3UToggleVar@@A 6608c16c     lifebar.obj
 0003:0000619c       ?tPlayerDistance@@3UToggleVar@@A 6608c19c     lifebar.obj
 0003:000061cc       ?tPlayerHPPercent@@3UToggleVar@@A 6608c1cc     lifebar.obj
 0003:00006548       ?tDropProtectionToggle@@3UToggleVar@@A 6608c548     DropProtection.obj
 0003:00006578       ?tResetProtectionToggle@@3UToggleVar@@A 6608c578     DropProtection.obj
 0003:000066e0       ?tWisperNotice@@3UToggleVar@@A 6608c6e0     chat.obj
 0003:00006710       ?tInputLine@@3UToggleVar@@A 6608c710     chat.obj
 0003:00006740       ?tUseCustomFont@@3UToggleVar@@A 6608c740     chat.obj
 0003:00006770       ?tQuickMessagePasteOnly@@3UToggleVar@@A 6608c770     chat.obj
 0003:000069f0       ?tOutTownSelect@@3UToggleVar@@A 6608c9f0     misc.obj
 0003:00006a20       ?tULCMask@@3UToggleVar@@A  6608ca20     misc.obj
 0003:00006ad8       ?tMultiClient@@3UToggleVar@@A 6608cad8     multi.obj
 0003:00006b08       ?tMultiClientToggleFollow@@3UToggleVar@@A 6608cb08     multi.obj
 0003:00006b38       ?tMultiClientStartFollow1@@3UToggleVar@@A 6608cb38     multi.obj
 0003:00006b68       ?tMultiClientStartFollow2@@3UToggleVar@@A 6608cb68     multi.obj
 0003:00006b98       ?tMultiClientStopFollow@@3UToggleVar@@A 6608cb98     multi.obj
 0003:00006bc8       ?tMultiClientEnterDoor@@3UToggleVar@@A 6608cbc8     multi.obj
 0003:00006bf8       ?tMultiClientRetreat@@3UToggleVar@@A 6608cbf8     multi.obj
 0003:00006c28       ?tMultiClientClick@@3UToggleVar@@A 6608cc28     multi.obj
 0003:00006c58       ?tMultiClientClick2@@3UToggleVar@@A 6608cc58     multi.obj
 0003:00006c88       ?tMultiClientTalkToNpc@@3UToggleVar@@A 6608cc88     multi.obj
 0003:00006cb8       ?dwMultiClientGroupSize1@@3HA 6608ccb8     multi.obj
 0003:00006cbc       ?dwMultiClientGroupSize2@@3HA 6608ccbc     multi.obj
 0003:00006cc0       ?dwAutoFollowDistance@@3HA 6608ccc0     multi.obj
 0003:00006cc4       ?dwAutoFollowMaxDistance@@3HA 6608ccc4     multi.obj
 0003:00006cc8       ?dwAutoFollowMoveDistance@@3HA 6608ccc8     multi.obj
 0003:00006ccc       ?dwAutoFollowCheckInterval@@3HA 6608cccc     multi.obj
 0003:00006cd0       ?dwAutoFollowClickObjectDelayMs@@3HA 6608ccd0     multi.obj
 0003:00006cd4       ?dwWaitTeamEnterPortalMaxDelayMs@@3HA 6608ccd4     multi.obj
 0003:00006cd8       ?tNecNoAttackInHell@@3UToggleVar@@A 6608ccd8     multi.obj
 0003:000070a4       ?tNpcTradeShowInfo@@3UToggleVar@@A 6608d0a4     NpcTrade.obj
 0003:00007120       ?mAutoPartyDelays@@3HA     6608d120     party.obj
 0003:00007124       ?tAutoParty@@3UToggleVar@@A 6608d124     party.obj
 0003:00007154       ?tAutoInvite@@3UToggleVar@@A 6608d154     party.obj
 0003:00007184       ?tAutoPermit@@3UToggleVar@@A 6608d184     party.obj
 0003:000071b4       ?tAutoPartyBugMF@@3UToggleVar@@A 6608d1b4     party.obj
 0003:000072c8       ?nTownportalAlertNums@@3HA 6608d2c8     quick.obj
 0003:000072d0       ?tBackToTown@@3UToggleVar@@A 6608d2d0     quick.obj
 0003:00007300       ?tExitGame@@3UToggleVar@@A 6608d300     quick.obj
 0003:00007330       ?tQuickNextGame@@3UToggleVar@@A 6608d330     quick.obj
 0003:00007360       ?tQuickNextGame2@@3UToggleVar@@A 6608d360     quick.obj
 0003:000075d0       ?tRightClickSwap@@3UToggleVar@@A 6608d5d0     QuickSwapItem.obj
 0003:00007600       ?tQuickDropToggle@@3UToggleVar@@A 6608d600     QuickSwapItem.obj
 0003:00007630       ?tEnableGemAutoMerge@@3UToggleVar@@A 6608d630     QuickSwapItem.obj
 0003:00007660       ?tEnableAutoSimpleItemStack@@3UToggleVar@@A 6608d660     QuickSwapItem.obj
 0003:000077a8       ?tHighResolution@@3UToggleVar@@A 6608d7a8     resolution.obj
 0003:00007808       ?tAutoPickupToggle@@3UToggleVar@@A 6608d808     skill.obj
 0003:00007838       ?tAutoEnchant@@3UToggleVar@@A 6608d838     skill.obj
 0003:00007868       ?dwRenewEnchantMs@@3HA     6608d868     skill.obj
 0003:0000786c       ?dwAutoEnchantMana@@3HA    6608d86c     skill.obj
 0003:00007870       ?dwRenewEnchantMana@@3HA   6608d870     skill.obj
 0003:00007874       ?dwAutoEnchantPlayerLevel@@3HA 6608d874     skill.obj
 0003:00007878       ?tAutoWarCry@@3UToggleVar@@A 6608d878     skill.obj
 0003:000078a8       ?tAutoBackgroundSkill@@3UToggleVar@@A 6608d8a8     skill.obj
 0003:000078d8       ?tAutoForegroundSkillToggle@@3UToggleVar@@A 6608d8d8     skill.obj
 0003:00007908       ?tAutoForegroundSkill@@3UToggleVar@@A 6608d908     skill.obj
 0003:00007938       ?dwAutoSkillCheckInterval@@3HA 6608d938     skill.obj
 0003:0000793c       ?dwAutoSkillIdleDelay@@3HA 6608d93c     skill.obj
 0003:00007940       ?dwAutoThrowMinQuantity@@3HA 6608d940     skill.obj
 0003:00007944       ?dwAutoStaticFieldHPPercent@@3HA 6608d944     skill.obj
 0003:00007948       ?tAutoSummon@@3UToggleVar@@A 6608d948     skill.obj
 0003:00007978       ?tAutoSummonRevive@@3UToggleVar@@A 6608d978     skill.obj
 0003:000079a8       ?tShowSummonInfo@@3UToggleVar@@A 6608d9a8     skill.obj
 0003:000079d8       ?dwAutoSummonMana@@3HA     6608d9d8     skill.obj
 0003:000079dc       ?dwSwitchSkillMs@@3HA      6608d9dc     skill.obj
 0003:000079e0       ?dwAutoSummonSkeletonLevelAdjust@@3HA 6608d9e0     skill.obj
 0003:000079e4       ?dwAutoSummonSkeletonMageLevelAdjust@@3HA 6608d9e4     skill.obj
 0003:000079e8       ?dwAutoSummonReviveLevelAdjust@@3HA 6608d9e8     skill.obj
 0003:000079ec       ?tAutoForegroundSkill2@@3UToggleVar@@A 6608d9ec     skill.obj
 0003:00008010       ?szSnapshotPath@@3PADA     6608e010     Snapshot.obj
 0003:00008110       ?szSnapshotNamesPath@@3PADA 6608e110     Snapshot.obj
 0003:00008210       ?tDoSnapshot@@3UToggleVar@@A 6608e210     Snapshot.obj
 0003:00008240       ?tSnapshot@@3UToggleVar@@A 6608e240     Snapshot.obj
 0003:00008270       ?tSnapshotNewGame@@3UToggleVar@@A 6608e270     Snapshot.obj
 0003:000082a0       ?tSnapshotEndGame@@3UToggleVar@@A 6608e2a0     Snapshot.obj
 0003:000082d0       ?tSnapshotLog@@3UToggleVar@@A 6608e2d0     Snapshot.obj
 0003:00008300       ?tSnapshotSaveD2s@@3UToggleVar@@A 6608e300     Snapshot.obj
 0003:00008ae8       ?tServerTest@@3UToggleVar@@A 6608eae8     server.obj
 0003:00008b18       ?tRepeatAdminCmd@@3UToggleVar@@A 6608eb18     server.obj
 0003:00008b6c       ?fEnableAdminCmd@@3HA      6608eb6c     server.obj
 0003:00008b74       ?adminCmdPrefix@@3PADA     6608eb74     server.obj
 0003:00008f24       ?UberMephistoNbMinions@@3HA 6608ef24     uber.obj
 0003:00008f28       ?UberMephistoMinions@@3PAHA 6608ef28     uber.obj
 0003:00008f40       ?UberMephistoSpawnPercent@@3HA 6608ef40     uber.obj
 0003:00008f44       ?UberMephistoSpawnRadius@@3HA 6608ef44     uber.obj
 0003:00008f48       ?UberBaalNbMinions@@3HA    6608ef48     uber.obj
 0003:00008f4c       ?UberBaalMinions@@3PAHA    6608ef4c     uber.obj
 0003:00008f54       ?UberBaalSpawnPercent@@3HA 6608ef54     uber.obj
 0003:00008f58       ?UberBaalSpawnRadius@@3HA  6608ef58     uber.obj
 0003:00008f5c       ?UberDiabloNbMinions@@3HA  6608ef5c     uber.obj
 0003:00008f60       ?UberDiabloMinions@@3PAHA  6608ef60     uber.obj
 0003:00008f64       ?UberDiabloSpawnPercent@@3HA 6608ef64     uber.obj
 0003:00008f68       ?UberDiabloSpawnRadius@@3HA 6608ef68     uber.obj
 0003:00008f6c       ?uberBaalChillingArmorTimer@@3HA 6608ef6c     uber.obj
 0003:00009020       ?szVersion@@3PADA          6608f020     version.obj
 0003:00009024       ?compileTime@@3PADA        6608f024     version.obj
 0003:00009028       ___security_cookie         6608f028     LIBCMT:gs_cookie.obj
 0003:0000902c       ___security_cookie_complement 6608f02c     LIBCMT:gs_cookie.obj
 0003:00009030       __iob                      6608f030     LIBCMT:_file.obj
 0003:000092b0       __fltused                  6608f2b0     LIBCMT:_fpinit_.obj
 0003:000092b4       __ldused                   6608f2b4     LIBCMT:_fpinit_.obj
 0003:000092c4       ??_R0?AVbad_alloc@std@@@8  6608f2c4     LIBCMT:new.obj
 0003:000092e0       ??_R0?AVexception@std@@@8  6608f2e0     LIBCMT:new.obj
 0003:00009328       ___initialmbcinfo          6608f328     LIBCMT:mbctype.obj
 0003:00009548       __mbctype                  6608f548     LIBCMT:mbctype.obj
 0003:00009650       __mbcasemap                6608f650     LIBCMT:mbctype.obj
 0003:00009750       ___ptmbcinfo               6608f750     LIBCMT:mbctype.obj
 0003:0000984c       ___globallocalestatus      6608f84c     LIBCMT:glstatus.obj
 0003:00009850       ___clocalestr              6608f850     LIBCMT:nlsdata2.obj
 0003:00009858       ___initiallocinfo          6608f858     LIBCMT:nlsdata2.obj
 0003:00009930       ___ptlocinfo               6608f930     LIBCMT:nlsdata2.obj
 0003:00009934       ___lc_clike                6608f934     LIBCMT:nlsdata2.obj
 0003:00009938       ___initiallocalestructinfo 6608f938     LIBCMT:nlsdata2.obj
 0003:00009940       ___flsindex                6608f940     LIBCMT:tidtable.obj
 0003:00009944       ___getvalueindex           6608f944     LIBCMT:tidtable.obj
 0003:00009bd8       ___nullstring              6608fbd8     LIBCMT:output.obj
 0003:00009bdc       ___wnullstring             6608fbdc     LIBCMT:output.obj
 0003:00009be0       ___badioinfo               6608fbe0     LIBCMT:ioinit.obj
 0003:00009c20       __amblksiz                 6608fc20     LIBCMT:heapinit.obj
 0003:00009c30       __aexit_rtn                6608fc30     LIBCMT:crt0dat.obj
 0003:00009c34       __cfltcvt_tab              6608fc34     LIBCMT:cmiscdat.obj
 0003:00009d18       __lookuptrailbytes         6608fd18     LIBCMT:read.obj
 0003:00009e20       ??_R0?AVtype_info@@@8      6608fe20     LIBCMT:typinfo.obj
 0003:00009e40       __indefinite               6608fe40     LIBCMT:_87disp_.obj
 0003:00009e4a       __piby2                    6608fe4a     LIBCMT:_87disp_.obj
 0003:00009e70       __First_FPE_Indx           6608fe70     LIBCMT:winxfltr.obj
 0003:00009e74       __Num_FPE                  6608fe74     LIBCMT:winxfltr.obj
 0003:00009e78       __XcptActTabSize           6608fe78     LIBCMT:winxfltr.obj
 0003:00009e7c       __XcptActTabCount          6608fe7c     LIBCMT:winxfltr.obj
 0003:00009e80       __pctype                   6608fe80     LIBCMT:ctype.obj
 0003:00009e84       __pwctype                  6608fe84     LIBCMT:ctype.obj
 0003:00009e88       ___lc_time_c               6608fe88     LIBCMT:strftime.obj
 0003:00009f40       ___lc_time_curr            6608ff40     LIBCMT:strftime.obj
 0003:00009f44       ___lconv_static_decimal    6608ff44     LIBCMT:lconv.obj
 0003:00009f48       ___lconv_c                 6608ff48     LIBCMT:lconv.obj
 0003:00009f78       ___lconv                   6608ff78     LIBCMT:lconv.obj
 0003:00009f7c       ___mb_cur_max              6608ff7c     LIBCMT:nlsdata1.obj
 0003:00009f80       ___decimal_point           6608ff80     LIBCMT:nlsdata1.obj
 0003:00009f84       ___decimal_point_length    6608ff84     LIBCMT:nlsdata1.obj
 0003:00009fa0       __NLG_Destination          6608ffa0     LIBCMT:exsup.obj
 0003:00009fd0       __timezone                 6608ffd0     LIBCMT:timeset.obj
 0003:00009fd4       __daylight                 6608ffd4     LIBCMT:timeset.obj
 0003:00009fd8       __dstbias                  6608ffd8     LIBCMT:timeset.obj
 0003:0000a060       __tzname                   66090060     LIBCMT:timeset.obj
 0003:0000a068       __lpdays                   66090068     LIBCMT:days.obj
 0003:0000a09c       __days                     6609009c     LIBCMT:days.obj
 0003:0000a0d0       __coninpfh                 660900d0     LIBCMT:initcon.obj
 0003:0000a0d4       __confh                    660900d4     LIBCMT:initcon.obj
 0003:0000a0d8       ___abort_behavior          660900d8     LIBCMT:abort.obj
 0003:0000a1f8       __matherr_flag             660901f8     LIBCMT:_matherr_.obj
 0003:0000a220       __pow10pos                 66090220     LIBCMT:_constpow_.obj
 0003:0000a380       __pow10neg                 66090380     LIBCMT:_constpow_.obj
 0003:0000a4e0       __d_inf                    660904e0     LIBCMT:_util_.obj
 0003:0000a4e8       __d_ind                    660904e8     LIBCMT:_util_.obj
 0003:0000a4f0       __d_max                    660904f0     LIBCMT:_util_.obj
 0003:0000a4f8       __d_min                    660904f8     LIBCMT:_util_.obj
 0003:0000a500       __d_mzero                  66090500     LIBCMT:_util_.obj
 0003:0000a520       ?tmpSymbols@@3PAUSymbol@@A 66090520     config.obj
 0003:0000a924       ?logfp@@3PAU_iobuf@@A      66090924     config.obj
 0003:0000a928       ?tKeyEventMap@@3PAPAUToggleVar@@A 66090928     config.obj
 0003:0000c930       ?warningMsgs@@3PAUWarningMsg@@A 66092930     config.obj
 0003:0000c938       ?pSymbols@@3PAUSymbol@@A   66092938     config.obj
 0003:0000c93c       ?nSymbols@@3HA             6609293c     config.obj
 0003:0000c940       ?capSymbols@@3HA           66092940     config.obj
 0003:0000c944       ?nTmpSymbols@@3HA          66092944     config.obj
 0003:0000c948       ?fSymbolSorted@@3HA        66092948     config.obj
 0003:0000c950       ?configVarCap@@3HA         66092950     config.obj
 0003:0000c954       ?configVarCount@@3HA       66092954     config.obj
 0003:0000c958       ?loadingConfigs@@3PAULoadingConfig@@A 66092958     config.obj
 0003:0000c960       ?hInstDLL@@3PAUHINSTANCE__@@A 66092960     DllMain.obj
 0003:0000c964       ?dllHeap@@3PAXA            66092964     DllMain.obj
 0003:0000c968       ?confHeap@@3PAXA           66092968     DllMain.obj
 0003:0000c96c       ?gameHeap@@3PAXA           6609296c     DllMain.obj
 0003:0000c970       ?fIsSinglePlayer@@3HA      66092970     DllMain.obj
 0003:0000c974       ?fIsTcpIp@@3HA             66092974     DllMain.obj
 0003:0000c978       ?fIsRealmServer@@3HA       66092978     DllMain.obj
 0003:0000c97c       ?fIsRealmClient@@3HA       6609297c     DllMain.obj
 0003:0000c980       ?szDllPath@@3PADA          66092980     DllMain.obj
 0003:0000ca88       ?szPluginPath@@3PADA       66092a88     DllMain.obj
 0003:0000cb90       ?reloadStorage@@3PADA      66092b90     DllMain.obj
 0003:0000cb94       ?reloadStorageSize@@3HA    66092b94     DllMain.obj
 0003:0000cb98       ?storm_pmpq_load_flag@@3PAHA 66092b98     install.obj
 0003:0000cb9c       ?storm_pmpq_crypt_table@@3PAHA 66092b9c     install.obj
 0003:0000cba0       ?storm_regQueryValue@@3P6GHPAD0H0H@ZA 66092ba0     install.obj
 0003:0000cba4       ?storm_snprintf@@3P6AHPADHHZZA 66092ba4     install.obj
 0003:0000cba8       ?storm_processWinMessage372@@3P6GHHPAUHWND__@@HPAUD2MSG@@@ZA 66092ba8     install.obj
 0003:0000cbac       ?storm_processWinMessage@@3P6GHPAUHWND__@@HHHPAX1@ZA 66092bac     install.obj
 0003:0000cbb0       ?storm_openMpq@@3P6GHPBDHHPAX@ZA 66092bb0     install.obj
 0003:0000cbb4       ?storm_mpq_open_block@@3P6GHPADPAUmpq_block@@@ZA 66092bb4     install.obj
 0003:0000cbb8       ?storm_mpq_open_block_from@@3P6GHPAXPADHPAUmpq_block@@@ZA 66092bb8     install.obj
 0003:0000cbbc       ?storm_mpq_read_block@@3P6GHPAUmpq_block@@HPADH@ZA 66092bbc     install.obj
 0003:0000cbc0       ?storm_mk_abs_path@@3P6GPADPADPAX@ZA 66092bc0     install.obj
 0003:0000cbc4       ?storm_mpq_hashstring@@3P6GHH@ZA 66092bc4     install.obj
 0003:0000cbc8       ?storm_mpq_uncompress@@3P6GHPAXPAH0H@ZA 66092bc8     install.obj
 0003:0000cbcc       ?fog_Ord10218@@3P6IHXZA    66092bcc     install.obj
 0003:0000cbd0       ?fog_getMCPPacket@@3P6GHPAXPADH@ZA 66092bd0     install.obj
 0003:0000cbd4       ?fog_Ord10089@@3P6IHH@ZA   66092bd4     install.obj
 0003:0000cbd8       ?fog_uninit@@3P6GHXZA      66092bd8     install.obj
 0003:0000cbdc       ?fog_realloc@@3P6IPAXHPAXHPADHH@ZA 66092bdc     install.obj
 0003:0000cbe0       ?fog_allocMemory@@3P6IPAXHHPADHH@ZA 66092be0     install.obj
 0003:0000cbe4       ?fog_getCriticalSection@@3P6IPAUCriticalSection@@HPADHH@ZA 66092be4     install.obj
 0003:0000cbe8       ?fog_setCriticalSection@@3P6IHPAUCriticalSection@@PADHH@ZA 66092be8     install.obj
 0003:0000cbec       ?fog_freeMemory@@3P6IHHPAXPADHH@ZA 66092bec     install.obj
 0003:0000cbf0       ?fog_Ord10101@@3P6IHHH@ZA  66092bf0     install.obj
 0003:0000cbf4       ?fog_mpq_open_block@@3P6IHPADPAUmpq_block@@@ZA 66092bf4     install.obj
 0003:0000cbf8       ?fog_initBitStream@@3P6GPAUFogBits@@PAU1@PADH@ZA 66092bf8     install.obj
 0003:0000cbfc       ?fog_writeBitStream@@3P6GXPAUFogBits@@HH@ZA 66092bfc     install.obj
 0003:0000cc00       ?fog_setBit@@3P6GXPAXH@ZA  66092c00     install.obj
 0003:0000cc04       ?fog_clearBit@@3P6GXPAXH@ZA 66092c04     install.obj
 0003:0000cc08       ?fog_getBitStreamBytes@@3P6GHPAUFogBits@@@ZA 66092c08     install.obj
 0003:0000cc0c       ?fog_alignBitStreamToByte@@3P6GHPAUFogBits@@@ZA 66092c0c     install.obj
 0003:0000cc10       ?fog_Ord10019@@3P6IHPADPAX0H@ZA 66092c10     install.obj
 0003:0000cc14       ?fog_FogValidateCriticalSection@@3P6IHPAUCriticalSection@@H@ZA 66092c14     install.obj
 0003:0000cc18       ?fog_reportError@@3P6AXPAXHH@ZA 66092c18     install.obj
 0003:0000cc1c       ?fog_setLogFilePrefix@@3P6IHPAD@ZA 66092c1c     install.obj
 0003:0000cc20       ?fog_getEIP@@3P6GHXZA      66092c20     install.obj
 0003:0000cc24       ?fog_getClientID@@3P6GHPAUClientInfos@@H@ZA 66092c24     install.obj
 0003:0000cc28       ?fog_getClientInfo@@3P6GPAUClientInfo@@PAUClientInfos@@H@ZA 66092c28     install.obj
 0003:0000cc2c       ?fog_enableNTFeature@@3P6GHPAH@ZA 66092c2c     install.obj
 0003:0000cc30       ?fog_exit@@3P6GXH@ZA       66092c30     install.obj
 0003:0000cc34       ?d2win_pDrawHoverY@@3PAHA  66092c34     install.obj
 0003:0000cc38       ?d2win_pmusic_volumn@@3PAHA 66092c38     install.obj
 0003:0000cc3c       ?d2win_pRunningFlag@@3PAHA 66092c3c     install.obj
 0003:0000cc40       ?d2win_pclientProcessMessageFunc@@3PAPAXA 66092c40     install.obj
 0003:0000cc44       ?d2win_pFocusedControl@@3PAPAUD2EditBox@@A 66092c44     install.obj
 0003:0000cc48       ?d2win_pvar_214A0@@3PAPAXA 66092c48     install.obj
 0003:0000cc4c       ?d2win_DrawMainMenu@@3P6IPAXXZA 66092c4c     install.obj
 0003:0000cc50       ?d2win_CreateTextBox@@3P6GPAXPAK@ZA 66092c50     install.obj
 0003:0000cc54       ?d2win_DestroyListBox@@3P6GXPAUD2EditBox@@@ZA 66092c54     install.obj
 0003:0000cc58       ?d2win_processMessage@@3P6GHPAUHWND__@@HHH@ZA 66092c58     install.obj
 0003:0000cc5c       ?d2win_CreateEditBox@@3P6IPAUD2EditBox@@HHHHHHPAUCellFile@@KKKPAX@ZA 66092c5c     install.obj
 0003:0000cc60       ?d2win_DestroyEditBox@@3P6IHPAUD2EditBox@@@ZA 66092c60     install.obj
 0003:0000cc64       ?d2win_AddEditBoxChar@@3P6IKPAUD2EditBox@@E@ZA 66092c64     install.obj
 0003:0000cc68       ?d2win_SetEditBoxText@@3P6IPAXPAUD2EditBox@@PA_W@ZA 66092c68     install.obj
 0003:0000cc6c       ?d2win_SetEditBoxProc@@3P6IXPAUD2EditBox@@P6GH0HPAD@Z@ZA 66092c6c     install.obj
 0003:0000cc70       ?d2win_SelectEditBoxText@@3P6IXPAUD2EditBox@@@ZA 66092c70     install.obj
 0003:0000cc74       ?d2win_GetEditBoxText@@3P6IPA_WPAUD2EditBox@@@ZA 66092c74     install.obj
 0003:0000cc78       ?d2win_DrawHover@@3P6IXXZA 66092c78     install.obj
 0003:0000cc7c       ?d2win_SetTextFont@@3P6IHH@ZA 66092c7c     install.obj
 0003:0000cc80       ?d2win_DrawText@@3P6IXPA_WJJHH@ZA 66092c80     install.obj
 0003:0000cc84       ?d2win_GetTextPixelLen@@3P6IHPA_W@ZA 66092c84     install.obj
 0003:0000cc88       ?d2win_DrawUnitLifeBar@@3P6IHPA_WJJHKK@ZA 66092c88     install.obj
 0003:0000cc8c       ?d2win_GetTextAreaSize@@3P6IHPA_WPAH1@ZA 66092c8c     install.obj
 0003:0000cc90       ?d2win_DrawHoverText@@3P6IXPA_WJJHH@ZA 66092c90     install.obj
 0003:0000cc94       ?d2win_initMPQ@@3P6IHXZA   66092c94     install.obj
 0003:0000cc98       ?d2win_uninit@@3P6GHXZA    66092c98     install.obj
 0003:0000cc9c       ?d2win_addLineToList@@3P6IXPAUD2EditBox@@PAD@ZA 66092c9c     install.obj
 0003:0000cca0       ?d2win_PrintLineOnTextBox@@3P6IXPAXPADH@ZA 66092ca0     install.obj
 0003:0000cca4       ?d2win_setLineEndText@@3P6IXPAUD2EditBox@@PADPAXH@ZA 66092ca4     install.obj
 0003:0000cca8       ?d2win_ToggleSound@@3P6GXXZA 66092ca8     install.obj
 0003:0000ccac       ?d2sound_pmusic_volumn@@3PAHA 66092cac     install.obj
 0003:0000ccb0       ?d2sound_get_music_volumn@@3P6AHXZA 66092cb0     install.obj
 0003:0000ccb4       ?d2sound_set_music_volumn@@3P6IHH@ZA 66092cb4     install.obj
 0003:0000ccb8       ?d2net_pclientInfos@@3PAPAUClientInfos@@A 66092cb8     install.obj
 0003:0000ccbc       ?d2net_pUnkNetFlag@@3PAKA  66092cbc     install.obj
 0003:0000ccc0       ?d2net_ppacketSizes@@3PAHA 66092cc0     install.obj
 0003:0000ccc4       ?d2net_SendPacket@@3P6GXHHPAE@ZA 66092cc4     install.obj
 0003:0000ccc8       ?d2net_getPacketSize@@3P6IXPADHPAH@ZA 66092cc8     install.obj
 0003:0000cccc       ?d2net_initNetwork@@3P6GHHH@ZA 66092ccc     install.obj
 0003:0000ccd0       ?d2net_SendToClient@@3P6GHHHPAXH@ZA 66092cd0     install.obj
 0003:0000ccd4       ?d2net_uninit@@3P6GHXZA    66092cd4     install.obj
 0003:0000ccd8       ?d2net_getWorldId@@3P6GHH@ZA 66092cd8     install.obj
 0003:0000ccdc       ?d2multi_plastRefreshMs2@@3PAHA 66092cdc     install.obj
 0003:0000cce0       ?d2multi_plastRefreshMs1@@3PAHA 66092ce0     install.obj
 0003:0000cce4       ?d2multi_pnGames@@3PAHA    66092ce4     install.obj
 0003:0000cce8       ?d2multi_pGameDescription@@3PAPAUD2EditBox@@A 66092ce8     install.obj
 0003:0000ccec       ?d2multi_pGamePassword@@3PAPAUD2EditBox@@A 66092cec     install.obj
 0003:0000ccf0       ?d2multi_pGameName@@3PAPAUD2EditBox@@A 66092cf0     install.obj
 0003:0000ccf4       ?d2multi_pGameListControl@@3PAPAUD2EditBox@@A 66092cf4     install.obj
 0003:0000ccf8       ?d2multi_pmcp05_games2@@3PAUMcp05Game@@A 66092cf8     install.obj
 0003:0000ccfc       ?d2multi_pEditboxPreferences@@3PAPAXA 66092cfc     install.obj
 0003:0000cd00       ?d2multi_pmcp05_games@@3PAUMcp05Game@@A 66092d00     install.obj
 0003:0000cd04       ?d2multi_reset_games@@3P6GHXZA 66092d04     install.obj
 0003:0000cd08       ?d2multi_add_game@@3P6GHXZA 66092d08     install.obj
 0003:0000cd0c       ?d2multi_show_games@@3P6GHXZA 66092d0c     install.obj
 0003:0000cd10       ?d2multi_num2str@@3P6AHHPADH@ZA 66092d10     install.obj
 0003:0000cd14       ?d2multi_num2str1058@@3P6GHHH@ZA 66092d14     install.obj
 0003:0000cd18       ?d2mcpclient_pmcp05_type@@3PAHA 66092d18     install.obj
 0003:0000cd1c       ?d2mcpclient_pmcp05_gameName2@@3PADA 66092d1c     install.obj
 0003:0000cd20       ?d2mcpclient_pmcp05_gameName@@3PADA 66092d20     install.obj
 0003:0000cd24       ?d2mcpclient_pmcp05_off08@@3PAHA 66092d24     install.obj
 0003:0000cd28       ?d2mcpclient_pmcp05_nPlayers@@3PAHA 66092d28     install.obj
 0003:0000cd2c       ?d2mcpclient_pmcp05_idx@@3PAHA 66092d2c     install.obj
 0003:0000cd30       ?d2mcpclient_pmcp05_seqId@@3PAHA 66092d30     install.obj
 0003:0000cd34       ?d2mcpclient_pmcp05_buf@@3PAUMcp05Buf@@A 66092d34     install.obj
 0003:0000cd38       ?d2mcpclient_pmcpSrc@@3PAPAXA 66092d38     install.obj
 0003:0000cd3c       ?d2mcpclient_pAccountInfo@@3PAUD2AccountInfo@@A 66092d3c     install.obj
 0003:0000cd40       ?d2mcpclient_pmpc05_seqId@@3PAFA 66092d40     install.obj
 0003:0000cd44       ?d2mcpclient_processOnePacket@@3P6GHXZA 66092d44     install.obj
 0003:0000cd48       ?d2mcpclient_getMcp05Buf@@3P6GPAUMcp05Buf@@XZA 66092d48     install.obj
 0003:0000cd4c       ?d2mcpclient_mcpPacket05@@3P6IHPAUMCPPacket05@@H@ZA 66092d4c     install.obj
 0003:0000cd50       ?d2launch_pcharCount@@3PAHA 66092d50     install.obj
 0003:0000cd54       ?d2launch_pD2Characters@@3PAPAUD2Character@@A 66092d54     install.obj
 0003:0000cd58       ?d2launch_plaunchNumChildren@@3PAHA 66092d58     install.obj
 0003:0000cd5c       ?d2launch_plaunchChildren@@3PAPAXA 66092d5c     install.obj
 0003:0000cd60       ?d2launch_pSelectedCharIndex@@3PAHA 66092d60     install.obj
 0003:0000cd64       ?d2launch_pcreateTextBoxParam11F0@@3PAPAKA 66092d64     install.obj
 0003:0000cd68       ?d2launch_DeleteCharacter@@3P6IXPAD@ZA 66092d68     install.obj
 0003:0000cd6c       ?d2launch_DeleteSelectedCharacter@@3P6GHH@ZA 66092d6c     install.obj
 0003:0000cd70       ?d2launch_sprintf@@3P6AHPAD0ZZA 66092d70     install.obj
 0003:0000cd74       ?d2lang_plocaleTxtMap20000@@3PAPAUd2lang_map@@A 66092d74     install.obj
 0003:0000cd78       ?d2lang_plocaleTxtMap10000@@3PAPAUd2lang_map@@A 66092d78     install.obj
 0003:0000cd7c       ?d2lang_plocaleTxt20000@@3PAPAPA_WA 66092d7c     install.obj
 0003:0000cd80       ?d2lang_plocaleTxt10000@@3PAPAPA_WA 66092d80     install.obj
 0003:0000cd84       ?d2lang_plocaleTxt0@@3PAPAPA_WA 66092d84     install.obj
 0003:0000cd88       ?d2lang_plocaleTxtMap0@@3PAPAUd2lang_map@@A 66092d88     install.obj
 0003:0000cd8c       ?d2lang_strcat@@3P6IPA_WPA_W0@ZA 66092d8c     install.obj
 0003:0000cd90       ?d2lang_initLanguage@@3P6IHHPADH@ZA 66092d90     install.obj
 0003:0000cd94       ?d2lang_uninit@@3P6GHXZA   66092d94     install.obj
 0003:0000cd98       ?d2lang_GetLocaleText@@3P6IPA_WH@ZA 66092d98     install.obj
 0003:0000cd9c       ?d2lang_getLocalText9050@@3P6GPA_WPAPA_W@ZA 66092d9c     install.obj
 0003:0000cda0       ?d2gfx_pWinState@@3PAHA    66092da0     install.obj
 0003:0000cda4       ?d2gfx_pDrawGoundH1@@3PAHA 66092da4     install.obj
 0003:0000cda8       ?d2gfx_pDrawGoundH2@@3PAHA 66092da8     install.obj
 0003:0000cdac       ?d2gfx_pcallbackTable@@3PAPAXA 66092dac     install.obj
 0003:0000cdb0       ?d2gfx_pResolutionMode@@3PAHA 66092db0     install.obj
 0003:0000cdb4       ?d2gfx_DrawRectangle@@3P6GXJJJJHH@ZA 66092db4     install.obj
 0003:0000cdb8       ?d2gfx_DrawLine@@3P6GXHHHHHH@ZA 66092db8     install.obj
 0003:0000cdbc       ?d2gfx_getResolutionMode@@3P6GHXZA 66092dbc     install.obj
 0003:0000cdc0       ?d2gfx_DrawCellFile@@3P6GHPAUCellContext@@HHKHPAE@ZA 66092dc0     install.obj
 0003:0000cdc4       ?d2gfx_drawSomething@@3P6GXPAXHHHHH@ZA 66092dc4     install.obj
 0003:0000cdc8       ?d2gfx_FillOrb@@3P6GXHHHHHH@ZA 66092dc8     install.obj
 0003:0000cdcc       ?d2gfx_DrawAutomapNode@@3P6GXPAUCellContext@@HHPAUtagRECT@@K@ZA 66092dcc     install.obj
 0003:0000cdd0       ?d2gfx_drawShadow@@3P6GXPAXHH@ZA 66092dd0     install.obj
 0003:0000cdd4       ?d2gfx_clearFramebuf@@3P6GXHHHH@ZA 66092dd4     install.obj
 0003:0000cdd8       ?d2gfx_flushFramebuf@@3P6GXXZA 66092dd8     install.obj
 0003:0000cddc       ?d2gfx_Ordinal10043@@3P6GXXZA 66092ddc     install.obj
 0003:0000cde0       ?d2gfx_MinimizeWindows@@3P6GXK@ZA 66092de0     install.obj
 0003:0000cde4       ?d2gfx_GetHwnd@@3P6GPAUHWND__@@XZA 66092de4     install.obj
 0003:0000cde8       ?d2gfx_drawGroundPiece@@3P6GXPAX0HHHHHHH@ZA 66092de8     install.obj
 0003:0000cdec       ?d2gdi_pcriticalSection@@3PAPAUCriticalSection@@A 66092dec     install.obj
 0003:0000cdf0       ?d2gdi_pFrameBuf@@3PAPAXA  66092df0     install.obj
 0003:0000cdf4       ?d2gdi_pDisplayRight@@3PAHA 66092df4     install.obj
 0003:0000cdf8       ?d2gdi_pFrameBufHeight@@3PAHA 66092df8     install.obj
 0003:0000cdfc       ?d2gdi_pgdiobj@@3PAPAXA    66092dfc     install.obj
 0003:0000ce00       ?d2gdi_ppalette@@3PAPAUHPALETTE__@@A 66092e00     install.obj
 0003:0000ce04       ?d2gdi_pFrameBufWidth@@3PAHA 66092e04     install.obj
 0003:0000ce08       ?d2gdi_phwnd@@3PAPAUHWND__@@A 66092e08     install.obj
 0003:0000ce0c       ?d2gdi_pColorMap@@3PAHA    66092e0c     install.obj
 0003:0000ce10       ?d2gdi_initCriticalSection@@3P6IHPAX0@ZA 66092e10     install.obj
 0003:0000ce14       ?d2game_pDropChioceProb@@3PAHA 66092e14     install.obj
 0003:0000ce18       ?d2game_pDropChioces@@3PAHA 66092e18     install.obj
 0003:0000ce1c       ?d2game_pworldHash@@3PAPAUWorldHash@@A 66092e1c     install.obj
 0003:0000ce20       ?d2game_pcriticalSection@@3PAUCriticalSection@@A 66092e20     install.obj
 0003:0000ce24       ?d2game_pSPUnitOffsets@@3PAHA 66092e24     install.obj
 0003:0000ce28       ?d2game_psgptDataTables@@3PAPAUD2DataTables@@A 66092e28     install.obj
 0003:0000ce2c       ?d2game_MonsterMove@@3P6IXPAUWorld@@PAUUnitAny@@1HHHHH@ZA 66092e2c     install.obj
 0003:0000ce30       ?d2game_MonsterUseSkill@@3P6IXPAUWorld@@PAUUnitAny@@HH1HH@ZA 66092e30     install.obj
 0003:0000ce34       ?d2game_SpawnMonster@@3P6IPAUUnitAny@@HHPAUWorld@@PAUAreaRectData@@HHHH@ZA 66092e34     install.obj
 0003:0000ce38       ?d2game_SpawnMonsterEF10@@3P6IPAUUnitAny@@PAUSpawnMon@@@ZA 66092e38     install.obj
 0003:0000ce3c       ?d2game_MakeD2S@@3P6IHPAUUnitAny@@PAUWorld@@PADPAHHHH@ZA 66092e3c     install.obj
 0003:0000ce40       ?d2game_playerUpgrade@@3P6GHPAUWorld@@@ZA 66092e40     install.obj
 0003:0000ce44       ?d2game_CreateUnit@@3P6IPAUUnitAny@@HHHHPAUWorld@@PAUAreaRectData@@HHH@ZA 66092e44     install.obj
 0003:0000ce48       ?d2game_GetUnit@@3P6IHPAUWorld@@H@ZA 66092e48     install.obj
 0003:0000ce4c       ?d2game_isUnitDead@@3P6GHXZA 66092e4c     install.obj
 0003:0000ce50       ?d2game_swapWeapon@@3P6GHPAUWorld@@PAH@ZA 66092e50     install.obj
 0003:0000ce54       ?d2game_pickupItem@@3P6GHHPAH@ZA 66092e54     install.obj
 0003:0000ce58       ?d2game_putItemInSocketD4A70@@3P6GHPAUWorld@@PAUUnitAny@@HPAHHHHH@ZA 66092e58     install.obj
 0003:0000ce5c       ?d2game_recv19_invToHand@@3P6IHPAUWorld@@PAUUnitAny@@PADH@ZA 66092e5c     install.obj
 0003:0000ce60       ?d2game_recv16_pickup@@3P6IHPAUWorld@@PAUUnitAny@@PADH@ZA 66092e60     install.obj
 0003:0000ce64       ?d2game_pickup@@3P6IHPAUWorld@@HPAUUnitAny@@H@ZA 66092e64     install.obj
 0003:0000ce68       ?d2game_recv60_swapWeapon@@3P6IHPAUWorld@@PAUUnitAny@@PADH@ZA 66092e68     install.obj
 0003:0000ce6c       ?d2game_recv1A_handToBody@@3P6IHPAUWorld@@PAUUnitAny@@PADH@ZA 66092e6c     install.obj
 0003:0000ce70       ?d2game_recv28_socket@@3P6IHPAUWorld@@PAUUnitAny@@PADH@ZA 66092e70     install.obj
 0003:0000ce74       ?d2game_itemNotInInv@@3P6IHHHPAUUnitAny@@@ZA 66092e74     install.obj
 0003:0000ce78       ?d2game_processPacket@@3P6GHPAUWorld@@H@ZA 66092e78     install.obj
 0003:0000ce7c       ?d2game_recv40_quest@@3P6IHPAUWorld@@PAUUnitAny@@PADH@ZA 66092e7c     install.obj
 0003:0000ce80       ?d2game_passClassicB9F20@@3P6IHPAUWorld@@PAUUnitAny@@H@ZA 66092e80     install.obj
 0003:0000ce84       ?d2game_passClassicB9A30@@3P6IHXZA 66092e84     install.obj
 0003:0000ce88       ?d2game_BaalAI@@3P6IXPAUWorld@@PAUUnitAny@@PAX@ZA 66092e88     install.obj
 0003:0000ce8c       ?d2game_UberBaalAI@@3P6IXPAUWorld@@PAUUnitAny@@PAX@ZA 66092e8c     install.obj
 0003:0000ce90       ?d2game_DiabloAI@@3P6IXPAUWorld@@PAUUnitAny@@PAX@ZA 66092e90     install.obj
 0003:0000ce94       ?d2game_UberDiabloAI@@3P6IXPAUWorld@@PAUUnitAny@@PAX@ZA 66092e94     install.obj
 0003:0000ce98       ?d2game_NecSummon@@3P6IPAUUnitAny@@XZA 66092e98     install.obj
 0003:0000ce9c       ?d2game_LinkPortal@@3P6GPAUUnitAny@@PAUWorld@@PAU1@HH@ZA 66092e9c     install.obj
 0003:0000cea0       ?d2game_fun_8EBC0@@3P6GHPAUWorld@@PAX@ZA 66092ea0     install.obj
 0003:0000cea4       ?d2game_SetSkillBaseLevelOnClient@@3P6IXPAXPAUUnitAny@@HHH@ZA 66092ea4     install.obj
 0003:0000cea8       ?d2game_sendPacket@@3P6GHPADH@ZA 66092ea8     install.obj
 0003:0000ceac       ?d2game_MephAI@@3P6IXPAUWorld@@PAUUnitAny@@PAX@ZA 66092eac     install.obj
 0003:0000ceb0       ?d2game_UberMephAI@@3P6IXPAUWorld@@PAUUnitAny@@PAX@ZA 66092eb0     install.obj
 0003:0000ceb4       ?d2game_fun_769A0@@3P6GHPAUWorld@@HH@ZA 66092eb4     install.obj
 0003:0000ceb8       ?d2game_OpenPandPortal@@3P6IXPAUWorld@@PAUUnitAny@@@ZA 66092eb8     install.obj
 0003:0000cebc       ?d2game_OpenPandFinalPortal@@3P6IXPAUWorld@@PAUUnitAny@@@ZA 66092ebc     install.obj
 0003:0000cec0       ?d2game_passExpansion599E0@@3P6IXPAUWorld@@PAUUnitAny@@H@ZA 66092ec0     install.obj
 0003:0000cec4       ?d2game_passExpansion58BE0@@3P6IXPAUUnitAny@@@ZA 66092ec4     install.obj
 0003:0000cec8       ?d2game_fun_4E2A0@@3P6IXPAUWorld@@PAUUnitAny@@H@ZA 66092ec8     install.obj
 0003:0000cecc       ?d2game_getNetClient@@3P6IPAUNetClient@@H@ZA 66092ecc     install.obj
 0003:0000ced0       ?d2game_processClientQuestReq@@3P6GHPAUWorld@@PAUUnitAny@@@ZA 66092ed0     install.obj
 0003:0000ced4       ?d2game_sendQuestToClient@@3P6GHPAUWorld@@@ZA 66092ed4     install.obj
 0003:0000ced8       ?d2game_processGame@@3P6GHXZA 66092ed8     install.obj
 0003:0000cedc       ?d2game_isBusy@@3P6GHH@ZA  66092edc     install.obj
 0003:0000cee0       ?d2game_Ord10024@@3P6GHHH@ZA 66092ee0     install.obj
 0003:0000cee4       ?d2game_endAllGames@@3P6AHH@ZA 66092ee4     install.obj
 0003:0000cee8       ?d2game_Ord10038@@3P6GHXZA 66092ee8     install.obj
 0003:0000ceec       ?d2game_SendDatabaseCharacter@@3P6GHHPAXHHHHPAUPlayerInfo@@H@ZA 66092eec     install.obj
 0003:0000cef0       ?d2game_removeClientFromGame@@3P6GHH@ZA 66092ef0     install.obj
 0003:0000cef4       ?d2game_SaveGame@@3P6GXPAUWorld@@@ZA 66092ef4     install.obj
 0003:0000cef8       ?d2game_NewEmptyGame@@3P6GHPAD00HDDDPAF@ZA 66092ef8     install.obj
 0003:0000cefc       ?d2game_getWorld@@3P6GPAUWorld@@XZA 66092efc     install.obj
 0003:0000cf00       ?d2game_getWorldByID@@3P6GPAUWorld@@H@ZA 66092f00     install.obj
 0003:0000cf04       ?d2game_uninit@@3P6GHXZA   66092f04     install.obj
 0003:0000cf08       ?d2game_setWorldHash@@3P6GHPAUWorldHash@@PAH@ZA 66092f08     install.obj
 0003:0000cf0c       ?d2game_initCallbackTable@@3P6GHPAX@ZA 66092f0c     install.obj
 0003:0000cf10       ?d2game_SpawnSuperUnique@@3P6IHPAUWorld@@PAUAreaRectData@@HHHHHH@ZA 66092f10     install.obj
 0003:0000cf14       ?d2game_Game235C0@@3P6GXPAUWorld@@PAUAreaRectData@@@ZA 66092f14     install.obj
 0003:0000cf18       ?d2game_DropItem1880@@3P6GXPAUWorld@@HHHH@ZA 66092f18     install.obj
 0003:0000cf1c       ?d2game_DropItem1490@@3P6GPAUUnitAny@@PAUWorld@@PAXH@ZA 66092f1c     install.obj
 0003:0000cf20       ?d2game_GetFreeXY@@3P6GPAUAreaRectData@@PAU1@PAUtagPOINT@@H@ZA 66092f20     install.obj
 0003:0000cf24       ?d2game_GetUnitLevel@@3P6GHH@ZA 66092f24     install.obj
 0003:0000cf28       ?d2game_hasDroppedUnique@@3P6IHH@ZA 66092f28     install.obj
 0003:0000cf2c       ?d2game_exit@@3P6GHH@ZA    66092f2c     install.obj
 0003:0000cf30       ?d2game_getWorld_2130@@3P6GPAUWorld@@XZA 66092f30     install.obj
 0003:0000cf34       ?d2game_TestPosition@@3P6IPAUAreaRectData@@XZA 66092f34     install.obj
 0003:0000cf38       ?d2game_random@@3P6IHPAUD2Seed@@@ZA 66092f38     install.obj
 0003:0000cf3c       ?d2common_pnCubeMain@@3PAHA 66092f3c     install.obj
 0003:0000cf40       ?d2common_ppCubeMainTxt@@3PAPAXA 66092f40     install.obj
 0003:0000cf44       ?d2common_pnMapCache@@3PAHA 66092f44     install.obj
 0003:0000cf48       ?d2common_ppMapCache@@3PAPAXA 66092f48     install.obj
 0003:0000cf4c       ?d2common_ppLvlSubCache@@3PAPAXA 66092f4c     install.obj
 0003:0000cf50       ?d2common_pnLvlSub@@3PAHA  66092f50     install.obj
 0003:0000cf54       ?d2common_ppLvlSubTxt@@3PAPAXA 66092f54     install.obj
 0003:0000cf58       ?d2common_pnLvlMaze@@3PAHA 66092f58     install.obj
 0003:0000cf5c       ?d2common_ppLvlMazeTxt@@3PAPAXA 66092f5c     install.obj
 0003:0000cf60       ?d2common_pnLvlWarp@@3PAHA 66092f60     install.obj
 0003:0000cf64       ?d2common_ppLvlWarpTxt@@3PAPAXA 66092f64     install.obj
 0003:0000cf68       ?d2common_pnLvlTypes@@3PAHA 66092f68     install.obj
 0003:0000cf6c       ?d2common_pnWaypoints@@3PAHA 66092f6c     install.obj
 0003:0000cf70       ?d2common_ppWaypoints@@3PAPAXA 66092f70     install.obj
 0003:0000cf74       ?d2common_ppLvlTypesTxt@@3PAPAXA 66092f74     install.obj
 0003:0000cf78       ?d2common_ppArenaTxt@@3PAPAXA 66092f78     install.obj
 0003:0000cf7c       ?d2common_pnCharTemplate@@3PAHA 66092f7c     install.obj
 0003:0000cf80       ?d2common_ppCharTemplateTxt@@3PAPAXA 66092f80     install.obj
 0003:0000cf84       ?d2common_pnLvlSubExtraStuff@@3PAHA 66092f84     install.obj
 0003:0000cf88       ?d2common_ppLvlSubExtraStuff@@3PAPAXA 66092f88     install.obj
 0003:0000cf8c       ?d2common_pExpFieldRuntimeData@@3PAPAXA 66092f8c     install.obj
 0003:0000cf90       ?d2common_ppExpFieldD2@@3PAPAXA 66092f90     install.obj
 0003:0000cf94       ?d2common_pnDifficultyLevels@@3PAHA 66092f94     install.obj
 0003:0000cf98       ?d2common_ppDifficultyLevelsTxt@@3PAPAXA 66092f98     install.obj
 0003:0000cf9c       ?d2common_ppExperienceTxt@@3PAPAXA 66092f9c     install.obj
 0003:0000cfa0       ?d2common_ppAnimTables@@3PAPAXA 66092fa0     install.obj
 0003:0000cfa4       ?d2common_pItemStatCostStuff@@3PAPAXA 66092fa4     install.obj
 0003:0000cfa8       ?d2common_pnLvlPrest@@3PAHA 66092fa8     install.obj
 0003:0000cfac       ?d2common_ppLvlPrestTxt@@3PAPAXA 66092fac     install.obj
 0003:0000cfb0       ?d2common_ppLvlDefsBin@@3PAPAXA 66092fb0     install.obj
 0003:0000cfb4       ?d2common_pnLevels@@3PAHA  66092fb4     install.obj
 0003:0000cfb8       ?d2common_ppLevelsTxt@@3PAPAXA 66092fb8     install.obj
 0003:0000cfbc       ?d2common_pnMonUMod@@3PAHA 66092fbc     install.obj
 0003:0000cfc0       ?d2common_ppMonUModTxt@@3PAPAXA 66092fc0     install.obj
 0003:0000cfc4       ?d2common_ppMonUModLink@@3PAPAXA 66092fc4     install.obj
 0003:0000cfc8       ?d2common_pnMonTypeNesting@@3PAHA 66092fc8     install.obj
 0003:0000cfcc       ?d2common_ppMonTypeNesting@@3PAPAXA 66092fcc     install.obj
 0003:0000cfd0       ?d2common_pnMonType@@3PAHA 66092fd0     install.obj
 0003:0000cfd4       ?d2common_ppMonTypeTxt@@3PAPAXA 66092fd4     install.obj
 0003:0000cfd8       ?d2common_ppMonTypeLink@@3PAPAXA 66092fd8     install.obj
 0003:0000cfdc       ?d2common_pnMonProp@@3PAHA 66092fdc     install.obj
 0003:0000cfe0       ?d2common_ppMonPropTxt@@3PAPAXA 66092fe0     install.obj
 0003:0000cfe4       ?d2common_ppMonPropLink@@3PAPAXA 66092fe4     install.obj
 0003:0000cfe8       ?d2common_pnUniqueItems@@3PAHA 66092fe8     install.obj
 0003:0000cfec       ?d2common_ppUniqueItemsTxt@@3PAPAXA 66092fec     install.obj
 0003:0000cff0       ?d2common_ppUniqueItemsLink@@3PAPAXA 66092ff0     install.obj
 0003:0000cff4       ?d2common_pnSetItems@@3PAHA 66092ff4     install.obj
 0003:0000cff8       ?d2common_ppSetItemsTxt@@3PAPAXA 66092ff8     install.obj
 0003:0000cffc       ?d2common_ppSetItemsLink@@3PAPAXA 66092ffc     install.obj
 0003:0000d000       ?d2common_pnSets@@3PAHA    66093000     install.obj
 0003:0000d004       ?d2common_ppSetsTxt@@3PAPAXA 66093004     install.obj
 0003:0000d008       ?d2common_ppSetsLink@@3PAPAXA 66093008     install.obj
 0003:0000d00c       ?d2common_ppItemTypeNesting@@3PAPAXA 6609300c     install.obj
 0003:0000d010       ?d2common_pnItemTypeNesting@@3PAHA 66093010     install.obj
 0003:0000d014       ?d2common_pnItemTypes@@3PAHA 66093014     install.obj
 0003:0000d018       ?d2common_ppItemTypesTxt@@3PAPAXA 66093018     install.obj
 0003:0000d01c       ?d2common_ppItemTypesLink@@3PAPAXA 6609301c     install.obj
 0003:0000d020       ?d2common_pnPetTypes@@3PAHA 66093020     install.obj
 0003:0000d024       ?d2common_ppPetTypesLink@@3PAPAXA 66093024     install.obj
 0003:0000d028       ?d2common_ppPetTypesTxt@@3PAPAXA 66093028     install.obj
 0003:0000d02c       ?d2common_pnMonEquip@@3PAHA 6609302c     install.obj
 0003:0000d030       ?d2common_ppMonEquipTxt@@3PAPAXA 66093030     install.obj
 0003:0000d034       ?d2common_pnOpStatNesting@@3PAHA 66093034     install.obj
 0003:0000d038       ?d2common_ppOpStatNesting@@3PAPAXA 66093038     install.obj
 0003:0000d03c       ?d2common_pnItemStatCost@@3PAHA 6609303c     install.obj
 0003:0000d040       ?d2common_ppItemStatCostLink@@3PAPAXA 66093040     install.obj
 0003:0000d044       ?d2common_ppItemStatCostTxt@@3PAPAUItemStatCostTxt@@A 66093044     install.obj
 0003:0000d048       ?d2common_pnCharStats@@3PAHA 66093048     install.obj
 0003:0000d04c       ?d2common_ppCharStatsTxt@@3PAPAXA 6609304c     install.obj
 0003:0000d050       ?d2common_pnOverlay@@3PAHA 66093050     install.obj
 0003:0000d054       ?d2common_ppOverlayLink@@3PAPAXA 66093054     install.obj
 0003:0000d058       ?d2common_ppOverlayTxt@@3PAPAXA 66093058     install.obj
 0003:0000d05c       ?d2common_ppPassiveSkillList@@3PAPAXA 6609305c     install.obj
 0003:0000d060       ?d2common_pnPassiveSkillCount@@3PAHA 66093060     install.obj
 0003:0000d064       ?d2common_ppPlayerSkillList@@3PAPAXA 66093064     install.obj
 0003:0000d068       ?d2common_pnPlayerSkillCount@@3PAHA 66093068     install.obj
 0003:0000d06c       ?d2common_ppPlayerSkillCount@@3PAPAXA 6609306c     install.obj
 0003:0000d070       ?d2common_pnSkills@@3PAHA  66093070     install.obj
 0003:0000d074       ?d2common_ppSkillsLink@@3PAPAXA 66093074     install.obj
 0003:0000d078       ?d2common_ppSkillsTxt@@3PAPAXA 66093078     install.obj
 0003:0000d07c       ?d2common_pnSkillDesc@@3PAHA 6609307c     install.obj
 0003:0000d080       ?d2common_ppSkillDescLink@@3PAPAXA 66093080     install.obj
 0003:0000d084       ?d2common_ppSkillDescTxt@@3PAPAXA 66093084     install.obj
 0003:0000d088       ?d2common_pnMonSequences@@3PAHA 66093088     install.obj
 0003:0000d08c       ?d2common_ppMonSequences@@3PAPAXA 6609308c     install.obj
 0003:0000d090       ?d2common_pnMonSeq@@3PAHA  66093090     install.obj
 0003:0000d094       ?d2common_ppMonSeqLink@@3PAPAXA 66093094     install.obj
 0003:0000d098       ?d2common_ppMonSeqTxt@@3PAPAXA 66093098     install.obj
 0003:0000d09c       ?d2common_pnMonLvl@@3PAHA  6609309c     install.obj
 0003:0000d0a0       ?d2common_ppMonLvlTxt@@3PAPAXA 660930a0     install.obj
 0003:0000d0a4       ?d2common_pnMissiles@@3PAHA 660930a4     install.obj
 0003:0000d0a8       ?d2common_ppMissilesLink@@3PAPAXA 660930a8     install.obj
 0003:0000d0ac       ?d2common_ppMissilesTxt@@3PAPAXA 660930ac     install.obj
 0003:0000d0b0       ?d2common_pSuperUniqueHcIdxList@@3PAPAXA 660930b0     install.obj
 0003:0000d0b4       ?d2common_pnSuperUniques@@3PAHA 660930b4     install.obj
 0003:0000d0b8       ?d2common_ppSuperUniquesLink@@3PAPAXA 660930b8     install.obj
 0003:0000d0bc       ?d2common_ppSuperUniquesTxt@@3PAPAXA 660930bc     install.obj
 0003:0000d0c0       ?d2common_pnMonPresetEachAct@@3PAHA 660930c0     install.obj
 0003:0000d0c4       ?d2common_ppMonPresetActList@@3PAPAXA 660930c4     install.obj
 0003:0000d0c8       ?d2common_ppMonPresetTxt@@3PAPAXA 660930c8     install.obj
 0003:0000d0cc       ?d2common_pnMonPlace@@3PAHA 660930cc     install.obj
 0003:0000d0d0       ?d2common_ppMonPlaceLink@@3PAPAXA 660930d0     install.obj
 0003:0000d0d4       ?d2common_ppMonPlaceTxt@@3PAPAXA 660930d4     install.obj
 0003:0000d0d8       ?d2common_pnMonStats2@@3PAHA 660930d8     install.obj
 0003:0000d0dc       ?d2common_ppMonStats2Link@@3PAPAXA 660930dc     install.obj
 0003:0000d0e0       ?d2common_ppMonStats2Txt@@3PAPAXA 660930e0     install.obj
 0003:0000d0e4       ?d2common_pnMonSounds@@3PAHA 660930e4     install.obj
 0003:0000d0e8       ?d2common_ppMonSoundsLink@@3PAPAXA 660930e8     install.obj
 0003:0000d0ec       ?d2common_ppMonSoundsTxt@@3PAPAXA 660930ec     install.obj
 0003:0000d0f0       ?d2common_pnMonStats@@3PAHA 660930f0     install.obj
 0003:0000d0f4       ?d2common_ppMonStatsLink@@3PAPAXA 660930f4     install.obj
 0003:0000d0f8       ?d2common_ppMonStatsTxt@@3PAPAXA 660930f8     install.obj
 0003:0000d0fc       ?d2common_ppChestTreasureClassList@@3PAPAXA 660930fc     install.obj
 0003:0000d100       ?d2common_pnTreasureClassEx@@3PAHA 66093100     install.obj
 0003:0000d104       ?d2common_ppTreasureClassExTxt@@3PAPAXA 66093104     install.obj
 0003:0000d108       ?d2common_ppTreasureClassExLink@@3PAPAXA 66093108     install.obj
 0003:0000d10c       ?d2common_ppColorsLink@@3PAPAXA 6609310c     install.obj
 0003:0000d110       ?d2common_ppColorsTxt@@3PAPAXA 66093110     install.obj
 0003:0000d114       ?d2common_pnNpcs@@3PAHA    66093114     install.obj
 0003:0000d118       ?d2common_ppNpcsTxt@@3PAPAXA 66093118     install.obj
 0003:0000d11c       ?d2common_pHireNameListEnd@@3PAPAXA 6609311c     install.obj
 0003:0000d120       ?d2common_pHireNameListStart@@3PAPAXA 66093120     install.obj
 0003:0000d124       ?d2common_pnHirelings@@3PAHA 66093124     install.obj
 0003:0000d128       ?d2common_ppHirelingsTxt@@3PAPAXA 66093128     install.obj
 0003:0000d12c       ?d2common_pnSoundCodes@@3PAHA 6609312c     install.obj
 0003:0000d130       ?d2common_ppSoundCodesLink@@3PAPAXA 66093130     install.obj
 0003:0000d134       ?d2common_ppSoundCodesBin@@3PAPAXA 66093134     install.obj
 0003:0000d138       ?d2common_pnColorStates@@3PAHA 66093138     install.obj
 0003:0000d13c       ?d2common_ppColorStates@@3PAPAXA 6609313c     install.obj
 0003:0000d140       ?d2common_pnActionStates@@3PAHA 66093140     install.obj
 0003:0000d144       ?d2common_ppActionStates@@3PAPAXA 66093144     install.obj
 0003:0000d148       ?d2common_pnTransformStates@@3PAHA 66093148     install.obj
 0003:0000d14c       ?d2common_ppTransformStates@@3PAPAXA 6609314c     install.obj
 0003:0000d150       ?d2common_pnCurseStates@@3PAHA 66093150     install.obj
 0003:0000d154       ?d2common_ppCurseStates@@3PAPAXA 66093154     install.obj
 0003:0000d158       ?d2common_pnProgressiveStates@@3PAHA 66093158     install.obj
 0003:0000d15c       ?d2common_ppProgressiveStates@@3PAPAXA 6609315c     install.obj
 0003:0000d160       ?d2common_ppStateMaskArray@@3PAPAXA 66093160     install.obj
 0003:0000d164       ?d2common_ppStateMaskFirst@@3PAPAXA 66093164     install.obj
 0003:0000d168       ?d2common_pnStates@@3PAHA  66093168     install.obj
 0003:0000d16c       ?d2common_ppStatesLink@@3PAPAXA 6609316c     install.obj
 0003:0000d170       ?d2common_ppStatesTxt@@3PAPAXA 66093170     install.obj
 0003:0000d174       ?d2common_ppHireDescLink@@3PAPAXA 66093174     install.obj
 0003:0000d178       ?d2common_ppHireDescTxt@@3PAPAXA 66093178     install.obj
 0003:0000d17c       ?d2common_ppRunesLink@@3PAPAXA 6609317c     install.obj
 0003:0000d180       ?d2common_pnProperties@@3PAHA 66093180     install.obj
 0003:0000d184       ?d2common_ppPropertiesLink@@3PAPAXA 66093184     install.obj
 0003:0000d188       ?d2common_ppPropertiesTxt@@3PAPAXA 66093188     install.obj
 0003:0000d18c       ?d2common_pnItemCalcCacheDelta@@3PAHA 6609318c     install.obj
 0003:0000d190       ?d2common_pnItemCalcCache@@3PAHA 66093190     install.obj
 0003:0000d194       ?d2common_ppItemCalcCache@@3PAPAXA 66093194     install.obj
 0003:0000d198       ?d2common_ppItemLink@@3PAPAXA 66093198     install.obj
 0003:0000d19c       ?d2common_pnMonAi@@3PAHA   6609319c     install.obj
 0003:0000d1a0       ?d2common_ppMonAiLink@@3PAPAXA 660931a0     install.obj
 0003:0000d1a4       ?d2common_ppMonAiTxt@@3PAPAXA 660931a4     install.obj
 0003:0000d1a8       ?d2common_pnCompCodes@@3PAHA 660931a8     install.obj
 0003:0000d1ac       ?d2common_ppCompCodesLink@@3PAPAXA 660931ac     install.obj
 0003:0000d1b0       ?d2common_ppCompCodesTxt@@3PAPAXA 660931b0     install.obj
 0003:0000d1b4       ?d2common_ppEventsLink@@3PAPAXA 660931b4     install.obj
 0003:0000d1b8       ?d2common_ppEventsTxt@@3PAPAXA 660931b8     install.obj
 0003:0000d1bc       ?d2common_ppSkillCodesLink@@3PAPAXA 660931bc     install.obj
 0003:0000d1c0       ?d2common_ppSkillCodesBin@@3PAPAXA 660931c0     install.obj
 0003:0000d1c4       ?d2common_pnMissCalcCacheDelta@@3PAHA 660931c4     install.obj
 0003:0000d1c8       ?d2common_pnMissCalcCache@@3PAHA 660931c8     install.obj
 0003:0000d1cc       ?d2common_ppMissCalcCache@@3PAPAXA 660931cc     install.obj
 0003:0000d1d0       ?d2common_ppMissCalcLink@@3PAPAXA 660931d0     install.obj
 0003:0000d1d4       ?d2common_ppMissCalcTxt@@3PAPAXA 660931d4     install.obj
 0003:0000d1d8       ?d2common_pnSkillDescCalcCacheDelta@@3PAHA 660931d8     install.obj
 0003:0000d1dc       ?d2common_pnSkillDescCalcCache@@3PAHA 660931dc     install.obj
 0003:0000d1e0       ?d2common_ppSkillDescCalcCache@@3PAPAXA 660931e0     install.obj
 0003:0000d1e4       ?d2common_pnSkillCalcCacheDelta@@3PAHA 660931e4     install.obj
 0003:0000d1e8       ?d2common_pnSkillCalcCache@@3PAHA 660931e8     install.obj
 0003:0000d1ec       ?d2common_ppSkillCalcCache@@3PAPAXA 660931ec     install.obj
 0003:0000d1f0       ?d2common_ppSkillCalcLink@@3PAPAXA 660931f0     install.obj
 0003:0000d1f4       ?d2common_ppSkillCalcTxt@@3PAPAXA 660931f4     install.obj
 0003:0000d1f8       ?d2common_ppPlrModeLink@@3PAPAXA 660931f8     install.obj
 0003:0000d1fc       ?d2common_ppPlrModeTxt@@3PAPAXA 660931fc     install.obj
 0003:0000d200       ?d2common_ppMonModeLink@@3PAPAXA 66093200     install.obj
 0003:0000d204       ?d2common_ppMonModeTxt@@3PAPAXA 66093204     install.obj
 0003:0000d208       ?d2common_ppHitClassLink@@3PAPAXA 66093208     install.obj
 0003:0000d20c       ?d2common_ppHitClassTxt@@3PAPAXA 6609320c     install.obj
 0003:0000d210       ?d2common_ppElemTypesLink@@3PAPAXA 66093210     install.obj
 0003:0000d214       ?d2common_ppElemTypesTxt@@3PAPAXA 66093214     install.obj
 0003:0000d218       ?d2common_ppStorePageLink@@3PAPAXA 66093218     install.obj
 0003:0000d21c       ?d2common_ppStorePageTxt@@3PAPAXA 6609321c     install.obj
 0003:0000d220       ?d2common_ppBodyLocsLink@@3PAPAXA 66093220     install.obj
 0003:0000d224       ?d2common_ppBodyLocsTxt@@3PAPAXA 66093224     install.obj
 0003:0000d228       ?d2common_ppPlayerClassLink@@3PAPAXA 66093228     install.obj
 0003:0000d22c       ?d2common_ppPlayerClassTxt@@3PAPAXA 6609322c     install.obj
 0003:0000d230       ?d2common_pRuneWordTxt@@3PAPAURuneWordTxt@@A 66093230     install.obj
 0003:0000d234       ?d2common_pRuneWords@@3PAHA 66093234     install.obj
 0003:0000d238       ?d2common_pArmorTxts@@3PAHA 66093238     install.obj
 0003:0000d23c       ?d2common_pWeaponsTxts@@3PAHA 6609323c     install.obj
 0003:0000d240       ?d2common_pItemTxts@@3PAPAUItemTxt@@A 66093240     install.obj
 0003:0000d244       ?d2common_pItemTxtCount@@3PAHA 66093244     install.obj
 0003:0000d248       ?d2common_pInventoryTxt@@3PAPAUInventoryBIN@@A 66093248     install.obj
 0003:0000d24c       ?d2common_pInventoryTxtCount@@3PAHA 6609324c     install.obj
 0003:0000d250       ?d2common_pDataTables@@3PAPAUD2DataTables@@A 66093250     install.obj
 0003:0000d254       ?d2common_compileInventoryTxt@@3P6GPAUInventoryBIN@@H@ZA 66093254     install.obj
 0003:0000d258       ?d2common_getInventoryPos16@@3P6GXHHPAUEquipmentLayout16@@@ZA 66093258     install.obj
 0003:0000d25c       ?d2common_getInventoryLayout@@3P6GXHHPAUInvLayout@@@ZA 6609325c     install.obj
 0003:0000d260       ?d2common_getEquipmentPos@@3P6GXHHPAUEquipmentLayout20@@H@ZA 66093260     install.obj
 0003:0000d264       ?d2common_compileItemStatCostTxt@@3P6GPAXH@ZA 66093264     install.obj
 0003:0000d268       ?d2common_compileItemTypeTxt@@3P6GPAXH@ZA 66093268     install.obj
 0003:0000d26c       ?d2common_GetItemTxt@@3P6GPAUItemTxt@@H@ZA 6609326c     install.obj
 0003:0000d270       ?d2common_getAreaLevel@@3P6GHHHH@ZA 66093270     install.obj
 0003:0000d274       ?d2common_GetLevelTxt@@3P6GPAULevelTxt@@H@ZA 66093274     install.obj
 0003:0000d278       ?d2common_GetLevelWeather@@3P6GDH@ZA 66093278     install.obj
 0003:0000d27c       ?d2common_GetLevelTxt07@@3P6GDH@ZA 6609327c     install.obj
 0003:0000d280       ?d2common_GetLevelTxt06@@3P6GDH@ZA 66093280     install.obj
 0003:0000d284       ?d2common_GetLevelDefTxt@@3P6IPAULevelDefTxt@@H@ZA 66093284     install.obj
 0003:0000d288       ?d2common_addToRectData1C@@3P6GHPAUUnitAny@@@ZA 66093288     install.obj
 0003:0000d28c       ?d2common_initGameDataTable@@3P6GHHHH@ZA 6609328c     install.obj
 0003:0000d290       ?d2common_getLvlOfExp@@3P6GHHH@ZA 66093290     install.obj
 0003:0000d294       ?d2common_CompileTxtFile@@3P6GPAXHPADPAUTxtField@@PAHH@ZA 66093294     install.obj
 0003:0000d298       ?d2common_uninit@@3P6GHXZA 66093298     install.obj
 0003:0000d29c       ?d2common_GetMinExpToLevel@@3P6GHHH@ZA 6609329c     install.obj
 0003:0000d2a0       ?d2common_getPlayerMaxLvl@@3P6GHH@ZA 660932a0     install.obj
 0003:0000d2a4       ?d2common_compileMonTypeTxt@@3P6GPAXH@ZA 660932a4     install.obj
 0003:0000d2a8       ?d2common_GetTreasureClasses@@3P6GPAUTreasureClass@@GH@ZA 660932a8     install.obj
 0003:0000d2ac       ?d2common_GetSuperUniqueTxt@@3P6GPAUSuperUniqueTxt@@H@ZA 660932ac     install.obj
 0003:0000d2b0       ?d2common_SetSkillBaseLevel@@3P6GXPAUUnitAny@@HHHPADH@ZA 660932b0     install.obj
 0003:0000d2b4       ?d2common_getSkillStatus@@3P6GHPAUUnitAny@@PAUSkill@@@ZA 660932b4     install.obj
 0003:0000d2b8       ?d2common_getMaxSkeletons@@3P6GHPAUUnitAny@@HHH@ZA 660932b8     install.obj
 0003:0000d2bc       ?d2common_GetSkillCost@@3P6GHPAUUnitAny@@HHH@ZA 660932bc     install.obj
 0003:0000d2c0       ?d2common_GetSkillLevel@@3P6GHPAUUnitAny@@PAUSkill@@H@ZA 660932c0     install.obj
 0003:0000d2c4       ?d2common_CheckCorpseCanUse@@3P6GHPAUUnitAny@@K@ZA 660932c4     install.obj
 0003:0000d2c8       ?d2common_getSkillBonus@@3P6IHXZA 660932c8     install.obj
 0003:0000d2cc       ?d2common_getSkillId@@3P6GHHH@ZA 660932cc     install.obj
 0003:0000d2d0       ?d2common_getPlayerSkillCount@@3P6GHH@ZA 660932d0     install.obj
 0003:0000d2d4       ?d2common_setSkillCount@@3P6GXPAUSkill@@H@ZA 660932d4     install.obj
 0003:0000d2d8       ?d2common_GetDropPos@@3P6GPAUAreaRectData@@PAU1@PAUtagPOINT@@1HHHH@ZA 660932d8     install.obj
 0003:0000d2dc       ?d2common_IsLineBlocked@@3P6GHPAUAreaRectData@@PAUtagPOINT@@1H@ZA 660932dc     install.obj
 0003:0000d2e0       ?d2common_setItemEthereal@@3P6GHPAUUnitAny@@@ZA 660932e0     install.obj
 0003:0000d2e4       ?d2common_GetObjectTxt@@3P6GPAUObjectTxt@@H@ZA 660932e4     install.obj
 0003:0000d2e8       ?d2common_isInTown@@3P6GHPAUAreaRectData@@@ZA 660932e8     install.obj
 0003:0000d2ec       ?d2common_GetLevelIdFromRectData@@3P6GHPAUAreaRectData@@@ZA 660932ec     install.obj
 0003:0000d2f0       ?d2common_Common11084@@3P6GHPAUAreaRectData@@H@ZA 660932f0     install.obj
 0003:0000d2f4       ?d2common_Ord10196@@3P6GHPAUUnitAny@@@ZA 660932f4     install.obj
 0003:0000d2f8       ?d2common_stat_10807@@3P6GHPAUUnitAny@@PAUStatList@@H@ZA 660932f8     install.obj
 0003:0000d2fc       ?d2common_changeUnitStat@@3P6GHPAUUnitAny@@HHH@ZA 660932fc     install.obj
 0003:0000d300       ?d2common_AddPlayerStat@@3P6GXPAUUnitAny@@HHH@ZA 66093300     install.obj
 0003:0000d304       ?d2common_addStatList@@3P6GHPAUStatList@@HHH@ZA 66093304     install.obj
 0003:0000d308       ?d2common_changeStatList@@3P6GHPAUStatList@@HHH@ZA 66093308     install.obj
 0003:0000d30c       ?d2common_fun39F70@@3P6GHHPAUUnitAny@@@ZA 6609330c     install.obj
 0003:0000d310       ?d2common_getStatValue39380@@3P6GHH@ZA 66093310     install.obj
 0003:0000d314       ?d2common_getUnitMaxHP@@3P6GHPAUUnitAny@@@ZA 66093314     install.obj
 0003:0000d318       ?d2common_getUnitMaxMana@@3P6GHPAUUnitAny@@@ZA 66093318     install.obj
 0003:0000d31c       ?d2common_getUnitMaxStamina@@3P6GHPAUUnitAny@@@ZA 6609331c     install.obj
 0003:0000d320       ?d2common_GetUnitBaseStat@@3P6GHPAUUnitAny@@HG@ZA 66093320     install.obj
 0003:0000d324       ?d2common_GetUnitStat@@3P6GHPAUUnitAny@@HG@ZA 66093324     install.obj
 0003:0000d328       ?d2common_getUnitStatValueB00@@3P6GHPAUItemStatCostTxt@@@ZA 66093328     install.obj
 0003:0000d32c       ?d2common_getStatValueWithMinChecked@@3P6GHPAUItemStatCostTxt@@@ZA 6609332c     install.obj
 0003:0000d330       ?d2common_GetStatFromStatList@@3P6GHPAUStatList@@KPAUStatEx@@K@ZA 66093330     install.obj
 0003:0000d334       ?d2common_bsearchStat@@3P6GHXZA 66093334     install.obj
 0003:0000d338       ?d2common_removeStat@@3P6GHH@ZA 66093338     install.obj
 0003:0000d33c       ?d2common_GetStatListWithFlag@@3P6GPAUStatList@@PAUUnitAny@@HK@ZA 6609333c     install.obj
 0003:0000d340       ?d2common_GetUnitPosX@@3P6GHPAUDynamicPath@@@ZA 66093340     install.obj
 0003:0000d344       ?d2common_GetUnitPosY@@3P6GHPAUDynamicPath@@@ZA 66093344     install.obj
 0003:0000d348       ?d2common_CheckUnitState@@3P6GHPAUUnitAny@@H@ZA 66093348     install.obj
 0003:0000d34c       ?d2common_setUnitMode@@3P6GHPAUUnitAny@@H@ZA 6609334c     install.obj
 0003:0000d350       ?d2common_GetMonsterHpPercent@@3P6GHPAUUnitAny@@@ZA 66093350     install.obj
 0003:0000d354       ?d2common_IsUnitBlocked@@3P6GHPAUUnitAny@@0H@ZA 66093354     install.obj
 0003:0000d358       ?d2common_getUnitSize@@3P6GHPAUUnitAny@@@ZA 66093358     install.obj
 0003:0000d35c       ?d2common_getLeftSkill@@3P6GPAUSkill@@PAUUnitAny@@@ZA 6609335c     install.obj
 0003:0000d360       ?d2common_getCurrentSkill@@3P6GPAUSkill@@PAUUnitAny@@@ZA 66093360     install.obj
 0003:0000d364       ?d2common_getUnitPos@@3P6GXPAUUnitAny@@PAUtagPOINT@@@ZA 66093364     install.obj
 0003:0000d368       ?d2common_getRectData@@3P6GPAUAreaRectData@@PAUUnitAny@@@ZA 66093368     install.obj
 0003:0000d36c       ?d2common_GetBoxType@@3P6GHPAUUnitAny@@EH@ZA 6609336c     install.obj
 0003:0000d370       ?d2common_allocUnit@@3P6GPAUUnitAny@@HH@ZA 66093370     install.obj
 0003:0000d374       ?d2common_setStaticUnitX@@3P6GXPAUUnitAny@@H@ZA 66093374     install.obj
 0003:0000d378       ?d2common_setStaticUnitY@@3P6GXPAUUnitAny@@H@ZA 66093378     install.obj
 0003:0000d37c       ?d2common_GetPlayerData@@3P6GPAUPlayerData@@PAUUnitAny@@@ZA 6609337c     install.obj
 0003:0000d380       ?d2common_getObjectFlags@@3P6GHPAUUnitAny@@@ZA 66093380     install.obj
 0003:0000d384       ?d2common_setObjectFlags@@3P6GHPAUUnitAny@@H@ZA 66093384     install.obj
 0003:0000d388       ?d2common_InitDrlgLevel@@3P6GXPAUDrlgLevel@@@ZA 66093388     install.obj
 0003:0000d38c       ?d2common_GetDrlgLevel@@3P6IPAUDrlgLevel@@PAUDrlgMisc@@H@ZA 6609338c     install.obj
 0003:0000d390       ?d2common_CheckQuestFlag@@3P6GHPAUQuestInfo@@HH@ZA 66093390     install.obj
 0003:0000d394       ?d2common_setQuestFlag@@3P6GXPAUQuestInfo@@HH@ZA 66093394     install.obj
 0003:0000d398       ?d2common_clearQuestFlag@@3P6GXPAUQuestInfo@@HH@ZA 66093398     install.obj
 0003:0000d39c       ?d2common_copyQuestData@@3P6GPAUQuestInfo@@PAU1@PAFHH@ZA 6609339c     install.obj
 0003:0000d3a0       ?d2common_GetMercInfo@@3P6GHHHHPAX@ZA 660933a0     install.obj
 0003:0000d3a4       ?d2common_setItemSocket@@3P6GHPAUUnitAny@@H@ZA 660933a4     install.obj
 0003:0000d3a8       ?d2common_GetItemPrice@@3P6GHPAUUnitAny@@0HPAUQuestInfo@@HK@ZA 660933a8     install.obj
 0003:0000d3ac       ?d2common_EncodeItem@@3P6GHPAUUnitAny@@PADHHHH@ZA 660933ac     install.obj
 0003:0000d3b0       ?d2common_EncodeItemBits@@3P6IHPAUUnitAny@@PAUFogBits@@HHH@ZA 660933b0     install.obj
 0003:0000d3b4       ?d2common_EncodeComplexItem@@3P6GHPAUUnitAny@@PAUFogBits@@HH@ZA 660933b4     install.obj
 0003:0000d3b8       ?d2common_searchRunewordTxt@@3P6GPAURuneWordTxt@@PAUUnitAny@@@ZA 660933b8     install.obj
 0003:0000d3bc       ?d2common_getSocketCount@@3P6GHPAUUnitAny@@@ZA 660933bc     install.obj
 0003:0000d3c0       ?d2common_EncodeCompactItem@@3P6GHPAUUnitAny@@H@ZA 660933c0     install.obj
 0003:0000d3c4       ?d2common_countUsedSocketed@@3P6GHXZA 660933c4     install.obj
 0003:0000d3c8       ?d2common_getItemMaxSocket@@3P6GHPAUUnitAny@@@ZA 660933c8     install.obj
 0003:0000d3cc       ?d2common_checkItemTypeFlags@@3P6GHPAUUnitAny@@H@ZA 660933cc     install.obj
 0003:0000d3d0       ?d2common_isMagicItem@@3P6GHPAUUnitAny@@@ZA 660933d0     install.obj
 0003:0000d3d4       ?d2common_writeBitStream@@3P6GXPAUFogBits@@@ZA 660933d4     install.obj
 0003:0000d3d8       ?d2common_getItemSeed@@3P6GPAUD2Seed@@PAUUnitAny@@@ZA 660933d8     install.obj
 0003:0000d3dc       ?d2common_getItemFingerPrint@@3P6GHPAUUnitAny@@@ZA 660933dc     install.obj
 0003:0000d3e0       ?d2common_setItemFingerPrint@@3P6GXPAUUnitAny@@H@ZA 660933e0     install.obj
 0003:0000d3e4       ?d2common_getItemQuality@@3P6GHPAUUnitAny@@@ZA 660933e4     install.obj
 0003:0000d3e8       ?d2common_setItemQuality@@3P6GXPAUUnitAny@@H@ZA 660933e8     install.obj
 0003:0000d3ec       ?d2common_getItemMagicPrefix@@3P6GHPAUUnitAny@@H@ZA 660933ec     install.obj
 0003:0000d3f0       ?d2common_getItemMagicSuffix@@3P6GHPAUUnitAny@@H@ZA 660933f0     install.obj
 0003:0000d3f4       ?d2common_getRarePrefix@@3P6GFPAUUnitAny@@@ZA 660933f4     install.obj
 0003:0000d3f8       ?d2common_getRareSuffix@@3P6GFPAUUnitAny@@@ZA 660933f8     install.obj
 0003:0000d3fc       ?d2common_CheckItemFlag@@3P6GHPAUUnitAny@@KHPAD@ZA 660933fc     install.obj
 0003:0000d400       ?d2common_setItemFlag@@3P6GXPAUUnitAny@@HH@ZA 66093400     install.obj
 0003:0000d404       ?d2common_getItemFlag@@3P6GXPAUUnitAny@@@ZA 66093404     install.obj
 0003:0000d408       ?d2common_setItemLevel@@3P6GHPAUUnitAny@@H@ZA 66093408     install.obj
 0003:0000d40c       ?d2common_setItemLocation@@3P6GHPAUUnitAny@@D@ZA 6609340c     install.obj
 0003:0000d410       ?d2common_getItemTypeB14@@3P6GHPAUUnitAny@@@ZA 66093410     install.obj
 0003:0000d414       ?d2common_getItemCode@@3P6GPADPAUUnitAny@@@ZA 66093414     install.obj
 0003:0000d418       ?d2common_getItemWidthHeight@@3P6GHPAUUnitAny@@PAD1@ZA 66093418     install.obj
 0003:0000d41c       ?d2common_getItemType@@3P6GHPAUUnitAny@@@ZA 6609341c     install.obj
 0003:0000d420       ?d2common_getItemTypeByTxt@@3P6GHH@ZA 66093420     install.obj
 0003:0000d424       ?d2common_getItemCode1@@3P6GPADPAUUnitAny@@@ZA 66093424     install.obj
 0003:0000d428       ?d2common_isQuestItem@@3P6GHPAUUnitAny@@@ZA 66093428     install.obj
 0003:0000d42c       ?d2common_GetItemFileIndex@@3P6GHPAUUnitAny@@@ZA 6609342c     install.obj
 0003:0000d430       ?d2common_setItemFileIndex@@3P6GHPAUUnitAny@@H@ZA 66093430     install.obj
 0003:0000d434       ?d2common_getItemData1C_20@@3P6GXPAUUnitAny@@PAX1@ZA 66093434     install.obj
 0003:0000d438       ?d2common_setOwnerId@@3P6GXPAUUnitAny@@H@ZA 66093438     install.obj
 0003:0000d43c       ?d2common_isCompactItem@@3P6IDXZA 6609343c     install.obj
 0003:0000d440       ?d2common_getItemFormat@@3P6GHPAUUnitAny@@@ZA 66093440     install.obj
 0003:0000d444       ?d2common_setItemFormat@@3P6GXPAUUnitAny@@F@ZA 66093444     install.obj
 0003:0000d448       ?d2common_isBitSet@@3P6GHHH@ZA 66093448     install.obj
 0003:0000d44c       ?d2common_putItemIntoSocket10405@@3P6GHPAUUnitInventory@@PAUUnitAny@@H@ZA 6609344c     install.obj
 0003:0000d450       ?d2common_setCursorItem@@3P6GHPAUUnitInventory@@PAUUnitAny@@@ZA 66093450     install.obj
 0003:0000d454       ?d2common_isItemInside@@3P6GHPAUUnitInventory@@PAUUnitAny@@@ZA 66093454     install.obj
 0003:0000d458       ?d2common_CheckInvLocation@@3P6GHPAUUnitInventory@@PAUUnitAny@@HHHPAH2E@ZA 66093458     install.obj
 0003:0000d45c       ?d2common_GetNextItemInInv@@3P6GPAUUnitAny@@PAU1@@ZA 6609345c     install.obj
 0003:0000d460       ?d2common_getOwnerInventory@@3P6GPAUUnitInventory@@XZA 66093460     install.obj
 0003:0000d464       ?d2common_createInventory@@3P6GPAUUnitInventory@@PAXPAUUnitAny@@@ZA 66093464     install.obj
 0003:0000d468       ?d2common_getEquippedItemInfo@@3P6GHPAUUnitInventory@@H@ZA 66093468     install.obj
 0003:0000d46c       ?d2common_createEquippedItem@@3P6GPAUEquippedGears@@XZA 6609346c     install.obj
 0003:0000d470       ?d2common_GetFirstItemInInv@@3P6GPAUUnitAny@@PAUUnitInventory@@@ZA 66093470     install.obj
 0003:0000d474       ?d2common_GetCursorItem@@3P6GPAUUnitAny@@PAUUnitInventory@@@ZA 66093474     install.obj
 0003:0000d478       ?d2common_getFilledSockets@@3P6GHPAUUnitInventory@@@ZA 66093478     install.obj
 0003:0000d47c       ?d2common_subEsp@@3P6GHXZA 6609347c     install.obj
 0003:0000d480       ?d2common_exit@@3P6GHH@ZA  66093480     install.obj
 0003:0000d484       ?d2common_GetMonStats2@@3P6IPAXXZA 66093484     install.obj
 0003:0000d488       ?d2common_GetNearRectDataWithPos@@3P6IPAUAreaRectData@@XZA 66093488     install.obj
 0003:0000d48c       ?d2common_GetCharStatsTxt@@3P6GPAXXZA 6609348c     install.obj
 0003:0000d490       ?d2cmp_mpq_path_3010@@3P6IHPAD@ZA 66093490     install.obj
 0003:0000d494       ?d2cmp_InitCellFile@@3P6GXPAXPAPAUCellFile@@PADHH2@ZA 66093494     install.obj
 0003:0000d498       ?d2cmp_DeleteCellFile@@3P6GXPAUCellFile@@@ZA 66093498     install.obj
 0003:0000d49c       ?d2client_pIsEquipment800x600@@3PAHA 6609349c     install.obj
 0003:0000d4a0       ?d2client_pQuestPage@@3PAHA 660934a0     install.obj
 0003:0000d4a4       ?d2client_plpCritialSection@@3PAPAUCriticalSection@@A 660934a4     install.obj
 0003:0000d4a8       ?d2client_pworldHash@@3PAPAUWorldHash@@A 660934a8     install.obj
 0003:0000d4ac       ?d2client_pLastChatMessage@@3PA_WA 660934ac     install.obj
 0003:0000d4b0       ?d2client_pPetUnitList@@3PAPAUPetUnit@@A 660934b0     install.obj
 0003:0000d4b4       ?d2client_pShowManaStr@@3PAHA 660934b4     install.obj
 0003:0000d4b8       ?d2client_pShowLifeStr@@3PAHA 660934b8     install.obj
 0003:0000d4bc       ?d2client_pBeltNotEmpty@@3PADA 660934bc     install.obj
 0003:0000d4c0       ?d2client_pscreenDrawXsub@@3PAHA 660934c0     install.obj
 0003:0000d4c4       ?d2client_pScreenBlocked@@3PAHA 660934c4     install.obj
 0003:0000d4c8       ?d2client_pStandStill@@3PAHA 660934c8     install.obj
 0003:0000d4cc       ?d2client_pNpcConvData@@3PAPAXA 660934cc     install.obj
 0003:0000d4d0       ?d2client_pDrlgAct@@3PAPAUDrlgAct@@A 660934d0     install.obj
 0003:0000d4d4       ?d2client_pnotAcceptKeys@@3PAHA 660934d4     install.obj
 0003:0000d4d8       ?d2client_pMButton@@3PAHA  660934d8     install.obj
 0003:0000d4dc       ?d2client_pInGame@@3PAHA   660934dc     install.obj
 0003:0000d4e0       ?d2client_pDifficulty@@3PAEA 660934e0     install.obj
 0003:0000d4e4       ?d2client_pMercData32@@3PAHA 660934e4     install.obj
 0003:0000d4e8       ?d2client_pFlagUnknownC2F8@@3PAHA 660934e8     install.obj
 0003:0000d4ec       ?d2client_pHasSelectedObject@@3PAHA 660934ec     install.obj
 0003:0000d4f0       ?d2client_pFps@@3PAHA      660934f0     install.obj
 0003:0000d4f4       ?d2client_pAutoMapSize@@3PAUtagPOINT@@A 660934f4     install.obj
 0003:0000d4f8       ?d2client_pMinimapOffset@@3PAUtagPOINT@@A 660934f8     install.obj
 0003:0000d4fc       ?d2client_pInfoPositionY@@3PAHA 660934fc     install.obj
 0003:0000d500       ?d2client_pScreenMinimapY@@3PAHA 66093500     install.obj
 0003:0000d504       ?d2client_pScreenMinimapX@@3PAHA 66093504     install.obj
 0003:0000d508       ?d2client_pAutomapPos@@3PAUtagPOINT@@A 66093508     install.obj
 0003:0000d50c       ?d2client_pMinimapCellFile@@3PAPAUCellFile@@A 6609350c     install.obj
 0003:0000d510       ?d2client_pAutomapLayer@@3PAPAUAutomapLayer@@A 66093510     install.obj
 0003:0000d514       ?d2client_pAutomapLayerList@@3PAPAUAutomapLayer@@A 66093514     install.obj
 0003:0000d518       ?d2client_pMinimapType@@3PAHA 66093518     install.obj
 0003:0000d51c       ?d2client_pChatTextLength@@3PAHA 6609351c     install.obj
 0003:0000d520       ?d2client_pMapShakeX@@3PAJA 66093520     install.obj
 0003:0000d524       ?d2client_pIsMapShakeOn@@3PAHA 66093524     install.obj
 0003:0000d528       ?d2client_pActiveWeapon@@3PAHA 66093528     install.obj
 0003:0000d52c       ?d2client_pStachImage@@3PAPAUCellFile@@A 6609352c     install.obj
 0003:0000d530       ?d2client_pPanelTradeStash@@3PAPAUCellFile@@A 66093530     install.obj
 0003:0000d534       ?d2client_pPanelCube@@3PAPAUCellFile@@A 66093534     install.obj
 0003:0000d538       ?d2client_pPanelBank@@3PAPAUCellFile@@A 66093538     install.obj
 0003:0000d53c       ?d2client_pNpcTradeCurrentTab@@3PAHA 6609353c     install.obj
 0003:0000d540       ?d2client_pCurrentViewItem@@3PAPAUUnitAny@@A 66093540     install.obj
 0003:0000d544       ?d2client_pRosterUnitList@@3PAPAURosterUnit@@A 66093544     install.obj
 0003:0000d548       ?d2client_pnpcInteract@@3PAPAXA 66093548     install.obj
 0003:0000d54c       ?d2client_pPlayerUnit@@3PAPAUUnitAny@@A 6609354c     install.obj
 0003:0000d550       ?d2client_pGoldInTranBox@@3PAHA 66093550     install.obj
 0003:0000d554       ?d2client_pDrawOffsetY@@3PAHA 66093554     install.obj
 0003:0000d558       ?d2client_pDrawOffsetX@@3PAHA 66093558     install.obj
 0003:0000d55c       ?d2client_pDrawOffset@@3PAUtagPOINT@@A 6609355c     install.obj
 0003:0000d560       ?d2client_pIs800x600@@3PAHA 66093560     install.obj
 0003:0000d564       ?d2client_pGameInfo@@3PAPAUGameStructInfo@@A 66093564     install.obj
 0003:0000d568       ?d2client_pMouseX@@3PAHA   66093568     install.obj
 0003:0000d56c       ?d2client_pMouseY@@3PAHA   6609356c     install.obj
 0003:0000d570       ?d2client_pPanelBtn@@3PAPAUCellFile@@A 66093570     install.obj
 0003:0000d574       ?d2client_pPanelInvChar@@3PAPAUCellFile@@A 66093574     install.obj
 0003:0000d578       ?d2client_pXButton1@@3PAHA 66093578     install.obj
 0003:0000d57c       ?d2client_pXButton2@@3PAHA 6609357c     install.obj
 0003:0000d580       ?d2client_pKeyboardSettingEnd@@3PAUKeyboardSetting@@A 66093580     install.obj
 0003:0000d584       ?d2client_pKeyboardSettingStart@@3PAUKeyboardSetting@@A 66093584     install.obj
 0003:0000d588       ?d2client_pSkillHotKeyLeft@@3PAHA 66093588     install.obj
 0003:0000d58c       ?d2client_pSkillHotKeys@@3PAHA 6609358c     install.obj
 0003:0000d590       ?d2client_pscreenDrawX@@3PAHA 66093590     install.obj
 0003:0000d594       ?d2client_pscreenDrawY@@3PAHA 66093594     install.obj
 0003:0000d598       ?d2client_pCastingDelayEndFrame@@3PAHA 66093598     install.obj
 0003:0000d59c       ?d2client_pExpansion@@3PAHA 6609359c     install.obj
 0003:0000d5a0       ?d2client_pPing@@3PAHA     660935a0     install.obj
 0003:0000d5a4       ?d2client_pCurFrame@@3PAHA 660935a4     install.obj
 0003:0000d5a8       ?d2client_pTradeRelated@@3PAPAHA 660935a8     install.obj
 0003:0000d5ac       ?d2client_pGameQuestData@@3PAPAUQuestInfo@@A 660935ac     install.obj
 0003:0000d5b0       ?d2client_pQuestData@@3PAPAUQuestInfo@@A 660935b0     install.obj
 0003:0000d5b4       ?d2client_pAutomapNodeListBaseAddr@@3PAPAXA 660935b4     install.obj
 0003:0000d5b8       ?d2client_pMapShakeY@@3PAJA 660935b8     install.obj
 0003:0000d5bc       ?d2client_pUnitTable@@3PAPAUUnitAny@@A 660935bc     install.obj
 0003:0000d5c0       ?d2client_pWaypointMenuCount@@3PAHA 660935c0     install.obj
 0003:0000d5c4       ?d2client_pWaypointMenuCurTab@@3PAHA 660935c4     install.obj
 0003:0000d5c8       ?d2client_pWaypointMenuItems@@3PAUWaypointMenuItem@@A 660935c8     install.obj
 0003:0000d5cc       ?d2client_pUiHelpOn@@3PAHA 660935cc     install.obj
 0003:0000d5d0       ?d2client_pUiBeltOn@@3PAHA 660935d0     install.obj
 0003:0000d5d4       ?d2client_pUiCubeOn@@3PAHA 660935d4     install.obj
 0003:0000d5d8       ?d2client_pUiStashOn@@3PAHA 660935d8     install.obj
 0003:0000d5dc       ?d2client_pUiMessageLogOn@@3PAHA 660935dc     install.obj
 0003:0000d5e0       ?d2client_pUiPPLTradeOn@@3PAHA 660935e0     install.obj
 0003:0000d5e4       ?d2client_pUiPartyOn@@3PAHA 660935e4     install.obj
 0003:0000d5e8       ?d2client_pUiWaypointOn@@3PAHA 660935e8     install.obj
 0003:0000d5ec       ?d2client_pUiNewQuestOn@@3PAHA 660935ec     install.obj
 0003:0000d5f0       ?d2client_pUiQuestOn@@3PAHA 660935f0     install.obj
 0003:0000d5f4       ?d2client_pUiModItemOn@@3PAHA 660935f4     install.obj
 0003:0000d5f8       ?d2client_pUiShowItemsOn@@3PAHA 660935f8     install.obj
 0003:0000d5fc       ?d2client_pUiNpcTradeOn@@3PAHA 660935fc     install.obj
 0003:0000d600       ?d2client_pAutomapOn@@3PAHA 66093600     install.obj
 0003:0000d604       ?d2client_pUiGameMenuOn@@3PAHA 66093604     install.obj
 0003:0000d608       ?d2client_pUiInteractOn@@3PAHA 66093608     install.obj
 0003:0000d60c       ?d2client_pUiNewSkillOn@@3PAHA 6609360c     install.obj
 0003:0000d610       ?d2client_pUiNewStatOn@@3PAHA 66093610     install.obj
 0003:0000d614       ?d2client_pUiChatOn@@3PAHA 66093614     install.obj
 0003:0000d618       ?d2client_pUiSkillTreeOn@@3PAHA 66093618     install.obj
 0003:0000d61c       ?d2client_pUiSelectSkillOn@@3PAHA 6609361c     install.obj
 0003:0000d620       ?d2client_pUiCharacterOn@@3PAHA 66093620     install.obj
 0003:0000d624       ?d2client_pUiInventoryOn@@3PAHA 66093624     install.obj
 0003:0000d628       ?d2client_pUiDropGoldWindow@@3PAPAXA 66093628     install.obj
 0003:0000d62c       ?d2client_pInfoPositionX@@3PAHA 6609362c     install.obj
 0003:0000d630       ?d2client_pExitAppFlag@@3PAHA 66093630     install.obj
 0003:0000d634       ?d2client_pGameControlEnd@@3PAHA 66093634     install.obj
 0003:0000d638       ?d2client_pGameControlStart@@3PAHA 66093638     install.obj
 0003:0000d63c       ?d2client_pMercData16@@3PAHA 6609363c     install.obj
 0003:0000d640       ?d2client_pMinimapZoom@@3PAHA 66093640     install.obj
 0003:0000d644       ?d2client_pCurSkillClass@@3PAHA 66093644     install.obj
 0003:0000d648       ?d2client_pCursorInvGridY@@3PAHA 66093648     install.obj
 0003:0000d64c       ?d2client_pCursorInvGridX@@3PAHA 6609364c     install.obj
 0003:0000d650       ?d2client_pLastMousePos@@3PAUtagPOINT@@A 66093650     install.obj
 0003:0000d654       ?d2client_pScreenHeight@@3PAHA 66093654     install.obj
 0003:0000d658       ?d2client_pScreenSize@@3PAUtagPOINT@@A 66093658     install.obj
 0003:0000d65c       ?d2client_pScreenWidth@@3PAHA 6609365c     install.obj
 0003:0000d660       ?d2client_psgptDataTables@@3PAPAUD2DataTables@@A 66093660     install.obj
 0003:0000d664       ?d2client_DrawControls@@3P6GHH@ZA 66093664     install.obj
 0003:0000d668       ?d2client_SetUiStatus@@3P6IHHHK@ZA 66093668     install.obj
 0003:0000d66c       ?d2client_LoadUiImageSubpath@@3P6IPAUCellFile@@XZA 6609366c     install.obj
 0003:0000d670       ?d2client_CheckUiStatusStub@@3P6IHH@ZA 66093670     install.obj
 0003:0000d674       ?d2client_RecvPacket3F@@3P6IXPAD@ZA 66093674     install.obj
 0003:0000d678       ?d2client_RecvPacket0E@@3P6IXHPAD@ZA 66093678     install.obj
 0003:0000d67c       ?d2client_RecvPacket9D@@3P6IXPAD@ZA 6609367c     install.obj
 0003:0000d680       ?d2client_RecvPacket9C@@3P6IXPAD@ZA 66093680     install.obj
 0003:0000d684       ?d2client_PacketHandler@@3P6GXH@ZA 66093684     install.obj
 0003:0000d688       ?d2client_RecvCommand07@@3P6IXPAE@ZA 66093688     install.obj
 0003:0000d68c       ?d2client_RecvCommand08@@3P6IXPAE@ZA 6609368c     install.obj
 0003:0000d690       ?d2client_removeUnitFromHash@@3P6IHPAPAUUnitAny@@HHH@ZA 66093690     install.obj
 0003:0000d694       ?d2client_addUnitToHash@@3P6GHXZA 66093694     install.obj
 0003:0000d698       ?d2client_GetUnitFromId@@3P6IPAUUnitAny@@HH@ZA 66093698     install.obj
 0003:0000d69c       ?d2client_CanUseSkillNow@@3P6GHH@ZA 6609369c     install.obj
 0003:0000d6a0       ?d2client_processMessageA3C10@@3P6GHPAUD2MSG@@@ZA 660936a0     install.obj
 0003:0000d6a4       ?d2client_drawFloatingWindow@@3P6GHXZA 660936a4     install.obj
 0003:0000d6a8       ?d2client_drawUnits9EE90@@3P6GHPAX@ZA 660936a8     install.obj
 0003:0000d6ac       ?d2client_drawInventory@@3P6GHXZA 660936ac     install.obj
 0003:0000d6b0       ?d2client_func_958A0@@3P6GHPAUUnitAny@@@ZA 660936b0     install.obj
 0003:0000d6b4       ?d2client_DrawAllUnits@@3P6GHXZA 660936b4     install.obj
 0003:0000d6b8       ?d2client_CalcShake@@3P6GXPAH0@ZA 660936b8     install.obj
 0003:0000d6bc       ?d2client_useStackableItem@@3P6GXPAD@ZA 660936bc     install.obj
 0003:0000d6c0       ?d2client_packet9C_4@@3P6IXXZA 660936c0     install.obj
 0003:0000d6c4       ?d2client_drawEnvironment@@3P6GXPAX0@ZA 660936c4     install.obj
 0003:0000d6c8       ?d2client_drawNpcConversition@@3P6IHXZA 660936c8     install.obj
 0003:0000d6cc       ?d2client_isNpcConversitionEnd@@3P6IHPAX@ZA 660936cc     install.obj
 0003:0000d6d0       ?d2client_ShowGameMessage@@3P6GXPA_WH@ZA 660936d0     install.obj
 0003:0000d6d4       ?d2client_ShowPartyMessage@@3P6GXPA_WH@ZA 660936d4     install.obj
 0003:0000d6d8       ?d2client_getSkillTreeButtonY@@3P6IHXZA 660936d8     install.obj
 0003:0000d6dc       ?d2client_getSkillTreeButtonX@@3P6IHXZA 660936dc     install.obj
 0003:0000d6e0       ?d2client_ChatInputStub@@3P6GXPAUD2MSG@@@ZA 660936e0     install.obj
 0003:0000d6e4       ?d2client_drawInvItem@@3P6GHHH@ZA 660936e4     install.obj
 0003:0000d6e8       ?d2client_drawUnit@@3P6GHPAX@ZA 660936e8     install.obj
 0003:0000d6ec       ?d2client_shouldDrawUnit@@3P6GHXZA 660936ec     install.obj
 0003:0000d6f0       ?d2client_InitAutomapLayerStub@@3P6IPAUAutomapLayer@@K@ZA 660936f0     install.obj
 0003:0000d6f4       ?d2client_AddAreaRectToMinimap@@3P6GXPAUAreaRectData@@KPAUAutomapLayer@@@ZA 660936f4     install.obj
 0003:0000d6f8       ?d2client_AddAutomapNode@@3P6IXPAUAutomapNode@@PAPAU1@@ZA 660936f8     install.obj
 0003:0000d6fc       ?d2client_SetAutomapPartyStub@@3P6IXK@ZA 660936fc     install.obj
 0003:0000d700       ?d2client_SetAutomapNamesStub@@3P6IXK@ZA 66093700     install.obj
 0003:0000d704       ?d2client_NewAutomapNode@@3P6IPAUAutomapNode@@XZA 66093704     install.obj
 0003:0000d708       ?d2client_drawAllHeads@@3P6GHXZA 66093708     install.obj
 0003:0000d70c       ?d2client_GetSelectedUnit@@3P6GPAUUnitAny@@XZA 6609370c     install.obj
 0003:0000d710       ?d2client_fun_4B8A0@@3P6GHHPAFD@ZA 66093710     install.obj
 0003:0000d714       ?d2client_clickHireMercMenu@@3P6GHXZA 66093714     install.obj
 0003:0000d718       ?d2client_clickGotoAct2MenuItem@@3P6GHXZA 66093718     install.obj
 0003:0000d71c       ?d2client_clickGotoAct3MenuItem@@3P6GHXZA 6609371c     install.obj
 0003:0000d720       ?d2client_drawNpcInteractMenu@@3P6GHXZA 66093720     install.obj
 0003:0000d724       ?d2client_Unknown6150@@3P6GHXZA 66093724     install.obj
 0003:0000d728       ?d2client_GetScreenDrawY@@3P6GJXZA 66093728     install.obj
 0003:0000d72c       ?d2client_GetScreenDrawX@@3P6GJXZA 6609372c     install.obj
 0003:0000d730       ?d2client_DrawSkillButtonE5E0@@3P6GXHHHHHH@ZA 66093730     install.obj
 0003:0000d734       ?d2client_SkillUnusable@@3P6IXXZA 66093734     install.obj
 0003:0000d738       ?d2client_processWinMessage@@3P6GHPAUHWND__@@HHH@ZA 66093738     install.obj
 0003:0000d73c       ?d2client_processMessages@@3P6IXXZA 6609373c     install.obj
 0003:0000d740       ?d2client_ShowMap@@3P6IXXZA 66093740     install.obj
 0003:0000d744       ?d2client_LoadUiImageFunc@@3P6GPAUCellFile@@H@ZA 66093744     install.obj
 0003:0000d748       ?d2client_setState_2A750@@3P6IXHHHH@ZA 66093748     install.obj
 0003:0000d74c       ?d2client_UseBelt@@3P6IXPAUUnitInventory@@PAUUnitAny@@H@ZA 6609374c     install.obj
 0003:0000d750       ?d2client_DrawClient@@3P6IXXZA 66093750     install.obj
 0003:0000d754       ?d2client_DrawSkillButton@@3P6GXPAUSkill@@HHH@ZA 66093754     install.obj
 0003:0000d758       ?d2client_drawHpManaText@@3P6GHXZA 66093758     install.obj
 0003:0000d75c       ?d2client_PlaySound@@3P6IHHHH@ZA 6609375c     install.obj
 0003:0000d760       ?d2client_ItemProtect@@3P6GXPAUUnitAny@@K@ZA 66093760     install.obj
 0003:0000d764       ?d2client_GetMonsterOwner@@3P6IHH@ZA 66093764     install.obj
 0003:0000d768       ?d2client_LeftClickBDE0@@3P6GHXZA 66093768     install.obj
 0003:0000d76c       ?d2client_RightClickBC40@@3P6GHXZA 6609376c     install.obj
 0003:0000d770       ?d2client_ShouldClick85E0@@3P6GHXZA 66093770     install.obj
 0003:0000d774       ?d2client_SendPacket3@@3P6IXF@ZA 66093774     install.obj
 0003:0000d778       ?d2client_sendPacketLen13@@3P6IXHHH@ZA 66093778     install.obj
 0003:0000d77c       ?d2client_SendPacket43E0@@3P6GXPAD@ZA 6609377c     install.obj
 0003:0000d780       ?d2client_drawGround@@3P6GHPAX@ZA 66093780     install.obj
 0003:0000d784       ?d2client_drawGroundPiece@@3P6GXHHHHHH@ZA 66093784     install.obj
 0003:0000d788       ?d2client_SetResolutionMode@@3P6GXXZA 66093788     install.obj
 0003:0000d78c       ?d2client_getNearbyRectData@@3P6GXPAUAreaRectData@@PAPAPAU1@PAH@ZA 6609378c     install.obj
 0003:0000d790       ?d2client_Storm511@@3P6GXPAUD2MSG@@@ZA 66093790     install.obj
 0003:0000d794       ?d2client_subEsp@@3P6GHXZA 66093794     install.obj
 0003:0000d798       ?d2client_getSkillDescTxt@@3P6IPAXXZA 66093798     install.obj
 0003:0000d79c       ?bnclient_pBnChatMessage@@3PAPAKA 6609379c     install.obj
 0003:0000d7a4       ?bnetIp@@3PADA             660937a4     install.obj
 0003:0000d7ac       ?load_dll_error@@3HA       660937ac     install.obj
 0003:0000d7b0       ?fLocalizationSupport@@3HA 660937b0     install.obj
 0003:0000d7b4       ?addr_storm@@3PAUHINSTANCE__@@A 660937b4     install.obj
 0003:0000d7b8       ?addr_d2client@@3PAUHINSTANCE__@@A 660937b8     install.obj
 0003:0000d7bc       ?addr_d2common@@3PAUHINSTANCE__@@A 660937bc     install.obj
 0003:0000d7c0       ?addr_d2gfx@@3PAUHINSTANCE__@@A 660937c0     install.obj
 0003:0000d7c4       ?addr_d2win@@3PAUHINSTANCE__@@A 660937c4     install.obj
 0003:0000d7c8       ?addr_d2lang@@3PAUHINSTANCE__@@A 660937c8     install.obj
 0003:0000d7cc       ?addr_d2cmp@@3PAUHINSTANCE__@@A 660937cc     install.obj
 0003:0000d7d0       ?addr_bnclient@@3PAUHINSTANCE__@@A 660937d0     install.obj
 0003:0000d7d4       ?addr_d2net@@3PAUHINSTANCE__@@A 660937d4     install.obj
 0003:0000d7d8       ?addr_fog@@3PAUHINSTANCE__@@A 660937d8     install.obj
 0003:0000d7dc       ?addr_d2game@@3PAUHINSTANCE__@@A 660937dc     install.obj
 0003:0000d7e0       ?addr_d2launch@@3PAUHINSTANCE__@@A 660937e0     install.obj
 0003:0000d7e4       ?addr_d2gdi@@3PAUHINSTANCE__@@A 660937e4     install.obj
 0003:0000d7e8       ?addr_d2sound@@3PAUHINSTANCE__@@A 660937e8     install.obj
 0003:0000d7ec       ?addr_d2multi@@3PAUHINSTANCE__@@A 660937ec     install.obj
 0003:0000d7f0       ?addr_d2mcpclient@@3PAUHINSTANCE__@@A 660937f0     install.obj
 0003:0000d7f4       ?fGameFilter@@3HA          660937f4     install.obj
 0003:0000d7f8       ?hasPlugY@@3HA             660937f8     install.obj
 0003:0000d7fc       ?pPatchList@@3PAPAUInstalledPatch@@A 660937fc     install.obj
 0003:0000d80c       ?networkPatch@@3PAUInstalledPatch@@A 6609380c     install.obj
 0003:0000ec20       ?dwDumpMpqPath@@3HA        66094c20     mpq.obj
 0003:0000ecd0       ?singlePlayerWorld@@3PAUWorld@@A 66094cd0     common.obj
 0003:0000ecd4       ?forceStandStill@@3HA      66094cd4     common.obj
 0003:0000f900       ?nPet@@3HA                 66095900     common.obj
 0003:0000f904       ?petCap@@3HA               66095904     common.obj
 0003:0000f908       ?dwPetListChangeVerify@@3HA 66095908     common.obj
 0003:0000f910       ?fPartyListValid@@3HA      66095910     common.obj
 0003:0000f948       ?autoTerminateNpcInteractMs@@3HA 66095948     loop.obj
 0003:0000f94c       ?screenDrawY@@3HA          6609594c     loop.obj
 0003:0000f950       ?screenDrawX@@3HA          66095950     loop.obj
 0003:0000f954       ?dwChangeLeftSkill@@3HA    66095954     loop.obj
 0003:0000f958       ?dwLoopCount@@3HA          66095958     loop.obj
 0003:0000f95c       ?fDebugMs@@3HA             6609595c     loop.obj
 0003:0000f960       ?dwLevelChangeMs@@3HA      66095960     loop.obj
 0003:0000f964       ?dwCpuUser@@3HA            66095964     loop.obj
 0003:0000f968       ?dwCpuKernel@@3HA          66095968     loop.obj
 0003:0000f96c       ?dwLoopFPS@@3HA            6609596c     loop.obj
 0003:0000f970       ?dwDrawFPS@@3HA            66095970     loop.obj
 0003:0000f974       ?dwCurMs@@3HC              66095974     loop.obj
 0003:0000f978       ?dwEnterGameMs@@3HA        66095978     loop.obj
 0003:0000f97c       ?fStartingGame@@3HA        6609597c     loop.obj
 0003:0000f980       ?fInGame@@3HA              66095980     loop.obj
 0003:0000f984       ?dwEnterGameShowDifficultyMs@@3HA 66095984     loop.obj
 0003:0000f988       ?dwCurrentAct@@3HA         66095988     loop.obj
 0003:0000f98c       ?dwPlayerX@@3HA            6609598c     loop.obj
 0003:0000f990       ?dwPlayerY@@3HA            66095990     loop.obj
 0003:0000f994       ?dwPlayerId@@3HA           66095994     loop.obj
 0003:0000f998       ?dwPlayerPartyId@@3HA      66095998     loop.obj
 0003:0000f99c       ?dwPlayerClass@@3HA        6609599c     loop.obj
 0003:0000f9a0       ?pLeftSkill@@3PAUSkill@@A  660959a0     loop.obj
 0003:0000f9a4       ?pRightSkill@@3PAUSkill@@A 660959a4     loop.obj
 0003:0000f9a8       ?dwLeftSkillStatus@@3HA    660959a8     loop.obj
 0003:0000f9ac       ?dwRightSkillStatus@@3HA   660959ac     loop.obj
 0003:0000f9b0       ?dwPlayerLevel@@3HA        660959b0     loop.obj
 0003:0000f9b4       ?dwPlayerHP@@3HA           660959b4     loop.obj
 0003:0000f9b8       ?dwPlayerMaxHP@@3HA        660959b8     loop.obj
 0003:0000f9bc       ?dwPlayerMana@@3HA         660959bc     loop.obj
 0003:0000f9c0       ?dwPlayerMaxMana@@3HA      660959c0     loop.obj
 0003:0000f9c4       ?dwPlayerFcrFrame@@3HA     660959c4     loop.obj
 0003:0000f9c8       ?dwPlayerFcrMs@@3HA        660959c8     loop.obj
 0003:0000f9cc       ?dwSlowRestoreMs@@3HA      660959cc     loop.obj
 0003:0000f9e0       ?dwBugFlag@@3HA            660959e0     loop.obj
 0003:0000fa10       ?wcsLevelTargetName@@3PA_WA 66095a10     map.obj
 0003:0000fb1c       ?dwRescueBarDy@@3HA        66095b1c     map.obj
 0003:0000fb20       ?dwRescueBarDx@@3HA        66095b20     map.obj
 0003:0000fb38       ?minimapLevels@@3PAUMinimapLevel@@A 66095b38     map.obj
 0003:00011118       ?pCurMapLevel@@3PAUMinimapLevel@@A 66097118     map.obj
 0003:00011204       ?pMinimapObjectCell@@3PAUCellFile@@A 66097204     map.obj
 0003:00011208       ?dwRevealMapMs@@3HA        66097208     map.obj
 0003:0001120c       ?dwAutoRevealCLevel@@3HA   6609720c     map.obj
 0003:00011210       ?anMonsterColours@@3PAEA   66097210     map.obj
 0003:000115f8       ?wszStaffTombLvlDesc@@3PA_WA 660975f8     map.obj
 0003:0001165c       ?nCaveNameTextCol@@3EA     6609765c     map.obj
 0003:0001165d       ?nSuperUniqueDescFont@@3EA 6609765d     map.obj
 0003:00011660       ?aszUnitBlobFiles@@3PAY0DC@DA 66097660     map.obj
 0003:00011888       ?awszEnchantDescs@@3PAY0BE@_WA 66097888     map.obj
 0003:00012058       ?awszAuraDescs@@3PAY0BE@_WA 66098058     map.obj
 0003:00012170       ?awszImmuneDescs@@3PAY0BE@_WA 66098170     map.obj
 0003:00012260       ?anMonsterCorpseColors@@3PAEA 66098260     map.obj
 0003:00012648       ?anMissileColours@@3PAEA   66098648     map.obj
 0003:00012a30       ?dwScreenScrollCount@@3HA  66098a30     map.obj
 0003:00012a34       ?dwMinimapScrollCount@@3HA 66098a34     map.obj
 0003:00012a38       ?tScreenScrollKeys@@3PAUToggleVar@@A 66098a38     map.obj
 0003:00012d38       ?dwScreenScrollOffset@@3PAY01HA 66098d38     map.obj
 0003:00012db8       ?tMiniMapScrollKeys@@3PAUToggleVar@@A 66098db8     map.obj
 0003:000130b8       ?dwMiniMapScrollOffset@@3PAY01HA 660990b8     map.obj
 0003:00013344       ?npcChatTxt@@3HA           66099344     packet.obj
 0003:00013348       ?dwSendPacketCount@@3HA    66099348     packet.obj
 0003:0001334c       ?dwInteractEntityCount@@3HA 6609934c     packet.obj
 0003:00013350       ?fMonitorSendCmd@@3PADA    66099350     packet.obj
 0003:00013450       ?fMonitorRecvCmd@@3PADA    66099450     packet.obj
 0003:00013658       ?dwTargetDistanceMs@@3HA   66099658     route.obj
 0003:0001365c       ?dwTargetDistance@@3HA     6609965c     route.obj
 0003:00013688       ?pSrcRect@@3PAURouteRect@@A 66099688     route.obj
 0003:00013690       ?dwTakeWaypointToLevel@@3HA 66099690     waypoint.obj
 0003:00013694       ?waypointBits@@3PADA       66099694     waypoint.obj
 0003:000136a0       ?waypointMap@@3PAHA        660996a0     waypoint.obj
 0003:000138d0       ?mouseL@@3HA               660998d0     winmsg.obj
 0003:000138d4       ?mouseW@@3HA               660998d4     winmsg.obj
 0003:00015cd8       ?fSkipPainting@@3HA        6609bcd8     winmsg.obj
 0003:00015cdc       ?fSkipPaintingMenu@@3HA    6609bcdc     winmsg.obj
 0003:00015ce0       ?dwQuickSwapItemMs@@3HA    6609bce0     winmsg.obj
 0003:00015ce4       ?dwScreenBlockMask@@3HA    6609bce4     winmsg.obj
 0003:00015ce8       ?dwDrawCount@@3HA          6609bce8     winmsg.obj
 0003:00015cec       ?fInMainMenu@@3HA          6609bcec     winmsg.obj
 0003:00015cf0       ?fLeftBtnDown@@3HA         6609bcf0     winmsg.obj
 0003:00015cf4       ?fRightBtnDown@@3HA        6609bcf4     winmsg.obj
 0003:00015cf8       ?dwBtnReleaseMs@@3HA       6609bcf8     winmsg.obj
 0003:00015cfc       ?fUserOperating@@3HA       6609bcfc     winmsg.obj
 0003:00015d00       ?need_paint@@3HA           6609bd00     winmsg.obj
 0003:00015d28       ?fNoBackgroundImage@@3HA   6609bd28     winmsg.obj
 0003:00015d2c       ?dwAutoHideMinimapKey@@3HA 6609bd2c     winmsg.obj
 0003:00015d30       ?dwGameControlKeys@@3PAY03HA 6609bd30     winmsg.obj
 0003:00016130       ?dwGameSoundKeys@@3PAHA    6609c130     winmsg.obj
 0003:00016330       ?tSwitchWindowKeys@@3PAY01UToggleVar@@A 6609c330     winmsg.obj
 0003:00016930       ?dwSwitchSkillKeyCount@@3HA 6609c930     winmsg.obj
 0003:00016934       ?fFullWindows@@3HA         6609c934     winmsg.obj
 0003:00016938       ?dwSwitchSkillKeys@@3PAHA  6609c938     winmsg.obj
 0003:000169b8       ?dwSwitchSkillLeft@@3PAY173HA 6609c9b8     winmsg.obj
 0003:000179b8       ?dwSwitchSkillRight@@3PAY173HA 6609d9b8     winmsg.obj
 0003:000189b8       ?dwSwitchSkillLeftUp@@3PAY07HA 6609e9b8     winmsg.obj
 0003:00018db8       ?dwSwitchSkillRightUp@@3PAY07HA 6609edb8     winmsg.obj
 0003:000191b8       ?dwSwitchSkillStandStill@@3PAHA 6609f1b8     winmsg.obj
 0003:00019238       ?dwSwitchSkillLeftOrg@@3PAHA 6609f238     winmsg.obj
 0003:000192b8       ?dwSwitchSkillRightOrg@@3PAHA 6609f2b8     winmsg.obj
 0003:00019338       ?dwTpSwitchBackground@@3PAHA 6609f338     winmsg.obj
 0003:00019358       ?dwEnterDoorInBackgroundSkill@@3PAY0IM@HA 6609f358     winmsg.obj
 0003:0001a2d8       ?skipMonsters@@3PADA       660a02d8     env.obj
 0003:0001a6d8       ?dwVisualEffectMode@@3HA   660a06d8     env.obj
 0003:0001a6e0       ?afMonsterCorpses@@3PAEA   660a06e0     env.obj
 0003:0001aac8       ?afMissileCorpses@@3PAEA   660a0ac8     env.obj
 0003:0001aeb0       ?dwNextStackLoc@@3HA       660a0eb0     GameMonitor.obj
 0003:0001aeb4       ?dwNextStackY@@3HA         660a0eb4     GameMonitor.obj
 0003:0001aeb8       ?dwNextStackX@@3HA         660a0eb8     GameMonitor.obj
 0003:0001aebc       ?dwNextStackingId@@3HA     660a0ebc     GameMonitor.obj
 0003:0001aec0       ?dwThrowWeaponId@@3HA      660a0ec0     GameMonitor.obj
 0003:0001aed0       ?dwNextMPotionId@@3HA      660a0ed0     GameMonitor.obj
 0003:0001aed4       ?dwNextHPotionId@@3HA      660a0ed4     GameMonitor.obj
 0003:0001aed8       ?beltLayers@@3HA           660a0ed8     GameMonitor.obj
 0003:0001aedc       ?dwNeedPotionType@@3HA     660a0edc     GameMonitor.obj
 0003:0001aee0       ?beltType@@3PAEA           660a0ee0     GameMonitor.obj
 0003:0001aee4       ?beltCount@@3PAEA          660a0ee4     GameMonitor.obj
 0003:0001aee8       ?fWerebear@@3HA            660a0ee8     GameMonitor.obj
 0003:0001aeec       ?fWerewolf@@3HA            660a0eec     GameMonitor.obj
 0003:0001aef0       ?dwOakSageLvl@@3HA         660a0ef0     GameMonitor.obj
 0003:0001aef4       ?bossHps@@3PAHA            660a0ef4     GameMonitor.obj
 0003:0001af00       ?dwRecheckSelfItemMs@@3HA  660a0f00     GameMonitor.obj
 0003:0001af04       ?leftWeapon@@3PAUUnitAny@@A 660a0f04     GameMonitor.obj
 0003:0001af08       ?rightWeapon@@3PAUUnitAny@@A 660a0f08     GameMonitor.obj
 0003:0001af0c       ?dwTownPortalCount@@3HA    660a0f0c     GameMonitor.obj
 0003:0001af10       ?dwIdentifyPortalCount@@3HA 660a0f10     GameMonitor.obj
 0003:0001af14       ?fUsingBow@@3HA            660a0f14     GameMonitor.obj
 0003:0001af18       ?fUsingCrossBow@@3HA       660a0f18     GameMonitor.obj
 0003:0001af1c       ?fUsingThrow@@3HA          660a0f1c     GameMonitor.obj
 0003:0001af20       ?dwHPotionCount@@3HA       660a0f20     GameMonitor.obj
 0003:0001af24       ?dwMPotionCount@@3HA       660a0f24     GameMonitor.obj
 0003:0001af28       ?dwRPotionCount@@3HA       660a0f28     GameMonitor.obj
 0003:0001af2c       ?dwArrowCount@@3HA         660a0f2c     GameMonitor.obj
 0003:0001af30       ?dwCArrowCount@@3HA        660a0f30     GameMonitor.obj
 0003:0001af34       ?dwThrowCount@@3HA         660a0f34     GameMonitor.obj
 0003:0001af38       ?curStashPage@@3HA         660a0f38     GameMonitor.obj
 0003:0001af3c       ?nStashPages@@3HA          660a0f3c     GameMonitor.obj
 0003:0001af40       ?stashPages@@3PAPAUStashPage@@A 660a0f40     GameMonitor.obj
 0003:0001b140       ?bossX@@3HA                660a1140     GameMonitor.obj
 0003:0001b144       ?bossY@@3HA                660a1144     GameMonitor.obj
 0003:0001b148       ?bossId@@3HA               660a1148     GameMonitor.obj
 0003:0001b14c       ?nBoss@@3HA                660a114c     GameMonitor.obj
 0003:0001b150       ?fMonitorQuantity@@3HA     660a1150     GameMonitor.obj
 0003:0001b154       ?fMonitorDurability@@3HA   660a1154     GameMonitor.obj
 0003:0001b158       ?dwKillSum@@3HA            660a1158     GameMonitor.obj
 0003:0001b15c       ?dwGameKills@@3HA          660a115c     GameMonitor.obj
 0003:0001b160       ?dwLastKills@@3HA          660a1160     GameMonitor.obj
 0003:0001b164       ?dwGetHitSum@@3HA          660a1164     GameMonitor.obj
 0003:0001b168       ?dwGetHits@@3HA            660a1168     GameMonitor.obj
 0003:0001b16c       ?dwOrgMode@@3HA            660a116c     GameMonitor.obj
 0003:0001b170       ?targetNameColor@@3DA      660a1170     GameMonitor.obj
 0003:0001b174       ?fState100HP@@3HA          660a1174     GameMonitor.obj
 0003:0001b178       ?fState106ManaMs@@3HA      660a1178     GameMonitor.obj
 0003:0001b180       ?dwGuessBOMs@@3HA          660a1180     GameMonitor.obj
 0003:0001b184       ?dwGuessEnchantMs@@3HA     660a1184     GameMonitor.obj
 0003:0001daa0       ?fViewingTargetUnit@@3HA   660a3aa0     info.obj
 0003:0001daa4       ?currentgameexp@@3HA       660a3aa4     info.obj
 0003:00092e00       ?dwGoldGoodNum@@3HA        66118e00     item.obj
 0003:00092e04       ?fSimplifiedPotionName@@3HA 66118e04     item.obj
 0003:00092e08       ?anRuneColours@@3PAY03DA   66118e08     item.obj
 0003:00092f98       ?anItemColours@@3PAY37163DA 66118f98     item.obj
 0003:001db198       ?anItemHideLevel@@3PAY07DA 66261198     item.obj
 0003:001e0f58       ?anItemShowCLevel@@3PAY01DA 66266f58     item.obj
 0003:001e26c8       ?wszEtherealItemPrefix@@3PA_WA 662686c8     item.obj
 0003:001e2704       ?wszEtherealItemPostfix@@3PA_WA 66268704     item.obj
 0003:001e2740       ?dwShowValuableItem@@3HA   66268740     item.obj
 0003:001e2748       ?szItemExtInfoCfgName@@3PAY0BAA@DA 66268748     item.obj
 0003:001e2948       ?fViewSockFlag@@3HA        66268948     item.obj
 0003:001e294c       ?fViewSocketableOn@@3HA    6626894c     item.obj
 0003:001e2950       ?wszDescText@@3PA_WA       66268950     item.obj
 0003:001e3150       ?pViewingItem@@3PAUUnitAny@@A 66269150     item.obj
 0003:001e3158       ?marketItemCount@@3HA      66269158     item.obj
 0003:001e315c       ?marketItemCount1@@3HA     6626915c     item.obj
 0003:001f2a80       ?dwCheckMercMs@@3HA        66278a80     dangerous.obj
 0003:001f2a9c       ?dwIronGolemLifeAlertPercent@@3HA 66278a9c     dangerous.obj
 0003:001f2aa0       ?dwIronGolemLifeTownPercent@@3HA 66278aa0     dangerous.obj
 0003:001f2aa4       ?dwIronGolemLifeExitPercent@@3HA 66278aa4     dangerous.obj
 0003:001f2aa8       ?dwIronGolemTownLifePercent@@3HA 66278aa8     dangerous.obj
 0003:001f2aac       ?dwHirePotionMinCLevel@@3HA 66278aac     dangerous.obj
 0003:001f2ab0       ?dwHirePotionLifePercent@@3HA 66278ab0     dangerous.obj
 0003:001f2ab4       ?dwHirePotionColumn@@3HA   66278ab4     dangerous.obj
 0003:001f2ab8       ?dwHealingPotionLifePercent@@3HA 66278ab8     dangerous.obj
 0003:001f2abc       ?dwHealingPotionDelayMs@@3HA 66278abc     dangerous.obj
 0003:001f2ac0       ?dwManaPotionMax@@3HA      66278ac0     dangerous.obj
 0003:001f2ac4       ?dwManaPotionValue@@3HA    66278ac4     dangerous.obj
 0003:001f2ac8       ?dwManaPotionNTValue@@3HA  66278ac8     dangerous.obj
 0003:001f2acc       ?dwChickenLife@@3HA        66278acc     dangerous.obj
 0003:001f2ad0       ?dwChickenMaxLife@@3HA     66278ad0     dangerous.obj
 0003:001f2ad4       ?dwChickenHostileLife@@3HA 66278ad4     dangerous.obj
 0003:001f2ad8       ?dwChickenHostileNearbyLife@@3HA 66278ad8     dangerous.obj
 0003:001f2adc       ?dwChickenLifePercent@@3HA 66278adc     dangerous.obj
 0003:001f2ae0       ?dwChickenHostileLifePercent@@3HA 66278ae0     dangerous.obj
 0003:001f2ae4       ?dwChickenHostileNearbyLifePercent@@3HA 66278ae4     dangerous.obj
 0003:001f2ae8       ?dwChickenLifeMinClevel@@3HA 66278ae8     dangerous.obj
 0003:001f2aec       ?fLifeProtectOn@@3HA       66278aec     dangerous.obj
 0003:001f2af0       ?fDangerousMonsterActive@@3HA 66278af0     dangerous.obj
 0003:001f2af8       ?anDangerousMonster@@3PAY01DA 66278af8     dangerous.obj
 0003:001f3340       ?dwUpdateQuestMs@@3HA      66279340     quest.obj
 0003:001f3344       ?dwQuestAlertMs@@3HA       66279344     quest.obj
 0003:001f3348       ?wszBugKBAlertMessage@@3PA_WA 66279348     quest.obj
 0003:001f74b0       ?afMonsterDeathAnims@@3PAEA 6627d4b0     lifebar.obj
 0003:001f78d0       ?aDropProtectRune@@3PADA   6627d8d0     DropProtection.obj
 0003:001f78f8       ?aDropProtectRuneword@@3PADA 6627d8f8     DropProtection.obj
 0003:001f79f8       ?aDropProtectUnique@@3PADA 6627d9f8     DropProtection.obj
 0003:001f7bf8       ?aDropProtectSet@@3PADA    6627dbf8     DropProtection.obj
 0003:001f7cf8       ?dwSimpleItemProtectionCount@@3HA 6627dcf8     DropProtection.obj
 0003:001fc118       ?fAutoEnchantCheckUnit@@3HA 66282118     enchant.obj
 0003:001fc120       ?pD2WinEditBox@@3PAUD2EditBox@@A 66282120     chat.obj
 0003:001fc128       ?chatPasteMs@@3HA          66282128     chat.obj
 0003:001fc130       ?fMyChatOn@@3HA            66282130     chat.obj
 0003:001fc1f8       ?dwAutoLoginMs@@3HA        662821f8     login.obj
 0003:001fc200       ?dwAutoSelectCharMs@@3HA   66282200     login.obj
 0003:001fc210       ?nCurCharTags@@3HA         66282210     login.obj
 0003:001fc228       ?mSkipQuestMessage@@3HA    66282228     misc.obj
 0003:001fc23c       ?dwWaitTeamEnterPortalId@@3HA 6628223c     multi.obj
 0003:001fc240       ?dwWaitTeamEnterPortalMs@@3HA 66282240     multi.obj
 0003:001fc27c       ?autoNpcTxt@@3HA           6628227c     multi.obj
 0003:001fc280       ?dwMultiClientMaxWindowId@@3HA 66282280     multi.obj
 0003:001fc284       ?d2winLastId@@3HA          66282284     multi.obj
 0003:001fc288       ?wszTransferClick@@3PA_WA  66282288     multi.obj
 0003:001fc308       ?fAutoFollowMoving@@3HA    66282308     multi.obj
 0003:001fc30c       ?fTransferClick@@3HA       6628230c     multi.obj
 0003:001fc310       ?tMCFormationKeys@@3PAUToggleVar@@A 66282310     multi.obj
 0003:001fc910       ?aMCFormation@@3PAY0BA@CA  66282910     multi.obj
 0003:001fcb10       ?aAutoFollowClickObject@@3PADA 66282b10     multi.obj
 0003:001fcf10       ?dwTeamMemberCount@@3HA    66282f10     multi.obj
 0003:001fcf14       ?dwLeaderId@@3HA           66282f14     multi.obj
 0003:001fcf18       ?d2wins@@3PAUD2Window@@A   66282f18     multi.obj
 0003:001febb0       ?wszNpcTradeInfo@@3PA_WA   66284bb0     NpcTrade.obj
 0003:001ff714       ?dwNpcTradeCheckMs@@3HA    66285714     NpcTrade.obj
 0003:001ff718       ?fCanInvite@@3HA           66285718     party.obj
 0003:001ff71c       ?dwPartyResponseMs@@3HA    6628571c     party.obj
 0003:001ff728       ?fCanExitGame@@3HA         66285728     quick.obj
 0003:001ff72c       ?dwBackToTownTimeout@@3HA  6628572c     quick.obj
 0003:001ff738       ?fAutoNextGameName@@3HA    66285738     quick.obj
 0003:001ff73c       ?fAutoNextGamePassword@@3HA 6628573c     quick.obj
 0003:001ff740       ?fAutoNextGameDescription@@3HA 66285740     quick.obj
 0003:001ff748       ?wszGameName@@3PA_WA       66285748     quick.obj
 0003:001ff788       ?wszGamePassword@@3PA_WA   66285788     quick.obj
 0003:001ff7c8       ?wszGameDescription@@3PA_WA 662857c8     quick.obj
 0003:001ffd90       ?fHighRes@@3HA             66285d90     resolution.obj
 0003:00203e64       ?dwAutoSkillReloading@@3HA 66289e64     skill.obj
 0003:00203e68       ?dwRescueBarSafeDistance@@3HA 66289e68     skill.obj
 0003:00203e6c       ?fAutoEnchant@@3HA         66289e6c     skill.obj
 0003:00203e70       ?aAutoPickupItem@@3PADA    66289e70     skill.obj
 0003:00204a28       ?fAutoEnchantUseLeftSkill@@3HA 6628aa28     skill.obj
 0003:00204a2c       ?fAutoWarCry@@3HA          6628aa2c     skill.obj
 0003:00204a30       ?dwAutoEnchantMonster@@3PADA 6628aa30     skill.obj
 0003:00204e30       ?fAutoWarCryUseLeftSkill@@3HA 6628ae30     skill.obj
 0003:00204e34       ?dwAutoWarCryRenewPercent@@3HA 6628ae34     skill.obj
 0003:00204e38       ?dwUseLeftSkillFirst@@3HA  6628ae38     skill.obj
 0003:00204e3c       ?dwAutoReloadThrowing@@3HA 6628ae3c     skill.obj
 0003:00204e40       ?dwAutoSkillCheckMs@@3HA   6628ae40     skill.obj
 0003:00204e44       ?dwAutoSkillMode@@3HA      6628ae44     skill.obj
 0003:00204e48       ?fAutoSkillNow@@3HA        6628ae48     skill.obj
 0003:00204e4c       ?fAutoSkill@@3HA           6628ae4c     skill.obj
 0003:00204e50       ?aAutoDimVisionMonster@@3PADA 6628ae50     skill.obj
 0003:00205250       ?aAutoSkillMonsterType@@3PADA 6628b250     skill.obj
 0003:00205650       ?aAutoSkillDistance@@3PAY01DA 6628b650     skill.obj
 0003:00205a50       ?fAutoSummon@@3HA          6628ba50     skill.obj
 0003:00205a54       ?fAutoSummonUseLeftSkill@@3HA 6628ba54     skill.obj
 0003:00205a58       ?dwAutoSummonStartMs@@3HA  6628ba58     skill.obj
 0003:00205a5c       ?dwAutoSummonCheckEnchantMs@@3HA 6628ba5c     skill.obj
 0003:00205a60       ?aAutoReviveMonster@@3PADA 6628ba60     skill.obj
 0003:00205e60       ?dwSkeletonCount@@3HA      6628be60     skill.obj
 0003:00205e64       ?dwEnchantSkeletonCount@@3HA 6628be64     skill.obj
 0003:00205e68       ?dwSkeletonMaxCount@@3HA   6628be68     skill.obj
 0003:00205e6c       ?dwSkeletonMageCount@@3HA  6628be6c     skill.obj
 0003:00205e70       ?dwSkeletonMageMaxCount@@3HA 6628be70     skill.obj
 0003:00205e74       ?dwReviveCount@@3HA        6628be74     skill.obj
 0003:00205e78       ?dwReviveMaxCount@@3HA     6628be78     skill.obj
 0003:00205e7c       ?dwSkeletonHPPercent@@3HA  6628be7c     skill.obj
 0003:00205e80       ?dwSkeletonMageHPPercent@@3HA 6628be80     skill.obj
 0003:00208840       ?questNames@@3PAPADA       6628e840     Snapshot.obj
 0003:00208900       ?dwMercNameId@@3HA         6628e900     Snapshot.obj
 0003:0020890c       ?dwMercSeed@@3HA           6628e90c     Snapshot.obj
 0003:00208a78       ?dwCheckSkeletonCountMs@@3HA 6628ea78     summon.obj
 0003:0020caa0       ?fAutoSummonSwitchSkillTmp@@3HA 66292aa0     summon.obj
 0003:0020caa4       ?fAutoSummonSwitchSkill@@3HA 66292aa4     summon.obj
 0003:0020caa8       ?fAutoSummonNeedCorpse@@3HA 66292aa8     summon.obj
 0003:0020caac       ?dwNecInfoExpireMs@@3HA    66292aac     summon.obj
 0003:0020cab0       ?dwNecMana@@3HA            66292ab0     summon.obj
 0003:0020cab4       ?dwTotalMonsterCount@@3HA  66292ab4     summon.obj
 0003:0020cab8       ?dwSkillChangeCount@@3HA   66292ab8     summon.obj
 0003:0020cf20       ?maxTpDisRaw@@3HA          66292f20     teleport.obj
 0003:0020cf94       ?dwTpDoneMs@@3HA           66292f94     teleport.obj
 0003:0020cf98       ?dwTpMs@@3HA               66292f98     teleport.obj
 0003:0020cf9c       ?TPfailedRect@@3PAUAreaRectData@@A 66292f9c     teleport.obj
 0003:0020cfa0       ?TPtargetRect@@3PAUAreaRectData@@A 66292fa0     teleport.obj
 0003:0020cfa4       ?TPtarget@@3UtagPOINT@@A   66292fa4     teleport.obj
 0003:0020cfd8       ?fAutoTeleporting@@3HA     66292fd8     teleport.obj
 0003:0020cfdc       ?unexpectedMonCount@@3HA   66292fdc     teleport.obj
 0003:0020cfe0       ?unexpectedMonTotalMs@@3HA 66292fe0     teleport.obj
 0003:0020cff8       ?fEnableHighResolutionPatch@@3HA 66292ff8     panel.obj
 0003:0020cffc       ?serverCubeType@@3HA       66292ffc     panel.obj
 0003:0020d000       ?clientCubeType@@3HA       66293000     panel.obj
 0003:0020d004       ?serverStashType@@3HA      66293004     panel.obj
 0003:0020d008       ?clientStashType@@3HA      66293008     panel.obj
 0003:0020d00c       ?serverInvType@@3HA        6629300c     panel.obj
 0003:0020d010       ?clientInvType@@3HA        66293010     panel.obj
 0003:0020d01c       ?fEnableBigStash@@3HA      6629301c     panel.obj
 0003:0020d020       ?dwInvType@@3HA            66293020     panel.obj
 0003:0020d024       ?dwStashType@@3HA          66293024     panel.obj
 0003:0020d028       ?dwCubeType@@3HA           66293028     panel.obj
 0003:0020d284       ?active_UberDiabloRushTweekAI@@3_NA 66293284     uber.obj
 0003:0020d285       ?active_UberBaalTeleportTweekAI@@3_NA 66293285     uber.obj
 0003:0020d286       ?active_UberBaalChillingArmorTweekAI@@3_NA 66293286     uber.obj
 0003:0020d288       ?uberBaalChillingArmorLastFrame@@3HA 66293288     uber.obj
 0003:0020d28c       __cflush                   6629328c     LIBCMT:_file.obj
 0003:0020d290       ___fastflag                66293290     LIBCMT:_fpinit_.obj
 0003:0020d294       __adjust_fdiv              66293294     LIBCMT:_fpinit_.obj
 0003:0020d2b0       __aenvptr                  662932b0     LIBCMT:dllcrt0.obj
 0003:0020d2b4       __wenvptr                  662932b4     LIBCMT:dllcrt0.obj
 0003:0020d2b8       ___error_mode              662932b8     LIBCMT:dllcrt0.obj
 0003:0020d2bc       ___app_type                662932bc     LIBCMT:dllcrt0.obj
 0003:0020d2c4       ___mbulinfo                662932c4     LIBCMT:mbctype.obj
 0003:0020d2d0       ___mbcodepage              662932d0     LIBCMT:mbctype.obj
 0003:0020d2d4       ___ismbcodepage            662932d4     LIBCMT:mbctype.obj
 0003:0020d2d8       ___mblcid                  662932d8     LIBCMT:mbctype.obj
 0003:0020d2dc       ___locale_changed          662932dc     LIBCMT:setlocal.obj
 0003:0020d2e0       ___lc_handle               662932e0     LIBCMT:nlsdata2.obj
 0003:0020d2f8       ___lc_codepage             662932f8     LIBCMT:nlsdata2.obj
 0003:0020d2fc       ___lc_collate_cp           662932fc     LIBCMT:nlsdata2.obj
 0003:0020d300       _gpFlsAlloc                66293300     LIBCMT:tidtable.obj
 0003:0020d304       _gpFlsGetValue             66293304     LIBCMT:tidtable.obj
 0003:0020d308       _gpFlsSetValue             66293308     LIBCMT:tidtable.obj
 0003:0020d30c       _gpFlsFree                 6629330c     LIBCMT:tidtable.obj
 0003:0020d310       ___pInvalidArgHandler      66293310     LIBCMT:invarg.obj
 0003:0020d468       __stdbuf                   66293468     LIBCMT:_sftbuf.obj
 0003:0020d794       ?_pnhHeap@@3P6AHI@ZA       66293794     LIBCMT:handler.obj
 0003:0020d798       __newmode                  66293798     LIBCMT:_newmode.obj
 0003:0020d79c       __crtheap                  6629379c     LIBCMT:heapinit.obj
 0003:0020d7a0       ___sbh_pHeaderDefer        662937a0     LIBCMT:sbheap.obj
 0003:0020d7a8       __maxwait                  662937a8     LIBCMT:crtheap.obj
 0003:0020d7ac       __umaskval                 662937ac     LIBCMT:crt0dat.obj
 0003:0020d7b0       ___argc                    662937b0     LIBCMT:crt0dat.obj
 0003:0020d7b4       ___argv                    662937b4     LIBCMT:crt0dat.obj
 0003:0020d7b8       ___wargv                   662937b8     LIBCMT:crt0dat.obj
 0003:0020d7bc       __environ                  662937bc     LIBCMT:crt0dat.obj
 0003:0020d7c0       ___initenv                 662937c0     LIBCMT:crt0dat.obj
 0003:0020d7c4       __wenviron                 662937c4     LIBCMT:crt0dat.obj
 0003:0020d7c8       ___winitenv                662937c8     LIBCMT:crt0dat.obj
 0003:0020d7cc       __pgmptr                   662937cc     LIBCMT:crt0dat.obj
 0003:0020d7d0       __wpgmptr                  662937d0     LIBCMT:crt0dat.obj
 0003:0020d7d4       __exitflag                 662937d4     LIBCMT:crt0dat.obj
 0003:0020d7d8       __C_Termination_Done       662937d8     LIBCMT:crt0dat.obj
 0003:0020d7dc       __C_Exit_Done              662937dc     LIBCMT:crt0dat.obj
 0003:0020dc08       ___lconv_static_null       66293c08     LIBCMT:lconv.obj
 0003:0020dc10       ?__pInconsistency@@3P6AXXZA 66293c10     LIBCMT:hooks.obj
 0003:0020dc34       ___pPurecall               66293c34     LIBCMT:inithelp.obj
 0003:0020dc38       __outputformat             66293c38     LIBCMT:outputformat.obj
 0003:0020dd10       __commode                  66293d10     LIBCMT:ncommode.obj
 0003:0020dd28       ?pArgList@UnDecorator@@0PAVReplicator@@A 66293d28     LIBCMT:undname.obj
 0003:0020dd2c       ?pZNameList@UnDecorator@@0PAVReplicator@@A 66293d2c     LIBCMT:undname.obj
 0003:0020dd30       ?pTemplateArgList@UnDecorator@@0PAVReplicator@@A 66293d30     LIBCMT:undname.obj
 0003:0020dd34       ?gName@UnDecorator@@0PBDB  66293d34     LIBCMT:undname.obj
 0003:0020dd38       ?name@UnDecorator@@0PBDB   66293d38     LIBCMT:undname.obj
 0003:0020dd3c       ?outputString@UnDecorator@@0PADA 66293d3c     LIBCMT:undname.obj
 0003:0020dd40       ?maxStringLength@UnDecorator@@0HA 66293d40     LIBCMT:undname.obj
 0003:0020dd44       ?disableFlags@UnDecorator@@0KA 66293d44     LIBCMT:undname.obj
 0003:0020dd48       ?m_pGetParameter@UnDecorator@@0P6APADJ@ZA 66293d48     LIBCMT:undname.obj
 0003:0020dd4c       ?fExplicitTemplateParams@UnDecorator@@0_NA 66293d4c     LIBCMT:undname.obj
 0003:0020dd4d       ?fGetTemplateArgumentList@UnDecorator@@0_NA 66293d4d     LIBCMT:undname.obj
 0003:0020dd50       __fmode                    66293d50     LIBCMT:txtmode.obj
 0003:0020dd58       __debugger_hook_dummy      66293d58     <common>
 0003:0020dd5c       ___use_sse2_mathfcns       66293d5c     <common>
 0003:0020dd60       ___env_initialized         66293d60     <common>
 0003:0020dd64       ___onexitend               66293d64     <common>
 0003:0020dd68       ___onexitbegin             66293d68     <common>
 0003:0020dd6c       ___mbctype_initialized     66293d6c     <common>
 0003:0020dd70       ___dyn_tls_init_callback   66293d70     <common>
 0003:0020dd74       ___sbh_cntHeaderList       66293d74     <common>
 0003:0020dd78       ___sbh_pHeaderList         66293d78     <common>
 0003:0020dd7c       ___sbh_threshold           66293d7c     <common>
 0003:0020dd80       ___sbh_pHeaderScan         66293d80     <common>
 0003:0020dd84       ___sbh_sizeHeaderList      66293d84     <common>
 0003:0020dd88       ___sbh_indGroupDefer       66293d88     <common>
 0003:0020dd8c       ___active_heap             66293d8c     <common>
 0003:0020dd90       ___sse2_available          66293d90     <common>
 0003:0020dd94       __nhandle                  66293d94     <common>
 0003:0020dda0       ___pioinfo                 66293da0     <common>
 0003:0020dea0       __acmdln                   66293ea0     <common>
 0003:0020dea4       __pDestructExceptionObject 66293ea4     <common>
 0003:0020dea8       ___piob                    66293ea8     <common>
 0003:0020dec0       __bufin                    66293ec0     <common>
 0003:0020eec0       __nstream                  66294ec0     <common>

 entry point at        0001:0005c174

 Static symbols

 0001:00000a20       ?initKeyArray@@YAXPAUConfigVar@@HH@Z 66001a20 f   config.obj
 0001:00002dd0       ?parseInt@@YAHPADPAPAD@Z   66003dd0 f   config.obj
 0001:00002e70       ?parseValues8@@YAXPAD0H@Z  66003e70 f   config.obj
 0001:00002f40       ?parseValues32@@YAXPAHPADH@Z 66003f40 f   config.obj
 0001:000035d0       ?InitValues@@YAXXZ         660045d0 f   config.obj
 0001:000038b0       ?changeLogPath@@YAHPAD@Z   660048b0 f   config.obj
 0001:00003a50       ?loadConfig@@YAXPAD@Z      66004a50 f   config.obj
 0001:00004260       ?loadTagFile@@YAXPAD@Z     66005260 f   config.obj
 0001:00004500       ?loadSymbolFile@@YAXPAD@Z  66005500 f   config.obj
 0001:00004700       ?isNumber@@YAHPAD@Z        66005700 f   config.obj
 0001:00005630       ?doPatchCALL@@YAXHHH@Z     66006630 f   install.obj
 0001:00005680       ?doPatchJMP@@YAXHHH@Z      66006680 f   install.obj
 0001:000056d0       ?doPatchFILL@@YAXHHH@Z     660066d0 f   install.obj
 0001:00005720       ?doPatchVALUE@@YAXHHH@Z    66006720 f   install.obj
 0001:00005940       ?parseOriginalCode@@YAHPADH0HPAH@Z 66006940 f   install.obj
 0001:00009600       ?InstallPatchAfterLoad@@YAXXZ 6600a600 f   install.obj
 0001:00009630       ?installD2PatchesAfterLoad@@YAHXZ 6600a630 f   install.obj
 0001:00009990       ?installNetworkRecvPatch@@YAHXZ 6600a990 f   install.obj
 0001:000099e0       ?installPatchToggle@@YAHXZ 6600a9e0 f   install.obj
 0001:00009ab0       ?installD2Patches@@YAHXZ   6600aab0 f   install.obj
 0001:00013720       ?dumpPtr@@YAXPAU_iobuf@@PADHH1H@Z 66014720 f   install.obj
 0001:000139a0       ?dump@@YAXXZ               660149a0 f   install.obj
 0001:00013ee0       ?ReloadDll@@YAHXZ          66014ee0 f   install.obj
 0001:00013f40       ?ReloadConfig@@YAHXZ       66014f40 f   install.obj
 0001:00014040       _stat                      66015040 f   install.obj
 0001:00014040       _stat                      66015040 f   install.obj
 0001:00014c10       ?d2msg@@YAXHPA_WH@Z        66015c10 f   common.obj
 0001:000171d0       ?comparePet@@YAHPBX0@Z     660181d0 f   common.obj
 0001:000171d0       ?comparePvp@@YAHPBX0@Z     660181d0 f   common.obj
 0001:000171d0       ?compareItem@@YAHPBX0@Z    660181d0 f   common.obj
 0001:00018000       ?sendPacket43E0Patch_ASM@@YAXXZ 66019000 f   dbg.obj
 0001:00018020       ?sendPacket43E0@@YIXPADHH@Z 66019020 f   dbg.obj
 0001:00018070       ?sendPacket3Patch_ASM@@YAXXZ 66019070 f   dbg.obj
 0001:00018090       ?sendPacket3@@YIXDFH@Z     66019090 f   dbg.obj
 0001:000180e0       ?clickMenuItemPatch_ASM@@YAXXZ 660190e0 f   dbg.obj
 0001:00018100       ?clickMenuItem@@YIXH@Z     66019100 f   dbg.obj
 0001:00018a90       ?gameStart@@YAXXZ          66019a90 f   loop.obj
 0001:00018df0       ?checkTag@@YAXPAD@Z        66019df0 f   loop.obj
 0001:00019860       ?updateTargetName@@YAXXZ   6601a860 f   map.obj
 0001:00019c20       ?selectWaypointTarget@@YAXXZ 6601ac20 f   map.obj
 0001:0001a1f0       ?LoadBmpCellFile@@YAPAUCellFile@@PAD@Z 6601b1f0 f   map.obj
 0001:0001a2a0       ?InitCellFile@@YAPAUCellFile@@PAU1@@Z 6601b2a0 f   map.obj
 0001:0001a3b0       ?DeleteCellFile@@YAXPAUCellFile@@@Z 6601b3b0 f   map.obj
 0001:0001a610       ?addCorner@@YAXPAUSC@@HH@Z 6601b610 f   map.obj
 0001:0001a950       ?modifyRescueBarTarget@@YAXXZ 6601b950 f   map.obj
 0001:0001aa90       ?target_sort@@YAXPAPAUMinimapLevelTarget@@@Z 6601ba90 f   map.obj
 0001:0001ab60       ?modifySealTarget@@YAXXZ   6601bb60 f   map.obj
 0001:0001afc0       ?modifyTempleTarget@@YAXXZ 6601bfc0 f   map.obj
 0001:0001b070       ?modifyTeleportTarget@@YAXXZ 6601c070 f   map.obj
 0001:0001b3e0       ?ResetAutomapNodeCellNo@@YAXPAUAutomapNode@@@Z 6601c3e0 f   map.obj
 0001:0001b7d0       ?wscolorcpy@@YAPA_WPA_W0E@Z 6601c7d0 f   map.obj
 0001:0001b7d0       ?wscolorcpy@@YAPA_WPA_W0E@Z 6601c7d0 f   map.obj
 0001:0001d120       ?isConnected@@YAHPAUAreaRectInfo@@0PAUtagPOINT@@@Z 6601e120 f   map.obj
 0001:0001d480       ?drawAreaRect@@YAXPAUAreaRectInfo@@H@Z 6601e480 f   map.obj
 0001:0001d7a0       ?DrawMinimapPoint@@YAXXZ   6601e7a0 f   map.obj
 0001:0001ea00       ?hex@@YAXPAU_iobuf@@HPAXH@Z 6601fa00 f   packet.obj
 0001:00020790       ?drawAARect@@YAXPAURouteRect@@@Z 66021790 f   route.obj
 0001:00020af0       ?initRectRoute@@YAHPAUMinimapLevelTarget@@@Z 66021af0 f   route.obj
 0001:00020f50       ?canTeleport@@YAHPAUAreaRectData@@PAURouteRect@@@Z 66021f50 f   route.obj
 0001:000210b0       ?recycleRouteInfo@@YAXPAUMinimapLevelTarget@@@Z 660220b0 f   route.obj
 0001:00021210       ?performRectRoute@@YAXPAUMinimapLevelTarget@@@Z 66022210 f   route.obj
 0001:00021d30       ?recvWaypointMenu@@YIHPADH@Z 66022d30 f   waypoint.obj
 0001:00022bf0       ?setWinTitle@@YAXPAUHWND__@@H@Z 66023bf0 f   winmsg.obj
 0001:00023c30       ?keyDown@@YIHHH@Z          66024c30 f   winmsg.obj
 0001:00023ee0       ?shouldProcessKey@@YAHHH@Z 66024ee0 f   winmsg.obj
 0001:00023fe0       ?keyUp@@YIHHH@Z            66024fe0 f   winmsg.obj
 0001:00024210       ?createVersionTextBox@@YAXXZ 66025210 f   winmsg.obj
 0001:00024320       ?debugMsDrawUnitStart@@YAXXZ 66025320 f   winmsg.obj
 0001:000243a0       ?beforeDrawControl@@YAXXZ  660253a0 f   winmsg.obj
 0001:000243d0       ?debugMsDrawControlStart@@YAXXZ 660253d0 f   winmsg.obj
 0001:00024410       ?debugMsDrawControlEnd@@YAXXZ 66025410 f   winmsg.obj
 0001:00024470       ?shouldSkipDrawUnitAndControl@@YAHXZ 66025470 f   winmsg.obj
 0001:00024500       ?shouldSkipAllDrawing@@YAHXZ 66025500 f   winmsg.obj
 0001:000245b0       ?skipDrawMenu2@@YAHXZ      660255b0 f   winmsg.obj
 0001:00024630       ?mainMenuSkip@@YAHXZ       66025630 f   winmsg.obj
 0001:00024d60       ?drawGroundRect@@YAXPAUAreaRectData@@@Z 66025d60 f   env.obj
 0001:00025500       ?checkWeapon@@YAXPAUUnitAny@@@Z 66026500 f   GameMonitor.obj
 0001:00025600       ?checkItem@@YAXPAUUnitAny@@H@Z 66026600 f   GameMonitor.obj
 0001:00027ea0       ?recvState@@YIXPAE@Z       66028ea0 f   GameMonitor.obj
 0001:00028520       ?drawUnitsInfoInRect@@YAXPAUAreaRectData@@@Z 66029520 f   GameMonitor.obj
 0001:00028960       ?drawPlayerName@@YAXPAUUnitAny@@@Z 66029960 f   GameMonitor.obj
 0001:00028f80       ?drawBossHp@@YAXPAUUnitAny@@H@Z 66029f80 f   GameMonitor.obj
 0001:00031460       ?rescanMercPointers@@YAXXZ 66032460 f   dangerous.obj
 0001:00032780       ?checkQuest@@YAXHHHPAD@Z   66033780 f   quest.obj
 0001:00032b90       ?questAlert@@YAXXZ         66033b90 f   quest.obj
 0001:00033c30       ?drawQuestState@@YAXPAG0HHH@Z 66034c30 f   quest.obj
 0001:00033f80       ?recv28_quest@@YIXPAD@Z    66034f80 f   quest.obj
 0001:00036160       ?switchTo@@YAXH@Z          66037160 f   bo.obj
 0001:00036260       ?useSkill@@YAHH@Z          66037260 f   bo.obj
 0001:000365d0       _time                      660375d0 f   d2s.obj
 0001:00037760       ?hasProp@@YAHPAUUnitAny@@HH@Z 66038760 f   DropProtection.obj
 0001:00037be0       ?deleteCharacterCallback@@YIXPAD0@Z 66038be0 f   DropProtection.obj
 0001:00037c70       ?canDeleteCharacter@@YIHPAUD2Character@@@Z 66038c70 f   DropProtection.obj
 0001:00038360       ?skipMenuItem@@YIHPAUMenuItem@@@Z 66039360 f   DropProtection.obj
 0001:00038d60       ?findTargetItem@@YAPAUUnitAny@@H@Z 66039d60 f   DropProtection.obj
 0001:00039410       ?doEnchant@@YAHPAUUnitAny@@@Z 6603a410 f   enchant.obj
 0001:0003a890       ?sortGameList@@YAXXZ       6603b890 f   mcp.obj
 0001:0003a8d0       ?compareMcp05Game@@YAHPBX0@Z 6603b8d0 f   mcp.obj
 0001:0003a920       ?showGameListDifficulty@@YIXPAXPAD@Z 6603b920 f   mcp.obj
 0001:0003ab80       ?compareCharTag@@YAHPBX0@Z 6603bb80 f   login.obj
 0001:0003b170       ?c2w@@YAXPADPA_W@Z         6603c170 f   login.obj
 0001:0003b2f0       ?selectChar@@YIXH@Z        6603c2f0 f   login.obj
 0001:0003d940       ?teamMemberInArea@@YAHH@Z  6603e940 f   multi.obj
 0001:0003d9e0       ?interactObject@@YAXXZ     6603e9e0 f   multi.obj
 0001:0003e020       ?sendStartFollowCmd@@YAHPAUD2Window@@@Z 6603f020 f   multi.obj
 0001:0003e050       ?sendStopFollowCmd@@YAHPAUD2Window@@@Z 6603f050 f   multi.obj
 0001:0003f780       ?checkItems@@YAXHH@Z       66040780 f   NpcTrade.obj
 0001:0003f8c0       ?checkItem@@YAXPAUUnitAny@@H@Z 660408c0 f   NpcTrade.obj
 0001:00040490       ?checkBugMF@@YAHXZ         66041490 f   party.obj
 0001:000414a0       ?canPutIn@@YAHPADHHHH@Z    660424a0 f   QuickSwapItem.obj
 0001:00041d10       ?updateCubeInvMap@@YAXXZ   66042d10 f   QuickSwapItem.obj
 0001:00042230       ?dropItemToGound@@YAHXZ    66043230 f   QuickSwapItem.obj
 0001:000422a0       ?updateInv@@YAXPAUInventoryType@@H@Z 660432a0 f   QuickSwapItem.obj
 0001:00042350       ?putIntoSimpleItemStack@@YAHXZ 66043350 f   QuickSwapItem.obj
 0001:00042410       ?findSimpleItemStack@@YAPAUUnitAny@@H@Z 66043410 f   QuickSwapItem.obj
 0001:000429f0       ?pickupItem@@YAHPAUUnitAny@@@Z 660439f0 f   QuickSwapItem.obj
 0001:00042a80       ?findGemInv@@YAPAUUnitAny@@HH@Z 66043a80 f   QuickSwapItem.obj
 0001:00043490       ?getGlobalBeltSlotPosition@@YIXPAH0@Z 66044490 f   resolution.obj
 0001:00043540       ?getGlobalBeltRecord@@YIXPAH@Z 66044540 f   resolution.obj
 0001:00043600       ?adjWinRectEx@@YGHHPAUtagRECT@@HHH@Z 66044600 f   resolution.obj
 0001:000440b0       ?isAutoSkill@@YAHPAUSkill@@@Z 660450b0 f   skill.obj
 0001:00044210       ?checkAutoSkill1@@YAXHH@Z  66045210 f   skill.obj
 0001:00044ad0       ?updateSkill@@YAXPAUAutoSkillInfo@@H@Z 66045ad0 f   skill.obj
 0001:00045150       ?processStacking@@YAXXZ    66046150 f   skill.obj
 0001:00045290       ?canUse@@YAHPAUAutoSkillInfo@@@Z 66046290 f   skill.obj
 0001:00045370       ?checkUnit@@YAXPAUUnitAny@@@Z 66046370 f   skill.obj
 0001:00046bd0       ?getLvPercent@@YAHPAUUnitAny@@@Z 66047bd0 f   Snapshot.obj
 0001:00046f20       ?openSnapshotFile@@YAPAU_iobuf@@PAD00D0H@Z 66047f20 f   Snapshot.obj
 0001:000476e0       ?countGemRunes@@YAXPAUUnitAny@@@Z 660486e0 f   Snapshot.obj
 0001:00047c60       ?dumpStats@@YAHPAU_iobuf@@PAUStat@@@Z 66048c60 f   Snapshot.obj
 0001:00048060       ?dumpInventory@@YAXXZ      66049060 f   Snapshot.obj
 0001:00048650       ?dumpUnit@@YAXPAU_iobuf@@PAUUnitAny@@@Z 66049650 f   Snapshot.obj
 0001:00049080       ?outputGemRune@@YAXPAU_iobuf@@@Z 6604a080 f   Snapshot.obj
 0001:00049310       ?dumpItem@@YAXPAU_iobuf@@PAUUnitAny@@HH@Z 6604a310 f   Snapshot.obj
 0001:0004a3d0       ?addItem@@YAXPAUUnitAny@@H@Z 6604b3d0 f   Snapshot.obj
 0001:0004a760       ?isStartEq@@YAHPAUUnitAny@@@Z 6604b760 f   Snapshot.obj
 0001:0004a7d0       ?dumpItems@@YAXPAU_iobuf@@PAUUnitAny@@H@Z 6604b7d0 f   Snapshot.obj
 0001:0004a8a0       ?dumpQuests@@YAXPAU_iobuf@@@Z 6604b8a0 f   Snapshot.obj
 0001:0004b010       ?dumpTodo@@YAXPAU_iobuf@@HPADPAUQ@@@Z 6604c010 f   Snapshot.obj
 0001:0004b130       ?loadQuests@@YAXXZ         6604c130 f   Snapshot.obj
 0001:0004b200       ?dumpWaypoints@@YAXPAU_iobuf@@@Z 6604c200 f   Snapshot.obj
 0001:0004b3a0       ?dumpSkills@@YAXPAU_iobuf@@PAUUnitAny@@@Z 6604c3a0 f   Snapshot.obj
 0001:0004b4b0       ?dumpSkill@@YAXPAU_iobuf@@PAUSkill@@@Z 6604c4b0 f   Snapshot.obj
 0001:0004b5c0       ?dumpObject@@YAXPAU_iobuf@@PAUUnitAny@@@Z 6604c5c0 f   Snapshot.obj
 0001:0004b720       ?dumpAreatile@@YAXPAU_iobuf@@PAUUnitAny@@@Z 6604c720 f   Snapshot.obj
 0001:0004c220       ?doDeleteSnapshotFile@@YAXPAD@Z 6604d220 f   Snapshot.obj
 0001:0004cfd0       ?checkSummonSkillLevel@@YAXXZ 6604dfd0 f   summon.obj
 0001:0004d120       ?getSummonCount@@YAHH@Z    6604e120 f   summon.obj
 0001:0004d150       ?needSummon@@YAHXZ         6604e150 f   summon.obj
 0001:0004d360       ?switchSummonSkill@@YAXH@Z 6604e360 f   summon.obj
 0001:0004d390       ?checkUnit@@YAXPAUUnitAny@@@Z 6604e390 f   summon.obj
 0001:0004de70       ?findBoss@@YAHHH@Z         6604ee70 f   teleport.obj
 0001:0004df40       ?resetMonsters@@YAXXZ      6604ef40 f   teleport.obj
 0001:0004dfc0       ?findMonsters@@YAXXZ       6604efc0 f   teleport.obj
 0001:0004e360       ?addMonMap@@YAXHH@Z        6604f360 f   teleport.obj
 0001:0004e3c0       ?calBoundingBox@@YAXXZ     6604f3c0 f   teleport.obj
 0001:0004e500       ?getMonDis@@YAHPAUtagPOINT@@@Z 6604f500 f   teleport.obj
 0001:0004e560       ?dis@@YAHPAUtagPOINT@@0@Z  6604f560 f   teleport.obj
 0001:0004e590       ?interact@@YAXPAUtagPOINT@@HH@Z 6604f590 f   teleport.obj
 0001:0004e670       ?interactObj@@YAXPAUUnitAny@@@Z 6604f670 f   teleport.obj
 0001:0004e830       ?teleportForward@@YAHXZ    6604f830 f   teleport.obj
 0001:0004ec50       ?addPossiblePostions@@YAXPAUAreaRectData@@0PAUtagPOINT@@H@Z 6604fc50 f   teleport.obj
 0001:0004f070       ?disM256@@YAHPAUtagPOINT@@0@Z 66050070 f   teleport.obj
 0001:0004f0a0       ?hasMon@@YAHHH@Z           660500a0 f   teleport.obj
 0001:0004f100       ?findValidPosition@@YAHXZ  66050100 f   teleport.obj
 0001:0004f1e0       ?comparePos@@YAHPBX0@Z     660501e0 f   teleport.obj
 0001:0004f200       ?teleportToSafety@@YAHXZ   66050200 f   teleport.obj
 0001:0004f4a0       ?savePrevMonsters@@YAXXZ   660504a0 f   teleport.obj
 0001:0004f570       ?findSafestPosition@@YAHXZ 66050570 f   teleport.obj
 0001:0004f5f0       ?tpToBoss@@YAHXZ           660505f0 f   teleport.obj
 0001:0004f790       ?autoTarget@@YAHXZ         66050790 f   teleport.obj
 0001:0004f980       ?telekinesisTarget@@YAHPAUUnitAny@@@Z 66050980 f   teleport.obj
 0001:0004fc90       ?findTelekinesisPosition@@YAHXZ 66050c90 f   teleport.obj
 0001:0004fd80       ?autoDuranceofHateLevel3@@YAHXZ 66050d80 f   teleport.obj
 0001:00050000       ?dumpProp@@YAXPAU_iobuf@@PAUItemProp@@@Z 66051000 f   txt.obj
 0001:00050180       ?dumpItemTxt@@YAXXZ        66051180 f   txt.obj
 0001:000502f0       ?dumpUniqueTxt@@YAXXZ      660512f0 f   txt.obj
 0001:00050500       ?dumpSetTxt@@YAXXZ         66051500 f   txt.obj
 0001:00050bc0       ?setStash@@YAXHH@Z         66051bc0 f   panel.obj
 0001:00050d20       ?setCube@@YAXH@Z           66051d20 f   panel.obj
 0001:00050ea0       ?setCharInv@@YAXHH@Z       66051ea0 f   panel.obj
 0001:000510c0       ?loadInvChar8x10@@YAXXZ    660520c0 f   panel.obj
 0001:00051120       ?calDrawOffset@@YAXXZ      66052120 f   panel.obj
 0001:000511b0       ?getEquipmentSlotLayout@@YIXPAH0@Z 660521b0 f   panel.obj
 0001:00051250       ?getEquipInvDrawOffset@@YAXPAH0PAX@Z 66052250 f   panel.obj
 0001:00051350       ?getInventoryGridLayout@@YIXPAH0@Z 66052350 f   panel.obj
 0001:00051400       ?getInventoryPosition@@YIXPAH0@Z 66052400 f   panel.obj
 0001:000514b0       ?addSkillPatch@@YIXH@Z     660524b0 f   panel.obj
 0001:00051530       ?recvCommand26@@YIXPAD@Z   66052530 f   panel.obj
 0001:000518b0       ?guessInvType@@YAHHH@Z     660528b0 f   panel.obj
 0001:000518d0       ?guessStashType@@YAHHH@Z   660528d0 f   panel.obj
 0001:000518f0       ?guessCubeType@@YAHHH@Z    660528f0 f   panel.obj
 0001:000528e0       ?SetSkillBaseLevelOnClient@@YAXPAXPAUUnitAny@@HHH@Z 660538e0 f   server.obj
 0001:00052e50       ?resetQuest@@YAXPAUWorld@@PAUUnitAny@@H@Z 66053e50 f   server.obj
 0001:000530b0       ?gameStart@@YIXPAUNetClient@@@Z 660540b0 f   server.obj
 0001:00053100       ?createHackmapMsg@@YAXXZ   66054100 f   server.obj
 0001:00053250       ?serverRecvTest@@YAXPAUWorld@@PAUUnitAny@@H@Z 66054250 f   server.obj
 0001:00053310       ?necSummon@@YAPAUUnitAny@@PAUNecSummon@@@Z 66054310 f   server.obj
 0001:00053820       ?clientChat@@YIXPAD@Z      66054820 f   admin.obj
 0001:00053d70       ?selectUnique@@YIHHH@Z     66054d70 f   admin.obj
 0001:00053e50       ?selectSet@@YIHPAHH@Z      66054e50 f   admin.obj
 0001:000551e0       ?dropItem@@YAPAUUnitAny@@PAUWorld@@PAU1@HHHH@Z 660561e0 f   admin.obj
 0001:00055380       ?getFreePos@@YAPAUAreaRectData@@PAU1@PAUtagPOINT@@1H@Z 66056380 f   admin.obj
 0001:000553a0       ?dropRuneword@@YAPAUUnitAny@@PAUWorld@@PAU1@HHH@Z 660563a0 f   admin.obj
 0001:000555f0       ?dropUnique@@YAPAUUnitAny@@PAUWorld@@PAU1@HHH@Z 660565f0 f   admin.obj
 0001:00055710       ?dropSet@@YAPAUUnitAny@@PAUWorld@@PAU1@HHH@Z 66056710 f   admin.obj
 0001:000557e0       ?setItemStats@@YAXPAUUnitAny@@PAUd2stats@@@Z 660567e0 f   admin.obj
 0001:000558f0       ?parseStats@@YAPADPADPAUd2stats@@@Z 660568f0 f   admin.obj
 0001:00057100       ?setStat@@YAHPAUd2stats@@HHH@Z 66058100 f   admin.obj
 0001:00057190       ?pickupItemTo@@YAXPAUWorld@@PAUUnitAny@@1H@Z 66058190 f   admin.obj
 0001:0005813d       _flsall                    6605913d f   LIBCMT:fflush.obj
 0001:00058990       _swap                      66059990 f   LIBCMT:qsort.obj
 0001:000589c0       _shortsort                 660599c0 f   LIBCMT:qsort.obj
 0001:0005942f       ?strtoxl@@YAKPAUlocaleinfo_struct@@PBDPAPBDHH@Z 6605a42f f   LIBCMT:strtol.obj
 0001:0005a693       _IsRootUNCName             6605b693 f   LIBCMT:stati32.obj
 0001:0005a70d       __fullpath_helper          6605b70d f   LIBCMT:stati32.obj
 0001:0005b87a       ?_strupr_s_l_stat@@YAHPADIPAUlocaleinfo_struct@@@Z 6605c87a f   LIBCMT:strupr.obj
 0001:0005ba92       ?wcstoxl@@YAKPAUlocaleinfo_struct@@PB_WPAPB_WHH@Z 6605ca92 f   LIBCMT:wcstol.obj
 0001:0005c07e       ___DllMainCRTStartup       6605d07e f   LIBCMT:dllcrt0.obj
 0001:0005c197       ?CPtoLCID@@YAHH@Z          6605d197 f   LIBCMT:mbctype.obj
 0001:0005c1c6       ?setSBCS@@YAXPAUthreadmbcinfostruct@@@Z 6605d1c6 f   LIBCMT:mbctype.obj
 0001:0005c22a       ?setSBUpLow@@YAXPAUthreadmbcinfostruct@@@Z 6605d22a f   LIBCMT:mbctype.obj
 0001:0005c461       ?getSystemCP@@YAHH@Z       6605d461 f   LIBCMT:mbctype.obj
 0001:0005caeb       __updatetlocinfoEx_nolock  6605daeb f   LIBCMT:setlocal.obj
 0001:0005e0cd       _write_char                6605f0cd f   LIBCMT:output.obj
 0001:0005e100       _write_multi_char          6605f100 f   LIBCMT:output.obj
 0001:0005e126       _write_string              6605f126 f   LIBCMT:output.obj
 0001:0005f217       _fastzero_I                66060217 f   LIBCMT:p4_memset.obj
 0001:0005f2fd       _has_osfxsr_set            660602fd f   LIBCMT:cpu_disp.obj
 0001:0006018a       _fastcopy_I                6606118a f   LIBCMT:p4_memcpy.obj
 0001:000603ac       ?__crtLCMapStringA_stat@@YAHPAUlocaleinfo_struct@@KKPBDHPADHHH@Z 660613ac f   LIBCMT:a_map.obj
 0001:00060a77       __initterm                 66061a77 f   LIBCMT:crt0dat.obj
 0001:00060b3d       _doexit                    66061b3d f   LIBCMT:crt0dat.obj
 0001:00060e49       __shift                    66061e49 f   LIBCMT:cvt.obj
 0001:00060e8e       __cftoe2_l                 66061e8e f   LIBCMT:cvt.obj
 0001:00061460       __cftof2_l                 66062460 f   LIBCMT:cvt.obj
 0001:000618fc       __unwind_handler4          660628fc f   LIBCMT:exsup4.obj
 0001:00062798       __onexit_nolock            66063798 f   LIBCMT:onexit.obj
 0001:00063ffa       _parse_cmdline             66064ffa f   LIBCMT:stdargv.obj
 0001:000645e9       ?__crtGetStringTypeA_stat@@YAHPAUlocaleinfo_struct@@KPBDHPAGHHH@Z 660655e9 f   LIBCMT:a_str.obj
 0001:00065c3c       _siglookup                 66066c3c f   LIBCMT:winsig.obj
 0001:00066344       __unwind_handler           66067344 f   LIBCMT:exsup.obj
 0001:00066c5e       __tzset_nolock             66067c5e f   LIBCMT:tzset.obj
 0001:00066fa4       _cvtdate                   66067fa4 f   LIBCMT:tzset.obj
 0001:0006719b       __isindst_nolock           6606819b f   LIBCMT:tzset.obj
 0001:00067504       __tsopen_nolock            66068504 f   LIBCMT:open.obj
 0001:00068255       ?x_ismbbtype_l@@YAHPAUlocaleinfo_struct@@IHH@Z 66069255 f   LIBCMT:ismbbyte.obj
 0001:0006a02d       __hw_cw                    6606b02d f   LIBCMT:_ieee87_.obj
 0001:0006a0bb       ___hw_cw_sse2              6606b0bb f   LIBCMT:_ieee87_.obj
 0001:0006b283       ?strncnt@@YAHPBDH@Z        6606c283 f   LIBCMT:a_cmp.obj
 0001:0006b2a1       ?__crtCompareStringA_stat@@YAHPAUlocaleinfo_struct@@KKPBDH1HH@Z 6606c2a1 f   LIBCMT:a_cmp.obj
 0001:0006b74d       _findenv                   6606c74d f   LIBCMT:setenv.obj
 0001:0006b79f       _copy_environ              6606c79f f   LIBCMT:setenv.obj
 0001:0006bb24       ??__Fnomem@?5???2@YAPAXI@Z@YAXXZ 6606cb24 f   LIBCMT:new.obj
