 d2hackmap

 Timestamp is 6863de8f (Tue Jul 01 21:11:43 2025)

 Preferred load address is 66000000

 Start         Length     Name                   Class
 0001:00000000 00073994H .text                   CODE
 0001:00073994 00000014H .text$yd                CODE
 0002:00000000 0000021cH .idata$5                DATA
 0002:0000021c 00000004H .CRT$XCA                DATA
 0002:00000220 00000004H .CRT$XCZ                DATA
 0002:00000224 00000004H .CRT$XIA                DATA
 0002:00000228 00000014H .CRT$XIC                DATA
 0002:0000023c 00000004H .CRT$XIZ                DATA
 0002:00000240 00000004H .CRT$XPA                DATA
 0002:00000244 00000004H .CRT$XPX                DATA
 0002:00000248 00000004H .CRT$XPXA               DATA
 0002:0000024c 00000004H .CRT$XPZ                DATA
 0002:00000250 00000004H .CRT$XTA                DATA
 0002:00000254 00000004H .CRT$XTZ                DATA
 0002:00000260 000190b0H .rdata                  DATA
 0002:00019310 000000dcH .rdata$r                DATA
 0002:000193f0 0000000cH .rdata$sxdata           DATA
 0002:000193fc 00000004H .rtc$IAA                DATA
 0002:00019400 00000004H .rtc$IZZ                DATA
 0002:00019404 00000004H .rtc$TAA                DATA
 0002:00019408 00000004H .rtc$TZZ                DATA
 0002:00019410 00000754H .xdata$x                DATA
 0002:00019b64 0000003cH .idata$2                DATA
 0002:00019ba0 00000014H .idata$3                DATA
 0002:00019bb4 0000021cH .idata$4                DATA
 0002:00019dd0 0000096eH .idata$6                DATA
 0002:0001a740 000000c7H .edata                  DATA
 0003:00000000 0000ae58H .data                   DATA
 0003:0000ae60 00206424H .bss                    DATA

  Address         Publics by Value              Rva+Base       Lib:Object

 0000:00000000       __except_list              00000000     <absolute>
 0000:00000003       ___safe_se_handler_count   00000003     <absolute>
 0000:00000000       ___ImageBase               66000000     <linker-defined>
 0001:00000000       ?bitstream_init@@YAXPAUbitstream@@PAX1@Z 66001000 f   bitstream.obj
 0001:00000040       ?bitstream_seek@@YAXPAUbitstream@@H@Z 66001040 f   bitstream.obj
 0001:00000080       ?bitstream_rbit@@YAHPAUbitstream@@H@Z 66001080 f   bitstream.obj
 0001:00000170       ?bitstream_wbit@@YAHPAUbitstream@@IH@Z 66001170 f   bitstream.obj
 0001:00000250       ?bitstream_wbit_done@@YAXPAUbitstream@@@Z 66001250 f   bitstream.obj
 0001:000002d0       ?compareConfigVar@@YAHPBX0@Z 660012d0 f   config.obj
 0001:000002f0       ?compareSymbol@@YAHPBX0@Z  660012f0 f   config.obj
 0001:00000310       ?findConfigVar@@YAPAUConfigVar@@PAD@Z 66001310 f   config.obj
 0001:00000400       ?addConfigVar@@YAXPAUConfigVar@@@Z 66001400 f   config.obj
 0001:00000470       ?FixValues@@YAXXZ          66001470 f   config.obj
 0001:000004b0       ?formatKey@@YAXPADH@Z      660014b0 f   config.obj
 0001:00000560       ?formatKeyW@@YAXPA_WH@Z    66001560 f   config.obj
 0001:00000690       ?setupKey@@YAXPAUToggleVar@@@Z 66001690 f   config.obj
 0001:000006e0       ?addExtraKey@@YAPAUToggleVar@@H@Z 660016e0 f   config.obj
 0001:00000740       ?InitKeyEvent@@YAXXZ       66001740 f   config.obj
 0001:00000af0       ?AddWarningMessage@@YAXPADH@Z 66001af0 f   config.obj
 0001:00000c30       ?ShowWarningMessage@@YAXXZ 66001c30 f   config.obj
 0001:00000c90       ?isquote@@YADD@Z           66001c90 f   config.obj
 0001:00000cc0       ?filterSpace@@YAXPAD@Z     66001cc0 f   config.obj
 0001:00000d80       ?splitLine@@YAXPADPAPAD1@Z 66001d80 f   config.obj
 0001:00000e50       ?strchr@@YAPADPADH@Z       66001e50 f i config.obj
 0001:00000e70       ?strrchr@@YAPADPADH@Z      66001e70 f i config.obj
 0001:00000e90       ?findSymbol@@YAPAUSymbol@@PAD@Z 66001e90 f   config.obj
 0001:00000f50       ?doneNameValues@@YAXXZ     66001f50 f   config.obj
 0001:00000ff0       ?addNameValue@@YAXPAD0@Z   66001ff0 f   config.obj
 0001:00001080       ?replaceSymbols@@YAPADPAD@Z 66002080 f   config.obj
 0001:00001420       ?ConvertToWString@@YAHPA_WPADH@Z 66002420 f   config.obj
 0001:00001450       ?ConvertToD2String@@YAXPA_WPADH@Z 66002450 f   config.obj
 0001:000015a0       ?StoreArrayConfig@@YAHPAUConfigVar@@HHPAD1HH@Z 660025a0 f   config.obj
 0001:00001ac0       ?LoadConfigFile@@YAHPADH@Z 66002ac0 f   config.obj
 0001:00002360       ?strstr@@YAPADPADPBD@Z     66003360 f i config.obj
 0001:00004b10       ?ReleaseMem@@YAXXZ         66005b10 f   DllMain.obj
 0001:00004b30       _DllMain@12                66005b30 f   DllMain.obj
 0001:00004d00       _QueryInterface@0          66005d00 f   DllMain.obj
 0001:00004d20       _PatchClient               66005d20 f   DllMain.obj
 0001:00004d70       _MainMenuFlushFramebuf@0   66005d70 f   DllMain.obj
 0001:00004d90       _PatchServer@4             66005d90 f   DllMain.obj
 0001:00004dd0       ?guessEnchantLevel@@YAHXZ  66005dd0 f   guess.obj
 0001:00004e80       ?guessBOLevel@@YAHH@Z      66005e80 f   guess.obj
 0001:000056b0       ?Install_AddConfigVars@@YAXXZ 660066b0 f   install.obj
 0001:000056f0       ?Install_FixValues@@YAXXZ  660066f0 f   install.obj
 0001:00005710       ?get_dll_addr@@YAPAUHINSTANCE__@@PAD@Z 66006710 f   install.obj
 0001:000057a0       ?VirtualProtect@@YAKKKK@Z  660067a0 f   install.obj
 0001:000057d0       ?WriteLocalBYTES@@YAXKPAXH@Z 660067d0 f   install.obj
 0001:00005820       ?FillLocalBYTES@@YAXKEH@Z  66006820 f   install.obj
 0001:00005880       ?InterceptLocalCode2@@YAXEKKH@Z 66006880 f   install.obj
 0001:00005900       ?InterceptLocalCode@@YAXEKKH@Z 66006900 f   install.obj
 0001:00005930       ?patchCall@@YAHPAD0HHHH0@Z 66006930 f   install.obj
 0001:00005980       ?patchJmp@@YAHPAD0HHHH0@Z  66006980 f   install.obj
 0001:000059d0       ?patchFill@@YAHPAD0HHHH0@Z 660069d0 f   install.obj
 0001:00005a20       ?patchValue@@YAHPAD0HHHH0@Z 66006a20 f   install.obj
 0001:00005a70       ?installPatch@@YAHP6AXHHH@ZPAD1HHHH1@Z 66006a70 f   install.obj
 0001:00005e00       ?removePatches@@YAHPAPAUInstalledPatch@@@Z 66006e00 f   install.obj
 0001:00005e80       ?init_d2_ptrs@@YAHH@Z      66006e80 f   install.obj
 0001:000098c0       ?init_d2_ptrs2@@YAHXZ      6600a8c0 f   install.obj
 0001:00009930       ?InstallPatchAfterLoad_ASM@@YAXXZ 6600a930 f   install.obj
 0001:00009c20       ?setResolutionPatch@@YAXH@Z 6600ac20 f   install.obj
 0001:00009c70       ?MonitorPacket@@YAXXZ      6600ac70 f   install.obj
 0001:0000bfe0       ?check_d2ptrs@@YAXXZ       6600cfe0 f   install.obj
 0001:00013c00       ?Install@@YAHXZ            66014c00 f   install.obj
 0001:000141b0       ?patchServer@@YAXXZ        660151b0 f   install.obj
 0001:00014210       @SetReloadFlag@8           66015210 f   install.obj
 0001:00014240       @SetBnetIp@4               66015240 f   install.obj
 0001:00014260       ?unpatchServer@@YAXXZ      66015260 f   install.obj
 0001:000142b0       ?Uninstall@@YAXXZ          660152b0 f   install.obj
 0001:000143d0       ?ReloadConfig@@YAHXZ       660153d0 f   install.obj
 0001:00014550       ?init_crypt_table@@YAXXZ   66015550 f   mpq.obj
 0001:000145f0       ?mpq_hashstring@@YAIPBDI@Z 660155f0 f   mpq.obj
 0001:00014670       ?saveMpqTable@@YAXXZ       66015670 f   mpq.obj
 0001:00014720       ?add_mpq_path@@YIHPAD@Z    66015720 f   mpq.obj
 0001:00014850       ?dump_mpq_path@@YIXH@Z     66015850 f   mpq.obj
 0001:000149f0       ?storm268_patch_ASM@@YAXXZ 660159f0 f   mpq.obj
 0001:00014a20       ?common_addConfigVars@@YAXXZ 66015a20 f   common.obj
 0001:00014a60       ?UnicodeFix2@@YAXPA_W@Z    66015a60 f   common.obj
 0001:00014af0       ?MyMultiByteToWideChar@@YAHIKPBDHPA_WH@Z 66015af0 f   common.obj
 0001:00014b30       ?GB2GBK@@YAXPAD@Z          66015b30 f   common.obj
 0001:00014cb0       ?readFully@@YAHPAU_iobuf@@PADH@Z 66015cb0 f   common.obj
 0001:00014d10       ?getFileSize@@YAHPBD@Z     66015d10 f   common.obj
 0001:00014d40       ?fileExist@@YAHPBD@Z       66015d40 f   common.obj
 0001:00014d60       ?openFile@@YAPAU_iobuf@@PAD0@Z 66015d60 f   common.obj
 0001:00014e70       ?heap_strdup@@YAPADPAXPAD@Z 66015e70 f   common.obj
 0001:00014ef0       ?loadFile@@YAPADPAXPAU_iobuf@@PAH@Z 66015ef0 f   common.obj
 0001:00015040       ?gameMessage@@YAXPADZZ     66016040 f   common.obj
 0001:00015200       ?partyMessage@@YAXPADZZ    66016200 f   common.obj
 0001:000152c0       ?gameMessageW@@YAXPA_WZZ   660162c0 f   common.obj
 0001:00015310       ?gameMessageWColor@@YAXHPA_WZZ 66016310 f   common.obj
 0001:00015370       ?partyMessageW@@YAXPA_WZZ  66016370 f   common.obj
 0001:000153c0       ?partyMessageWcolor@@YAXHPA_WZZ 660163c0 f   common.obj
 0001:00015420       ?get_cpu_usage@@YAHPAH0@Z  66016420 f   common.obj
 0001:00015500       ?getSkillClass@@YAHH@Z     66016500 f   common.obj
 0001:00015550       ?getSkillType@@YAHHH@Z     66016550 f   common.obj
 0001:000155a0       ?getSkillLevel@@YAHPAUUnitAny@@H@Z 660165a0 f   common.obj
 0001:00015700       ?getUnitRawDistance2@@YAHPAUUnitAny@@0@Z 66016700 f   common.obj
 0001:00015810       ?getUnitYardDistance2@@YAMPAUUnitAny@@0@Z 66016810 f   common.obj
 0001:00015850       ?saveDistanceMap@@YAXXZ    66016850 f   common.obj
 0001:000158b0       ?getDistanceM256@@YAHHH@Z  660168b0 f   common.obj
 0001:000159e0       ?getPlayerDistanceM256@@YAHPAUUnitAny@@@Z 660169e0 f   common.obj
 0001:00015a70       ?getPlayerDistanceRaw@@YAMPAUUnitAny@@@Z 66016a70 f   common.obj
 0001:00015b10       ?getPlayerDistanceYard@@YAMPAUUnitAny@@@Z 66016b10 f   common.obj
 0001:00015b40       ?getRosterUnit@@YAPAURosterUnit@@H@Z 66016b40 f   common.obj
 0001:00015b80       ?getAreatileByTxt@@YAPAUUnitAny@@H@Z 66016b80 f   common.obj
 0001:00015be0       ?findObjectByTxt@@YAPAUUnitAny@@HHH@Z 66016be0 f   common.obj
 0001:00015c90       ?getPortalToArea@@YAPAUUnitAny@@HPAD@Z 66016c90 f   common.obj
 0001:00015dd0       ?getAreatileTxtToLevel@@YAHH@Z 66016dd0 f   common.obj
 0001:00015e30       ?getSinglePlayerWorld@@YAPAUWorld@@XZ 66016e30 f   common.obj
 0001:00015e60       ?encodeItem@@YAHPAUUnitAny@@PADH@Z 66016e60 f   common.obj
 0001:00015ea0       ?hasSkill@@YAHH@Z          66016ea0 f   common.obj
 0001:00015f20       ?selectSkill@@YAXHH@Z      66016f20 f   common.obj
 0001:00015f70       ?switchLeftSkill@@YAXH@Z   66016f70 f   common.obj
 0001:00015f90       ?switchRightSkill@@YAXH@Z  66016f90 f   common.obj
 0001:00015fb0       ?getSinglePlayerUnit@@YAPAUUnitAny@@HH@Z 66016fb0 f   common.obj
 0001:00016080       ?SendPacket@@YAXPAEH@Z     66017080 f   common.obj
 0001:00016110       ?LeftClickType@@YAHHPAUUnitAny@@HH@Z 66017110 f   common.obj
 0001:000161f0       ?LeftClickPos@@YAHHH@Z     660171f0 f   common.obj
 0001:00016210       ?LeftClickUnit@@YAHPAUUnitAny@@@Z 66017210 f   common.obj
 0001:00016230       ?ShiftLeftClickUnit@@YAHPAUUnitAny@@@Z 66017230 f   common.obj
 0001:00016280       ?ShiftLeftClickPos@@YAHHH@Z 66017280 f   common.obj
 0001:000162d0       ?RightSkill@@YAHPAUUnitAny@@HH@Z 660172d0 f   common.obj
 0001:00016320       ?RightSkillPos@@YAHHH@Z    66017320 f   common.obj
 0001:00016340       ?RightSkillUnit@@YAHPAUUnitAny@@@Z 66017340 f   common.obj
 0001:00016370       ?canUseSkillNow@@YAHPAUUnitAny@@H@Z 66017370 f   common.obj
 0001:00016390       ?skillUnusableAsm@@YAHPAUUnitAny@@PAUSkill@@@Z 66017390 f   common.obj
 0001:000163b0       ?skillUnusable@@YAHPAUUnitAny@@PAUSkill@@@Z 660173b0 f   common.obj
 0001:000163f0       ?useBelt@@YAXHH@Z          660173f0 f   common.obj
 0001:00016470       ?GameControlStart@@YAHH@Z  66017470 f   common.obj
 0001:00016500       ?GameControlEnd@@YAHH@Z    66017500 f   common.obj
 0001:00016580       ?GameControl@@YAXH@Z       66017580 f   common.obj
 0001:000165a0       ?getGameControlKey@@YAHH@Z 660175a0 f   common.obj
 0001:000165f0       ?sqrt@@YAMM@Z              660175f0 f i common.obj
 0001:00016610       _sqrtf                     66017610 f i common.obj
 0001:00016630       ?StandStillPatch_ASM@@YAXXZ 66017630 f   common.obj
 0001:00016650       ?setBottomAlertMsg@@YAXHPA_WHHHH@Z 66017650 f   common.obj
 0001:00016730       ?setBottomAlertBg@@YAXHHH@Z 66017730 f   common.obj
 0001:00016780       ?DrawCenterAlertMsg@@YAXXZ 66017780 f   common.obj
 0001:00016900       ?GetAreaLevel@@YAHXZ       66017900 f   common.obj
 0001:00016960       ?GetPetByType@@YAPAUPetUnit@@PAUUnitAny@@H@Z 66017960 f   common.obj
 0001:000169b0       ?GetUnitFromIdSafe@@YAPAUUnitAny@@KK@Z 660179b0 f   common.obj
 0001:00016a20       ?GetUnitPet@@YAPAUUnitAny@@PAU1@@Z 66017a20 f   common.obj
 0001:00016a60       ?getPlayerClass@@YAHH@Z    66017a60 f   common.obj
 0001:00016aa0       ?GetUnitMagicStat@@YAKPAUUnitAny@@K@Z 66017aa0 f   common.obj
 0001:00016af0       ?GetUnitResist@@YAHPAUUnitAny@@K@Z 66017af0 f   common.obj
 0001:00016b40       ?CheckUnitSelect@@YAHPAUUnitAny@@@Z 66017b40 f   common.obj
 0001:00016c70       ?GetItemILvlAfterCube@@YAHHHH@Z 66017c70 f   common.obj
 0001:00016d20       ?GetItemAlvl@@YAHHHH@Z     66017d20 f   common.obj
 0001:00016da0       ?GetTextWidth@@YAKPA_W@Z   66017da0 f   common.obj
 0001:00016dc0       ?DrawD2Text@@YAXKPA_WHHKK@Z 66017dc0 f   common.obj
 0001:00016e00       ?DrawCenterText@@YAXKPA_WHHKHK@Z 66017e00 f   common.obj
 0001:00016e50       ?drawBgText@@YAHPA_WHHHH@Z 66017e50 f   common.obj
 0001:00016ed0       ?drawBgTextMiddle@@YAHPA_WHHHH@Z 66017ed0 f   common.obj
 0001:00016f40       ?drawBgTextLeft@@YAHPA_WHHHH@Z 66017f40 f   common.obj
 0001:00016fa0       ?ExitGame@@YAXXZ           66017fa0 f   common.obj
 0001:00016fe0       ?GetGameLanguage@@YAHXZ    66017fe0 f   common.obj
 0001:000170a0       ?getFcrFrame@@YAHHPAUUnitAny@@@Z 660180a0 f   common.obj
 0001:00017360       ?IsFullWindow@@YAHXZ       66018360 f   common.obj
 0001:00017420       ?getUnitOwnerId@@YAHPAUUnitAny@@@Z 66018420 f   common.obj
 0001:000175f0       ?testPvpFlag@@YAHH@Z       660185f0 f   common.obj
 0001:000177f0       ?sameParty@@YAHH@Z         660187f0 f   common.obj
 0001:00017810       ?isInRect@@YA_NPAUAreaRectData@@HH@Z 66018810 f   common.obj
 0001:00017880       ?testPosition@@YAPAUAreaRectData@@PAU1@HH@Z 66018880 f   common.obj
 0001:000178a0       ?portalToLevel@@YAHPAUWorld@@PAUUnitAny@@H@Z 660188a0 f   common.obj
 0001:00017a90       ?hasPortalInRect@@YAHPAUAreaRectData@@H@Z 66018a90 f   common.obj
 0001:00017b00       ?hasPortalNearby@@YAHPAUAreaRectData@@H@Z 66018b00 f   common.obj
 0001:00017b70       ?hasPortalInLevel@@YAHPAUDrlgLevel@@H@Z 66018b70 f   common.obj
 0001:00017bd0       ?unitHasItem@@YAHPAUUnitAny@@H@Z 66018bd0 f   common.obj
 0001:00017c40       ?sendPacketToClient@@YAXPAUNetClient@@PADH@Z 66018c40 f   common.obj
 0001:00017c60       ?sendChatMessageToServer@@YAXPADZZ 66018c60 f   common.obj
 0001:00017d20       ?sendMessageToClient@@YAXPAUNetClient@@HHPAD1@Z 66018d20 f   common.obj
 0001:00017ec0       ?getCharStatsTxt@@YAPAUCharStatsTxt@@H@Z 66018ec0 f   common.obj
 0001:00017ed0       ?getStatMaxValue@@YAHH@Z   66018ed0 f   common.obj
 0001:00017f30       ?cpLocaleName@@YAHPA_W0H@Z 66018f30 f   common.obj
 0001:00017fd0       ?acpLocaleName@@YAHPADPA_WH@Z 66018fd0 f   common.obj
 0001:000180c0       ?getSimpleItemStackContent@@YAHPAUUnitAny@@PAH@Z 660190c0 f   common.obj
 0001:000181a0       ?d2client_SetAutomapParty@@YIXK@Z 660191a0 f   d2callstub.obj
 0001:000181b0       ?d2client_SetAutomapNames@@YIXK@Z 660191b0 f   d2callstub.obj
 0001:000181c0       ?d2client_ChatInput@@YIKPAUD2MSG@@@Z 660191c0 f   d2callstub.obj
 0001:000181d0       ?d2client_CheckUiStatus@@YIHH@Z 660191d0 f   d2callstub.obj
 0001:000181e0       ?d2client_InitAutomapLayer@@YIPAUAutomapLayer@@H@Z 660191e0 f   d2callstub.obj
 0001:000181f0       ?d2common_GetUniqueItemTxt@@YIPAUUniqueItemTxt@@H@Z 660191f0 f   d2callstub.obj
 0001:00018220       ?d2common_GetItemStatCostTxt@@YIPAUItemStatCostTxt@@H@Z 66019220 f   d2callstub.obj
 0001:00018250       ?d2common_GetPropertiesTxt@@YIPAUPropertiesTxt@@H@Z 66019250 f   d2callstub.obj
 0001:00018280       ?d2common_GetSetItemTxt@@YIPAUSetItemTxt@@H@Z 66019280 f   d2callstub.obj
 0001:000182b0       ?d2common_GetItemTypeTxt@@YIPAUItemTypeTxt@@H@Z 660192b0 f   d2callstub.obj
 0001:000182e0       ?d2common_GetRuneWordTxt@@YIPAURuneWordTxt@@H@Z 660192e0 f   d2callstub.obj
 0001:00018310       ?d2common_GetRuneWordTxtIndex@@YIHH@Z 66019310 f   d2callstub.obj
 0001:00018350       ?d2client_LoadUiImage@@YIPAUCellFile@@PAD@Z 66019350 f   d2callstub.obj
 0001:00018360       ?SaveGame@@YAHXZ           66019360 f   dbg.obj
 0001:000183b0       ?DoTest@@YAHXZ             660193b0 f   dbg.obj
 0001:00018420       ?installAlwaysDebugPatches@@YAHXZ 66019420 f   dbg.obj
 0001:00018430       ?installDebugPatches@@YAHXZ 66019430 f   dbg.obj
 0001:00018620       ?loop_addConfigVars@@YAXXZ 66019620 f   loop.obj
 0001:00018660       ?ToggleIMEInput@@YAXH@Z    66019660 f   loop.obj
 0001:000186b0       ?GameLoopPatch@@YAXXZ      660196b0 f   loop.obj
 0001:000196e0       ?GameEndPatch@@YAXXZ       6601a6e0 f   loop.obj
 0001:00019900       ?GameLoopPatch_ASM@@YAXXZ  6601a900 f   loop.obj
 0001:00019910       ?GameEndPatch_ASM@@YAXXZ   6601a910 f   loop.obj
 0001:00019920       ?automap_addConfigVars@@YAXXZ 6601a920 f   map.obj
 0001:00019960       ?automap_initConfigVars@@YAXXZ 6601a960 f   map.obj
 0001:00019c70       ?automap_initKeyEvent@@YAXXZ 6601ac70 f   map.obj
 0001:00019cf0       ?draw2map@@YAXPAUtagPOINT@@HH@Z 6601acf0 f   map.obj
 0001:00019d60       ?tile2draw@@YAXPAUtagPOINT@@HH@Z 6601ad60 f   map.obj
 0001:00019d90       ?tile2map@@YAXPAUtagPOINT@@HH@Z 6601ad90 f   map.obj
 0001:00019de0       ?addMapTarget@@YAXHHHPA_W0@Z 6601ade0 f   map.obj
 0001:00019ec0       ?automap_fixValues@@YAXXZ  6601aec0 f   map.obj
 0001:00019f20       ?AutoMapNewGame@@YAXXZ     6601af20 f   map.obj
 0001:0001a010       ?PrevMapTarget@@YAHXZ      6601b010 f   map.obj
 0001:0001a250       ?NextMapTarget@@YAHXZ      6601b250 f   map.obj
 0001:0001a2f0       ?incMapTargetIf@@YAXH@Z    6601b2f0 f   map.obj
 0001:0001a320       ?AutoMapNewLevel@@YAXXZ    6601b320 f   map.obj
 0001:0001a500       ?addMinimapTarget@@YAXPAUAreaRectInfo@@HHHHHH@Z 6601b500 f   map.obj
 0001:0001a600       ?bitmap2dc6@@YAPAUCellFile@@PAEHH@Z 6601b600 f   map.obj
 0001:0001a830       ?InitCellFiles@@YAXXZ      6601b830 f   map.obj
 0001:0001ab30       ?DeleteCellFiles@@YAXXZ    6601bb30 f   map.obj
 0001:0001ac40       ?InitAutomapLayer@@YAXH@Z  6601bc40 f   map.obj
 0001:0001ac60       ?mapReveal@@YAXPAUAreaRectInfo@@@Z 6601bc60 f   map.obj
 0001:0001acb0       ?mapHide@@YAXPAUAreaRectInfo@@@Z 6601bcb0 f   map.obj
 0001:0001ad00       ?addSecretCowLevelCorners@@YAXPAUDrlgLevel@@@Z 6601bd00 f   map.obj
 0001:0001aeb0       ?RevealAutomapLevel@@YAXPAUDrlgLevel@@H@Z 6601beb0 f   map.obj
 0001:0001ba40       ?RevealLevelPlayerIn@@YAHXZ 6601ca40 f   map.obj
 0001:0001ba80       ?RevealCurAct@@YAHXZ       6601ca80 f   map.obj
 0001:0001bc30       ?RemoveMyAutomapNodes@@YAXXZ 6601cc30 f   map.obj
 0001:0001bd00       ?DrawAutomapNodePatch@@YGXPAUCellContext@@HHPAUtagRECT@@H@Z 6601cd00 f   map.obj
 0001:0001c080       ?AddShrinePatch_ASM@@YAXXZ 6601d080 f   map.obj
 0001:0001c0b0       ?OverrideShrinePatch@@YIXPAUAutomapNode@@0@Z 6601d0b0 f   map.obj
 0001:0001c110       ?OverrideShrinePatch_ASM@@YAXXZ 6601d110 f   map.obj
 0001:0001c130       ?DrawAutomapNode@@YAXPAUCellFile@@HHD@Z 6601d130 f   map.obj
 0001:0001c2b0       ?DrawAutomapBlob@@YIXHHHPAUUnitAny@@@Z 6601d2b0 f   map.obj
 0001:0001c430       ?ForceDrawBlob_ASM@@YAXXZ  6601d430 f   map.obj
 0001:0001c440       ?DrawBlobPath_ASM@@YAXXZ   6601d440 f   map.obj
 0001:0001c450       ?DrawPartyPlayerBlobPatch_ASM@@YAXXZ 6601d450 f   map.obj
 0001:0001c460       ?HostilePlayerPatch@@YIEPAUUnitAny@@@Z 6601d460 f   map.obj
 0001:0001c4a0       ?HostilePlayerColor_ASM@@YAXXZ 6601d4a0 f   map.obj
 0001:0001c4b0       ?DrawPlayerTextPatch@@YIEPAUUnitAny@@@Z 6601d4b0 f   map.obj
 0001:0001c510       ?DrawPlayerTextPatch_ASM@@YAXXZ 6601d510 f   map.obj
 0001:0001c530       ?MonsterBlobDesc@@YIXPAUUnitAny@@@Z 6601d530 f   map.obj
 0001:0001ca20       ?MonsterBlobDescPatch_ASM@@YAXXZ 6601da20 f   map.obj
 0001:0001ca40       ?MonsterBlobCol@@YIEPAUUnitAny@@@Z 6601da40 f   map.obj
 0001:0001cb70       ?CorpseBlobCol@@YIEPAUUnitAny@@@Z 6601db70 f   map.obj
 0001:0001cc20       ?ObjectBlobCol@@YIEPAUUnitAny@@@Z 6601dc20 f   map.obj
 0001:0001cde0       ?MissileBlobCol@@YIEPAUUnitAny@@@Z 6601dde0 f   map.obj
 0001:0001cee0       ?MixedBlobColPatch@@YIEPAUUnitAny@@@Z 6601dee0 f   map.obj
 0001:0001cf90       ?MixedBlobColPatch_ASM@@YAXXZ 6601df90 f   map.obj
 0001:0001cfb0       ?AddRectToMinimap@@YAHPAUAreaRectInfo@@H@Z 6601dfb0 f   map.obj
 0001:0001dc00       ?drawActiveRectAreaOnMinimap@@YAXXZ 6601ec00 f   map.obj
 0001:0001dd60       ?drawActiveRectAreaOnScreen@@YAXXZ 6601ed60 f   map.obj
 0001:0001df40       ?drawScreenAreaOnMinimap@@YAXXZ 6601ef40 f   map.obj
 0001:0001e060       ?MinimapPatch@@YAXXZ       6601f060 f   map.obj
 0001:0001e340       ?MinimapPatch_ASM@@YAXXZ   6601f340 f   map.obj
 0001:0001e350       ?InitScrollLock@@YAXH@Z    6601f350 f   map.obj
 0001:0001e380       ?SetScrollMapPos@@YAXHH@Z  6601f380 f   map.obj
 0001:0001e3e0       ?MiniMapScroll@@YAHH@Z     6601f3e0 f   map.obj
 0001:0001e410       ?CenterMap@@YAHXZ          6601f410 f   map.obj
 0001:0001e430       ?ShakeScreenPatch@@YGXPAH0@Z 6601f430 f   map.obj
 0001:0001e4d0       ?ScrollScreenEnd@@YAHH@Z   6601f4d0 f   map.obj
 0001:0001e510       ?ScrollScreenStart@@YAHH@Z 6601f510 f   map.obj
 0001:0001e5e0       ?DrawScrollOffset@@YAXPA_WH@Z 6601f5e0 f   map.obj
 0001:0001e630       ?recvObjectState@@YIXPAD@Z 6601f630 f   map.obj
 0001:0001e6c0       ?RecvPacket0EPatch_ASM@@YAXXZ 6601f6c0 f   map.obj
 0001:0001e6d0       ?packet_addConfigVars@@YAXXZ 6601f6d0 f   packet.obj
 0001:0001e710       ?packet_initConfigVars@@YAXXZ 6601f710 f   packet.obj
 0001:0001e740       ?packet_FixValues@@YAXXZ   6601f740 f   packet.obj
 0001:0001e780       ?ResetPacketHandlerTimer@@YAXXZ 6601f780 f   packet.obj
 0001:0001e790       ?PacketNewGame@@YAXXZ      6601f790 f   packet.obj
 0001:0001e7b0       ?FixSocketTimeOut_ASM@@YAXXZ 6601f7b0 f   packet.obj
 0001:0001e7c0       ?FixSocketErrRet_ASM@@YAXXZ 6601f7c0 f   packet.obj
 0001:0001e7e0       ?dump9c@@YAXPAEH@Z         6601f7e0 f   packet.obj
 0001:0001e940       ?GamePacketReceivedInterceptPatch_ASM@@YAXXZ 6601f940 f   packet.obj
 0001:0001e970       ?dumpRecvPacket@@YIXPAEH@Z 6601f970 f   packet.obj
 0001:0001f540       ?GamePacketSendInterceptPatch_ASM@@YAXXZ 66020540 f   packet.obj
 0001:0001f5a0       ?dumpSendPacket@@YIXPAH@Z  660205a0 f   packet.obj
 0001:0001fc50       ?showResetProtectMsg@@YAXXZ 66020c50 f   packet.obj
 0001:0001fcc0       ?activeBufferItem@@YAHHHH@Z 66020cc0 f   packet.obj
 0001:0001fd30       ?ResetSkillPatch_ASM@@YAXXZ 66020d30 f   packet.obj
 0001:0001fd50       ?blockSendPacket@@YIHPAH@Z 66020d50 f   packet.obj
 0001:000208b0       ?initSendPacketCheckTable@@YAXXZ 660218b0 f   packet.obj
 0001:00020950       ?autoroute_addConfigVars@@YAXXZ 66021950 f   route.obj
 0001:00020990       ?autoroute_fixValues@@YAXXZ 66021990 f   route.obj
 0001:000209b0       ?AutoRouteNewGame@@YAXXZ   660219b0 f   route.obj
 0001:000209e0       ?AutoRouteLocateSource@@YAHH@Z 660219e0 f   route.obj
 0001:00020b80       ?minimapDebug@@YAXXZ       66021b80 f   route.obj
 0001:00020cd0       ?AutoRouteDrawScreenPath@@YAXXZ 66021cd0 f   route.obj
 0001:00020f90       ?AutoRouteDrawMinimapPath@@YAXXZ 66021f90 f   route.obj
 0001:00021630       ?markNextPathInvalid@@YAXH@Z 66022630 f   route.obj
 0001:000216a0       ?AutoTeleportGetTarget@@YAHPAUtagPOINT@@PAH11@Z 660226a0 f   route.obj
 0001:00021800       ?RerouteRectPath@@YAHXZ    66022800 f   route.obj
 0001:000223b0       ?AutoMapRoute@@YAXXZ       660233b0 f   route.obj
 0001:000224a0       ?waypoint_initConfigVars@@YAXXZ 660234a0 f   waypoint.obj
 0001:00022520       ?waypointExist@@YAHH@Z     66023520 f   waypoint.obj
 0001:00022560       ?hasWaypoint@@YAHH@Z       66023560 f   waypoint.obj
 0001:000225c0       ?WaypointNewGame@@YAXXZ    660235c0 f   waypoint.obj
 0001:000225e0       ?isWaypointTxt@@YAHH@Z     660235e0 f   waypoint.obj
 0001:000227a0       ?findWaypoint@@YAPAUUnitAny@@H@Z 660237a0 f   waypoint.obj
 0001:000229e0       ?takeWaypointToLevel@@YAHPAUUnitAny@@H@Z 660239e0 f   waypoint.obj
 0001:00022a50       ?takeWaypointToLvl@@YAHHH@Z 66023a50 f   waypoint.obj
 0001:00022a90       ?RecvCommand_63_Patch_ASM@@YAXXZ 66023a90 f   waypoint.obj
 0001:00022b80       ?winmsg_addConfigVars@@YAXXZ 66023b80 f   winmsg.obj
 0001:00022bc0       ?winmsg_initConfigVars@@YAXXZ 66023bc0 f   winmsg.obj
 0001:00022cd0       ?WinMessageFixValues@@YAXXZ 66023cd0 f   winmsg.obj
 0001:00022d60       ?WinMessage_initKeyEvent@@YAXXZ 66023d60 f   winmsg.obj
 0001:000231a0       ?IsKeyDown@@YAHH@Z         660241a0 f   winmsg.obj
 0001:000231c0       ?LockMouse@@YAHXZ          660241c0 f   winmsg.obj
 0001:00023380       ?switchSkillStart@@YAHH@Z  66024380 f   winmsg.obj
 0001:00023500       ?switchSkillEnd@@YAHH@Z    66024500 f   winmsg.obj
 0001:00023680       ?GameSound@@YAHH@Z         66024680 f   winmsg.obj
 0001:000236c0       ?FullScreen@@YAHXZ         660246c0 f   winmsg.obj
 0001:000237b0       ?AttractNPC@@YAHXZ         660247b0 f   winmsg.obj
 0001:00023850       ?SwitchWindow@@YAHH@Z      66024850 f   winmsg.obj
 0001:000238b0       ?WinMessageNewGame@@YAXXZ  660248b0 f   winmsg.obj
 0001:00023b00       ?WinMessageEndGame@@YAXXZ  66024b00 f   winmsg.obj
 0001:00023b30       ?refreshScreenSaver@@YAXXZ 66024b30 f   winmsg.obj
 0001:00023b70       ?refreshMenuScreenSaver@@YAXXZ 66024b70 f   winmsg.obj
 0001:00023bb0       ?winActiveMsg@@YAXH@Z      66024bb0 f   winmsg.obj
 0001:00023ce0       ?hasCTA@@YAHXZ             66024ce0 f   winmsg.obj
 0001:00023d80       ?WinMessageRunLoop@@YAXXZ  66024d80 f   winmsg.obj
 0001:00024050       ?canExitGame@@YAHXZ        66025050 f   winmsg.obj
 0001:00024200       ?WinMessage@@YAHHHPAUHWND__@@HHH@Z 66025200 f   winmsg.obj
 0001:00025120       ?WinMessagePatch_ASM@@YAXXZ 66026120 f   winmsg.obj
 0001:00025130       ?KeydownPatch_ASM@@YAXXZ   66026130 f   winmsg.obj
 0001:00025150       ?KeyupPatch_ASM@@YAXXZ     66026150 f   winmsg.obj
 0001:00025170       ?ReceiveSwapWeapon_ASM@@YAXXZ 66026170 f   winmsg.obj
 0001:000251b0       ?ShowVersion_Patch_ASM@@YAXXZ 660261b0 f   winmsg.obj
 0001:00025250       ?SetCursorPosPatch_ASM@@YAXXZ 66026250 f   winmsg.obj
 0001:00025270       ?DrawLeftBackImagePatch_ASM@@YAXXZ 66026270 f   winmsg.obj
 0001:00025290       ?DrawRightBackImagePatch_ASM@@YAXXZ 66026290 f   winmsg.obj
 0001:000252b0       ?DrawGroundAndUnitPatch_ASM@@YAXXZ 660262b0 f   winmsg.obj
 0001:00025310       ?DrawControlsPatch_ASM@@YAXXZ 66026310 f   winmsg.obj
 0001:00025410       ?SkipDrawUnitAndControlPatch_ASM@@YAXXZ 66026410 f   winmsg.obj
 0001:000254b0       ?SkipAllDrawingPatch_ASM@@YAXXZ 660264b0 f   winmsg.obj
 0001:00025560       ?SkipDrawMenuPatch2_ASM@@YAXXZ 66026560 f   winmsg.obj
 0001:000255f0       ?SkipDrawMenuPatch_ASM@@YAXXZ 660265f0 f   winmsg.obj
 0001:00025700       ?NoHidePatch_ASM@@YAXXZ    66026700 f   winmsg.obj
 0001:00025730       ?env_addConfigVars@@YAXXZ  66026730 f   env.obj
 0001:00025770       ?env_initConfigVars@@YAXXZ 66026770 f   env.obj
 0001:000257c0       ?ChangeVisualEffect@@YAHXZ 660267c0 f   env.obj
 0001:00025840       ?WeatherPatch_ASM@@YAXXZ   66026840 f   env.obj
 0001:00025850       ?LightingPatch_ASM@@YAXXZ  66026850 f   env.obj
 0001:00025880       ?InfravisionPatch@@YIKPAUUnitAny@@@Z 66026880 f   env.obj
 0001:00025df0       ?InfravisionPatch_ASM@@YAXXZ 66026df0 f   env.obj
 0001:00025e10       ?drawMyGround@@YAXXZ       66026e10 f   env.obj
 0001:00025fb0       ?SkipDrawGroundPatch_ASM@@YAXXZ 66026fb0 f   env.obj
 0001:00025fd0       ?playerAddExp@@YAXH@Z      66026fd0 f   GameMonitor.obj
 0001:00026050       ?gamemonitor_addConfigVars@@YAXXZ 66027050 f   GameMonitor.obj
 0001:00026090       ?gamemonitor_initConfigVars@@YAXXZ 66027090 f   GameMonitor.obj
 0001:000260d0       ?usePotion@@YAXH@Z         660270d0 f   GameMonitor.obj
 0001:000261b0       ?updateCurStashPage@@YAXXZ 660271b0 f   GameMonitor.obj
 0001:000262f0       ?recheckSelfItems@@YAXXZ   660272f0 f   GameMonitor.obj
 0001:00026a10       ?setKDCountDown@@YAXH@Z    66027a10 f   GameMonitor.obj
 0001:00026a30       ?setKBCountDown@@YAXHH@Z   66027a30 f   GameMonitor.obj
 0001:00026ad0       ?setCountDownEndTime@@YAXPAUCountDown@@@Z 66027ad0 f   GameMonitor.obj
 0001:00026bb0       ?setupCountdown@@YAXPAUCountDown@@@Z 66027bb0 f   GameMonitor.obj
 0001:00026c00       ?onRightSkillMap@@YAXHH@Z  66027c00 f   GameMonitor.obj
 0001:00026db0       ?onRightSkillUnit@@YAXHH@Z 66027db0 f   GameMonitor.obj
 0001:00026f10       ?GameMonitorNewGame@@YAXXZ 66027f10 f   GameMonitor.obj
 0001:00026fd0       ?GameMonitorEndGame@@YAXXZ 66027fd0 f   GameMonitor.obj
 0001:00026ff0       ?ShowGameCount@@YAXXZ      66027ff0 f   GameMonitor.obj
 0001:00027280       ?SetKills@@YIXK@Z          66028280 f   GameMonitor.obj
 0001:000272d0       ?KillCountPatch_ASM@@YAXXZ 660282d0 f   GameMonitor.obj
 0001:000272f0       ?UnitModeChangePatch_ASM@@YAXXZ 660282f0 f   GameMonitor.obj
 0001:00027330       ?drawSimpleItemStackInfo@@YAXPAUUnitAny@@HH@Z 66028330 f   GameMonitor.obj
 0001:00027580       ?DrawMonitorInfo@@YAXXZ    66028580 f   GameMonitor.obj
 0001:00028e70       ?SetState@@YGXKH@Z         66029e70 f   GameMonitor.obj
 0001:000291a0       ?RecvCommand_A7_Patch_ASM@@YAXXZ 6602a1a0 f   GameMonitor.obj
 0001:00029320       ?RecvCommand_A8_Patch_ASM@@YAXXZ 6602a320 f   GameMonitor.obj
 0001:00029370       ?RecvCommand_A9_Patch_ASM@@YAXXZ 6602a370 f   GameMonitor.obj
 0001:000293c0       ?itemAction@@YAXPAUbitstream@@PAD@Z 6602a3c0 f   GameMonitor.obj
 0001:00029530       ?changeStashPage@@YAXH@Z   6602a530 f   GameMonitor.obj
 0001:00029600       ?itemAction9C@@YIXPAD@Z    6602a600 f   GameMonitor.obj
 0001:00029680       ?itemAction9D@@YIXPAD@Z    6602a680 f   GameMonitor.obj
 0001:00029700       ?updateItemSkill@@YIXPAD@Z 6602a700 f   GameMonitor.obj
 0001:00029790       ?RecvCommand_9C_Patch_ASM@@YAXXZ 6602a790 f   GameMonitor.obj
 0001:000297a0       ?RecvCommand_9D_Patch_ASM@@YAXXZ 6602a7a0 f   GameMonitor.obj
 0001:000297b0       ?RecvCommand_22_Patch_ASM@@YAXXZ 6602a7b0 f   GameMonitor.obj
 0001:000297c0       ?getTowerValue@@YAHHH@Z    6602a7c0 f   GameMonitor.obj
 0001:00029850       ?drawUnitsInfo@@YAXXZ      6602a850 f   GameMonitor.obj
 0001:0002b310       ?playerSkillOnMap@@YIXPAD@Z 6602c310 f   GameMonitor.obj
 0001:0002b3c0       ?RecvCommand_4C_Patch_ASM@@YAXXZ 6602c3c0 f   GameMonitor.obj
 0001:0002b4c0       ?info_AddConfigVars@@YAXXZ 6602c4c0 f   info.obj
 0001:0002b500       ?infoNewGame@@YAXXZ        6602c500 f   info.obj
 0001:0002b520       ?wsprintfW2@@YAPA_WPA_WPADZZ 6602c520 f   info.obj
 0001:0002b580       ?DrawGameInfoPatch@@YIXH@Z 6602c580 f   info.obj
 0001:0002b840       ?DrawPetHeadPatch@@YIXHPAUUnitAny@@@Z 6602c840 f   info.obj
 0001:0002b8c0       ?DrawPetHeadPatch_ASM@@YAXXZ 6602c8c0 f   info.obj
 0001:0002b8d0       ?getGameWinId@@YAHH@Z      6602c8d0 f   info.obj
 0001:0002b930       ?DrawPartyHeadPatch@@YIXHPAURosterUnit@@@Z 6602c930 f   info.obj
 0001:0002be30       ?StartDrawPartyHeadPatch_ASM@@YAXXZ 6602ce30 f   info.obj
 0001:0002be50       ?DrawPartyHeadPatch_ASM@@YAXXZ 6602ce50 f   info.obj
 0001:0002be70       ?DrawSkeletonHeadPatch@@YIXHH@Z 6602ce70 f   info.obj
 0001:0002bf90       ?DrawSkeletonHeadPatch_ASM@@YAXXZ 6602cf90 f   info.obj
 0001:0002bfb0       ?UpdateExp@@YAXXZ          6602cfb0 f   info.obj
 0001:0002c1d0       ?InitExp@@YAXXZ            6602d1d0 f   info.obj
 0001:0002c200       ?UpdateExp_ASM@@YAXXZ      6602d200 f   info.obj
 0001:0002c220       ?info_FixValues@@YAXXZ     6602d220 f   info.obj
 0001:0002c300       ?DrawClientPatch@@YAXXZ    6602d300 f   info.obj
 0001:0002c480       ?DrawClientPatch_ASM@@YAXXZ 6602d480 f   info.obj
 0001:0002c4a0       ?ShowLifeWithMyPattern@@YGKKHH@Z 6602d4a0 f   info.obj
 0001:0002c520       ?ShowManaWithMyPattern@@YGKKHH@Z 6602d520 f   info.obj
 0001:0002c5a0       ?ShowLifePatch_ASM@@YAXXZ  6602d5a0 f   info.obj
 0001:0002c5c0       ?ShowManaPatch_ASM@@YAXXZ  6602d5c0 f   info.obj
 0001:0002c5e0       ?SetLifeManaShow@@YAHXZ    6602d5e0 f   info.obj
 0001:0002c620       ?GetViewEquUnit@@YAPAUUnitAny@@XZ 6602d620 f   info.obj
 0001:0002c650       ?GetViewStatUnit@@YAPAUUnitAny@@XZ 6602d650 f   info.obj
 0001:0002c680       ?SetViewUnit@@YAXXZ        6602d680 f   info.obj
 0001:0002c770       ?ViewUnit@@YAHH@Z          6602d770 f   info.obj
 0001:0002c810       ?GetViewingStatsPlayerPatch1_ASM@@YAXXZ 6602d810 f   info.obj
 0001:0002c820       ?GetViewingStatsPlayerPatch2_ASM@@YAXXZ 6602d820 f   info.obj
 0001:0002c830       ?GetUnitDrawEquipItemPatch_ASM@@YAXXZ 6602d830 f   info.obj
 0001:0002c840       ?GetUnitDrawItemDescPath_ASM@@YAXXZ 6602d840 f   info.obj
 0001:0002c850       ?GetUnitTestHasItem_ASM@@YAXXZ 6602d850 f   info.obj
 0001:0002c870       ?GetUnitText@@YIPA_WPA_WPAUUnitAny@@@Z 6602d870 f   info.obj
 0001:0002c910       ?ViewDrawInvItemPatch@@YAPAUUnitAny@@XZ 6602d910 f   info.obj
 0001:0002c990       ?GetUnitDrawInvItemPatch_ASM@@YAXXZ 6602d990 f   info.obj
 0001:0002c9a0       ?GetUnitProtectClickEquipPatch_ASM@@YAXXZ 6602d9a0 f   info.obj
 0001:0002c9e0       ?GetUnitProtectClickInvPatch_ASM@@YAXXZ 6602d9e0 f   info.obj
 0001:0002ca10       ?DrawDefaultFontText@@YAXPA_WHHKHK@Z 6602da10 f   info.obj
 0001:0002ca40       ?SwitchStatPage@@YAHH@Z    6602da40 f   info.obj
 0001:0002ca90       ?DrawUnitStat@@YAXHHHHPAD00KHH@Z 6602da90 f   info.obj
 0001:0002cb70       ?ViewUnitStatPatch@@YIXPAUUnitAny@@@Z 6602db70 f   info.obj
 0001:0002cf70       ?ViewUnitStatPatch_ASM@@YAXXZ 6602df70 f   info.obj
 0001:0002cfa0       ?ViewPetStatPatch@@YIXPAUUnitAny@@@Z 6602dfa0 f   info.obj
 0001:0002d210       ?ViewPetStatPatch_ASM@@YAXXZ 6602e210 f   info.obj
 0001:0002d230       ?messagelog_AddConfigVars@@YAXXZ 6602e230 f   MessageLog.obj
 0001:0002d270       ?OpenFileNew@@YAPAXPAD@Z   6602e270 f   MessageLog.obj
 0001:0002d2a0       ?OpenFileWrite@@YAPAXPAD@Z 6602e2a0 f   MessageLog.obj
 0001:0002d2d0       ?WriteFile@@YAKPAX0K@Z     6602e2d0 f   MessageLog.obj
 0001:0002d300       ?LogMessage@@YIXPA_W@Z     6602e300 f   MessageLog.obj
 0001:0002d7a0       ?MessageLogPatch1_ASM@@YAXXZ 6602e7a0 f   MessageLog.obj
 0001:0002d7c0       ?MessageLogPatch2_ASM@@YAXXZ 6602e7c0 f   MessageLog.obj
 0001:0002d7e0       ?MessageLogExitGame@@YAXXZ 6602e7e0 f   MessageLog.obj
 0001:0002dad0       ?item_addConfigVars@@YAXXZ 6602ead0 f   item.obj
 0001:0002db10       ?item_initConfigVars@@YAXXZ 6602eb10 f   item.obj
 0001:0002dba0       ?item_NewGame@@YAXXZ       6602eba0 f   item.obj
 0001:0002dbc0       ?wcs_insert@@YAPA_WPA_W0@Z 6602ebc0 f   item.obj
 0001:0002dc90       ?GetItemIndex@@YAHH@Z      6602ec90 f   item.obj
 0001:0002dce0       ?CheckItemVisible@@YAHPAUUnitAny@@@Z 6602ece0 f   item.obj
 0001:0002dde0       ?GetItemColour@@YAEPAUUnitAny@@H@Z 6602ede0 f   item.obj
 0001:0002e080       ?SwitchItemMode@@YAHXZ     6602f080 f   item.obj
 0001:0002e130       ?trimspaces@@YAXPA_W@Z     6602f130 f   item.obj
 0001:0002e1f0       ?ColourD2String@@YIPA_WPA_WK@Z 6602f1f0 f   item.obj
 0001:0002e280       ?ItemHaveLevel@@YAHE@Z     6602f280 f   item.obj
 0001:0002e2e0       ?ItemNamePatch@@YIXPA_WPAUUnitAny@@PAUItemTxt@@@Z 6602f2e0 f   item.obj
 0001:0002ef30       ?ItemNamePatch_ASM@@YAXXZ  6602ff30 f   item.obj
 0001:0002ef50       ?OpenCubeStringPatch@@YIPA_WPA_WK@Z 6602ff50 f   item.obj
 0001:0002efb0       ?OpenCubeStringPatch_ASM@@YAXXZ 6602ffb0 f   item.obj
 0001:0002efc0       ?PermShowItemsPatch1@@YAHXZ 6602ffc0 f   item.obj
 0001:0002eff0       ?PermShowItemsPatch2@@YAHXZ 6602fff0 f   item.obj
 0001:0002f040       ?PermShowItemsPatch3@@YAHXZ 66030040 f   item.obj
 0001:0002f0b0       ?PermShowItemsPatch1_ASM@@YAXXZ 660300b0 f   item.obj
 0001:0002f0c0       ?PermShowItemsPatch2_ASM@@YAXXZ 660300c0 f   item.obj
 0001:0002f0e0       ?PermShowItemsPatch3_ASM@@YAXXZ 660300e0 f   item.obj
 0001:0002f100       ?PermShowItemsPatch4_ASM@@YAXXZ 66030100 f   item.obj
 0001:0002f110       ?ItemDescPath@@YIXPA_WHHHH@Z 66030110 f   item.obj
 0001:0002f210       ?SocketViewCallRoutine@@YIXPAUUnitAny@@KP6GX0K@Z@Z 66030210 f   item.obj
 0001:0002f220       ?ItemSocketViewPatch@@YGXP6GXPAUUnitAny@@K@Z0K@Z 66030220 f   item.obj
 0001:0002f2f0       ?ItemSocketViewPatch_ASM@@YAXXZ 660302f0 f   item.obj
 0001:0002f300       ?SocketItemStatViewPatch_ASM@@YAXXZ 66030300 f   item.obj
 0001:0002f320       ?GetItemExtStatListPatch@@YGPAUStatList@@PAUUnitAny@@KK@Z 66030320 f   item.obj
 0001:0002f350       ?ItemBasicStatPatch_ASM@@YAXXZ 66030350 f   item.obj
 0001:0002f380       ?SetPropInfo@@YAXHHHPAUItemProp@@@Z 66030380 f   item.obj
 0001:0002f800       ?GetStatRange@@YAPA_WPA_WKK@Z 66030800 f   item.obj
 0001:0002fbf0       ?GetItemPropStringPatch@@YIKPA_WPAUStatEx@@K@Z 66030bf0 f   item.obj
 0001:0002fcc0       ?GetItemPropStringPatch_ASM@@YAXXZ 66030cc0 f   item.obj
 0001:0002fce0       ?StrcatItemPropStringPatch@@YIXPA_W0K@Z 66030ce0 f   item.obj
 0001:0002fe00       ?StrcatItemPropStringPatch_ASM@@YAXXZ 66030e00 f   item.obj
 0001:0002fe10       ?StrcatSocketStringPatch@@YIPA_WPA_W@Z 66030e10 f   item.obj
 0001:0002fe40       ?StrcatSocketStringPatch_ASM@@YAXXZ 66030e40 f   item.obj
 0001:0002fe50       ?StrcatDefenseStringPatch@@YIPA_WPA_W@Z 66030e50 f   item.obj
 0001:000300f0       ?StrcatDefenseStringPatch_ASM@@YAXXZ 660310f0 f   item.obj
 0001:00030100       ?StrcatDamageStringPatch@@YIPA_WPA_W@Z 66031100 f   item.obj
 0001:00030320       ?StrcatDamageStringPatch_ASM1@@YAXXZ 66031320 f   item.obj
 0001:00030330       ?StrcatDamageStringPatch_ASM2@@YAXXZ 66031330 f   item.obj
 0001:00030350       ?ShowSocketProtectInfo@@YAXXZ 66031350 f   item.obj
 0001:000303c0       ?SocketProtectPatch_ASM@@YAXXZ 660313c0 f   item.obj
 0001:000303e0       ?SocketProtectPatch1_ASM@@YAXXZ 660313e0 f   item.obj
 0001:00030420       ?SocketProtectPatch2_ASM@@YAXXZ 66031420 f   item.obj
 0001:00030460       ?searchStat@@YAHPAUUnitAny@@HPAH@Z 66031460 f   item.obj
 0001:00030530       ?drawInvItemInfo@@YAXPAUUnitAny@@HH@Z 66031530 f   item.obj
 0001:00031d10       ?drawInvItemPatch@@YIHPAUDrawCellFileArgs@@PAUUnitAny@@@Z 66032d10 f   item.obj
 0001:00031d70       ?DrawInvItemPatch_ASM@@YAXXZ 66032d70 f   item.obj
 0001:00031d90       ?activeBufferItem@@YIXHHH@Z 66032d90 f   item.obj
 0001:00031ea0       ?ActiveBufferItemPatch_ASM@@YAXXZ 66032ea0 f   item.obj
 0001:00031ec0       ?ItemExtInfoNewGame@@YAXXZ 66032ec0 f   ItemExtInfo.obj
 0001:00031ed0       ?ConvertToColorString@@YAXPAEPADH@Z 66032ed0 f   ItemExtInfo.obj
 0001:00032070       ?LoadExtInfo@@YAHXZ        66033070 f   ItemExtInfo.obj
 0001:00033070       ?UnLoadExtInfo@@YAXXZ      66034070 f   ItemExtInfo.obj
 0001:00033250       ?SetExtInfoPos@@YAXHHHH@Z  66034250 f   ItemExtInfo.obj
 0001:00033340       ?ShowItemExtInfo@@YAXXZ    66034340 f   ItemExtInfo.obj
 0001:00033660       ?DrawHoverPatch_ASM@@YAXXZ 66034660 f   ItemExtInfo.obj
 0001:00033670       ?dangerous_addConfigVars@@YAXXZ 66034670 f   dangerous.obj
 0001:000336b0       ?dangerous_initConfigVars@@YAXXZ 660346b0 f   dangerous.obj
 0001:000336d0       ?ProtectAction@@YAHPA_WHE@Z 660346d0 f   dangerous.obj
 0001:00033980       ?ChickenLifeNewGame@@YAXXZ 66034980 f   dangerous.obj
 0001:00033ca0       ?ChickenLifeLoop@@YAXXZ    66034ca0 f   dangerous.obj
 0001:00034520       ?isCowKing@@YAHPAUMonsterData@@@Z 66035520 f   dangerous.obj
 0001:000345e0       ?checkBossMonster@@YAXPAUUnitAny@@@Z 660355e0 f   dangerous.obj
 0001:000346f0       ?CheckDangerousPlayer@@YAXPAUUnitAny@@@Z 660356f0 f   dangerous.obj
 0001:000347a0       ?TestMonsterOnScreen@@YAHPAUUnitAny@@0@Z 660357a0 f   dangerous.obj
 0001:00034820       ?CheckDangerousMonster@@YAXPAUUnitAny@@@Z 66035820 f   dangerous.obj
 0001:00034910       ?canLeaveTown@@YAHXZ       66035910 f   dangerous.obj
 0001:00034bb0       ?quest_initConfigVars@@YAXXZ 66035bb0 f   quest.obj
 0001:00034bd0       ?quest_addConfigVars@@YAXXZ 66035bd0 f   quest.obj
 0001:00034c10       ?ReSetTimer@@YAHXZ         66035c10 f   quest.obj
 0001:00034c30       ?QuestNewAct@@YAXXZ        66035c30 f   quest.obj
 0001:00034c60       ?QuestNewLevel@@YAXXZ      66035c60 f   quest.obj
 0001:00035410       ?quest_FixValues@@YAXXZ    66036410 f   quest.obj
 0001:000354e0       ?QuestNewGame@@YAXXZ       660364e0 f   quest.obj
 0001:00035640       ?QuestRunLoop@@YAXXZ       66036640 f   quest.obj
 0001:000359b0       ?BugKDProtect@@YIXK@Z      660369b0 f   quest.obj
 0001:00035c10       ?BugKBProtect@@YIXPAE@Z    66036c10 f   quest.obj
 0001:00036460       ?RecvCommand_89_Patch_ASM@@YAXXZ 66037460 f   quest.obj
 0001:00036480       ?RecvCommand_5D_Patch_ASM@@YAXXZ 66037480 f   quest.obj
 0001:00036490       ?CheckUnitKM@@YAXXZ        66037490 f   quest.obj
 0001:00036560       ?getMouseQuestId@@YAHHH@Z  66037560 f   quest.obj
 0001:00036640       ?DrawQuestPagePatch@@YIXHH@Z 66037640 f   quest.obj
 0001:00036b20       ?DrawQuestPagePatch_ASM@@YAXXZ 66037b20 f   quest.obj
 0001:00036b30       ?PacketA4@@YIXPAD@Z        66037b30 f   quest.obj
 0001:00036cb0       ?Packet4D@@YIXPAD@Z        66037cb0 f   quest.obj
 0001:00036d00       ?RecvCommand_A4_Patch_ASM@@YAXXZ 66037d00 f   quest.obj
 0001:00036d10       ?RecvCommand_4D_Patch_ASM@@YAXXZ 66037d10 f   quest.obj
 0001:00036d20       ?RecvCommand_28_Patch_ASM@@YAXXZ 66037d20 f   quest.obj
 0001:00036e50       ?UnicodeFix@@YAXPA_WPAK@Z  66037e50 f   unicode.obj
 0001:00037040       ?D2Lang_Unicode2WinPatch@@YIPBDPADPA_WH@Z 66038040 f   unicode.obj
 0001:00037080       ?D2Lang_Win2UnicodePatch@@YIPA_WPA_WPBDH@Z 66038080 f   unicode.obj
 0001:000370b0       ?EditDeleteSelect@@YAXPAUD2EditBox@@@Z 660380b0 f   unicode.obj
 0001:000371e0       ?ChannelEnterCharPatch@@YIKPAUD2EditBox@@E@Z 660381e0 f   unicode.obj
 0001:00037510       ?UnicodeToUTF_8@@YAXPADPA_W@Z 66038510 f   unicode.obj
 0001:00037580       ?MultiByteFix@@YGXPAD@Z    66038580 f   unicode.obj
 0001:00037770       ?MultiByteFixPatch_ASM@@YAXXZ 66038770 f   unicode.obj
 0001:00037780       ?IsPritableCharacterPatch_ASM@@YAXXZ 66038780 f   unicode.obj
 0001:000377a0       ?lifebar_addConfigVars@@YAXXZ 660387a0 f   lifebar.obj
 0001:000377e0       ?lifebar_initConfigVars@@YAXXZ 660387e0 f   lifebar.obj
 0001:00037800       ?lifebarNewGame@@YAXXZ     66038800 f   lifebar.obj
 0001:00037810       ?MonsterNamePatch@@YIJPA_WJPAUUnitAny@@JJ@Z 66038810 f   lifebar.obj
 0001:00038320       ?MonsterNamePatch_ASM@@YAXXZ 66039320 f   lifebar.obj
 0001:00038340       ?MonsterDescCommaPatch1_ASM@@YAXXZ 66039340 f   lifebar.obj
 0001:00038350       ?MonsterDescCommaPatch2_ASM@@YAXXZ 66039350 f   lifebar.obj
 0001:00038360       ?MonsterDescCommaPatch3@@YIXPA_WPAUMonsterTxt@@@Z 66039360 f   lifebar.obj
 0001:000383f0       ?MonsterDescCommaPatch3_ASM@@YAXXZ 660393f0 f   lifebar.obj
 0001:00038400       ?LifeBarPatch_ASM@@YAXXZ   66039400 f   lifebar.obj
 0001:00038420       ?MonsterDeathPatch_ASM@@YAXXZ 66039420 f   lifebar.obj
 0001:00038440       ?CalculateHighestTC@@YAXHG@Z 66039440 f   lifebar.obj
 0001:00038680       ?InitTCList@@YAXXZ         66039680 f   lifebar.obj
 0001:00038700       ?GetTcLevel@@YAPAUMonTC@@GH@Z 66039700 f   lifebar.obj
 0001:00038790       ?GetPlayerHpPercent@@YAHPAUUnitAny@@@Z 66039790 f   lifebar.obj
 0001:000387d0       ?PlayerNamePatch@@YIXPA_WPAUUnitAny@@@Z 660397d0 f   lifebar.obj
 0001:00038940       ?PlayerNamePatch_ASM@@YAXXZ 66039940 f   lifebar.obj
 0001:00038960       ?AutoWarCryNewGame@@YAXXZ  66039960 f   bo.obj
 0001:000389d0       ?AutoWarCryRunLoop@@YAXXZ  660399d0 f   bo.obj
 0001:00039140       ?d2s_init@@YAXPAUd2s_file@@@Z 6603a140 f   d2s.obj
 0001:000393a0       ?d2s_write@@YAHPAUd2s_file@@PADH@Z 6603a3a0 f   d2s.obj
 0001:000394c0       ?d2s_checksum@@YAXPADH@Z   6603a4c0 f   d2s.obj
 0001:00039540       ?d2s_generate@@YAHPAU_iobuf@@PAUUnitAny@@1PAGPAD1@Z 6603a540 f   d2s.obj
 0001:0003a180       ?DropProtection_addConfigVars@@YAXXZ 6603b180 f   DropProtection.obj
 0001:0003a1c0       ?DropProtection_initConfigVars@@YAXXZ 6603b1c0 f   DropProtection.obj
 0001:0003a240       ?DropProtection@@YAHPAUUnitAny@@@Z 6603b240 f   DropProtection.obj
 0001:0003a650       ?canHireMerc@@YAHXZ        6603b650 f   DropProtection.obj
 0001:0003a7b0       ?DropProtectionPacketBlock@@YAHPAEH@Z 6603b7b0 f   DropProtection.obj
 0001:0003a910       ?ClickHireMercMenuItemPatch_ASM@@YAXXZ 6603b910 f   DropProtection.obj
 0001:0003a930       ?unicode2win@@YAXPADPA_WH@Z 6603b930 f   DropProtection.obj
 0001:0003a990       ?DeleteCharacter_Patch_ASM@@YAXXZ 6603b990 f   DropProtection.obj
 0001:0003aa20       ?DeleteSelectedCharacter_Patch_ASM@@YAXXZ 6603ba20 f   DropProtection.obj
 0001:0003b270       ?ClickMenuItem_Patch_ASM@@YAXXZ 6603c270 f   DropProtection.obj
 0001:0003b390       ?playerHasRune@@YAHH@Z     6603c390 f   DropProtection.obj
 0001:0003b3e0       ?isValidRuneword@@YIHPAUUnitAny@@@Z 6603c3e0 f   DropProtection.obj
 0001:0003bd80       ?AutoEnchantNewGame@@YAXXZ 6603cd80 f   enchant.obj
 0001:0003bde0       ?checkUnit@@YAHPAUUnitAny@@@Z 6603cde0 f   enchant.obj
 0001:0003c0f0       ?AutoEnchantRunLoop@@YAXXZ 6603d0f0 f   enchant.obj
 0001:0003c460       ?AutoEnchantPlayerNeedHelp@@YAXH@Z 6603d460 f   enchant.obj
 0001:0003c4a0       ?check3bb@@YAXXZ           6603d4a0 f   enchant.obj
 0001:0003c760       ?GamePacketPlaySound@@YIXPAE@Z 6603d760 f   enchant.obj
 0001:0003c7c0       ?RecvCommand_2C_Patch_ASM@@YAXXZ 6603d7c0 f   enchant.obj
 0001:0003c7d0       ?GameChat_addConfigVars@@YAXXZ 6603d7d0 f   chat.obj
 0001:0003c810       ?chat_initConfigVars@@YAXXZ 6603d810 f   chat.obj
 0001:0003c820       ?setClipboard@@YAHPAUHWND__@@PA_WH@Z 6603d820 f   chat.obj
 0001:0003c8f0       ?processChatPaste@@YAXXZ   6603d8f0 f   chat.obj
 0001:0003ca20       ?sendQuickMessage@@YAHPAUMessageKey@@@Z 6603da20 f   chat.obj
 0001:0003cad0       ?addQuickMessage@@YAXHPA_WH@Z 6603dad0 f   chat.obj
 0001:0003cbe0       ?SendChatMessageW@@YAXPA_W@Z 6603dbe0 f   chat.obj
 0001:0003cca0       ?SendChatMessage@@YAXPAD@Z 6603dca0 f   chat.obj
 0001:0003cd50       ?WisperPatch@@YAXXZ        6603dd50 f   chat.obj
 0001:0003cd70       ?WisperPatch_ASM@@YAXXZ    6603dd70 f   chat.obj
 0001:0003cd80       ?CheckD2WinEditBox@@YAXXZ  6603dd80 f   chat.obj
 0001:0003cde0       ?InputLinePatch@@YAHE@Z    6603dde0 f   chat.obj
 0001:0003ce80       ?InputLinePatch1_ASM@@YAXXZ 6603de80 f   chat.obj
 0001:0003cea0       ?Filterbox_InputHandler@@YGHPAUD2EditBox@@HPAD@Z 6603dea0 f   mcp.obj
 0001:0003cea0       ?EditBoxCallBack@@YGHPAUD2EditBox@@HPAD@Z 6603dea0 f   chat.obj
 0001:0003ceb0       ?InitD2EditBox@@YAHXZ      6603deb0 f   chat.obj
 0001:0003cf80       ?InputLinePatch2_ASM@@YAXXZ 6603df80 f   chat.obj
 0001:0003cfa0       ?SelectTextPatch1@@YGHPAD@Z 6603dfa0 f   chat.obj
 0001:0003d080       ?SelectTextPatch1_ASM@@YAXXZ 6603e080 f   chat.obj
 0001:0003d0a0       ?SelectTextPatch2@@YGHPAD@Z 6603e0a0 f   chat.obj
 0001:0003d150       ?SelectTextPatch2_ASM@@YAXXZ 6603e150 f   chat.obj
 0001:0003d170       ?ResetGameList@@YAXXZ      6603e170 f   mcp.obj
 0001:0003d190       ?gameFilter_addConfigVars@@YAXXZ 6603e190 f   mcp.obj
 0001:0003d1d0       ?D2MCPPacketHandler_05_Patch@@YIHPAEH@Z 6603e1d0 f   mcp.obj
 0001:0003d460       ?D2MCPPacketHandler_05_Patch_ASM@@YAXXZ 6603e460 f   mcp.obj
 0001:0003d480       ?Filterbox_ReturnHandler@@YGHPA_W@Z 6603e480 f   mcp.obj
 0001:0003d4f0       ?CreateFilterBox@@YAXXZ    6603e4f0 f   mcp.obj
 0001:0003d570       ?CreateGameBoxPatch_ASM@@YAXXZ 6603e570 f   mcp.obj
 0001:0003d580       ?DestroyGamelistPatch@@YGXPAUD2EditBox@@@Z 6603e580 f   mcp.obj
 0001:0003d5c0       ?GameListRefreshTimePatch_ASM@@YAXXZ 6603e5c0 f   mcp.obj
 0001:0003d600       ?DrawGameListPatch@@YAXXZ  6603e600 f   mcp.obj
 0001:0003d790       ?DrawGameListPatch_ASM@@YAXXZ 6603e790 f   mcp.obj
 0001:0003d7a0       ?SortGameList_Patch_ASM@@YAXXZ 6603e7a0 f   mcp.obj
 0001:0003d830       ?ShowGameListDifficulty_Patch_ASM@@YAXXZ 6603e830 f   mcp.obj
 0001:0003d8e0       ?clearCharacterTag@@YAXXZ  6603e8e0 f   login.obj
 0001:0003d910       ?addCharacterTag@@YAXPAD0@Z 6603e910 f   login.obj
 0001:0003da90       ?getCharTag@@YAPADPAD@Z    6603ea90 f   login.obj
 0001:0003db50       ?doneCharacterTag@@YAXXZ   6603eb50 f   login.obj
 0001:0003dbb0       ?drawCharTags@@YAXXZ       6603ebb0 f   login.obj
 0001:0003dce0       ?login_initConfigVars@@YAXXZ 6603ece0 f   login.obj
 0001:0003dcf0       ?addAccount@@YAXHPAD0@Z    6603ecf0 f   login.obj
 0001:0003de40       ?isLoginScreen@@YAPAUD2EditBox@@XZ 6603ee40 f   login.obj
 0001:0003def0       ?getLastUser@@YAPADXZ      6603eef0 f   login.obj
 0001:0003df60       ?inputUserPassword@@YAHPAULoginInfo@@@Z 6603ef60 f   login.obj
 0001:0003e130       ?autoLogin@@YAXXZ          6603f130 f   login.obj
 0001:0003e200       ?LastBNet_Patch@@YGHPAD0H0H@Z 6603f200 f   login.obj
 0001:0003e250       ?SelectCharPatch_ASM@@YAXXZ 6603f250 f   login.obj
 0001:0003e370       ?autoSelectChar@@YAXXZ     6603f370 f   login.obj
 0001:0003e490       ?saveCharMenu@@YAXXZ       6603f490 f   login.obj
 0001:0003e860       ?OpenCharMenuPatch_ASM@@YAXXZ 6603f860 f   login.obj
 0001:0003e870       ?misc_addConfigVars@@YAXXZ 6603f870 f   misc.obj
 0001:0003e8b0       ?ULCPatch_ASM@@YAXXZ       6603f8b0 f   misc.obj
 0001:0003e8d0       ?OutTownSelectPatch@@YIHPAUUnitAny@@@Z 6603f8d0 f   misc.obj
 0001:0003e910       ?OutTownSelectPatch_ASM1@@YAXXZ 6603f910 f   misc.obj
 0001:0003e940       ?CheckOutTownSelected@@YGHPAUUnitAny@@@Z 6603f940 f   misc.obj
 0001:0003e9a0       ?OutTownSelectPatch_ASM2@@YAXXZ 6603f9a0 f   misc.obj
 0001:0003e9c0       ?NPCMessageLoopPatch_ASM@@YAXXZ 6603f9c0 f   misc.obj
 0001:0003ea00       ?NPCQuestMessageStartPatch_ASM@@YAXXZ 6603fa00 f   misc.obj
 0001:0003ea20       ?NPCQuestMessageEndPatch1_ASM@@YAXXZ 6603fa20 f   misc.obj
 0001:0003ea40       ?NPCQuestMessageEndPatch2_ASM@@YAXXZ 6603fa40 f   misc.obj
 0001:0003ea50       ?NsPassingActBugFixPatch_ASM@@YAXXZ 6603fa50 f   misc.obj
 0001:0003ea60       ?SetGoldPatch@@YIHH@Z      6603fa60 f   misc.obj
 0001:0003eae0       ?SetGoldPatch_ASM@@YAXXZ   6603fae0 f   misc.obj
 0001:0003eaf0       ?SetDefaultGoldPatch_ASM@@YAXXZ 6603faf0 f   misc.obj
 0001:0003eb00       ?multiclient_addConfigVars@@YAXXZ 6603fb00 f   multi.obj
 0001:0003eb40       ?multiclient_initConfigVars@@YAXXZ 6603fb40 f   multi.obj
 0001:0003eb70       ?multiclient_FixValues@@YAXXZ 6603fb70 f   multi.obj
 0001:0003eba0       ?MultiClientNewGame@@YAXXZ 6603fba0 f   multi.obj
 0001:0003eca0       ?MultiClientEndGame@@YAXXZ 6603fca0 f   multi.obj
 0001:0003ecc0       ?makeRuntimeInfoPath@@YAHPADH@Z 6603fcc0 f   multi.obj
 0001:0003ed90       ?saveRuntimeInfo1@@YAHPAUHWND__@@H@Z 6603fd90 f   multi.obj
 0001:0003efa0       ?saveRuntimeInfo@@YAHPAUHWND__@@@Z 6603ffa0 f   multi.obj
 0001:0003efc0       ?loadRuntimeInfo@@YAHPAUD2Window@@H@Z 6603ffc0 f   multi.obj
 0001:0003f800       ?getLocalPlayer@@YAPAUD2Window@@H@Z 66040800 f   multi.obj
 0001:0003f860       ?isLocalPlayerName@@YAHPAD@Z 66040860 f   multi.obj
 0001:0003f930       ?isLocalPlayer@@YAHH@Z     66040930 f   multi.obj
 0001:0003f9a0       ?refresh_clients@@YAXXZ    660409a0 f   multi.obj
 0001:0003fb70       ?multiclient_load_config@@YAXXZ 66040b70 f   multi.obj
 0001:0003fbf0       ?multiclient_winactive@@YAXXZ 66040bf0 f   multi.obj
 0001:0003fd30       ?getGameWindowHwnd@@YAPAUHWND__@@H@Z 66040d30 f   multi.obj
 0001:0003fd70       ?pressESC@@YAXXZ           66040d70 f   multi.obj
 0001:0003fdd0       ?canRemoteControl@@YAHXZ   66040dd0 f   multi.obj
 0001:0003fe90       ?leader_click_object@@YAXHH@Z 66040e90 f   multi.obj
 0001:0003ff50       ?send_multi_skill_info@@YAXH@Z 66040f50 f   multi.obj
 0001:0003ff80       ?recv_multi_skill_info@@YAXPAUD2Window@@H@Z 66040f80 f   multi.obj
 0001:0003fff0       ?send_multi_quest_info@@YAXH@Z 66040ff0 f   multi.obj
 0001:00040020       ?recv_multi_quest_info@@YAXPAUD2Window@@H@Z 66041020 f   multi.obj
 0001:00040130       ?send_multi_reply@@YAXH@Z  66041130 f   multi.obj
 0001:00040160       ?recv_multi_quest_reply@@YAXPAUD2Window@@H@Z 66041160 f   multi.obj
 0001:000401e0       ?multiclient_recv_info@@YAXH@Z 660411e0 f   multi.obj
 0001:000405c0       ?multiclient_send_info@@YAXH@Z 660415c0 f   multi.obj
 0001:00040610       ?follower_click_object@@YAXHH@Z 66041610 f   multi.obj
 0001:00040770       ?autoHydra@@YAXXZ          66041770 f   multi.obj
 0001:00040900       ?MultiClientLoop@@YAXXZ    66041900 f   multi.obj
 0001:000413f0       ?follower_left_click_xy@@YAXHH@Z 660423f0 f   multi.obj
 0001:00041430       ?follower_right_click_xy@@YAXHH@Z 66042430 f   multi.obj
 0001:00041470       ?follower_left_click_unit@@YAXHH@Z 66042470 f   multi.obj
 0001:000414b0       ?follower_right_client_unit@@YAXHH@Z 660424b0 f   multi.obj
 0001:000414f0       ?refresh_followers@@YAXH@Z 660424f0 f   multi.obj
 0001:00041610       ?toggle_follower@@YAXH@Z   66042610 f   multi.obj
 0001:00041720       ?follower_stop_follow@@YAXXZ 66042720 f   multi.obj
 0001:000417c0       ?findClosetPortal@@YAPAUUnitAny@@XZ 660427c0 f   multi.obj
 0001:00041940       ?talkToNpc@@YAXXZ          66042940 f   multi.obj
 0001:00041be0       ?follower_cmd@@YAXH@Z      66042be0 f   multi.obj
 0001:00042050       ?MultiClientStartFollow@@YAHH@Z 66043050 f   multi.obj
 0001:00042130       ?MultiClientStopFollow@@YAHXZ 66043130 f   multi.obj
 0001:000421d0       ?MultiClientStartFollow1@@YAHXZ 660431d0 f   multi.obj
 0001:000421f0       ?MultiClientStartFollow2@@YAHXZ 660431f0 f   multi.obj
 0001:00042210       ?MultiClientToggleFollow@@YAHXZ 66043210 f   multi.obj
 0001:00042240       ?MultiClientTalkToNpc@@YAHXZ 66043240 f   multi.obj
 0001:00042310       ?MultiClientAllNextGame@@YAHXZ 66043310 f   multi.obj
 0001:000423c0       ?MultiClientJoinGame@@YAHXZ 660433c0 f   multi.obj
 0001:00042460       ?leader_back_to_town@@YAHXZ 66043460 f   multi.obj
 0001:00042510       ?MultiClientEnterDoor@@YAHXZ 66043510 f   multi.obj
 0001:000426d0       ?MultiClientStartClick@@YAHH@Z 660436d0 f   multi.obj
 0001:000426f0       ?MultiClientStopClick@@YAHH@Z 660436f0 f   multi.obj
 0001:00042710       ?MultiClientInitClick@@YAHXZ 66043710 f   multi.obj
 0001:00042770       ?transferClick@@YAHHPAUUnitAny@@HH@Z 66043770 f   multi.obj
 0001:000429a0       ?canTranferClick@@YAHXZ    660439a0 f   multi.obj
 0001:00042a00       ?shouldLeftClick@@YIHPAH@Z 66043a00 f   multi.obj
 0001:00042e20       ?shouldRightClick@@YIHPAH@Z 66043e20 f   multi.obj
 0001:00043000       ?LeftClick_Patch_ASM@@YAXXZ 66044000 f   multi.obj
 0001:00043020       ?RightClick_Patch_ASM@@YAXXZ 66044020 f   multi.obj
 0001:00043040       ?RecvCommand_77_Patch_ASM@@YAXXZ 66044040 f   multi.obj
 0001:00043260       ?RecvCommand_78_Patch_ASM@@YAXXZ 66044260 f   multi.obj
 0001:000432f0       ?NpcTrade_AddConfigVars@@YAXXZ 660442f0 f   NpcTrade.obj
 0001:00043330       ?NpcTradeNewGame@@YAXXZ    66044330 f   NpcTrade.obj
 0001:00043340       ?drawNpcTradeInfo@@YAXH@Z  66044340 f   NpcTrade.obj
 0001:00043e50       ?NpcTradeLoop@@YAXXZ       66044e50 f   NpcTrade.obj
 0001:000440b0       ?NpcTradePatch_ASM@@YAXXZ  660450b0 f   NpcTrade.obj
 0001:000440e0       ?PartyHelp_addConfigVars@@YAXXZ 660450e0 f   party.obj
 0001:00044120       ?PartyHelp_initConfigVars@@YAXXZ 66045120 f   party.obj
 0001:00044130       ?PartyHelpNewGame@@YAXXZ   66045130 f   party.obj
 0001:000442f0       ?PartyHelpEndGame@@YAXXZ   660452f0 f   party.obj
 0001:00044300       ?ResponseInvite@@YAXXZ     66045300 f   party.obj
 0001:00044630       ?RecvCommand_5A_Patch_ASM@@YAXXZ 66045630 f   party.obj
 0001:00044810       ?AutoInvite@@YAXXZ         66045810 f   party.obj
 0001:00044d50       ?RecvCommand_5B_Patch_ASM@@YAXXZ 66045d50 f   party.obj
 0001:00044e20       ?RecvCommand_59_Patch_ASM@@YAXXZ 66045e20 f   party.obj
 0001:00044f40       ?RecvCommand_8C_Patch_ASM@@YAXXZ 66045f40 f   party.obj
 0001:00044f70       ?quick_addConfigVars@@YAXXZ 66045f70 f   quick.obj
 0001:00044fb0       ?quick_NewGame@@YAXXZ      66045fb0 f   quick.obj
 0001:00044fd0       ?quick_EndGame@@YAXXZ      66045fd0 f   quick.obj
 0001:00044fe0       ?skillCount@@YAHH@Z        66045fe0 f   quick.obj
 0001:00045040       ?BackToTown@@YAHXZ         66046040 f   quick.obj
 0001:00045120       ?QuickToLevel@@YAHPAUstQuickToLevel@@@Z 66046120 f   quick.obj
 0001:00045170       ?addQuickToLevel@@YAXHHH@Z 66046170 f   quick.obj
 0001:00045280       ?quickLoop@@YAXXZ          66046280 f   quick.obj
 0001:00045360       ?AutoBackToTown@@YIXPAE@Z  66046360 f   quick.obj
 0001:00045490       ?RecvCommand_60_Patch_ASM@@YAXXZ 66046490 f   quick.obj
 0001:000454a0       ?setGameNamePassword@@YAXPAD0@Z 660464a0 f   quick.obj
 0001:00045500       ?autoJoinGame@@YAXXZ       66046500 f   quick.obj
 0001:00045930       ?joinGame@@YAXPAD0@Z       66046930 f   quick.obj
 0001:000459d0       ?SaveGameName@@YAXXZ       660469d0 f   quick.obj
 0001:00045a70       ?QuickExitGame@@YAHXZ      66046a70 f   quick.obj
 0001:00045ab0       ?QuickNextGame@@YAHH@Z     66046ab0 f   quick.obj
 0001:00045d20       ?NextGameNamePatch@@YIXPAUD2EditBox@@P6GH0HPAD@Z@Z 66046d20 f   quick.obj
 0001:00045d60       ?NextGamePasswordPatch@@YIXPAUD2EditBox@@P6GH0HPAD@Z@Z 66046d60 f   quick.obj
 0001:00045da0       ?NextGameDecriptionPatch@@YIXPAUD2EditBox@@P6GH0HPAD@Z@Z 66046da0 f   quick.obj
 0001:00045de0       ?SelectGamePatch@@YIPAXPAUD2EditBox@@PA_W@Z 66046de0 f   quick.obj
 0001:00045e80       ?quickswap_addConfigVars@@YAXXZ 66046e80 f   QuickSwapItem.obj
 0001:00045ec0       ?getInvTxt@@YAPAUInventoryBIN@@XZ 66046ec0 f   QuickSwapItem.obj
 0001:00045f40       ?putIntoCubeIndirect@@YAHXZ 66046f40 f   QuickSwapItem.obj
 0001:00046020       ?putItem@@YAHPAUInventoryBIN@@PADH@Z 66047020 f   QuickSwapItem.obj
 0001:00046210       ?putIntoInv@@YAHXZ         66047210 f   QuickSwapItem.obj
 0001:00046230       ?putIntoStash@@YAHXZ       66047230 f   QuickSwapItem.obj
 0001:00046290       ?MoveItem@@YAXPAUD2MSG@@@Z 66047290 f   QuickSwapItem.obj
 0001:00047250       ?RButtonUpHandlerPatch@@YGXPAUD2MSG@@@Z 66048250 f   QuickSwapItem.obj
 0001:00047290       ?RButtonUpHandlerPatch_ASM@@YAXXZ 66048290 f   QuickSwapItem.obj
 0001:000472b0       ?RButtonInTradePatch_ASM@@YAXXZ 660482b0 f   QuickSwapItem.obj
 0001:000472c0       ?CtrlClickHandlerPatch_ASM@@YAXXZ 660482c0 f   QuickSwapItem.obj
 0001:000472f0       ?clickCubeTransformButton@@YAXXZ 660482f0 f   QuickSwapItem.obj
 0001:00047340       ?autoCubeTransform@@YAHXZ  66048340 f   QuickSwapItem.obj
 0001:00047860       ?quickswap_NewGame@@YAXXZ  66048860 f   QuickSwapItem.obj
 0001:00047890       ?RecvPacket3FPatch_ASM@@YAXXZ 66048890 f   QuickSwapItem.obj
 0001:000478b0       ?activeItemStack@@YAXH@Z   660488b0 f   QuickSwapItem.obj
 0001:00047920       ?autoIdentify@@YAHXZ       66048920 f   QuickSwapItem.obj
 0001:00047a50       ?autoSimpleItemStack@@YAHXZ 66048a50 f   QuickSwapItem.obj
 0001:00047c10       ?dropRune789@@YAXXZ        66048c10 f   QuickSwapItem.obj
 0001:00047d30       ?Resolution_AddConfigVars@@YAXXZ 66048d30 f   resolution.obj
 0001:00047d70       ?changeResolution@@YAXH@Z  66048d70 f   resolution.obj
 0001:00047d80       ?resolution_init@@YAXXZ    66048d80 f   resolution.obj
 0001:00047dd0       ?resolution_uninit@@YAXXZ  66048dd0 f   resolution.obj
 0001:00047e20       ?fitWindowToResolution@@YAXXZ 66048e20 f   resolution.obj
 0001:00047f60       ?fitResolution@@YAXXZ      66048f60 f   resolution.obj
 0001:00048240       ?SetBitBlockWidthAndHeightPatch_ASM@@YAXXZ 66049240 f   resolution.obj
 0001:00048250       ?SetCelDisplayLeftAndRightPatch_ASM@@YAXXZ 66049250 f   resolution.obj
 0001:00048270       ?IsNeedResizeWindowPatchW_ASM@@YAXXZ 66049270 f   resolution.obj
 0001:00048270       ?IsNeedRestoreDownWindowPatchW_ASM@@YAXXZ 66049270 f   resolution.obj
 0001:00048280       ?IsNeedResizeWindowPatchH_ASM@@YAXXZ 66049280 f   resolution.obj
 0001:00048280       ?IsNeedRestoreDownWindowPatchH_ASM@@YAXXZ 66049280 f   resolution.obj
 0001:00048290       ?SetDisplayWidthAndHeightPatch_ASM@@YAXXZ 66049290 f   resolution.obj
 0001:000482b0       ?SetGeneralDisplayWidthAndHeightPatch_ASM@@YAXXZ 660492b0 f   resolution.obj
 0001:000482d0       ?GetGlobalBeltSlotPositionPatch_ASM@@YAXXZ 660492d0 f   resolution.obj
 0001:00048380       ?GetGlobalBeltRecordPatch_ASM@@YAXXZ 66049380 f   resolution.obj
 0001:00048450       ?AdjustWindowRectExPatch_ASM@@YAXXZ 66049450 f   resolution.obj
 0001:000485a0       ?ClearFramebufPatch_ASM@@YAXXZ 660495a0 f   resolution.obj
 0001:000485c0       ?DrawLeftOrbImagePatch_ASM@@YAXXZ 660495c0 f   resolution.obj
 0001:000485f0       ?DrawLeftOrbPatch_ASM@@YAXXZ 660495f0 f   resolution.obj
 0001:00048610       ?DrawRightOrbImagePatch_ASM@@YAXXZ 66049610 f   resolution.obj
 0001:00048640       ?DrawRightOrbPatch_ASM@@YAXXZ 66049640 f   resolution.obj
 0001:00048660       ?FillLeftOrbPatch_ASM@@YAXXZ 66049660 f   resolution.obj
 0001:00048680       ?FillRightOrbPatch_ASM@@YAXXZ 66049680 f   resolution.obj
 0001:000486a0       ?DrawLeftSkillButtonPatch_ASM@@YAXXZ 660496a0 f   resolution.obj
 0001:000486c0       ?DrawRightSkillButtonPatch_ASM@@YAXXZ 660496c0 f   resolution.obj
 0001:000486e0       ?DisplayHPTextPatch_ASM@@YAXXZ 660496e0 f   resolution.obj
 0001:00048700       ?DisplayManaTextPatch_ASM@@YAXXZ 66049700 f   resolution.obj
 0001:00048720       ?DrawGroundHeightPatch_ASM@@YAXXZ 66049720 f   resolution.obj
 0001:00048750       ?BottomBoundPatch_ASM@@YAXXZ 66049750 f   resolution.obj
 0001:00048770       ?installResolutionPatches@@YAHXZ 66049770 f   resolution.obj
 0001:00048c20       ?autoskill_addConfigVars@@YAXXZ 66049c20 f   skill.obj
 0001:00048c60       ?autoskill_initConfigVars@@YAXXZ 66049c60 f   skill.obj
 0001:00048dc0       ?AutoSkillNewGame@@YAXXZ   66049dc0 f   skill.obj
 0001:00048e30       ?checkAutoSkill@@YAXXZ     66049e30 f   skill.obj
 0001:00049170       ?checkAutoSkillStatus@@YAXXZ 6604a170 f   skill.obj
 0001:00049250       ?stackThrowing@@YAXXZ      6604a250 f   skill.obj
 0001:00049310       ?AutoSkillNow@@YAHXZ       6604a310 f   skill.obj
 0001:00049340       ?AutoSkillRunLoop@@YAXXZ   6604a340 f   skill.obj
 0001:0004a940       ?autoSkillDimVision@@YIXPAD@Z 6604b940 f   skill.obj
 0001:0004a990       ?autoTelekinesis@@YAHXZ    6604b990 f   skill.obj
 0001:0004aab0       ?Snapshot_AddConfigVars@@YAXXZ 6604bab0 f   Snapshot.obj
 0001:0004aaf0       ?hex@@YAXPAU_iobuf@@HPAXH@Z 6604baf0 f   Snapshot.obj
 0001:0004ac80       ?LoadLogNames@@YAXPAU_iobuf@@@Z 6604bc80 f   Snapshot.obj
 0001:0004b270       ?getSnapshotPath1@@YAXPAD00000D@Z 6604c270 f   Snapshot.obj
 0001:0004b750       ?getSnapshotPath@@YAXPAD00000D@Z 6604c750 f   Snapshot.obj
 0001:0004b7a0       ?openSnapshotFile@@YAPAU_iobuf@@PAD00D0H@Z 6604c7a0 f   Snapshot.obj
 0001:0004b8c0       ?openDbgFile@@YAPAU_iobuf@@PAD@Z 6604c8c0 f   Snapshot.obj
 0001:0004baf0       ?SnapshotNewGame@@YAXXZ    6604caf0 f   Snapshot.obj
 0001:0004bd30       ?SnapshotEndGame@@YAXXZ    6604cd30 f   Snapshot.obj
 0001:0004c0a0       ?dumpStat@@YAXPAU_iobuf@@HHPAH@Z 6604d0a0 f   Snapshot.obj
 0001:0004c5e0       ?countAllGemRunes@@YAXXZ   6604d5e0 f   Snapshot.obj
 0001:0004cbe0       ?dumpStatList@@YAHPAU_iobuf@@PAUStatList@@H@Z 6604dbe0 f   Snapshot.obj
 0001:0004d110       ?loadWaypoints@@YAXPADH@Z  6604e110 f   Snapshot.obj
 0001:0004d1c0       ?saveWaypoints@@YAXPADH@Z  6604e1c0 f   Snapshot.obj
 0001:00050a60       ?dumpUnit2@@YAXPAU_iobuf@@PAUUnitAny@@@Z 66051a60 f   Snapshot.obj
 0001:00050c40       ?dumpMap@@YAXXZ            66051c40 f   Snapshot.obj
 0001:000511b0       ?saveMercInfo@@YIXPAD@Z    660521b0 f   Snapshot.obj
 0001:000512f0       ?RecvCommand_81_Patch_ASM@@YAXXZ 660522f0 f   Snapshot.obj
 0001:00051300       ?removeSnapshot@@YAXPAD00@Z 66052300 f   Snapshot.obj
 0001:00051540       ?dumpServerQuest@@YAXPAU_iobuf@@@Z 66052540 f   Snapshot.obj
 0001:000517c0       ?DoSnapshot@@YAHXZ         660527c0 f   Snapshot.obj
 0001:00051d90       ?saveItems@@YAXXZ          66052d90 f   snap.obj
 0001:00052200       ?formatItems@@YAXPAD00@Z   66053200 f   snap.obj
 0001:00053990       ?scan_realm@@YAXPAD@Z      66054990 f   snap.obj
 0001:00053dd0       ?rebuild_snap@@YAXXZ       66054dd0 f   snap.obj
 0001:00053fe0       ?AutoSummonNewGame@@YAXXZ  66054fe0 f   summon.obj
 0001:000540d0       ?checkSkeletonCount@@YAXXZ 660550d0 f   summon.obj
 0001:000542a0       ?AutoSummonRunLoop@@YAXXZ  660552a0 f   summon.obj
 0001:00054ad0       ?addUnit@@YIXPAUUnitAny@@@Z 66055ad0 f   summon.obj
 0001:00054b50       ?AddUnitPatch_ASM@@YAXXZ   66055b50 f   summon.obj
 0001:00054b70       ?RemoveUnitPatch1_ASM@@YAXXZ 66055b70 f   summon.obj
 0001:00054b90       ?RemoveUnitPatch2_ASM@@YAXXZ 66055b90 f   summon.obj
 0001:00054bb0       ?RecvCommand_69_Patch_ASM@@YAXXZ 66055bb0 f   summon.obj
 0001:00054f70       ?RecvCommand_7A_Patch_ASM@@YAXXZ 66055f70 f   summon.obj
 0001:00054fa0       ?RecvCommand_21_Patch_ASM@@YAXXZ 66055fa0 f   summon.obj
 0001:00054fc0       ?autoteleport_addConfigVars@@YAXXZ 66055fc0 f   teleport.obj
 0001:00055000       ?autoteleport_initConfigVars@@YAXXZ 66056000 f   teleport.obj
 0001:00055030       ?autoteleport_fixValues@@YAXXZ 66056030 f   teleport.obj
 0001:00055050       ?autoTpEvade@@YAHPAD@Z     66056050 f   teleport.obj
 0001:00056000       ?AutoTeleportStart@@YAHXZ  66057000 f   teleport.obj
 0001:000560a0       ?AutoTeleportEnd@@YAHXZ    660570a0 f   teleport.obj
 0001:00056120       ?AutoTeleport@@YAHXZ       66057120 f   teleport.obj
 0001:00057360       ?abs@@YAJJ@Z               66058360 f i teleport.obj
 0001:00057ba0       ?dumpRunewordTxt@@YAXXZ    66058ba0 f   txt.obj
 0001:00057f10       ?dumpTxt@@YAXXZ            66058f10 f   txt.obj
 0001:000584f0       ?panel_addConfigVars@@YAXXZ 660594f0 f   panel.obj
 0001:00058530       ?printPanelConf@@YAPADHPAD0@Z 66059530 f   panel.obj
 0001:00058660       ?panelNewGame@@YAXXZ       66059660 f   panel.obj
 0001:000587f0       ?panelEndGame@@YAXXZ       660597f0 f   panel.obj
 0001:00058820       ?modifyStashGrid@@YAXXZ    66059820 f   panel.obj
 0001:00058d20       ?MpqLoadPatch@@YIXPAD0@Z   66059d20 f   panel.obj
 0001:00058e00       ?MqpLoadPathPatch_ASM@@YAXXZ 66059e00 f   panel.obj
 0001:00058e20       ?ModifyStashImagePatch_ASM@@YAXXZ 66059e20 f   panel.obj
 0001:00058e30       ?ModifyCubeImagePatch_ASM@@YAXXZ 66059e30 f   panel.obj
 0001:00058e60       ?ModifyInvCharImagePatch_ASM@@YAXXZ 66059e60 f   panel.obj
 0001:00058ea0       ?ChooseInvCharImagePatch_ASM@@YAXXZ 66059ea0 f   panel.obj
 0001:00058ed0       ?CalDrawOffsetPatch_ASM@@YAXXZ 66059ed0 f   panel.obj
 0001:00058f60       ?GetEquipmentSlotLayoutPatch_ASM@@YAXXZ 66059f60 f   panel.obj
 0001:00059100       ?GetInventoryGridLayoutPatch_ASM@@YAXXZ 6605a100 f   panel.obj
 0001:000591b0       ?GetInventoryPositionPatch_ASM@@YAXXZ 6605a1b0 f   panel.obj
 0001:00059260       ?AddSkillPatch_ASM@@YAXXZ  6605a260 f   panel.obj
 0001:000592e0       ?RecvCommand_26_Patch_ASM@@YAXXZ 6605a2e0 f   panel.obj
 0001:000596e0       ?installPanelPatches@@YAHXZ 6605a6e0 f   panel.obj
 0001:00059880       ?uninstallBigstashPatches@@YAHXZ 6605a880 f   panel.obj
 0001:000598a0       ?installBigstashPatches@@YAHXZ 6605a8a0 f   panel.obj
 0001:00059d60       ?server_addConfigVars@@YAXXZ 6605ad60 f   server.obj
 0001:00059da0       ?client_unassign_stat@@YAHHH@Z 6605ada0 f   server.obj
 0001:00059e80       ?client_mouse_stat@@YAHHH@Z 6605ae80 f   server.obj
 0001:00059f50       ?getSkillDescTxt@@YAPAXH@Z 6605af50 f   server.obj
 0001:00059f60       ?getSkillTreeButtonY@@YAHH@Z 6605af60 f   server.obj
 0001:00059f70       ?getSkillTreeButtonX@@YAHH@Z 6605af70 f   server.obj
 0001:00059f80       ?client_mouse_skillBtn@@YAHHH@Z 6605af80 f   server.obj
 0001:0005a080       ?client_unassign_skill@@YAHHH@Z 6605b080 f   server.obj
 0001:0005a160       ?client_reset_quest@@YAHH@Z 6605b160 f   server.obj
 0001:0005a190       ?UndoStr@@YAXPAUUnitAny@@H@Z 6605b190 f   server.obj
 0001:0005a230       ?UndoDex@@YAXPAUUnitAny@@H@Z 6605b230 f   server.obj
 0001:0005a2d0       ?UndoVit@@YAXPAUUnitAny@@H@Z 6605b2d0 f   server.obj
 0001:0005a3d0       ?UndoEne@@YAXPAUUnitAny@@H@Z 6605b3d0 f   server.obj
 0001:0005a4a0       ?getClient@@YAPAXPAUUnitAny@@@Z 6605b4a0 f   server.obj
 0001:0005a4d0       ?UndoSkill@@YAXPAUUnitAny@@HH@Z 6605b4d0 f   server.obj
 0001:0005a6b0       ?getQuest@@YAPAGPAUWorld@@PAUUnitAny@@@Z 6605b6b0 f   server.obj
 0001:0005a6f0       ?serverUndo@@YAHPAUWorld@@PAUUnitAny@@PAD2@Z 6605b6f0 f   server.obj
 0001:0005ade0       ?ModifyStashGridPatch_ASM@@YAXXZ 6605bde0 f   server.obj
 0001:0005adf0       ?compileRunesTxt@@YGPAXHPADPAUTxtField@@PAHH@Z 6605bdf0 f   server.obj
 0001:0005ae50       ?GameStartPatch_ASM@@YAXXZ 6605be50 f   server.obj
 0001:0005aff0       ?DoServerTest@@YAHXZ       6605bff0 f   server.obj
 0001:0005b0d0       ?installServerPatches@@YAHXZ 6605c0d0 f   server.obj
 0001:0005b550       ?RepeatAdminCmd@@YAHXZ     6605c550 f   admin.obj
 0001:0005b5c0       ?ClientChatPatch_ASM@@YAXXZ 6605c5c0 f   admin.obj
 0001:0005b660       ?setCharLv@@YAXPAUWorld@@PAUUnitAny@@H@Z 6605c660 f   admin.obj
 0001:0005b710       ?maxCharStat@@YAXPAUWorld@@PAUUnitAny@@@Z 6605c710 f   admin.obj
 0001:0005b7e0       ?enableAllWaypoints@@YAXPAUUnitAny@@@Z 6605c7e0 f   admin.obj
 0001:0005b860       ?passGame@@YAHPAUWorld@@PAUUnitAny@@H@Z 6605c860 f   admin.obj
 0001:0005ba80       ?itemIndex2txt@@YAHH@Z     6605ca80 f   admin.obj
 0001:0005bb10       ?SelectUniquePatch_ASM@@YAXXZ 6605cb10 f   admin.obj
 0001:0005bbe0       ?SelectSetPatch_ASM@@YAXXZ 6605cbe0 f   admin.obj
 0001:0005bc70       ?getItemTxtByCode@@YAHH@Z  6605cc70 f   admin.obj
 0001:0005bd20       ?getRunewordTxt@@YAPAURuneWordTxt@@H@Z 6605cd20 f   admin.obj
 0001:0005bd60       ?pickupItem@@YAXPAUWorld@@PAUUnitAny@@1H@Z 6605cd60 f   admin.obj
 0001:0005bdc0       ?invToHand@@YAXPAUWorld@@PAUUnitAny@@1@Z 6605cdc0 f   admin.obj
 0001:0005be00       ?handToBody@@YAXPAUWorld@@PAUUnitAny@@1H@Z 6605ce00 f   admin.obj
 0001:0005be90       ?putItemIntoSocket@@YAXPAUWorld@@PAUUnitAny@@11@Z 6605ce90 f   admin.obj
 0001:0005bed0       ?autoPortal@@YAHPAUWorld@@PAUUnitAny@@@Z 6605ced0 f   admin.obj
 0001:0005c300       ?MonsterSleepPatch_ASM@@YAXXZ 6605d300 f   admin.obj
 0001:0005c320       ?skipServerPacket15@@YIHPAUWorld@@PAUUnitAny@@PADH@Z 6605d320 f   admin.obj
 0001:0005f000       ?ServerRecvPacket15Patch_ASM@@YAXXZ 66060000 f   admin.obj
 0001:0005f030       ?uber_addConfigVars@@YAXXZ 66060030 f   uber.obj
 0001:0005f070       ?resetUberQuest@@YAXXZ     66060070 f   uber.obj
 0001:0005f0e0       ?openPandPortal@@YIHPAUWorld@@PAUUnitAny@@@Z 660600e0 f   uber.obj
 0001:0005f1a0       ?openPandFinalPortal@@YIHPAUWorld@@PAUUnitAny@@@Z 660601a0 f   uber.obj
 0001:0005f1e0       ?spawnSuperUnique@@YAHPAUWorld@@PAUAreaRectData@@HHHHHH@Z 660601e0 f   uber.obj
 0001:0005f210       ?monsterUseSkill@@YAXPAUWorld@@PAUUnitAny@@HH1HH@Z 66060210 f   uber.obj
 0001:0005f250       ?spawnUber@@YGXPAUWorld@@PAUAreaRectData@@@Z 66060250 f   uber.obj
 0001:0005f4a0       ?GetNbMonsters@@YAHPAUDrlgLevel@@@Z 660604a0 f   uber.obj
 0001:0005f530       ?GetNbMonstersRadius@@YAHPAUDrlgLevel@@UtagPOINT@@H@Z 66060530 f   uber.obj
 0001:0005f5f0       ?CastSummonMonster@@YAHPAUWorld@@PAUUnitAny@@HHPAHHH@Z 660605f0 f   uber.obj
 0001:0005f720       ?randf@@YANXZ              66060720 f   uber.obj
 0001:0005f740       ?RandInCircle@@YAXPAUtagPOINT@@H@Z 66060740 f   uber.obj
 0001:0005f7a0       ?uberMephAI@@YIXPAUWorld@@PAUUnitAny@@PAUAIParam@@@Z 660607a0 f   uber.obj
 0001:0005f830       ?uberDiabloAI@@YIXPAUWorld@@PAUUnitAny@@PAUAIParam@@@Z 66060830 f   uber.obj
 0001:0005f980       ?uberBaalAI@@YIXPAUWorld@@PAUUnitAny@@PAUAIParam@@@Z 66060980 f   uber.obj
 0001:0005fb50       ?installUberQuestPatches@@YAHXZ 66060b50 f   uber.obj
 0001:0005fc76       ??0_LocaleUpdate@@QAE@PAUlocaleinfo_struct@@@Z 66060c76 f i LIBCMT:stricmp.obj
 0001:0005fcfd       ___ascii_stricmp           66060cfd f   LIBCMT:stricmp.obj
 0001:0005fd36       __stricmp_l                66060d36 f   LIBCMT:stricmp.obj
 0001:0005fe0b       __stricmp                  66060e0b f   LIBCMT:stricmp.obj
 0001:0005fe5d       __flush                    66060e5d f   LIBCMT:fflush.obj
 0001:0005fec5       __fflush_nolock            66060ec5 f   LIBCMT:fflush.obj
 0001:0005ffe7       _fflush                    66060fe7 f   LIBCMT:fflush.obj
 0001:0006003a       __flushall                 6606103a f   LIBCMT:fflush.obj
 0001:00060043       _fprintf                   66061043 f   LIBCMT:fprintf.obj
 0001:0006015f       _bsearch                   6606115f f   LIBCMT:bsearch.obj
 0001:00060221       @__security_check_cookie@4 66061221 f   LIBCMT:secchk.obj
 0001:00060230       _sprintf                   66061230 f   LIBCMT:sprintf.obj
 0001:000602b0       _memset                    660612b0 f   LIBCMT:memset.obj
 0001:0006032a       __fclose_nolock            6606132a f   LIBCMT:fclose.obj
 0001:000603a1       _fclose                    660613a1 f   LIBCMT:fclose.obj
 0001:0006041d       _fputs                     6606141d f   LIBCMT:fputs.obj
 0001:00060530       _strncpy                   66061530 f   LIBCMT:strncpy.obj
 0001:00060670       _strchr                    66061670 f   LIBCMT:strchr.obj
 0001:00060676       ___from_strstr_to_strchr   66061676     LIBCMT:strchr.obj
 0001:00060730       _strrchr                   66061730 f   LIBCMT:strrchr.obj
 0001:00060820       _qsort                     66061820 f   LIBCMT:qsort.obj
 0001:00060a6d       _realloc                   66061a6d f   LIBCMT:realloc.obj
 0001:00060c90       _memcpy                    66061c90 f   LIBCMT:memcpy.obj
 0001:00060ff5       __isalpha_l                66061ff5 f i LIBCMT:_ctype.obj
 0001:0006104b       _isalpha                   6606204b f i LIBCMT:_ctype.obj
 0001:0006107b       __isdigit_l                6606207b f i LIBCMT:_ctype.obj
 0001:000610cc       _isdigit                   660620cc f i LIBCMT:_ctype.obj
 0001:000610fa       __isspace_l                660620fa f i LIBCMT:_ctype.obj
 0001:0006114b       _isspace                   6606214b f i LIBCMT:_ctype.obj
 0001:00061179       __isalnum_l                66062179 f i LIBCMT:_ctype.obj
 0001:000611cf       _isalnum                   660621cf f i LIBCMT:_ctype.obj
 0001:0006142e       _strtol                    6606242e f   LIBCMT:strtol.obj
 0001:00061459       _strtoul                   66062459 f   LIBCMT:strtol.obj
 0001:00061485       __toupper_l                66062485 f   LIBCMT:toupper.obj
 0001:0006159b       _toupper                   6606259b f   LIBCMT:toupper.obj
 0001:000615c7       ___iob_func                660625c7 f   LIBCMT:_file.obj
 0001:000615cd       ___initstdio               660625cd f   LIBCMT:_file.obj
 0001:0006167e       ___endstdio                6606267e f   LIBCMT:_file.obj
 0001:0006169e       __lock_file                6606269e f   LIBCMT:_file.obj
 0001:000616df       __lock_file2               660626df f   LIBCMT:_file.obj
 0001:00061711       __unlock_file              66062711 f   LIBCMT:_file.obj
 0001:0006174d       __unlock_file2             6606274d f   LIBCMT:_file.obj
 0001:0006177c       __cfltcvt_init             6606277c f   LIBCMT:_fpinit_.obj
 0001:000617dc       __fpmath                   660627dc f   LIBCMT:_fpinit_.obj
 0001:00061800       __except_handler4          66062800 f   LIBCMT:chandler4.obj
 0001:0006198c       _V6_HeapAlloc              6606298c f   LIBCMT:malloc.obj
 0001:000619db       _malloc                    660629db f   LIBCMT:malloc.obj
 0001:00061ab0       _strstr                    66062ab0 f   LIBCMT:strstr.obj
 0001:00061b36       _fgets                     66062b36 f   LIBCMT:fgets.obj
 0001:00061c7e       __fseek_nolock             66062c7e f   LIBCMT:fseek.obj
 0001:00061d08       _fseek                     66062d08 f   LIBCMT:fseek.obj
 0001:00061d8d       __fread_nolock_s           66062d8d f   LIBCMT:fread.obj
 0001:00061f97       _fread_s                   66062f97 f   LIBCMT:fread.obj
 0001:0006202d       _fread                     6606302d f   LIBCMT:fread.obj
 0001:0006204a       __memicmp_l                6606304a f   LIBCMT:memicmp.obj
 0001:0006211f       __memicmp                  6606311f f   LIBCMT:memicmp.obj
 0001:0006217e       _strtok                    6606317e f   LIBCMT:strtok.obj
 0001:00062240       __ftol2_sse                66063240 f   LIBCMT:ftol2.obj
 0001:00062249       __ftol2_pentium4           66063249 f   LIBCMT:ftol2.obj
 0001:0006225c       __ftol2_sse_excpt          6606325c f   LIBCMT:ftol2.obj
 0001:00062276       __ftol2                    66063276 f   LIBCMT:ftol2.obj
 0001:000622eb       ??3@YAXPAX@Z               660632eb f   LIBCMT:delete.obj
 0001:000622f6       ??0bad_alloc@std@@QAE@XZ   660632f6 f i LIBCMT:new.obj
 0001:00062311       ??1bad_alloc@std@@UAE@XZ   66063311 f i LIBCMT:new.obj
 0001:0006231c       ??_Ebad_alloc@std@@UAEPAXI@Z 6606331c f i LIBCMT:new.obj
 0001:0006231c       ??_Gbad_alloc@std@@UAEPAXI@Z 6606331c f i LIBCMT:new.obj
 0001:00062343       ??0bad_alloc@std@@QAE@ABV01@@Z 66063343 f i LIBCMT:new.obj
 0001:00062360       ??2@YAPAXI@Z               66063360 f   LIBCMT:new.obj
 0001:000623c5       _free                      660633c5 f   LIBCMT:free.obj
 0001:0006252d       __stat64i32                6606352d f   LIBCMT:stati32.obj
 0001:00062901       __fwrite_nolock            66063901 f   LIBCMT:fwrite.obj
 0001:00062a63       _fwrite                    66063a63 f   LIBCMT:fwrite.obj
 0001:00062ae5       __fsopen                   66063ae5 f   LIBCMT:fopen.obj
 0001:00062ba9       _fopen                     66063ba9 f   LIBCMT:fopen.obj
 0001:00062bc0       __snprintf                 66063bc0 f   LIBCMT:snprintf.obj
 0001:00062c6f       __ftell_nolock             66063c6f f   LIBCMT:ftell.obj
 0001:00062e0c       _ftell                     66063e0c f   LIBCMT:ftell.obj
 0001:00062e80       __chkstk                   66063e80 f   LIBCMT:chkstk.obj
 0001:00062e80       __alloca_probe             66063e80     LIBCMT:chkstk.obj
 0001:00062eb0       __CIsqrt                   66063eb0 f   LIBCMT:_sqrt_.obj
 0001:00062ec4       _sqrt                      66063ec4     LIBCMT:_sqrt_.obj
 0001:00062f6a       __vsnprintf_l              66063f6a f   LIBCMT:vsnprint.obj
 0001:0006301d       __vsnprintf                6606401d f   LIBCMT:vsnprint.obj
 0001:0006303a       __strdup                   6606403a f   LIBCMT:strdup.obj
 0001:0006308f       _fputc                     6606408f f   LIBCMT:fputc.obj
 0001:0006319b       _rand                      6606419b f   LIBCMT:rand.obj
 0001:000631bd       _rename                    660641bd f   LIBCMT:rename.obj
 0001:000631f0       _memmove                   660641f0 f   LIBCMT:memmove.obj
 0001:00063555       __isleadbyte_l             66064555 f i LIBCMT:_wctype.obj
 0001:0006358d       _isleadbyte                6606458d f i LIBCMT:_wctype.obj
 0001:000635a0       _iswspace                  660645a0 f i LIBCMT:_wctype.obj
 0001:000635b3       _printf                    660645b3 f   LIBCMT:printf.obj
 0001:00063662       __get_printf_count_output  66064662 f   LIBCMT:printf.obj
 0001:00063678       __time64                   66064678 f   LIBCMT:time64.obj
 0001:000636c9       __freea                    660646c9 f i LIBCMT:strupr.obj
 0001:00063867       __strupr_s_l               66064867 f   LIBCMT:strupr.obj
 0001:0006389c       __strupr                   6606489c f   LIBCMT:strupr.obj
 0001:00063afb       _wcstol                    66064afb f   LIBCMT:wcstol.obj
 0001:00063b30       __allshr                   66064b30 f   LIBCMT:llshr.obj
 0001:00063b60       _sin                       66064b60 f   LIBCMT:_sin_.obj
 0001:00063ba0       __CIsin                    66064ba0 f   LIBCMT:_sin_.obj
 0001:00063bdb       __CIsin_default            66064bdb f   LIBCMT:_sin_.obj
 0001:00063bef       __sin_default              66064bef     LIBCMT:_sin_.obj
 0001:00063c90       _cos                       66064c90 f   LIBCMT:_cos_.obj
 0001:00063cd0       __CIcos                    66064cd0 f   LIBCMT:_cos_.obj
 0001:00063d0b       __CIcos_default            66064d0b f   LIBCMT:_cos_.obj
 0001:00063d1f       __cos_default              66064d1f     LIBCMT:_cos_.obj
 0001:00063db9       __CRT_INIT@12              66064db9 f   LIBCMT:dllcrt0.obj
 0001:00063fe4       __DllMainCRTStartup@12     66064fe4 f   LIBCMT:dllcrt0.obj
 0001:0006422d       ___updatetmbcinfo          6606522d f   LIBCMT:mbctype.obj
 0001:0006434d       __setmbcp_nolock           6606534d f   LIBCMT:mbctype.obj
 0001:00064532       __setmbcp                  66065532 f   LIBCMT:mbctype.obj
 0001:000646cc       ___initmbctable            660656cc f   LIBCMT:mbctype.obj
 0001:000646ea       ___freetlocinfo            660656ea f   LIBCMT:setlocal.obj
 0001:00064833       ___addlocaleref            66065833 f   LIBCMT:setlocal.obj
 0001:000648c2       ___removelocaleref         660658c2 f   LIBCMT:setlocal.obj
 0001:00064999       ___updatetlocinfo          66065999 f   LIBCMT:setlocal.obj
 0001:00064a0f       __encode_pointer           66065a0f f   LIBCMT:tidtable.obj
 0001:00064a81       __encoded_null             66065a81 f   LIBCMT:tidtable.obj
 0001:00064a8a       __decode_pointer           66065a8a f   LIBCMT:tidtable.obj
 0001:00064afc       ___crtTlsAlloc@4           66065afc f   LIBCMT:tidtable.obj
 0001:00064b05       ___set_flsgetvalue         66065b05 f   LIBCMT:tidtable.obj
 0001:00064b39       __mtterm                   66065b39 f   LIBCMT:tidtable.obj
 0001:00064b76       __initptd                  66065b76 f   LIBCMT:tidtable.obj
 0001:00064c5d       __getptd_noexit            66065c5d f   LIBCMT:tidtable.obj
 0001:00064cd6       __getptd                   66065cd6 f   LIBCMT:tidtable.obj
 0001:00064cf0       __freefls@4                66065cf0 f   LIBCMT:tidtable.obj
 0001:00064e1f       __freeptd                  66065e1f f   LIBCMT:tidtable.obj
 0001:00064e8d       __mtinit                   66065e8d f   LIBCMT:tidtable.obj
 0001:0006501a       __tolower_l                6606601a f   LIBCMT:tolower.obj
 0001:0006512f       _tolower                   6606612f f   LIBCMT:tolower.obj
 0001:0006515b       __initp_misc_invarg        6606615b f   LIBCMT:invarg.obj
 0001:0006516a       __invoke_watson            6606616a f   LIBCMT:invarg.obj
 0001:00065292       __invalid_parameter        66066292 f   LIBCMT:invarg.obj
 0001:000652b8       __get_errno_from_oserr     660662b8 f   LIBCMT:dosmap.obj
 0001:000652fa       __errno                    660662fa f   LIBCMT:dosmap.obj
 0001:0006530d       ___doserrno                6606630d f   LIBCMT:dosmap.obj
 0001:00065320       __dosmaperr                66066320 f   LIBCMT:dosmap.obj
 0001:00065343       __write_nolock             66066343 f   LIBCMT:write.obj
 0001:00065a76       __write                    66066a76 f   LIBCMT:write.obj
 0001:00065b52       __fileno                   66066b52 f   LIBCMT:fileno.obj
 0001:00065b84       __commit                   66066b84 f   LIBCMT:commit.obj
 0001:00065c65       __mtinitlocks              66066c65 f   LIBCMT:mlock.obj
 0001:00065cb0       __mtdeletelocks            66066cb0 f   LIBCMT:mlock.obj
 0001:00065d07       __unlock                   66066d07 f   LIBCMT:mlock.obj
 0001:00065d1e       __mtinitlocknum            66066d1e f   LIBCMT:mlock.obj
 0001:00065de1       __lock                     66066de1 f   LIBCMT:mlock.obj
 0001:00065e14       __SEH_prolog4              66066e14 f   LIBCMT:sehprolg4.obj
 0001:00065e59       __SEH_epilog4              66066e59 f   LIBCMT:sehprolg4.obj
 0001:00065e6d       __stbuf                    66066e6d f   LIBCMT:_sftbuf.obj
 0001:00065f09       __ftbuf                    66066f09 f   LIBCMT:_sftbuf.obj
 0001:00065fe3       __output_l                 66066fe3 f   LIBCMT:output.obj
 0001:00066b7b       __ioinit                   66067b7b f   LIBCMT:ioinit.obj
 0001:00066dcf       __ioterm                   66067dcf f   LIBCMT:ioinit.obj
 0001:00066e1d       ___report_gsfailure        66067e1d f   LIBCMT:gs_report.obj
 0001:00066f23       __flsbuf                   66067f23 f   LIBCMT:_flsbuf.obj
 0001:000670de       __VEC_memzero              660680de f   LIBCMT:p4_memset.obj
 0001:000671bd       __get_sse2_info            660681bd f   LIBCMT:cpu_disp.obj
 0001:0006721f       ___sse2_available_init     6606821f f   LIBCMT:cpu_disp.obj
 0001:0006722c       __close_nolock             6606822c f   LIBCMT:close.obj
 0001:000672c8       __close                    660682c8 f   LIBCMT:close.obj
 0001:00067395       __freebuf                  66068395 f   LIBCMT:_freebuf.obj
 0001:000673d0       _strlen                    660683d0 f   LIBCMT:strlen.obj
 0001:0006745b       __initp_heap_handler       6606845b f   LIBCMT:handler.obj
 0001:0006746a       __callnewh                 6606846a f   LIBCMT:handler.obj
 0001:00067492       __heap_init                66068492 f   LIBCMT:heapinit.obj
 0001:000674c2       __heap_term                660684c2 f   LIBCMT:heapinit.obj
 0001:00067536       ___sbh_find_block          66068536 f   LIBCMT:sbheap.obj
 0001:00067566       ___sbh_free_block          66068566 f   LIBCMT:sbheap.obj
 0001:0006787c       ___sbh_alloc_new_region    6606887c f   LIBCMT:sbheap.obj
 0001:0006792c       ___sbh_alloc_new_group     6606892c f   LIBCMT:sbheap.obj
 0001:00067a34       ___sbh_resize_block        66068a34 f   LIBCMT:sbheap.obj
 0001:00067d15       ___sbh_alloc_block         66068d15 f   LIBCMT:sbheap.obj
 0001:00068081       __VEC_memcpy               66069081 f   LIBCMT:p4_memcpy.obj
 0001:00068164       __isctype_l                66069164 f   LIBCMT:isctype.obj
 0001:000685c1       ___crtLCMapStringA         660695c1 f   LIBCMT:a_map.obj
 0001:00068606       __malloc_crt               66069606 f   LIBCMT:crtheap.obj
 0001:0006864b       __calloc_crt               6606964b f   LIBCMT:crtheap.obj
 0001:00068697       __realloc_crt              66069697 f   LIBCMT:crtheap.obj
 0001:000686e5       __recalloc_crt             660696e5 f   LIBCMT:crtheap.obj
 0001:00068737       __fcloseall                66069737 f   LIBCMT:closeall.obj
 0001:000687d6       __crt_waiting_on_module_handle 660697d6 f   LIBCMT:crt0dat.obj
 0001:00068806       __amsg_exit                66069806 f   LIBCMT:crt0dat.obj
 0001:0006882f       ___crtCorExitProcess       6606982f f   LIBCMT:crt0dat.obj
 0001:0006885a       ___crtExitProcess          6606985a f   LIBCMT:crt0dat.obj
 0001:00068872       __lockexit                 66069872 f   LIBCMT:crt0dat.obj
 0001:0006887b       __unlockexit               6606987b f   LIBCMT:crt0dat.obj
 0001:000688a1       __initterm_e               660698a1 f   LIBCMT:crt0dat.obj
 0001:000688c5       __cinit                    660698c5 f   LIBCMT:crt0dat.obj
 0001:00068a76       __exit                     66069a76 f   LIBCMT:crt0dat.obj
 0001:00068a8c       __cexit                    66069a8c f   LIBCMT:crt0dat.obj
 0001:00068a9b       __init_pointers            66069a9b f   LIBCMT:crt0dat.obj
 0001:00068ae9       __forcdecpt_l              66069ae9 f   LIBCMT:cvt.obj
 0001:00068b5c       __cropzeros_l              66069b5c f   LIBCMT:cvt.obj
 0001:00068bde       __positive                 66069bde f   LIBCMT:cvt.obj
 0001:00068bfa       __fassign_l                66069bfa f   LIBCMT:cvt.obj
 0001:00068c3c       __fassign                  66069c3c f   LIBCMT:cvt.obj
 0001:00068c75       __forcdecpt                66069c75 f   LIBCMT:cvt.obj
 0001:00068c88       __cropzeros                66069c88 f   LIBCMT:cvt.obj
 0001:00068e0a       __cftoe_l                  66069e0a f   LIBCMT:cvt.obj
 0001:00068eda       __cftoe                    66069eda f   LIBCMT:cvt.obj
 0001:00068efa       __cftoa_l                  66069efa f   LIBCMT:cvt.obj
 0001:00069364       __cftof_l                  6606a364 f   LIBCMT:cvt.obj
 0001:0006941f       __cftog_l                  6606a41f f   LIBCMT:cvt.obj
 0001:00069519       __cfltcvt_l                6606a519 f   LIBCMT:cvt.obj
 0001:000695a1       __cfltcvt                  6606a5a1 f   LIBCMT:cvt.obj
 0001:000695c4       __initp_misc_cfltcvt_tab   6606a5c4 f   LIBCMT:cmiscdat.obj
 0001:000695e5       __setdefaultprecision      6606a5e5 f   LIBCMT:fp8.obj
 0001:00069610       __ms_p5_test_fdiv          6606a610 f   LIBCMT:_testfdiv_.obj
 0001:0006964e       __ms_p5_mp_test_fdiv       6606a64e f   LIBCMT:_testfdiv_.obj
 0001:00069678       __local_unwind4            6606a678 f   LIBCMT:exsup4.obj
 0001:0006974e       __seh_longjmp_unwind4@4    6606a74e f   LIBCMT:exsup4.obj
 0001:0006976a       @_EH4_CallFilterFunc@8     6606a76a f   LIBCMT:exsup4.obj
 0001:00069781       @_EH4_TransferToHandler@8  6606a781 f   LIBCMT:exsup4.obj
 0001:0006979a       @_EH4_GlobalUnwind@4       6606a79a f   LIBCMT:exsup4.obj
 0001:000697b4       @_EH4_LocalUnwind@16       6606a7b4 f   LIBCMT:exsup4.obj
 0001:000697d0       __ValidateImageBase        6606a7d0 f   LIBCMT:pesect.obj
 0001:00069810       __FindPESection            6606a810 f   LIBCMT:pesect.obj
 0001:00069860       __IsNonwritableInCurrentImage 6606a860 f   LIBCMT:pesect.obj
 0001:0006991d       __NMSG_WRITE               6606a91d f   LIBCMT:crt0msg.obj
 0001:00069ac8       __FF_MSGBANNER             6606aac8 f   LIBCMT:crt0msg.obj
 0001:00069b01       __filbuf                   6606ab01 f   LIBCMT:_filbuf.obj
 0001:00069c2c       __lseek_nolock             6606ac2c f   LIBCMT:lseek.obj
 0001:00069ca1       __lseek                    6606aca1 f   LIBCMT:lseek.obj
 0001:00069d7d       __read_nolock              6606ad7d f   LIBCMT:read.obj
 0001:0006a33f       __read                     6606b33f f   LIBCMT:read.obj
 0001:0006a43c       _memcpy_s                  6606b43c f   LIBCMT:memcpy_s.obj
 0001:0006a4c0       ___ascii_memicmp           6606b4c0 f   LIBCMT:_memicmp.obj
 0001:0006a519       ??0exception@std@@QAE@ABQBDH@Z 6606b519 f   LIBCMT:stdexcpt.obj
 0001:0006a536       ??0exception@std@@QAE@ABV01@@Z 6606b536 f   LIBCMT:stdexcpt.obj
 0001:0006a593       ??1exception@std@@UAE@XZ   6606b593 f   LIBCMT:stdexcpt.obj
 0001:0006a5a9       ?what@exception@std@@UBEPBDXZ 6606b5a9 f   LIBCMT:stdexcpt.obj
 0001:0006a5b6       ??_Gexception@std@@UAEPAXI@Z 6606b5b6 f i LIBCMT:stdexcpt.obj
 0001:0006a5b6       ??_Eexception@std@@UAEPAXI@Z 6606b5b6 f i LIBCMT:stdexcpt.obj
 0001:0006a5d7       ??1type_info@@UAE@XZ       6606b5d7 f   LIBCMT:typinfo.obj
 0001:0006a5e7       ??_Etype_info@@UAEPAXI@Z   6606b5e7 f i LIBCMT:typinfo.obj
 0001:0006a5e7       ??_Gtype_info@@UAEPAXI@Z   6606b5e7 f i LIBCMT:typinfo.obj
 0001:0006a6c2       ___onexitinit              6606b6c2 f   LIBCMT:onexit.obj
 0001:0006a6f3       __onexit                   6606b6f3 f   LIBCMT:onexit.obj
 0001:0006a72f       _atexit                    6606b72f f   LIBCMT:onexit.obj
 0001:0006a746       __CxxThrowException@8      6606b746 f   LIBCMT:throw.obj
 0001:0006a792       __fullpath                 6606b792 f   LIBCMT:fullpath.obj
 0001:0006a89c       ___dtoxmode                6606b89c f   LIBCMT:stat.obj
 0001:0006a959       ___loctotime64_t           6606b959 f   LIBCMT:dtoxtm64.obj
 0001:0006abc4       __getdrive                 6606bbc4 f   LIBCMT:drive.obj
 0001:0006ac8d       __mbctolower_l             6606bc8d f   LIBCMT:mbtolwr.obj
 0001:0006ad33       __mbctolower               6606bd33 f   LIBCMT:mbtolwr.obj
 0001:0006ad46       __mbspbrk_l                6606bd46 f   LIBCMT:mbspbrk.obj
 0001:0006ae13       __mbspbrk                  6606be13 f   LIBCMT:mbspbrk.obj
 0001:0006ae2c       __openfile                 6606be2c f   LIBCMT:_open.obj
 0001:0006b0f5       __getstream                6606c0f5 f   LIBCMT:stream.obj
 0001:0006b230       __trandisp1                6606c230 f   LIBCMT:_87disp_.obj
 0001:0006b297       __trandisp2                6606c297 f   LIBCMT:_87disp_.obj
 0001:0006b323       __rttospopde               6606c323     LIBCMT:_87disp_.obj
 0001:0006b328       __rttospop                 6606c328     LIBCMT:_87disp_.obj
 0001:0006b32a       __rtnospop                 6606c32a     LIBCMT:_87disp_.obj
 0001:0006b32c       __rttosnpop                6606c32c     LIBCMT:_87disp_.obj
 0001:0006b32d       __rtnospopde               6606c32d     LIBCMT:_87disp_.obj
 0001:0006b334       __rtzeropop                6606c334     LIBCMT:_87disp_.obj
 0001:0006b336       __rtzeronpop               6606c336     LIBCMT:_87disp_.obj
 0001:0006b33b       __rtonepop                 6606c33b     LIBCMT:_87disp_.obj
 0001:0006b33d       __rtonenpop                6606c33d     LIBCMT:_87disp_.obj
 0001:0006b342       __tosnan1                  6606c342     LIBCMT:_87disp_.obj
 0001:0006b36d       __nosnan2                  6606c36d     LIBCMT:_87disp_.obj
 0001:0006b36f       __tosnan2                  6606c36f     LIBCMT:_87disp_.obj
 0001:0006b397       __nan2                     6606c397     LIBCMT:_87disp_.obj
 0001:0006b3d6       __rtindfpop                6606c3d6     LIBCMT:_87disp_.obj
 0001:0006b3d8       __rtindfnpop               6606c3d8     LIBCMT:_87disp_.obj
 0001:0006b3e9       __rttosnpopde              6606c3e9     LIBCMT:_87disp_.obj
 0001:0006b3f3       __rtchsifneg               6606c3f3     LIBCMT:_87disp_.obj
 0001:0006b400       __startTwoArgErrorHandling 6606c400 f   LIBCMT:_genexcep_.obj
 0001:0006b417       __startOneArgErrorHandling 6606c417 f   LIBCMT:_genexcep_.obj
 0001:0006b460       __twoToTOS                 6606c460 f   LIBCMT:_common_.obj
 0001:0006b475       __load_CW                  6606c475 f   LIBCMT:_common_.obj
 0001:0006b48c       __convertTOStoQNaN         6606c48c f   LIBCMT:_common_.obj
 0001:0006b4a5       __fload_withFB             6606c4a5 f   LIBCMT:_common_.obj
 0001:0006b4e8       __checkTOS_withFB          6606c4e8 f   LIBCMT:_common_.obj
 0001:0006b4fe       __fast_exit                6606c4fe f   LIBCMT:_common_.obj
 0001:0006b50b       __math_exit                6606c50b f   LIBCMT:_common_.obj
 0001:0006b535       __check_overflow_exit      6606c535 f   LIBCMT:_common_.obj
 0001:0006b549       __check_range_exit         6606c549 f   LIBCMT:_common_.obj
 0001:0006b5ec       _strcpy_s                  6606c5ec f   LIBCMT:strcpy_s.obj
 0001:0006b654       __iswctype_l               6606c654 f   LIBCMT:iswctype.obj
 0001:0006b6de       _iswctype                  6606c6de f   LIBCMT:iswctype.obj
 0001:0006b760       __aulldiv                  6606c760 f   LIBCMT:ulldiv.obj
 0001:0006b7c8       _strnlen                   6606c7c8 f   LIBCMT:strlen_s.obj
 0001:0006b7f0       __alloca_probe_16          6606c7f0 f   LIBCMT:alloca16.obj
 0001:0006b806       __alloca_probe_8           6606c806     LIBCMT:alloca16.obj
 0001:0006b81c       __wchartodigit             6606c81c f   LIBCMT:wchtodig.obj
 0001:0006b9f7       __sse2_mathfcns_init       6606c9f7 f   LIBCMT:_mathfcns_.obj
 0001:0006ba10       __CIsin_pentium4           6606ca10 f   LIBCMT:_sin_pentium4_.obj
 0001:0006ba28       __sin_pentium4             6606ca28     LIBCMT:_sin_pentium4_.obj
 0001:0006bbe0       __CIcos_pentium4           6606cbe0 f   LIBCMT:_cos_pentium4_.obj
 0001:0006bbf8       __cos_pentium4             6606cbf8     LIBCMT:_cos_pentium4_.obj
 0001:0006bd8c       __setenvp                  6606cd8c f   LIBCMT:stdenvp.obj
 0001:0006c004       __setargv                  6606d004 f   LIBCMT:stdargv.obj
 0001:0006c0bf       ___crtGetEnvironmentStringsA 6606d0bf f   LIBCMT:a_env.obj
 0001:0006c1f6       __RTC_Initialize           6606d1f6 f   LIBCMT:_initsect_.obj
 0001:0006c21c       __RTC_Terminate            6606d21c f   LIBCMT:_initsect_.obj
 0001:0006c242       __initp_misc_winxfltr      6606d242 f   LIBCMT:winxfltr.obj
 0001:0006c242       __fpclear                  6606d242 f   LIBCMT:_fpinit_.obj
 0001:0006c243       __XcptFilter               6606d243 f   LIBCMT:winxfltr.obj
 0001:0006c3a3       ___CppXcptFilter           6606d3a3 f   LIBCMT:winxfltr.obj
 0001:0006c3c3       ___security_init_cookie    6606d3c3 f   LIBCMT:gs_support.obj
 0001:0006c613       ___crtGetStringTypeA       6606d613 f   LIBCMT:a_str.obj
 0001:0006c655       ___free_lc_time            6606d655 f   LIBCMT:inittime.obj
 0001:0006c7ea       ___free_lconv_num          6606d7ea f   LIBCMT:initnum.obj
 0001:0006c82f       ___free_lconv_mon          6606d82f f   LIBCMT:initmon.obj
 0001:0006c8bd       ____lc_codepage_func       6606d8bd f   LIBCMT:initctyp.obj
 0001:0006c8e3       _strcat_s                  6606d8e3 f   LIBCMT:strcat_s.obj
 0001:0006c960       _strcspn                   6606d960 f   LIBCMT:strcspn.obj
 0001:0006c9a6       _strncpy_s                 6606d9a6 f   LIBCMT:strncpy_s.obj
 0001:0006ca60       _strcmp                    6606da60 f   LIBCMT:strcmp.obj
 0001:0006cae8       _strncmp                   6606dae8 f   LIBCMT:strncmp.obj
 0001:0006cbb0       _strpbrk                   6606dbb0 f   LIBCMT:strpbrk.obj
 0001:0006cbf0       __crt_debugger_hook        6606dbf0 f   LIBCMT:dbghook.obj
 0001:0006cbf8       __putwch_nolock            6606dbf8 f   LIBCMT:putwch.obj
 0001:0006ccbd       __mbtowc_l                 6606dcbd f   LIBCMT:mbtowc.obj
 0001:0006cdd4       _mbtowc                    6606ddd4 f   LIBCMT:mbtowc.obj
 0001:0006cdee       __isatty                   6606ddee f   LIBCMT:isatty.obj
 0001:0006ce52       __lseeki64_nolock          6606de52 f   LIBCMT:lseeki64.obj
 0001:0006ced7       __lseeki64                 6606ded7 f   LIBCMT:lseeki64.obj
 0001:0006cff0       __set_osfhnd               6606dff0 f   LIBCMT:osfinfo.obj
 0001:0006d071       __free_osfhnd              6606e071 f   LIBCMT:osfinfo.obj
 0001:0006d0f7       __get_osfhandle            6606e0f7 f   LIBCMT:osfinfo.obj
 0001:0006d16e       ___lock_fhandle            6606e16e f   LIBCMT:osfinfo.obj
 0001:0006d20e       __unlock_fhandle           6606e20e f   LIBCMT:osfinfo.obj
 0001:0006d235       __alloc_osfhnd             6606e235 f   LIBCMT:osfinfo.obj
 0001:0006d3cf       __initp_misc_initcrit      6606e3cf f   LIBCMT:initcrit.obj
 0001:0006d3de       ___crtInitCritSecAndSpinCount 6606e3de f   LIBCMT:initcrit.obj
 0001:0006d43e       __wctomb_s_l               6606e43e f   LIBCMT:wctomb.obj
 0001:0006d5aa       _wctomb_s                  6606e5aa f   LIBCMT:wctomb.obj
 0001:0006d5d0       __aulldvrm                 6606e5d0 f   LIBCMT:ulldvrm.obj
 0001:0006d665       __getbuf                   6606e665 f   LIBCMT:_getbuf.obj
 0001:0006d6ae       ___ansicp                  6606e6ae f   LIBCMT:convrtcp.obj
 0001:0006d6f7       ___convertcp               6606e6f7 f   LIBCMT:convrtcp.obj
 0001:0006d8ab       __calloc_impl              6606e8ab f   LIBCMT:calloc_impl.obj
 0001:0006d9c9       __recalloc                 6606e9c9 f   LIBCMT:recalloc.obj
 0001:0006da44       ?terminate@@YAXXZ          6606ea44 f   LIBCMT:hooks.obj
 0001:0006da7d       __initp_eh_hooks           6606ea7d f   LIBCMT:hooks.obj
 0001:0006da8e       __initp_misc_winsig        6606ea8e f   LIBCMT:winsig.obj
 0001:0006dae3       ___get_sigabrt             6606eae3 f   LIBCMT:winsig.obj
 0001:0006daf0       _raise                     6606eaf0 f   LIBCMT:winsig.obj
 0001:0006dca0       __initp_misc_rand_s        6606eca0 f   LIBCMT:rand_s.obj
 0001:0006dcaf       __initp_misc_purevirt      6606ecaf f   LIBCMT:inithelp.obj
 0001:0006dcbe       __atodbl_l                 6606ecbe f   LIBCMT:atodbl.obj
 0001:0006dd66       __atoflt_l                 6606ed66 f   LIBCMT:atodbl.obj
 0001:0006de0e       __fptostr                  6606ee0e f   LIBCMT:_fptostr.obj
 0001:0006decd       ___dtold                   6606eecd f   LIBCMT:_cfout_.obj
 0001:0006df8a       __fltout2                  6606ef8a f   LIBCMT:_cfout_.obj
 0001:0006e020       __alldvrm                  6606f020 f   LIBCMT:lldvrm.obj
 0001:0006e100       __aullshr                  6606f100 f   LIBCMT:ullshr.obj
 0001:0006e11f       __fptrap                   6606f11f f   LIBCMT:crt0fp.obj
 0001:0006e128       __controlfp_s              6606f128 f   LIBCMT:_contrlfp_.obj
 0001:0006e194       __global_unwind2           6606f194 f   LIBCMT:exsup.obj
 0001:0006e1f9       __local_unwind2            6606f1f9 f   LIBCMT:exsup.obj
 0001:0006e27d       __abnormal_termination     6606f27d f   LIBCMT:exsup.obj
 0001:0006e2a0       __NLG_Notify1              6606f2a0 f   LIBCMT:exsup.obj
 0001:0006e2a9       __NLG_Notify               6606f2a9 f   LIBCMT:exsup.obj
 0001:0006e2c0       __NLG_Dispatch             6606f2c0     LIBCMT:exsup.obj
 0001:0006e2c0       __NLG_Dispatch2            6606f2c0     LIBCMT:exsup.obj
 0001:0006e2c8       __NLG_Call                 6606f2c8 f   LIBCMT:exsup.obj
 0001:0006e2ca       __NLG_Return2              6606f2ca     LIBCMT:exsup.obj
 0001:0006e2cb       ___crtMessageBoxA          6606f2cb f   LIBCMT:crtmbox.obj
 0001:0006e434       __set_error_mode           6606f434 f   LIBCMT:errmode.obj
 0001:0006e47f       ?_Type_info_dtor@type_info@@CAXPAV1@@Z 6606f47f f   LIBCMT:typname.obj
 0001:0006e4ef       __msize                    6606f4ef f   LIBCMT:msize.obj
 0001:0006e592       __validdrive               6606f592 f   LIBCMT:getcwd.obj
 0001:0006e5cb       __getdcwd_nolock           6606f5cb f   LIBCMT:getcwd.obj
 0001:0006e702       __getcwd                   6606f702 f   LIBCMT:getcwd.obj
 0001:0006e74b       _calloc                    6606f74b f   LIBCMT:calloc.obj
 0001:0006e78b       __mbsicmp_l                6606f78b f   LIBCMT:mbsicmp.obj
 0001:0006e9b1       __mbsicmp                  6606f9b1 f   LIBCMT:mbsicmp.obj
 0001:0006e9c8       __mbsrchr_l                6606f9c8 f   LIBCMT:mbsrchr.obj
 0001:0006ea84       __mbsrchr                  6606fa84 f   LIBCMT:mbsrchr.obj
 0001:0006ea9b       __set_daylight             6606fa9b f i LIBCMT:tzset.obj
 0001:0006eaac       __set_dstbias              6606faac f i LIBCMT:tzset.obj
 0001:0006eabd       __set_timezone             6606fabd f i LIBCMT:tzset.obj
 0001:0006f1e3       ___tzset                   660701e3 f   LIBCMT:tzset.obj
 0001:0006f232       __isindst                  66070232 f   LIBCMT:tzset.obj
 0001:0006f273       __get_daylight             66070273 f   LIBCMT:timeset.obj
 0001:0006f2ac       __get_dstbias              660702ac f   LIBCMT:timeset.obj
 0001:0006f2e5       __get_timezone             660702e5 f   LIBCMT:timeset.obj
 0001:0006f31e       ___daylight                6607031e f   LIBCMT:timeset.obj
 0001:0006f324       ___dstbias                 66070324 f   LIBCMT:timeset.obj
 0001:0006f32a       ___timezone                6607032a f   LIBCMT:timeset.obj
 0001:0006f330       ___tzname                  66070330 f   LIBCMT:timeset.obj
 0001:0006f340       __allmul                   66070340 f   LIBCMT:llmul.obj
 0001:0006fa93       __sopen_helper             66070a93 f   LIBCMT:open.obj
 0001:0006fb5f       __sopen_s                  66070b5f f   LIBCMT:open.obj
 0001:0006fb7f       __mbsnbicmp_l              66070b7f f   LIBCMT:mbsnbicm.obj
 0001:0006fdaa       __mbsnbicmp                66070daa f   LIBCMT:mbsnbicm.obj
 0001:0006fdc4       __mbsnbcmp_l               66070dc4 f   LIBCMT:mbsnbcmp.obj
 0001:0006ff2e       __mbsnbcmp                 66070f2e f   LIBCMT:mbsnbcmp.obj
 0001:0006ff48       __87except                 66070f48 f   LIBCMT:_87except_.obj
 0001:00070087       ___crtGetStringTypeW       66071087 f   LIBCMT:w_str.obj
 0001:00070118       __ismbblead                66071118 f   LIBCMT:ismbbyte.obj
 0001:00070130       _atol                      66071130 f   LIBCMT:atox.obj
 0001:00070146       __strnicmp_l               66071146 f   LIBCMT:strnicmp.obj
 0001:00070238       __strnicmp                 66071238 f   LIBCMT:strnicmp.obj
 0001:00070296       ___initconout              66071296 f   LIBCMT:initcon.obj
 0001:000702b5       ___termcon                 660712b5 f   LIBCMT:initcon.obj
 0001:000702e2       _abort                     660712e2 f   LIBCMT:abort.obj
 0001:000703f9       __ld12tod                  660713f9 f   LIBCMT:_intrncvt_.obj
 0001:0007093d       __ld12tof                  6607193d f   LIBCMT:_intrncvt_.obj
 0001:00070e81       ___strgtold12_l            66071e81 f   LIBCMT:_strgtold_.obj
 0001:00071579       _$I10_OUTPUT               66072579 f   LIBCMT:_x10fout_.obj
 0001:00071fcb       __control87                66072fcb f i LIBCMT:_ieee87_.obj
 0001:000722da       __getenv_helper_nolock     660732da f   LIBCMT:getenv.obj
 0001:00072361       __chsize_nolock            66073361 f   LIBCMT:chsize.obj
 0001:00072517       __setmode_nolock           66073517 f   LIBCMT:setmode.obj
 0001:000725d3       __get_fmode                660735d3 f   LIBCMT:setmode.obj
 0001:0007260c       __raise_exc_ex             6607360c f   LIBCMT:_fpexcept_.obj
 0001:000728e8       __raise_exc                660738e8 f   LIBCMT:_fpexcept_.obj
 0001:0007290b       __handle_exc               6607390b f   LIBCMT:_fpexcept_.obj
 0001:00072aed       __set_errno_from_matherr   66073aed f   LIBCMT:_fpexcept_.obj
 0001:00072b1a       __matherr                  66073b1a f   LIBCMT:_matherr_.obj
 0001:00072b1d       __statfp                   66073b1d f   LIBCMT:_fpctrl_.obj
 0001:00072b2d       __clrfp                    66073b2d f   LIBCMT:_fpctrl_.obj
 0001:00072b3e       __ctrlfp                   66073b3e f   LIBCMT:_fpctrl_.obj
 0001:00072b67       __set_statfp               66073b67 f   LIBCMT:_fpctrl_.obj
 0001:00072bbf       ___set_fpsr_sse2           66073bbf f   LIBCMT:_fpctrl_.obj
 0001:00072c40       ___ascii_strnicmp          66073c40 f   LIBCMT:_strnicm.obj
 0001:00072ca1       ___mtold12                 66073ca1 f   LIBCMT:_mantold_.obj
 0001:00072e6f       __mbsnbicoll_l             66073e6f f   LIBCMT:mbsnbico.obj
 0001:00072f5d       __mbsnbicoll               66073f5d f   LIBCMT:mbsnbico.obj
 0001:00072f77       ___wtomb_environ           66073f77 f   LIBCMT:wtombenv.obj
 0001:0007300e       __set_exp                  6607400e f   LIBCMT:_util_.obj
 0001:0007303a       __decomp                   6607403a f   LIBCMT:_util_.obj
 0001:00073481       ___crtCompareStringA       66074481 f   LIBCMT:a_cmp.obj
 0001:000734c3       __strnicoll_l              660744c3 f   LIBCMT:strnicol.obj
 0001:00073669       ___crtsetenv               66074669 f   LIBCMT:setenv.obj
 0001:000738b4       __mbschr_l                 660748b4 f   LIBCMT:mbschr.obj
 0001:00073970       __mbschr                   66074970 f   LIBCMT:mbschr.obj
 0001:00073988       _ImmAssociateContext@8     66074988 f   imm32:IMM32.dll
 0001:0007398e       _RtlUnwind@16              6607498e f   kernel32:KERNEL32.dll
 0002:00000000       __imp__ImmAssociateContext@8 66075000     imm32:IMM32.dll
 0002:00000004       \177IMM32_NULL_THUNK_DATA  66075004     imm32:IMM32.dll
 0002:00000008       __imp__IsBadReadPtr@8      66075008     kernel32:KERNEL32.dll
 0002:0000000c       __imp__MultiByteToWideChar@24 6607500c     kernel32:KERNEL32.dll
 0002:00000010       __imp__QueryPerformanceFrequency@4 66075010     kernel32:KERNEL32.dll
 0002:00000014       __imp__HeapCreate@12       66075014     kernel32:KERNEL32.dll
 0002:00000018       __imp__HeapDestroy@4       66075018     kernel32:KERNEL32.dll
 0002:0000001c       __imp__QueryPerformanceCounter@4 6607501c     kernel32:KERNEL32.dll
 0002:00000020       __imp__GetCommandLineA@0   66075020     kernel32:KERNEL32.dll
 0002:00000024       __imp__GetModuleFileNameA@12 66075024     kernel32:KERNEL32.dll
 0002:00000028       __imp__DeleteFileA@4       66075028     kernel32:KERNEL32.dll
 0002:0000002c       __imp__HeapFree@12         6607502c     kernel32:KERNEL32.dll
 0002:00000030       __imp__WideCharToMultiByte@32 66075030     kernel32:KERNEL32.dll
 0002:00000034       __imp__DisableThreadLibraryCalls@4 66075034     kernel32:KERNEL32.dll
 0002:00000038       __imp__LoadLibraryA@4      66075038     kernel32:KERNEL32.dll
 0002:0000003c       __imp__GetModuleHandleA@4  6607503c     kernel32:KERNEL32.dll
 0002:00000040       __imp__VirtualProtect@16   66075040     kernel32:KERNEL32.dll
 0002:00000044       __imp__WriteProcessMemory@20 66075044     kernel32:KERNEL32.dll
 0002:00000048       __imp__GetCurrentProcess@0 66075048     kernel32:KERNEL32.dll
 0002:0000004c       __imp__GetProcAddress@8    6607504c     kernel32:KERNEL32.dll
 0002:00000050       __imp__IsBadWritePtr@8     66075050     kernel32:KERNEL32.dll
 0002:00000054       __imp__LCMapStringA@24     66075054     kernel32:KERNEL32.dll
 0002:00000058       __imp__GetProcessTimes@20  66075058     kernel32:KERNEL32.dll
 0002:0000005c       __imp__GetSystemTimeAsFileTime@4 6607505c     kernel32:KERNEL32.dll
 0002:00000060       __imp__IsBadCodePtr@4      66075060     kernel32:KERNEL32.dll
 0002:00000064       __imp__Sleep@4             66075064     kernel32:KERNEL32.dll
 0002:00000068       __imp__GetTickCount@0      66075068     kernel32:KERNEL32.dll
 0002:0000006c       __imp__GetLocalTime@4      6607506c     kernel32:KERNEL32.dll
 0002:00000070       __imp__CreateFileA@28      66075070     kernel32:KERNEL32.dll
 0002:00000074       __imp__WriteFile@20        66075074     kernel32:KERNEL32.dll
 0002:00000078       __imp__SetFilePointer@16   66075078     kernel32:KERNEL32.dll
 0002:0000007c       __imp__CloseHandle@4       6607507c     kernel32:KERNEL32.dll
 0002:00000080       __imp__GetFileSize@8       66075080     kernel32:KERNEL32.dll
 0002:00000084       __imp__GetCurrentProcessId@0 66075084     kernel32:KERNEL32.dll
 0002:00000088       __imp__GlobalFree@4        66075088     kernel32:KERNEL32.dll
 0002:0000008c       __imp__GlobalUnlock@4      6607508c     kernel32:KERNEL32.dll
 0002:00000090       __imp__GlobalLock@4        66075090     kernel32:KERNEL32.dll
 0002:00000094       __imp__GlobalAlloc@8       66075094     kernel32:KERNEL32.dll
 0002:00000098       __imp__HeapAlloc@12        66075098     kernel32:KERNEL32.dll
 0002:0000009c       __imp__FindNextFileA@8     6607509c     kernel32:KERNEL32.dll
 0002:000000a0       __imp__FindFirstFileA@8    660750a0     kernel32:KERNEL32.dll
 0002:000000a4       __imp__GetFileAttributesA@4 660750a4     kernel32:KERNEL32.dll
 0002:000000a8       __imp__CompareStringW@24   660750a8     kernel32:KERNEL32.dll
 0002:000000ac       __imp__CompareStringA@24   660750ac     kernel32:KERNEL32.dll
 0002:000000b0       __imp__GetProcessHeap@0    660750b0     kernel32:KERNEL32.dll
 0002:000000b4       __imp__SetEndOfFile@4      660750b4     kernel32:KERNEL32.dll
 0002:000000b8       __imp__GetTimeZoneInformation@4 660750b8     kernel32:KERNEL32.dll
 0002:000000bc       __imp__HeapSize@12         660750bc     kernel32:KERNEL32.dll
 0002:000000c0       __imp__InitializeCriticalSectionAndSpinCount@8 660750c0     kernel32:KERNEL32.dll
 0002:000000c4       __imp__SetStdHandle@8      660750c4     kernel32:KERNEL32.dll
 0002:000000c8       __imp__WriteConsoleW@20    660750c8     kernel32:KERNEL32.dll
 0002:000000cc       __imp__GetConsoleOutputCP@0 660750cc     kernel32:KERNEL32.dll
 0002:000000d0       __imp__WriteConsoleA@20    660750d0     kernel32:KERNEL32.dll
 0002:000000d4       __imp__GetLocaleInfoA@16   660750d4     kernel32:KERNEL32.dll
 0002:000000d8       __imp__GetStringTypeW@16   660750d8     kernel32:KERNEL32.dll
 0002:000000dc       __imp__GetStringTypeA@20   660750dc     kernel32:KERNEL32.dll
 0002:000000e0       __imp__GetEnvironmentStringsW@0 660750e0     kernel32:KERNEL32.dll
 0002:000000e4       __imp__FreeEnvironmentStringsW@4 660750e4     kernel32:KERNEL32.dll
 0002:000000e8       __imp__GetEnvironmentStrings@0 660750e8     kernel32:KERNEL32.dll
 0002:000000ec       __imp__FreeEnvironmentStringsA@4 660750ec     kernel32:KERNEL32.dll
 0002:000000f0       __imp__GetCurrentDirectoryA@8 660750f0     kernel32:KERNEL32.dll
 0002:000000f4       __imp__GetFullPathNameA@16 660750f4     kernel32:KERNEL32.dll
 0002:000000f8       __imp__RaiseException@16   660750f8     kernel32:KERNEL32.dll
 0002:000000fc       __imp__ReadFile@20         660750fc     kernel32:KERNEL32.dll
 0002:00000100       __imp__SetEnvironmentVariableA@8 66075100     kernel32:KERNEL32.dll
 0002:00000104       __imp__CreateDirectoryA@8  66075104     kernel32:KERNEL32.dll
 0002:00000108       __imp__HeapReAlloc@16      66075108     kernel32:KERNEL32.dll
 0002:0000010c       __imp__GetLastError@0      6607510c     kernel32:KERNEL32.dll
 0002:00000110       __imp__EnterCriticalSection@4 66075110     kernel32:KERNEL32.dll
 0002:00000114       __imp__LeaveCriticalSection@4 66075114     kernel32:KERNEL32.dll
 0002:00000118       __imp__FindClose@4         66075118     kernel32:KERNEL32.dll
 0002:0000011c       __imp__FileTimeToSystemTime@8 6607511c     kernel32:KERNEL32.dll
 0002:00000120       __imp__FileTimeToLocalFileTime@8 66075120     kernel32:KERNEL32.dll
 0002:00000124       __imp__GetDriveTypeA@4     66075124     kernel32:KERNEL32.dll
 0002:00000128       __imp__MoveFileA@8         66075128     kernel32:KERNEL32.dll
 0002:0000012c       __imp__GetCurrentThreadId@0 6607512c     kernel32:KERNEL32.dll
 0002:00000130       __imp__GetCPInfo@8         66075130     kernel32:KERNEL32.dll
 0002:00000134       __imp__InterlockedIncrement@4 66075134     kernel32:KERNEL32.dll
 0002:00000138       __imp__InterlockedDecrement@4 66075138     kernel32:KERNEL32.dll
 0002:0000013c       __imp__GetACP@0            6607513c     kernel32:KERNEL32.dll
 0002:00000140       __imp__GetOEMCP@0          66075140     kernel32:KERNEL32.dll
 0002:00000144       __imp__IsValidCodePage@4   66075144     kernel32:KERNEL32.dll
 0002:00000148       __imp__GetModuleHandleW@4  66075148     kernel32:KERNEL32.dll
 0002:0000014c       __imp__TlsGetValue@4       6607514c     kernel32:KERNEL32.dll
 0002:00000150       __imp__TlsAlloc@0          66075150     kernel32:KERNEL32.dll
 0002:00000154       __imp__TlsSetValue@8       66075154     kernel32:KERNEL32.dll
 0002:00000158       __imp__TlsFree@4           66075158     kernel32:KERNEL32.dll
 0002:0000015c       __imp__SetLastError@4      6607515c     kernel32:KERNEL32.dll
 0002:00000160       __imp__TerminateProcess@8  66075160     kernel32:KERNEL32.dll
 0002:00000164       __imp__UnhandledExceptionFilter@4 66075164     kernel32:KERNEL32.dll
 0002:00000168       __imp__SetUnhandledExceptionFilter@4 66075168     kernel32:KERNEL32.dll
 0002:0000016c       __imp__IsDebuggerPresent@0 6607516c     kernel32:KERNEL32.dll
 0002:00000170       __imp__GetConsoleCP@0      66075170     kernel32:KERNEL32.dll
 0002:00000174       __imp__GetConsoleMode@8    66075174     kernel32:KERNEL32.dll
 0002:00000178       __imp__FlushFileBuffers@4  66075178     kernel32:KERNEL32.dll
 0002:0000017c       __imp__DeleteCriticalSection@4 6607517c     kernel32:KERNEL32.dll
 0002:00000180       __imp__SetHandleCount@4    66075180     kernel32:KERNEL32.dll
 0002:00000184       __imp__GetStdHandle@4      66075184     kernel32:KERNEL32.dll
 0002:00000188       __imp__GetFileType@4       66075188     kernel32:KERNEL32.dll
 0002:0000018c       __imp__GetStartupInfoA@4   6607518c     kernel32:KERNEL32.dll
 0002:00000190       __imp__VirtualFree@12      66075190     kernel32:KERNEL32.dll
 0002:00000194       __imp__VirtualAlloc@16     66075194     kernel32:KERNEL32.dll
 0002:00000198       __imp__LCMapStringW@24     66075198     kernel32:KERNEL32.dll
 0002:0000019c       __imp__ExitProcess@4       6607519c     kernel32:KERNEL32.dll
 0002:000001a0       __imp__RtlUnwind@16        660751a0     kernel32:KERNEL32.dll
 0002:000001a4       \177KERNEL32_NULL_THUNK_DATA 660751a4     kernel32:KERNEL32.dll
 0002:000001a8       __imp__GetWindowRect@8     660751a8     user32:USER32.dll
 0002:000001ac       __imp__AdjustWindowRectEx@16 660751ac     user32:USER32.dll
 0002:000001b0       __imp__SetWindowPos@28     660751b0     user32:USER32.dll
 0002:000001b4       __imp__GetClassNameA@12    660751b4     user32:USER32.dll
 0002:000001b8       __imp__OpenClipboard@4     660751b8     user32:USER32.dll
 0002:000001bc       __imp__EmptyClipboard@0    660751bc     user32:USER32.dll
 0002:000001c0       __imp__SetClipboardData@8  660751c0     user32:USER32.dll
 0002:000001c4       __imp__CloseClipboard@0    660751c4     user32:USER32.dll
 0002:000001c8       __imp__SetCursorPos@8      660751c8     user32:USER32.dll
 0002:000001cc       __imp__GetKeyState@4       660751cc     user32:USER32.dll
 0002:000001d0       __imp__PostMessageA@16     660751d0     user32:USER32.dll
 0002:000001d4       __imp__SetWindowTextA@8    660751d4     user32:USER32.dll
 0002:000001d8       __imp__GetWindowLongA@8    660751d8     user32:USER32.dll
 0002:000001dc       __imp__SetWindowLongA@12   660751dc     user32:USER32.dll
 0002:000001e0       __imp__ShowWindow@8        660751e0     user32:USER32.dll
 0002:000001e4       __imp__GetWindowPlacement@8 660751e4     user32:USER32.dll
 0002:000001e8       __imp__GetClipCursor@4     660751e8     user32:USER32.dll
 0002:000001ec       __imp__GetClientRect@8     660751ec     user32:USER32.dll
 0002:000001f0       __imp__ClientToScreen@8    660751f0     user32:USER32.dll
 0002:000001f4       __imp__ClipCursor@4        660751f4     user32:USER32.dll
 0002:000001f8       __imp__GetDesktopWindow@0  660751f8     user32:USER32.dll
 0002:000001fc       __imp__GetWindowInfo@8     660751fc     user32:USER32.dll
 0002:00000200       __imp__SendMessageA@16     66075200     user32:USER32.dll
 0002:00000204       __imp__wvsprintfW@12       66075204     user32:USER32.dll
 0002:00000208       __imp__wvsprintfA@12       66075208     user32:USER32.dll
 0002:0000020c       __imp__MessageBoxA@16      6607520c     user32:USER32.dll
 0002:00000210       __imp__wsprintfW           66075210     user32:USER32.dll
 0002:00000214       __imp__SetForegroundWindow@4 66075214     user32:USER32.dll
 0002:00000218       \177USER32_NULL_THUNK_DATA 66075218     user32:USER32.dll
 0002:0000021c       ___xc_a                    6607521c     LIBCMT:crt0init.obj
 0002:00000220       ___xc_z                    66075220     LIBCMT:crt0init.obj
 0002:00000224       ___xi_a                    66075224     LIBCMT:crt0init.obj
 0002:0000023c       ___xi_z                    6607523c     LIBCMT:crt0init.obj
 0002:00000240       ___xp_a                    66075240     LIBCMT:crt0init.obj
 0002:0000024c       ___xp_z                    6607524c     LIBCMT:crt0init.obj
 0002:00000250       ___xt_a                    66075250     LIBCMT:crt0init.obj
 0002:00000254       ___xt_z                    66075254     LIBCMT:crt0init.obj
 0002:00000fe0       __real@408f400000000000    66075fe0     config.obj
 0002:00001230       __real@4014000000000000    66076230     guess.obj
 0002:00001238       __real@4052c00000000000    66076238     guess.obj
 0002:00001240       __real@4039000000000000    66076240     guess.obj
 0002:00001248       __real@3fe0000000000000    66076248     guess.obj
 0002:00001250       __real@4008000000000000    66076250     guess.obj
 0002:00001258       __real@4040000000000000    66076258     guess.obj
 0002:00001260       __real@4059000000000000    66076260     guess.obj
 0002:00001268       __real@4010000000000000    66076268     guess.obj
 0002:00009238       __real@4022000000000000    6607e238     common.obj
 0002:00009240       __real@4070000000000000    6607e240     common.obj
 0002:00009248       __real@3fd999999999999a    6607e248     common.obj
 0002:00009ac8       __real@412e848000000000    6607eac8     loop.obj
 0002:0000ce60       __real@4024000000000000    66081e60     GameMonitor.obj
 0002:0000e248       __real@3ff8000000000000    66083248     item.obj
 0002:00012d0c       __real@41200000            66087d0c     skill.obj
 0002:00012d10       __real@41e80000            66087d10     skill.obj
 0002:00012d14       __real@41d00000            66087d14     skill.obj
 0002:00012d18       __real@41c00000            66087d18     skill.obj
 0002:00012d1c       __real@41f00000            66087d1c     skill.obj
 0002:00012d20       __real@41f80000            66087d20     skill.obj
 0002:00012d24       __real@41000000            66087d24     skill.obj
 0002:00012d28       __real@41a00000            66087d28     skill.obj
 0002:00012d2c       __real@41980000            66087d2c     skill.obj
 0002:00012d30       __real@40a00000            66087d30     skill.obj
 0002:00012d38       __real@0000000000000000    66087d38     skill.obj
 0002:00012d40       __real@42040000            66087d40     skill.obj
 0002:00014548       __real@40c3880000000000    66089548     Snapshot.obj
 0002:00014550       __real@4054400000000000    66089550     Snapshot.obj
 0002:00014558       __real@4020000000000000    66089558     Snapshot.obj
 0002:00014560       __real@40a0000000000000    66089560     Snapshot.obj
 0002:00015100       __real@401c000000000000    6608a100     teleport.obj
 0002:000165c8       __real@40f0000000000000    6608b5c8     uber.obj
 0002:000165d0       __real@401921fb3fa6defc    6608b5d0     uber.obj
 0002:000165f8       __FPinit                   6608b5f8     LIBCMT:_fpinit_.obj
 0002:000165fc       __FPmtinit                 6608b5fc     LIBCMT:_fpinit_.obj
 0002:00016600       __FPmtterm                 6608b600     LIBCMT:_fpinit_.obj
 0002:00016604       ??_C@_0P@GHFPNOJB@bad?5allocation?$AA@ 6608b604     LIBCMT:new.obj
 0002:00016618       ??_7bad_alloc@std@@6B@     6608b618     LIBCMT:new.obj
 0002:00016620       ??_C@_03LLEJOLGL@?4?1?2?$AA@ 6608b620     LIBCMT:stati32.obj
 0002:00016624       ??_C@_02EAOCEIGI@?$DP?$CK?$AA@ 6608b624     LIBCMT:stati32.obj
 0002:00016628       __pRawDllMain              6608b628     LIBCMT:dllcrt0.obj
 0002:00016628       __pDefaultRawDllMain       6608b628     LIBCMT:dllcrt0.obj
 0002:000166b0       ??_C@_01NEMOKFLO@?$DN?$AA@ 6608b6b0     LIBCMT:setlocal.obj
 0002:000166b2       ??_C@_00CNPNBAHC@?$AA@     6608b6b2     LIBCMT:setlocal.obj
 0002:000166b4       ??_C@_0O@NLDKAIKN@EncodePointer?$AA@ 6608b6b4     LIBCMT:tidtable.obj
 0002:000166c4       ??_C@_1BK@DBDEIDLH@?$AAK?$AAE?$AAR?$AAN?$AAE?$AAL?$AA3?$AA2?$AA?4?$AAD?$AAL?$AAL?$AA?$AA@ 6608b6c4     LIBCMT:tidtable.obj
 0002:000166e0       ??_C@_0O@KBPMFGHI@DecodePointer?$AA@ 6608b6e0     LIBCMT:tidtable.obj
 0002:000166f0       ??_C@_07PEJMOBNF@FlsFree?$AA@ 6608b6f0     LIBCMT:tidtable.obj
 0002:000166f8       ??_C@_0M@JCPCPOEF@FlsSetValue?$AA@ 6608b6f8     LIBCMT:tidtable.obj
 0002:00016704       ??_C@_0M@GDNOONDI@FlsGetValue?$AA@ 6608b704     LIBCMT:tidtable.obj
 0002:00016710       ??_C@_08KNHFBNJ@FlsAlloc?$AA@ 6608b710     LIBCMT:tidtable.obj
 0002:0001671c       ??_C@_1O@CEDCILHN@?$AA?$CI?$AAn?$AAu?$AAl?$AAl?$AA?$CJ?$AA?$AA@ 6608b71c     LIBCMT:output.obj
 0002:0001672c       ??_C@_06OJHGLDPL@?$CInull?$CJ?$AA@ 6608b72c     LIBCMT:output.obj
 0002:00016738       ___lookuptable             6608b738     LIBCMT:output.obj
 0002:0001679c       ??_C@_13NOLLCAOD@?$AA?$AA?$AA?$AA@ 6608b79c     LIBCMT:a_map.obj
 0002:000167a0       ??_C@_0P@MIGLKIOC@CorExitProcess?$AA@ 6608b7a0     LIBCMT:crt0dat.obj
 0002:000167b0       ??_C@_1BI@BGOHAHKC@?$AAm?$AAs?$AAc?$AAo?$AAr?$AAe?$AAe?$AA?4?$AAd?$AAl?$AAl?$AA?$AA@ 6608b7b0     LIBCMT:crt0dat.obj
 0002:000167c8       ??_C@_05KLBDPFGC@e?$CL000?$AA@ 6608b7c8     LIBCMT:cvt.obj
 0002:000167d0       __real@4150017ec0000000    6608b7d0     LIBCMT:_testfdiv_.obj
 0002:000167d8       __real@4147ffff80000000    6608b7d8     LIBCMT:_testfdiv_.obj
 0002:000167e0       ??_C@_0BK@NHEOCAHP@IsProcessorFeaturePresent?$AA@ 6608b7e0     LIBCMT:_testfdiv_.obj
 0002:000167fc       ??_C@_08CPNIBGIE@KERNEL32?$AA@ 6608b7fc     LIBCMT:_testfdiv_.obj
 0002:00016808       ??_C@_0P@GGKDKEEG@runtime?5error?5?$AA@ 6608b808     LIBCMT:crt0msg.obj
 0002:00016818       ??_C@_02PCIJFNDE@?$AN?6?$AA@ 6608b818     LIBCMT:crt0msg.obj
 0002:0001681c       ??_C@_0O@MJNIPGOH@TLOSS?5error?$AN?6?$AA@ 6608b81c     LIBCMT:crt0msg.obj
 0002:0001682c       ??_C@_0N@BONNPDHF@SING?5error?$AN?6?$AA@ 6608b82c     LIBCMT:crt0msg.obj
 0002:0001683c       ??_C@_0P@MBDAJNE@DOMAIN?5error?$AN?6?$AA@ 6608b83c     LIBCMT:crt0msg.obj
 0002:00016850       ??_C@_0JL@DFDOOABL@R6034?$AN?6An?5application?5has?5made?5a@ 6608b850     LIBCMT:crt0msg.obj
 0002:000168f0       ??_C@_0PH@EPAFIJ@R6033?$AN?6?9?5Attempt?5to?5use?5MSIL?5cod@ 6608b8f0     LIBCMT:crt0msg.obj
 0002:000169e8       ??_C@_0DD@BKEEABMM@R6032?$AN?6?9?5not?5enough?5space?5for?5lo@ 6608b9e8     LIBCMT:crt0msg.obj
 0002:00016a20       ??_C@_0GD@OFKILIED@R6031?$AN?6?9?5Attempt?5to?5initialize?5t@ 6608ba20     LIBCMT:crt0msg.obj
 0002:00016a84       ??_C@_0BP@LPMHJOKI@R6030?$AN?6?9?5CRT?5not?5initialized?$AN?6?$AA@ 6608ba84     LIBCMT:crt0msg.obj
 0002:00016aa4       ??_C@_0CF@KJDAIALP@R6028?$AN?6?9?5unable?5to?5initialize?5he@ 6608baa4     LIBCMT:crt0msg.obj
 0002:00016acc       ??_C@_0DF@GAKBPDFP@R6027?$AN?6?9?5not?5enough?5space?5for?5lo@ 6608bacc     LIBCMT:crt0msg.obj
 0002:00016b04       ??_C@_0DF@IBLNNAIG@R6026?$AN?6?9?5not?5enough?5space?5for?5st@ 6608bb04     LIBCMT:crt0msg.obj
 0002:00016b3c       ??_C@_0CG@IOHKGFNJ@R6025?$AN?6?9?5pure?5virtual?5function?5c@ 6608bb3c     LIBCMT:crt0msg.obj
 0002:00016b64       ??_C@_0DF@JIJJFJDC@R6024?$AN?6?9?5not?5enough?5space?5for?5_o@ 6608bb64     LIBCMT:crt0msg.obj
 0002:00016b9c       ??_C@_0CJ@EGEJHFME@R6019?$AN?6?9?5unable?5to?5open?5console?5@ 6608bb9c     LIBCMT:crt0msg.obj
 0002:00016bc8       ??_C@_0CB@GNHNIELH@R6018?$AN?6?9?5unexpected?5heap?5error?$AN?6@ 6608bbc8     LIBCMT:crt0msg.obj
 0002:00016bec       ??_C@_0CN@FOLDKNG@R6017?$AN?6?9?5unexpected?5multithread?5@ 6608bbec     LIBCMT:crt0msg.obj
 0002:00016c1c       ??_C@_0CM@FAHFJNHO@R6016?$AN?6?9?5not?5enough?5space?5for?5th@ 6608bc1c     LIBCMT:crt0msg.obj
 0002:00016c48       ??_C@_0JG@LBKMGKLD@?$AN?6This?5application?5has?5requested@ 6608bc48     LIBCMT:crt0msg.obj
 0002:00016ce0       ??_C@_0CM@FLCNIPKK@R6009?$AN?6?9?5not?5enough?5space?5for?5en@ 6608bce0     LIBCMT:crt0msg.obj
 0002:00016d0c       ??_C@_0CK@KMMJOAPP@R6008?$AN?6?9?5not?5enough?5space?5for?5ar@ 6608bd0c     LIBCMT:crt0msg.obj
 0002:00016d38       ??_C@_0CN@LEKKICBM@R6002?$AN?6?9?5floating?5point?5support?5@ 6608bd38     LIBCMT:crt0msg.obj
 0002:00016d68       ??_C@_0CF@GOGNBNAK@Microsoft?5Visual?5C?$CL?$CL?5Runtime?5Lib@ 6608bd68     LIBCMT:crt0msg.obj
 0002:00016d90       ??_C@_02PHMGELLB@?6?6?$AA@ 6608bd90     LIBCMT:crt0msg.obj
 0002:00016d94       ??_C@_03KHICJKCI@?4?4?4?$AA@ 6608bd94     LIBCMT:crt0msg.obj
 0002:00016d98       ??_C@_0BH@DNAGHKFM@?$DMprogram?5name?5unknown?$DO?$AA@ 6608bd98     LIBCMT:crt0msg.obj
 0002:00016db0       ??_C@_0BK@OFGJDLJJ@Runtime?5Error?$CB?6?6Program?3?5?$AA@ 6608bdb0     LIBCMT:crt0msg.obj
 0002:00016dd0       ??_7exception@std@@6B@     6608bdd0     LIBCMT:stdexcpt.obj
 0002:00016dd8       ??_C@_0BC@EOODALEL@Unknown?5exception?$AA@ 6608bdd8     LIBCMT:stdexcpt.obj
 0002:00016df0       ??_7type_info@@6B@         6608bdf0     LIBCMT:typinfo.obj
 0002:00016e14       ??_C@_04PNGHFIJN@?4com?$AA@ 6608be14     LIBCMT:stat.obj
 0002:00016e1c       ??_C@_04NEEFLLOK@?4bat?$AA@ 6608be1c     LIBCMT:stat.obj
 0002:00016e24       ??_C@_04CPCBDHLK@?4cmd?$AA@ 6608be24     LIBCMT:stat.obj
 0002:00016e2c       ??_C@_04JLMDILM@?4exe?$AA@ 6608be2c     LIBCMT:stat.obj
 0002:00016e68       __DEFAULT_CW_in_mem        6608be68     LIBCMT:_common_.obj
 0002:00016e6a       __pi_by_2_to_61            6608be6a     LIBCMT:_common_.obj
 0002:00018000       __XcptActTab               6608d000     LIBCMT:winxfltr.obj
 0002:00018078       ___newctype                6608d078     LIBCMT:ctype.obj
 0002:00018378       __wctype                   6608d378     LIBCMT:ctype.obj
 0002:00018580       ___newclmap                6608d580     LIBCMT:ctype.obj
 0002:00018700       ___newcumap                6608d700     LIBCMT:ctype.obj
 0002:00018880       ??_C@_08JCCMCCIL@HH?3mm?3ss?$AA@ 6608d880     LIBCMT:strftime.obj
 0002:0001888c       ??_C@_0BE@CKGJFCPC@dddd?0?5MMMM?5dd?0?5yyyy?$AA@ 6608d88c     LIBCMT:strftime.obj
 0002:000188a0       ??_C@_08BPBNCDIB@MM?1dd?1yy?$AA@ 6608d8a0     LIBCMT:strftime.obj
 0002:000188ac       ??_C@_02CJNFDJBF@PM?$AA@   6608d8ac     LIBCMT:strftime.obj
 0002:000188b0       ??_C@_02DEDBPAFC@AM?$AA@   6608d8b0     LIBCMT:strftime.obj
 0002:000188b4       ??_C@_08EDHMEBNP@December?$AA@ 6608d8b4     LIBCMT:strftime.obj
 0002:000188c0       ??_C@_08HCHEGEOA@November?$AA@ 6608d8c0     LIBCMT:strftime.obj
 0002:000188cc       ??_C@_07JJNFCEND@October?$AA@ 6608d8cc     LIBCMT:strftime.obj
 0002:000188d4       ??_C@_09BHHEALKD@September?$AA@ 6608d8d4     LIBCMT:strftime.obj
 0002:000188e0       ??_C@_06LBBHFDDG@August?$AA@ 6608d8e0     LIBCMT:strftime.obj
 0002:000188e8       ??_C@_04MIEPOIFP@July?$AA@ 6608d8e8     LIBCMT:strftime.obj
 0002:000188f0       ??_C@_04CNLMGBGM@June?$AA@ 6608d8f0     LIBCMT:strftime.obj
 0002:000188f8       ??_C@_05DMJDNLEJ@April?$AA@ 6608d8f8     LIBCMT:strftime.obj
 0002:00018900       ??_C@_05HPCKOFNC@March?$AA@ 6608d900     LIBCMT:strftime.obj
 0002:00018908       ??_C@_08GNJGEPFN@February?$AA@ 6608d908     LIBCMT:strftime.obj
 0002:00018914       ??_C@_07CGJPFGJA@January?$AA@ 6608d914     LIBCMT:strftime.obj
 0002:0001891c       ??_C@_03MKABNOCG@Dec?$AA@  6608d91c     LIBCMT:strftime.obj
 0002:00018920       ??_C@_03JPJOFNIA@Nov?$AA@  6608d920     LIBCMT:strftime.obj
 0002:00018924       ??_C@_03BMAOKBAD@Oct?$AA@  6608d924     LIBCMT:strftime.obj
 0002:00018928       ??_C@_03GGCAPAJC@Sep?$AA@  6608d928     LIBCMT:strftime.obj
 0002:0001892c       ??_C@_03IFJFEIGA@Aug?$AA@  6608d92c     LIBCMT:strftime.obj
 0002:00018930       ??_C@_03LBGABGKK@Jul?$AA@  6608d930     LIBCMT:strftime.obj
 0002:00018934       ??_C@_03IDFGHECI@Jun?$AA@  6608d934     LIBCMT:strftime.obj
 0002:00018938       ??_C@_03CNMDKL@May?$AA@    6608d938     LIBCMT:strftime.obj
 0002:0001893c       ??_C@_03LEOLGMJP@Apr?$AA@  6608d93c     LIBCMT:strftime.obj
 0002:00018940       ??_C@_03ODNJBKGA@Mar?$AA@  6608d940     LIBCMT:strftime.obj
 0002:00018944       ??_C@_03HJBDCHOM@Feb?$AA@  6608d944     LIBCMT:strftime.obj
 0002:00018948       ??_C@_03JIHJHPIE@Jan?$AA@  6608d948     LIBCMT:strftime.obj
 0002:0001894c       ??_C@_08INBOOONO@Saturday?$AA@ 6608d94c     LIBCMT:strftime.obj
 0002:00018958       ??_C@_06JECMNKMI@Friday?$AA@ 6608d958     LIBCMT:strftime.obj
 0002:00018960       ??_C@_08HACCIKIA@Thursday?$AA@ 6608d960     LIBCMT:strftime.obj
 0002:0001896c       ??_C@_09DLIGFAKA@Wednesday?$AA@ 6608d96c     LIBCMT:strftime.obj
 0002:00018978       ??_C@_07BAAGCFCM@Tuesday?$AA@ 6608d978     LIBCMT:strftime.obj
 0002:00018980       ??_C@_06JLEDEDGH@Monday?$AA@ 6608d980     LIBCMT:strftime.obj
 0002:00018988       ??_C@_06OOPIFAJ@Sunday?$AA@ 6608d988     LIBCMT:strftime.obj
 0002:00018990       ??_C@_03FEFJNEK@Sat?$AA@   6608d990     LIBCMT:strftime.obj
 0002:00018994       ??_C@_03IDIOELNC@Fri?$AA@  6608d994     LIBCMT:strftime.obj
 0002:00018998       ??_C@_03IOFIKPDN@Thu?$AA@  6608d998     LIBCMT:strftime.obj
 0002:0001899c       ??_C@_03MHOMLAJA@Wed?$AA@  6608d99c     LIBCMT:strftime.obj
 0002:000189a0       ??_C@_03NAGEINEP@Tue?$AA@  6608d9a0     LIBCMT:strftime.obj
 0002:000189a4       ??_C@_03PDAGKDH@Mon?$AA@   6608d9a4     LIBCMT:strftime.obj
 0002:000189a8       ??_C@_03KOEHGMDN@Sun?$AA@  6608d9a8     LIBCMT:strftime.obj
 0002:000189b0       ___lookuptable_s           6608d9b0     LIBCMT:outputs.obj
 0002:00018a0c       ??_C@_0BI@DFKBFLJE@GetProcessWindowStation?$AA@ 6608da0c     LIBCMT:crtmbox.obj
 0002:00018a24       ??_C@_0BK@CIDNPOGP@GetUserObjectInformationA?$AA@ 6608da24     LIBCMT:crtmbox.obj
 0002:00018a40       ??_C@_0BD@HHGDFDBJ@GetLastActivePopup?$AA@ 6608da40     LIBCMT:crtmbox.obj
 0002:00018a54       ??_C@_0BA@HNOPNCHB@GetActiveWindow?$AA@ 6608da54     LIBCMT:crtmbox.obj
 0002:00018a64       ??_C@_0M@CHKKJDAI@MessageBoxA?$AA@ 6608da64     LIBCMT:crtmbox.obj
 0002:00018a70       ??_C@_0L@NDEGIDAG@USER32?4DLL?$AA@ 6608da70     LIBCMT:crtmbox.obj
 0002:00018a7c       ??_C@_02CLFPBFFP@TZ?$AA@   6608da7c     LIBCMT:tzset.obj
 0002:00018a80       ___dnames                  6608da80     LIBCMT:timeset.obj
 0002:00018a98       ___mnames                  6608da98     LIBCMT:timeset.obj
 0002:00018ac0       ??_C@_07GPDNMNG@CONOUT$?$AA@ 6608dac0     LIBCMT:initcon.obj
 0002:00018ac8       ??_C@_06IMKFLFPG@1?$CDQNAN?$AA@ 6608dac8     LIBCMT:_x10fout_.obj
 0002:00018ad0       ??_C@_05DNEBIAHO@1?$CDINF?$AA@ 6608dad0     LIBCMT:_x10fout_.obj
 0002:00018ad8       ??_C@_05PHHOCPM@1?$CDIND?$AA@ 6608dad8     LIBCMT:_x10fout_.obj
 0002:00018ae0       ??_C@_06PGGFOGJG@1?$CDSNAN?$AA@ 6608dae0     LIBCMT:_x10fout_.obj
 0002:00018ae8       ??_C@_0BK@CFCOFLF@?5Complete?5Object?5Locator?8?$AA@ 6608dae8     LIBCMT:undname.obj
 0002:00018b04       ??_C@_0BN@MECKDCOJ@?5Class?5Hierarchy?5Descriptor?8?$AA@ 6608db04     LIBCMT:undname.obj
 0002:00018b24       ??_C@_0BD@LGICGFMM@?5Base?5Class?5Array?8?$AA@ 6608db24     LIBCMT:undname.obj
 0002:00018b38       ??_C@_0BM@LDKODKLH@?5Base?5Class?5Descriptor?5at?5?$CI?$AA@ 6608db38     LIBCMT:undname.obj
 0002:00018b54       ??_C@_0BC@DAFEJGAK@?5Type?5Descriptor?8?$AA@ 6608db54     LIBCMT:undname.obj
 0002:00018b68       ??_C@_0BM@PMGGMLDN@?$GAlocal?5static?5thread?5guard?8?$AA@ 6608db68     LIBCMT:undname.obj
 0002:00018b84       ??_C@_0CL@FGIJHLCE@?$GAmanaged?5vector?5copy?5constructor@ 6608db84     LIBCMT:undname.obj
 0002:00018bb0       ??_C@_0CJ@GJELGAMM@?$GAvector?5vbase?5copy?5constructor?5i@ 6608dbb0     LIBCMT:undname.obj
 0002:00018bdc       ??_C@_0CD@CGAJBKEJ@?$GAvector?5copy?5constructor?5iterato@ 6608dbdc     LIBCMT:undname.obj
 0002:00018c00       ??_C@_0CB@PDBIFEP@?$GAdynamic?5atexit?5destructor?5for?5?8@ 6608dc00     LIBCMT:undname.obj
 0002:00018c24       ??_C@_0BL@CLIPGLGB@?$GAdynamic?5initializer?5for?5?8?$AA@ 6608dc24     LIBCMT:undname.obj
 0002:00018c40       ??_C@_0CM@FCBBDIGB@?$GAeh?5vector?5vbase?5copy?5constructo@ 6608dc40     LIBCMT:undname.obj
 0002:00018c6c       ??_C@_0CG@HLDDJMAG@?$GAeh?5vector?5copy?5constructor?5iter@ 6608dc6c     LIBCMT:undname.obj
 0002:00018c94       ??_C@_0CF@IMGKMJNO@?$GAmanaged?5vector?5destructor?5itera@ 6608dc94     LIBCMT:undname.obj
 0002:00018cbc       ??_C@_0CG@CFDHKGGD@?$GAmanaged?5vector?5constructor?5iter@ 6608dcbc     LIBCMT:undname.obj
 0002:00018ce4       ??_C@_0BN@CKNJLHMB@?$GAplacement?5delete?$FL?$FN?5closure?8?$AA@ 6608dce4     LIBCMT:undname.obj
 0002:00018d04       ??_C@_0BL@CNOONJFP@?$GAplacement?5delete?5closure?8?$AA@ 6608dd04     LIBCMT:undname.obj
 0002:00018d20       ??_C@_0P@HJKNJFNN@?$GAomni?5callsig?8?$AA@ 6608dd20     LIBCMT:undname.obj
 0002:00018d30       ??_C@_09LBNFPBCA@?5delete?$FL?$FN?$AA@ 6608dd30     LIBCMT:undname.obj
 0002:00018d3c       ??_C@_06FHBGPFGH@?5new?$FL?$FN?$AA@ 6608dd3c     LIBCMT:undname.obj
 0002:00018d44       ??_C@_0CE@IIHCMGGL@?$GAlocal?5vftable?5constructor?5closu@ 6608dd44     LIBCMT:undname.obj
 0002:00018d68       ??_C@_0BA@KKLDJDLB@?$GAlocal?5vftable?8?$AA@ 6608dd68     LIBCMT:undname.obj
 0002:00018d78       ??_C@_05KHLCHHI@?$GARTTI?$AA@ 6608dd78     LIBCMT:undname.obj
 0002:00018d80       ??_C@_03KLGMFNMG@?$GAEH?$AA@ 6608dd80     LIBCMT:undname.obj
 0002:00018d84       ??_C@_0BA@KBCDOMBN@?$GAudt?5returning?8?$AA@ 6608dd84     LIBCMT:undname.obj
 0002:00018d94       ??_C@_0BL@LLKPOHJI@?$GAcopy?5constructor?5closure?8?$AA@ 6608dd94     LIBCMT:undname.obj
 0002:00018db0       ??_C@_0CH@OOJPLCPH@?$GAeh?5vector?5vbase?5constructor?5ite@ 6608ddb0     LIBCMT:undname.obj
 0002:00018dd8       ??_C@_0CA@GCEOPDGL@?$GAeh?5vector?5destructor?5iterator?8?$AA@ 6608ddd8     LIBCMT:undname.obj
 0002:00018df8       ??_C@_0CB@JONCMFFK@?$GAeh?5vector?5constructor?5iterator?8@ 6608ddf8     LIBCMT:undname.obj
 0002:00018e1c       ??_C@_0BL@NILFHHPC@?$GAvirtual?5displacement?5map?8?$AA@ 6608de1c     LIBCMT:undname.obj
 0002:00018e38       ??_C@_0CE@IKBNEHA@?$GAvector?5vbase?5constructor?5iterat@ 6608de38     LIBCMT:undname.obj
 0002:00018e5c       ??_C@_0BN@LFPFMEDL@?$GAvector?5destructor?5iterator?8?$AA@ 6608de5c     LIBCMT:undname.obj
 0002:00018e7c       ??_C@_0BO@PFGOCPJJ@?$GAvector?5constructor?5iterator?8?$AA@ 6608de7c     LIBCMT:undname.obj
 0002:00018e9c       ??_C@_0BN@IMDCHIKM@?$GAscalar?5deleting?5destructor?8?$AA@ 6608de9c     LIBCMT:undname.obj
 0002:00018ebc       ??_C@_0BO@OBMKPJIG@?$GAdefault?5constructor?5closure?8?$AA@ 6608debc     LIBCMT:undname.obj
 0002:00018edc       ??_C@_0BN@DEGPLNFK@?$GAvector?5deleting?5destructor?8?$AA@ 6608dedc     LIBCMT:undname.obj
 0002:00018efc       ??_C@_0BD@JDLKDPAB@?$GAvbase?5destructor?8?$AA@ 6608defc     LIBCMT:undname.obj
 0002:00018f10       ??_C@_08OBABFOLI@?$GAstring?8?$AA@ 6608df10     LIBCMT:undname.obj
 0002:00018f1c       ??_C@_0BF@KDPPACIK@?$GAlocal?5static?5guard?8?$AA@ 6608df1c     LIBCMT:undname.obj
 0002:00018f34       ??_C@_08LLFFHHDJ@?$GAtypeof?8?$AA@ 6608df34     LIBCMT:undname.obj
 0002:00018f40       ??_C@_07FEEIOKP@?$GAvcall?8?$AA@ 6608df40     LIBCMT:undname.obj
 0002:00018f48       ??_C@_09BLBHBJP@?$GAvbtable?8?$AA@ 6608df48     LIBCMT:undname.obj
 0002:00018f54       ??_C@_09IFPLHPGF@?$GAvftable?8?$AA@ 6608df54     LIBCMT:undname.obj
 0002:00018f60       ??_C@_02MHEGNOJ@?$FO?$DN?$AA@ 6608df60     LIBCMT:undname.obj
 0002:00018f64       ??_C@_02DHLNPPGH@?$HM?$DN?$AA@ 6608df64     LIBCMT:undname.obj
 0002:00018f68       ??_C@_02FGJGFEAB@?$CG?$DN?$AA@ 6608df68     LIBCMT:undname.obj
 0002:00018f6c       ??_C@_03CDNPDDLA@?$DM?$DM?$DN?$AA@ 6608df6c     LIBCMT:undname.obj
 0002:00018f70       ??_C@_03IKFCCPFF@?$DO?$DO?$DN?$AA@ 6608df70     LIBCMT:undname.obj
 0002:00018f74       ??_C@_02FENAOKFI@?$CF?$DN?$AA@ 6608df74     LIBCMT:undname.obj
 0002:00018f78       ??_C@_02FJEHGPIO@?1?$DN?$AA@ 6608df78     LIBCMT:undname.obj
 0002:00018f7c       ??_C@_02FKMDLLOA@?9?$DN?$AA@ 6608df7c     LIBCMT:undname.obj
 0002:00018f80       ??_C@_02FOEOMHFC@?$CL?$DN?$AA@ 6608df80     LIBCMT:undname.obj
 0002:00018f84       ??_C@_02FPIMKNGF@?$CK?$DN?$AA@ 6608df84     LIBCMT:undname.obj
 0002:00018f88       ??_C@_02NONPIBCD@?$HM?$HM?$AA@ 6608df88     LIBCMT:undname.obj
 0002:00018f8c       ??_C@_02PPKAJPJL@?$CG?$CG?$AA@ 6608df8c     LIBCMT:undname.obj
 0002:00018f90       ??_C@_01DNKMNLPK@?$HM?$AA@ 6608df90     LIBCMT:undname.obj
 0002:00018f94       ??_C@_01JKBOJNNK@?$FO?$AA@ 6608df94     LIBCMT:undname.obj
 0002:00018f98       ??_C@_01PJKLJHI@?$HO?$AA@  6608df98     LIBCMT:undname.obj
 0002:00018f9c       ??_C@_02HCKGKOFO@?$CI?$CJ?$AA@ 6608df9c     LIBCMT:undname.obj
 0002:00018fa0       ??_C@_01IHBHIGKO@?0?$AA@   6608dfa0     LIBCMT:undname.obj
 0002:00018fa4       ??_C@_02EEKDKGMJ@?$DO?$DN?$AA@ 6608dfa4     LIBCMT:undname.obj
 0002:00018fa8       ??_C@_01PPODPGHN@?$DO?$AA@ 6608dfa8     LIBCMT:undname.obj
 0002:00018fac       ??_C@_02EHCHHCKH@?$DM?$DN?$AA@ 6608dfac     LIBCMT:undname.obj
 0002:00018fb0       ??_C@_01MNNFJEPP@?$DM?$AA@ 6608dfb0     LIBCMT:undname.obj
 0002:00018fb4       ??_C@_01FGNFDNOH@?$CF?$AA@ 6608dfb4     LIBCMT:undname.obj
 0002:00018fb8       ??_C@_01KMDKNFGN@?1?$AA@   6608dfb8     LIBCMT:undname.obj
 0002:00018fbc       ??_C@_03MNHNFDLC@?9?$DO?$CK?$AA@ 6608dfbc     LIBCMT:undname.obj
 0002:00018fc0       ??_C@_01HNPIGOCE@?$CG?$AA@ 6608dfc0     LIBCMT:undname.obj
 0002:00018fc4       ??_C@_01MIFGBAGJ@?$CL?$AA@ 6608dfc4     LIBCMT:undname.obj
 0002:00018fc8       ??_C@_01JOAMLHOP@?9?$AA@   6608dfc8     LIBCMT:undname.obj
 0002:00018fcc       ??_C@_02BAABKJLB@?9?9?$AA@ 6608dfcc     LIBCMT:undname.obj
 0002:00018fd0       ??_C@_02ECNGHCIF@?$CL?$CL?$AA@ 6608dfd0     LIBCMT:undname.obj
 0002:00018fd4       ??_C@_01NBENCBCI@?$CK?$AA@ 6608dfd4     LIBCMT:undname.obj
 0002:00018fd8       ??_C@_02HBOOOICD@?9?$DO?$AA@ 6608dfd8     LIBCMT:undname.obj
 0002:00018fdc       ??_C@_08LHJFAFGD@operator?$AA@ 6608dfdc     LIBCMT:undname.obj
 0002:00018fe8       ??_C@_02GPECMEKF@?$FL?$FN?$AA@ 6608dfe8     LIBCMT:undname.obj
 0002:00018fec       ??_C@_02FDNJECIE@?$CB?$DN?$AA@ 6608dfec     LIBCMT:undname.obj
 0002:00018ff0       ??_C@_02EGOFBIJA@?$DN?$DN?$AA@ 6608dff0     LIBCMT:undname.obj
 0002:00018ff4       ??_C@_01DCLJPIOD@?$CB?$AA@ 6608dff4     LIBCMT:undname.obj
 0002:00018ff8       ??_C@_02FODMEDOG@?$DM?$DM?$AA@ 6608dff8     LIBCMT:undname.obj
 0002:00018ffc       ??_C@_02GPIOPFAK@?$DO?$DO?$AA@ 6608dffc     LIBCMT:undname.obj
 0002:00019000       ??_C@_07FPCDHGMM@?5delete?$AA@ 6608e000     LIBCMT:undname.obj
 0002:00019008       ??_C@_04NIHEBCM@?5new?$AA@ 6608e008     LIBCMT:undname.obj
 0002:00019010       ??_C@_0M@GFIIJFMG@__unaligned?$AA@ 6608e010     LIBCMT:undname.obj
 0002:0001901c       ??_C@_0L@PILCLIHE@__restrict?$AA@ 6608e01c     LIBCMT:undname.obj
 0002:00019028       ??_C@_07JOMMBBKO@__ptr64?$AA@ 6608e028     LIBCMT:undname.obj
 0002:00019030       ??_C@_09HIJEGCPM@__clrcall?$AA@ 6608e030     LIBCMT:undname.obj
 0002:0001903c       ??_C@_0L@JMKHOMEK@__fastcall?$AA@ 6608e03c     LIBCMT:undname.obj
 0002:00019048       ??_C@_0L@NPHFGOKO@__thiscall?$AA@ 6608e048     LIBCMT:undname.obj
 0002:00019054       ??_C@_09IFJBGAPI@__stdcall?$AA@ 6608e054     LIBCMT:undname.obj
 0002:00019060       ??_C@_08GHMPAG@__pascal?$AA@ 6608e060     LIBCMT:undname.obj
 0002:0001906c       ??_C@_07KOLFKCDI@__cdecl?$AA@ 6608e06c     LIBCMT:undname.obj
 0002:00019074       ??_C@_08EHJDFFNH@__based?$CI?$AA@ 6608e074     LIBCMT:undname.obj
 0002:00019200       ??_C@_0L@KDOEJCKC@_nextafter?$AA@ 6608e200     LIBCMT:_fpexcept_.obj
 0002:0001920c       ??_C@_05JGDBENOH@_logb?$AA@ 6608e20c     LIBCMT:_fpexcept_.obj
 0002:00019214       ??_C@_03ONILCKOB@_yn?$AA@  6608e214     LIBCMT:_fpexcept_.obj
 0002:00019218       ??_C@_03NAKIGLHK@_y1?$AA@  6608e218     LIBCMT:_fpexcept_.obj
 0002:0001921c       ??_C@_03MJLDFKDL@_y0?$AA@  6608e21c     LIBCMT:_fpexcept_.obj
 0002:00019220       ??_C@_05GKKHEGJL@frexp?$AA@ 6608e220     LIBCMT:_fpexcept_.obj
 0002:00019228       ??_C@_04KEPJIHGP@fmod?$AA@ 6608e228     LIBCMT:_fpexcept_.obj
 0002:00019230       ??_C@_06MEIMCGCF@_hypot?$AA@ 6608e230     LIBCMT:_fpexcept_.obj
 0002:00019238       ??_C@_05KBKMEMPO@_cabs?$AA@ 6608e238     LIBCMT:_fpexcept_.obj
 0002:00019240       ??_C@_05CEJMAHNP@ldexp?$AA@ 6608e240     LIBCMT:_fpexcept_.obj
 0002:00019248       ??_C@_04EHEDPDJG@modf?$AA@ 6608e248     LIBCMT:_fpexcept_.obj
 0002:00019250       ??_C@_04ODHECPBC@fabs?$AA@ 6608e250     LIBCMT:_fpexcept_.obj
 0002:00019258       ??_C@_05PBJFFIGL@floor?$AA@ 6608e258     LIBCMT:_fpexcept_.obj
 0002:00019260       ??_C@_04GFPJNGEK@ceil?$AA@ 6608e260     LIBCMT:_fpexcept_.obj
 0002:00019268       ??_C@_03IIINPABG@tan?$AA@  6608e268     LIBCMT:_fpexcept_.obj
 0002:0001926c       ??_C@_03LALBNOCG@cos?$AA@  6608e26c     LIBCMT:_fpexcept_.obj
 0002:00019270       ??_C@_03BLEJJJBH@sin?$AA@  6608e270     LIBCMT:_fpexcept_.obj
 0002:00019274       ??_C@_04EIAKFFMI@sqrt?$AA@ 6608e274     LIBCMT:_fpexcept_.obj
 0002:0001927c       ??_C@_05KNGEOGJB@atan2?$AA@ 6608e27c     LIBCMT:_fpexcept_.obj
 0002:00019284       ??_C@_04MLLJIGOK@atan?$AA@ 6608e284     LIBCMT:_fpexcept_.obj
 0002:0001928c       ??_C@_04PDIFKINK@acos?$AA@ 6608e28c     LIBCMT:_fpexcept_.obj
 0002:00019294       ??_C@_04FIHNOPOL@asin?$AA@ 6608e294     LIBCMT:_fpexcept_.obj
 0002:0001929c       ??_C@_04FJHINJAO@tanh?$AA@ 6608e29c     LIBCMT:_fpexcept_.obj
 0002:000192a4       ??_C@_04HPJJNFIM@cosh?$AA@ 6608e2a4     LIBCMT:_fpexcept_.obj
 0002:000192ac       ??_C@_04COOMCNPB@sinh?$AA@ 6608e2ac     LIBCMT:_fpexcept_.obj
 0002:000192b4       ??_C@_05HGHHAHAP@log10?$AA@ 6608e2b4     LIBCMT:_fpexcept_.obj
 0002:000192bc       ??_C@_03MGHMBJCF@log?$AA@  6608e2bc     LIBCMT:_fpexcept_.obj
 0002:000192c0       ??_C@_03JGHBODFD@pow?$AA@  6608e2c0     LIBCMT:_fpexcept_.obj
 0002:000192c4       ??_C@_03KHJOGHMM@exp?$AA@  6608e2c4     LIBCMT:_fpexcept_.obj
 0002:000192c8       __load_config_used         6608e2c8     LIBCMT:loadcfg.obj
 0002:00019310       ??_R4bad_alloc@std@@6B@    6608e310     LIBCMT:new.obj
 0002:00019324       ??_R3bad_alloc@std@@8      6608e324     LIBCMT:new.obj
 0002:00019334       ??_R2bad_alloc@std@@8      6608e334     LIBCMT:new.obj
 0002:00019340       ??_R1A@?0A@EA@bad_alloc@std@@8 6608e340     LIBCMT:new.obj
 0002:0001935c       ??_R1A@?0A@EA@exception@std@@8 6608e35c     LIBCMT:new.obj
 0002:00019378       ??_R3exception@std@@8      6608e378     LIBCMT:new.obj
 0002:00019388       ??_R2exception@std@@8      6608e388     LIBCMT:new.obj
 0002:00019390       ??_R4exception@std@@6B@    6608e390     LIBCMT:stdexcpt.obj
 0002:000193a4       ??_R4type_info@@6B@        6608e3a4     LIBCMT:typinfo.obj
 0002:000193b8       ??_R3type_info@@8          6608e3b8     LIBCMT:typinfo.obj
 0002:000193c8       ??_R2type_info@@8          6608e3c8     LIBCMT:typinfo.obj
 0002:000193d0       ??_R1A@?0A@EA@type_info@@8 6608e3d0     LIBCMT:typinfo.obj
 0002:000193f0       ___safe_se_handler_table   6608e3f0     <linker-defined>
 0002:000193fc       ___rtc_iaa                 6608e3fc     LIBCMT:_initsect_.obj
 0002:00019400       ___rtc_izz                 6608e400     LIBCMT:_initsect_.obj
 0002:00019404       ___rtc_taa                 6608e404     LIBCMT:_initsect_.obj
 0002:00019408       ___rtc_tzz                 6608e408     LIBCMT:_initsect_.obj
 0002:000195fc       __TI2?AVbad_alloc@std@@    6608e5fc     LIBCMT:new.obj
 0002:0001960c       __CTA2?AVbad_alloc@std@@   6608e60c     LIBCMT:new.obj
 0002:00019618       __CT??_R0?AVbad_alloc@std@@@8??0bad_alloc@std@@QAE@ABV01@@Z12 6608e618     LIBCMT:new.obj
 0002:00019634       __CT??_R0?AVexception@std@@@8??0exception@std@@QAE@ABV01@@Z12 6608e634     LIBCMT:new.obj
 0002:00019b64       __IMPORT_DESCRIPTOR_KERNEL32 6608eb64     kernel32:KERNEL32.dll
 0002:00019b78       __IMPORT_DESCRIPTOR_USER32 6608eb78     user32:USER32.dll
 0002:00019b8c       __IMPORT_DESCRIPTOR_IMM32  6608eb8c     imm32:IMM32.dll
 0002:00019ba0       __NULL_IMPORT_DESCRIPTOR   6608eba0     kernel32:KERNEL32.dll
 0003:00000000       ?szRuntimePath@@3PADA      66090000     config.obj
 0003:00000100       ?fShowCheckInfo@@3HA       66090100     config.obj
 0003:00000104       ?fLoadItemColours@@3HA     66090104     config.obj
 0003:00000760       ?dwGameWindowId@@3HA       66090760     DllMain.obj
 0003:00000768       ?dwGameLng@@3HA            66090768     install.obj
 0003:0000076c       ?fFixSocketError@@3HA      6609076c     install.obj
 0003:00000770       ?tReloadDll@@3UToggleVar@@A 66090770     install.obj
 0003:000007a0       ?tReloadConfig@@3UToggleVar@@A 660907a0     install.obj
 0003:000007d0       ?tInstallPatches@@3UToggleVar@@A 660907d0     install.obj
 0003:0000099c       ?dwPetListChangeCount@@3HA 6609099c     common.obj
 0003:000009a0       ?skillTypes@@3PAY0BO@HA    660909a0     common.obj
 0003:00000ce8       ?tShowTestInfo@@3UToggleVar@@A 66090ce8     dbg.obj
 0003:00000d20       ?fPlayerInTown@@3HA        66090d20     loop.obj
 0003:00000d24       ?actlvls@@3PAHA            66090d24     loop.obj
 0003:00000d3c       ?dwCurrentLevel@@3HA       66090d3c     loop.obj
 0003:00000d40       ?dwLeftSkill@@3HA          66090d40     loop.obj
 0003:00000d44       ?dwRightSkill@@3HA         66090d44     loop.obj
 0003:00000d48       ?fCanUseLeftSkill@@3HA     66090d48     loop.obj
 0003:00000d4c       ?fCanUseRightSkill@@3HA    66090d4c     loop.obj
 0003:00000d50       ?dwSlowMs@@3HA             66090d50     loop.obj
 0003:00000d54       ?dwSlowSkipMs@@3HA         66090d54     loop.obj
 0003:00000e9c       ?dwAutoRevealMode@@3HA     66090e9c     map.obj
 0003:00000ea0       ?tRevealAct@@3UToggleVar@@A 66090ea0     map.obj
 0003:00000ed0       ?tRevealLevel@@3UToggleVar@@A 66090ed0     map.obj
 0003:00000f00       ?tPrevMapTarget@@3UToggleVar@@A 66090f00     map.obj
 0003:00000f30       ?tNextMapTarget@@3UToggleVar@@A 66090f30     map.obj
 0003:00000f60       ?tAutomapLevelNames@@3UToggleVar@@A 66090f60     map.obj
 0003:00000f90       ?tAutoMap@@3UToggleVar@@A  66090f90     map.obj
 0003:00000fc0       ?tMiniShrine@@3UToggleVar@@A 66090fc0     map.obj
 0003:00000ff0       ?tAutomapActiveRect@@3UToggleVar@@A 66090ff0     map.obj
 0003:00001020       ?tAutomapReadyRect@@3UToggleVar@@A 66091020     map.obj
 0003:00001050       ?tAutomapScreenArea@@3UToggleVar@@A 66091050     map.obj
 0003:00001080       ?nAutomapActiveRectColors@@3EA 66091080     map.obj
 0003:00001081       ?nAutomapReadyRectColors@@3EA 66091081     map.obj
 0003:00001082       ?nAutomapScreenColors@@3EA 66091082     map.obj
 0003:00001083       ?nMinimapSize@@3EA         66091083     map.obj
 0003:00001084       ?routeLineColor@@3EA       66091084     map.obj
 0003:00001085       ?fAutomapPartyDefault@@3EA 66091085     map.obj
 0003:00001086       ?fAutomapNamesDefault@@3EA 66091086     map.obj
 0003:00001087       ?nHostileMissileColor@@3EA 66091087     map.obj
 0003:00001088       ?tMinimapDirectLineToggle@@3UToggleVar@@A 66091088     map.obj
 0003:000010b8       ?tMinimapDebugToggle@@3UToggleVar@@A 660910b8     map.obj
 0003:000010e8       ?tAutomapCorpse@@3UToggleVar@@A 660910e8     map.obj
 0003:00001118       ?tAutomapMonsters@@3UToggleVar@@A 66091118     map.obj
 0003:00001148       ?tAutomapChests@@3UToggleVar@@A 66091148     map.obj
 0003:00001178       ?tAutomapMissiles@@3UToggleVar@@A 66091178     map.obj
 0003:000011a8       ?tAutomapItems@@3UToggleVar@@A 660911a8     map.obj
 0003:000011d8       ?nGuidedMissileColor@@3EA  660911d8     map.obj
 0003:000011d9       ?nTracerMissileColor@@3EA  660911d9     map.obj
 0003:000011da       ?nOtherMissileColor@@3EA   660911da     map.obj
 0003:000011db       ?nClosedChestColor@@3EA    660911db     map.obj
 0003:000011dc       ?nLockedChestColor@@3EA    660911dc     map.obj
 0003:000011dd       ?nNormalCorpseColor@@3EA   660911dd     map.obj
 0003:000011de       ?nBossCorpseColor@@3EA     660911de     map.obj
 0003:000011df       ?nMinionCorpseColor@@3EA   660911df     map.obj
 0003:000011e0       ?nChampionCorpseColor@@3EA 660911e0     map.obj
 0003:000011e1       ?nMonsterNormalColor@@3EA  660911e1     map.obj
 0003:000011e2       ?nMonsterBossColor@@3EA    660911e2     map.obj
 0003:000011e3       ?nMonsterMinionColor@@3EA  660911e3     map.obj
 0003:000011e4       ?nMonsterChampColor@@3EA   660911e4     map.obj
 0003:000011e5       ?nSuperUniqueColor@@3EA    660911e5     map.obj
 0003:000011e6       ?nNeutralPlayerColor@@3EA  660911e6     map.obj
 0003:000011e7       ?nHostilePlayerColor@@3EA  660911e7     map.obj
 0003:000011e8       ?nFriendMinionColor@@3EA   660911e8     map.obj
 0003:000011e9       ?nPlayerMinionColor@@3EA   660911e9     map.obj
 0003:000011ea       ?nPartyTextColour@@3EA     660911ea     map.obj
 0003:000011eb       ?nNeutralTextColour@@3EA   660911eb     map.obj
 0003:000011ec       ?nHostileTextColour@@3EA   660911ec     map.obj
 0003:000011ed       ?nMonsterTextCol@@3EA      660911ed     map.obj
 0003:000011f0       ?tBossNameToggle@@3UToggleVar@@A 660911f0     map.obj
 0003:00001220       ?tScreenshake@@3UToggleVar@@A 66091220     map.obj
 0003:00001250       ?tCenterMap@@3UToggleVar@@A 66091250     map.obj
 0003:00001280       ?nScrollMode@@3HA          66091280     map.obj
 0003:00001284       ?dwDuranceOfHateLevel3TeleportShift@@3PAHA 66091284     map.obj
 0003:00001290       ?dwDuranceOfHateLevel3TeleportShiftBugKM@@3PAHA 66091290     map.obj
 0003:000026c0       ?dwSocketTimeOutSec@@3HA   660926c0     packet.obj
 0003:000026c4       ?dwSocketTimeOut@@3HA      660926c4     packet.obj
 0003:000026c8       ?dwAddStatMaxCount@@3HA    660926c8     packet.obj
 0003:000026cc       ?tPacketHandler@@3UToggleVar@@A 660926cc     packet.obj
 0003:000026fc       ?tDoTest@@3UToggleVar@@A   660926fc     packet.obj
 0003:0000272c       ?tNecTeleportAttract@@3UToggleVar@@A 6609272c     packet.obj
 0003:0000275c       ?tHardCoreSwapWeaponProtect@@3UToggleVar@@A 6609275c     packet.obj
 0003:000028f0       ?tAutomapRouteInfo@@3UToggleVar@@A 660928f0     route.obj
 0003:00002920       ?tScreenRouteGuide@@3UToggleVar@@A 66092920     route.obj
 0003:00002950       ?tReroute@@3UToggleVar@@A  66092950     route.obj
 0003:00002b10       ?fWinActive@@3HA           66092b10     winmsg.obj
 0003:00002b14       ?dwQuickSwapItemDelayMs@@3HA 66092b14     winmsg.obj
 0003:00002b18       ?dwAutoCallToArm@@3HA      66092b18     winmsg.obj
 0003:00002b1c       ?tLockMouseToggle@@3UToggleVar@@A 66092b1c     winmsg.obj
 0003:00002b4c       ?tHardCoreEscapeProtect@@3UToggleVar@@A 66092b4c     winmsg.obj
 0003:00002b7c       ?tAutoHideMinimapToggle@@3UToggleVar@@A 66092b7c     winmsg.obj
 0003:00002bac       ?tAutoMinimapTeleportToggle@@3UToggleVar@@A 66092bac     winmsg.obj
 0003:00002bdc       ?tFullScreen@@3UToggleVar@@A 66092bdc     winmsg.obj
 0003:00002c0c       ?tFullScreenNoCaption@@3UToggleVar@@A 66092c0c     winmsg.obj
 0003:00002c3c       ?tResizeWindowBar@@3UToggleVar@@A 66092c3c     winmsg.obj
 0003:00002c6c       ?tAttractNPC@@3UToggleVar@@A 66092c6c     winmsg.obj
 0003:00002c9c       ?tEnableScreenSaver@@3UToggleVar@@A 66092c9c     winmsg.obj
 0003:00002ccc       ?tEnableMenuScreenSaver@@3UToggleVar@@A 66092ccc     winmsg.obj
 0003:00002cfc       ?tNoHide@@3UToggleVar@@A   66092cfc     winmsg.obj
 0003:00002d2c       ?tSaveGame@@3UToggleVar@@A 66092d2c     winmsg.obj
 0003:00003360       ?newTextBoxData@@3PAKA     66093360     winmsg.obj
 0003:00003390       ?tChangeVisualEffect@@3UToggleVar@@A 66093390     env.obj
 0003:000033c0       ?tWeather@@3UToggleVar@@A  660933c0     env.obj
 0003:000033f0       ?tHiddenCorpse@@3UToggleVar@@A 660933f0     env.obj
 0003:00003420       ?tSkipDrawToggle@@3UToggleVar@@A 66093420     env.obj
 0003:00003450       ?tHide3BB@@3UToggleVar@@A  66093450     env.obj
 0003:00003610       ?simpleItemStackTxt@@3HA   66093610     GameMonitor.obj
 0003:00003614       ?simpleItemStackIdx@@3HA   66093614     GameMonitor.obj
 0003:00003618       ?simpleItemStackStatId@@3HA 66093618     GameMonitor.obj
 0003:0000361c       ?changeStashPageCmd@@3HA   6609361c     GameMonitor.obj
 0003:00003620       ?changeStashPageCmdOffset@@3HA 66093620     GameMonitor.obj
 0003:00003624       ?changeStashPageCmdValue@@3HA 66093624     GameMonitor.obj
 0003:00003628       ?changeStashPageValueOffset@@3HA 66093628     GameMonitor.obj
 0003:00003674       ?tCountDown@@3UToggleVar@@A 66093674     GameMonitor.obj
 0003:000036a4       ?tDrawMultiPageStashCount@@3UToggleVar@@A 660936a4     GameMonitor.obj
 0003:000036d4       ?dwGameMonitorX@@3HA       660936d4     GameMonitor.obj
 0003:000036d8       ?dwGameMonitorY@@3HA       660936d8     GameMonitor.obj
 0003:000036dc       ?dwCountDownFontSize@@3HA  660936dc     GameMonitor.obj
 0003:000036e0       ?dwCountDownGap@@3HA       660936e0     GameMonitor.obj
 0003:000036e4       ?dwCountDownFlashSecond@@3HA 660936e4     GameMonitor.obj
 0003:000036e8       ?tKillCount@@3UToggleVar@@A 660936e8     GameMonitor.obj
 0003:00003718       ?tGetHitCount@@3UToggleVar@@A 66093718     GameMonitor.obj
 0003:00003748       ?tNecAutomapCorpsesToggle@@3UToggleVar@@A 66093748     GameMonitor.obj
 0003:00003778       ?tDrawBossHpToggle@@3UToggleVar@@A 66093778     GameMonitor.obj
 0003:000037a8       ?bossLineColor@@3HA        660937a8     GameMonitor.obj
 0003:000037ac       ?tDrawPlayerNameToggle@@3UToggleVar@@A 660937ac     GameMonitor.obj
 0003:000037dc       ?tAnalyzeMonsterExp@@3UToggleVar@@A 660937dc     GameMonitor.obj
 0003:0000380c       ?tLogMonsterExp@@3UToggleVar@@A 6609380c     GameMonitor.obj
 0003:0000383c       ?dwDrawPlayerNameDy@@3HA   6609383c     GameMonitor.obj
 0003:00003840       ?HasCowKing@@3HA           66093840     GameMonitor.obj
 0003:00003844       ?tShowPlayerCastPath@@3UToggleVar@@A 66093844     GameMonitor.obj
 0003:00003fb4       ?countDowns@@3PAPAUCountDown@@A 66093fb4     GameMonitor.obj
 0003:000040e8       ?tServerIp@@3UToggleVar@@A 660940e8     info.obj
 0003:00004118       ?tGameTime@@3UToggleVar@@A 66094118     info.obj
 0003:00004148       ?tClock@@3UToggleVar@@A    66094148     info.obj
 0003:00004178       ?tLayerLevelNo@@3UToggleVar@@A 66094178     info.obj
 0003:000041a8       ?tAreaLevel@@3UToggleVar@@A 660941a8     info.obj
 0003:000041d8       ?tPermShowOrb@@3UToggleVar@@A 660941d8     info.obj
 0003:00004208       ?tShowExp@@3UToggleVar@@A  66094208     info.obj
 0003:00004238       ?tShowPing@@3UToggleVar@@A 66094238     info.obj
 0003:00004268       ?tShowPartyPosition@@3UToggleVar@@A 66094268     info.obj
 0003:00004298       ?tShowPartyLevel@@3UToggleVar@@A 66094298     info.obj
 0003:000042c8       ?tViewEquipmentKey@@3UToggleVar@@A 660942c8     info.obj
 0003:000042f8       ?tViewPlayerStatsKey@@3UToggleVar@@A 660942f8     info.obj
 0003:00004328       ?tShowBaseStat@@3UToggleVar@@A 66094328     info.obj
 0003:00004358       ?tFirstPlayerStat@@3UToggleVar@@A 66094358     info.obj
 0003:00004388       ?tNextPlayerStat@@3UToggleVar@@A 66094388     info.obj
 0003:000043b8       ?tPrevPlayerStat@@3UToggleVar@@A 660943b8     info.obj
 0003:000046a8       ?szOrbPattern@@3PADA       660946a8     info.obj
 0003:000046ac       ?viewStatUnit@@3UViewUnitInfo@@A 660946ac     info.obj
 0003:000046bc       ?viewEquUnit@@3UViewUnitInfo@@A 660946bc     info.obj
 0003:000047a0       ?tLogMessage@@3UToggleVar@@A 660947a0     MessageLog.obj
 0003:000047d0       ?dwMessageFileSize@@3HA    660947d0     MessageLog.obj
 0003:00004830       ?anGoldGoodCol@@3PADA      66094830     item.obj
 0003:00004834       ?anGoldPoorCol@@3PADA      66094834     item.obj
 0003:00004838       ?tSwitchItemMode@@3UToggleVar@@A 66094838     item.obj
 0003:00004868       ?dwItemShowMode@@3HA       66094868     item.obj
 0003:0000486c       ?nQuestItemColour@@3EA     6609486c     item.obj
 0003:0000486d       ?nDefaultExtInfoColour@@3EA 6609486d     item.obj
 0003:00004870       ?tRuneNumbers@@3UToggleVar@@A 66094870     item.obj
 0003:000048a0       ?tSocketNumbers@@3UToggleVar@@A 660948a0     item.obj
 0003:000048d0       ?tItemLevel@@3UToggleVar@@A 660948d0     item.obj
 0003:00004900       ?tItemValue@@3UToggleVar@@A 66094900     item.obj
 0003:00004930       ?tItemIndex@@3UToggleVar@@A 66094930     item.obj
 0003:00004960       ?tItemFileIndex@@3UToggleVar@@A 66094960     item.obj
 0003:00004990       ?tUnitNumber@@3UToggleVar@@A 66094990     item.obj
 0003:000049c0       ?tItemQLevel@@3UToggleVar@@A 660949c0     item.obj
 0003:000049f0       ?tItemMLevel@@3UToggleVar@@A 660949f0     item.obj
 0003:00004a20       ?tItemALevel@@3UToggleVar@@A 66094a20     item.obj
 0003:00004a50       ?tAfterCube@@3UToggleVar@@A 66094a50     item.obj
 0003:00004a80       ?tLifePerLevel@@3UToggleVar@@A 66094a80     item.obj
 0003:00004ab0       ?dwItemValueNpc@@3PAHA     66094ab0     item.obj
 0003:00004ac4       ?tShowBaseED@@3UToggleVar@@A 66094ac4     item.obj
 0003:00004af4       ?tShowIdentifiedItem@@3UToggleVar@@A 66094af4     item.obj
 0003:00004b24       ?tHiddenItems@@3UToggleVar@@A 66094b24     item.obj
 0003:00004b54       ?tPermShowItems@@3UToggleVar@@A 66094b54     item.obj
 0003:00004b84       ?tLockAltToggle@@3UToggleVar@@A 66094b84     item.obj
 0003:00004bb4       ?tItemBasicStat@@3UToggleVar@@A 66094bb4     item.obj
 0003:00004be4       ?tViewSocketable@@3UToggleVar@@A 66094be4     item.obj
 0003:00004c14       ?tViewSocketBase@@3UToggleVar@@A 66094c14     item.obj
 0003:00004c44       ?tShowItemVariableProp@@3UToggleVar@@A 66094c44     item.obj
 0003:00004c74       ?tSocketProtect@@3UToggleVar@@A 66094c74     item.obj
 0003:00004ca4       ?tRunewordProtect@@3UToggleVar@@A 66094ca4     item.obj
 0003:00004cd4       ?tDrawInvItemInfo@@3UToggleVar@@A 66094cd4     item.obj
 0003:00004d04       ?tItemExtInfo@@3UToggleVar@@A 66094d04     item.obj
 0003:00004d34       ?maxTownPortalCount@@3HA   66094d34     item.obj
 0003:00004d38       ?maxIdentifyPortalCount@@3HA 66094d38     item.obj
 0003:00004d3c       ?batchSimpleItemStackCount@@3HA 66094d3c     item.obj
 0003:00004d40       ?tDrawSimpleItemStackCount@@3UToggleVar@@A 66094d40     item.obj
 0003:000056bc       ?dwAutoPotionCheckMs@@3HA  660956bc     dangerous.obj
 0003:000056c0       ?dwHirePotionDelayMs@@3HA  660956c0     dangerous.obj
 0003:000056c4       ?dwManaPotionDelayMs@@3HA  660956c4     dangerous.obj
 0003:000056c8       ?nChickenLifeAction@@3HA   660956c8     dangerous.obj
 0003:000056cc       ?tHealingPotion@@3UToggleVar@@A 660956cc     dangerous.obj
 0003:000056fc       ?tManaPotion@@3UToggleVar@@A 660956fc     dangerous.obj
 0003:0000572c       ?tChickenLife@@3UToggleVar@@A 6609572c     dangerous.obj
 0003:0000575c       ?tChickenHostile@@3UToggleVar@@A 6609575c     dangerous.obj
 0003:0000578c       ?tChickenHostileNearby@@3UToggleVar@@A 6609578c     dangerous.obj
 0003:000057bc       ?tChickenDangerousMonster@@3UToggleVar@@A 660957bc     dangerous.obj
 0003:000057ec       ?tAutoPotion@@3UToggleVar@@A 660957ec     dangerous.obj
 0003:0000581c       ?tHardCoreAllBackTownIfProtect@@3UToggleVar@@A 6609581c     dangerous.obj
 0003:0000584c       ?dwChickenLifeForcedClevel@@3HA 6609584c     dangerous.obj
 0003:00005850       ?dwNoQuitIfDeadClevel@@3HA 66095850     dangerous.obj
 0003:00005854       ?dwChickenLifeEnterGame@@3HA 66095854     dangerous.obj
 0003:00005858       ?nDangerousMonsterAction@@3HA 66095858     dangerous.obj
 0003:00005f28       ?dwBarbrianLeft@@3HA       66095f28     quest.obj
 0003:00005f2c       ?dwBugAlertTimes@@3HA      66095f2c     quest.obj
 0003:00005f30       ?tBugKCountess@@3UToggleVar@@A 66095f30     quest.obj
 0003:00005f60       ?tBugKM@@3UToggleVar@@A    66095f60     quest.obj
 0003:00005f90       ?tBugKD@@3UToggleVar@@A    66095f90     quest.obj
 0003:00005fc0       ?tBugKB@@3UToggleVar@@A    66095fc0     quest.obj
 0003:00005ff0       ?tBugAutoQuit@@3UToggleVar@@A 66095ff0     quest.obj
 0003:00006020       ?tBugAutoQuitHell@@3UToggleVar@@A 66096020     quest.obj
 0003:00006050       ?tBugAutoQuitHellAct1@@3UToggleVar@@A 66096050     quest.obj
 0003:00006080       ?tBugAutoQuitHellAct3@@3UToggleVar@@A 66096080     quest.obj
 0003:000060b0       ?tBugAutoQuitHellAct4@@3UToggleVar@@A 660960b0     quest.obj
 0003:000060e0       ?tBugAutoQuitHellAct5@@3UToggleVar@@A 660960e0     quest.obj
 0003:00006110       ?tBugAutoQuitAct5@@3UToggleVar@@A 66096110     quest.obj
 0003:00006140       ?tBugAllHellAlert@@3UToggleVar@@A 66096140     quest.obj
 0003:00006170       ?tAlertNoBug@@3UToggleVar@@A 66096170     quest.obj
 0003:000061a0       ?t3BBProtect@@3UToggleVar@@A 660961a0     quest.obj
 0003:00006580       ?tMonsterLevel@@3UToggleVar@@A 66096580     lifebar.obj
 0003:000065b0       ?tMonsterTC@@3UToggleVar@@A 660965b0     lifebar.obj
 0003:000065e0       ?tMonsterRuneTC@@3UToggleVar@@A 660965e0     lifebar.obj
 0003:00006610       ?tMonsterResists@@3UToggleVar@@A 66096610     lifebar.obj
 0003:00006640       ?tMonsterHPPercent@@3UToggleVar@@A 66096640     lifebar.obj
 0003:00006670       ?tMonsterDistance@@3UToggleVar@@A 66096670     lifebar.obj
 0003:000066a0       ?tMonsterID@@3UToggleVar@@A 660966a0     lifebar.obj
 0003:000066d0       ?tSPMonsterHP@@3UToggleVar@@A 660966d0     lifebar.obj
 0003:00006700       ?tSPMonsterExp@@3UToggleVar@@A 66096700     lifebar.obj
 0003:00006730       ?nLifeBarTrans@@3EA        66096730     lifebar.obj
 0003:00006731       ?nLifeBarColour@@3EA       66096731     lifebar.obj
 0003:00006734       ?tPlayerLevel@@3UToggleVar@@A 66096734     lifebar.obj
 0003:00006764       ?tPlayerDistance@@3UToggleVar@@A 66096764     lifebar.obj
 0003:00006794       ?tPlayerHPPercent@@3UToggleVar@@A 66096794     lifebar.obj
 0003:00006b10       ?tDropProtectionToggle@@3UToggleVar@@A 66096b10     DropProtection.obj
 0003:00006b40       ?tResetProtectionToggle@@3UToggleVar@@A 66096b40     DropProtection.obj
 0003:00006b70       ?protectCharLv@@3HA        66096b70     DropProtection.obj
 0003:00006cd8       ?tWisperNotice@@3UToggleVar@@A 66096cd8     chat.obj
 0003:00006d08       ?tInputLine@@3UToggleVar@@A 66096d08     chat.obj
 0003:00006d38       ?tUseCustomFont@@3UToggleVar@@A 66096d38     chat.obj
 0003:00006d68       ?tQuickMessagePasteOnly@@3UToggleVar@@A 66096d68     chat.obj
 0003:00006fe8       ?tOutTownSelect@@3UToggleVar@@A 66096fe8     misc.obj
 0003:00007018       ?tULCMask@@3UToggleVar@@A  66097018     misc.obj
 0003:000070d0       ?tMultiClient@@3UToggleVar@@A 660970d0     multi.obj
 0003:00007100       ?tMultiClientToggleFollow@@3UToggleVar@@A 66097100     multi.obj
 0003:00007130       ?tMultiClientStartFollow1@@3UToggleVar@@A 66097130     multi.obj
 0003:00007160       ?tMultiClientStartFollow2@@3UToggleVar@@A 66097160     multi.obj
 0003:00007190       ?tMultiClientStopFollow@@3UToggleVar@@A 66097190     multi.obj
 0003:000071c0       ?tMultiClientEnterDoor@@3UToggleVar@@A 660971c0     multi.obj
 0003:000071f0       ?tMultiClientRetreat@@3UToggleVar@@A 660971f0     multi.obj
 0003:00007220       ?tMultiClientClick@@3UToggleVar@@A 66097220     multi.obj
 0003:00007250       ?tMultiClientClick2@@3UToggleVar@@A 66097250     multi.obj
 0003:00007280       ?tMultiClientTalkToNpc@@3UToggleVar@@A 66097280     multi.obj
 0003:000072b0       ?dwMultiClientGroupSize1@@3HA 660972b0     multi.obj
 0003:000072b4       ?dwMultiClientGroupSize2@@3HA 660972b4     multi.obj
 0003:000072b8       ?dwAutoFollowDistance@@3HA 660972b8     multi.obj
 0003:000072bc       ?dwAutoFollowMaxDistance@@3HA 660972bc     multi.obj
 0003:000072c0       ?dwAutoFollowMoveDistance@@3HA 660972c0     multi.obj
 0003:000072c4       ?dwAutoFollowCheckInterval@@3HA 660972c4     multi.obj
 0003:000072c8       ?dwAutoFollowClickObjectDelayMs@@3HA 660972c8     multi.obj
 0003:000072cc       ?dwWaitTeamEnterPortalMaxDelayMs@@3HA 660972cc     multi.obj
 0003:000072d0       ?tNecNoAttackInHell@@3UToggleVar@@A 660972d0     multi.obj
 0003:0000769c       ?tNpcTradeShowInfo@@3UToggleVar@@A 6609769c     NpcTrade.obj
 0003:00007718       ?mAutoPartyDelays@@3HA     66097718     party.obj
 0003:0000771c       ?tAutoParty@@3UToggleVar@@A 6609771c     party.obj
 0003:0000774c       ?tAutoInvite@@3UToggleVar@@A 6609774c     party.obj
 0003:0000777c       ?tAutoPermit@@3UToggleVar@@A 6609777c     party.obj
 0003:000077ac       ?tAutoLocalPermit@@3UToggleVar@@A 660977ac     party.obj
 0003:000077dc       ?tAutoPartyBugMF@@3UToggleVar@@A 660977dc     party.obj
 0003:0000780c       ?tHardCoreBackTownIfAnyoneDie@@3UToggleVar@@A 6609780c     party.obj
 0003:0000783c       ?autoPartyLevelRange@@3PAY01DA 6609783c     party.obj
 0003:000079a8       ?nTownportalAlertNums@@3HA 660979a8     quick.obj
 0003:000079b0       ?tBackToTown@@3UToggleVar@@A 660979b0     quick.obj
 0003:000079e0       ?tExitGame@@3UToggleVar@@A 660979e0     quick.obj
 0003:00007a10       ?tQuickNextGame@@3UToggleVar@@A 66097a10     quick.obj
 0003:00007a40       ?tQuickNextGame2@@3UToggleVar@@A 66097a40     quick.obj
 0003:00007a70       ?tAllNextGame@@3UToggleVar@@A 66097a70     quick.obj
 0003:00007aa0       ?tAutoJoinGame@@3UToggleVar@@A 66097aa0     quick.obj
 0003:00007ad0       ?tCancelAutoJoinIfForeground@@3UToggleVar@@A 66097ad0     quick.obj
 0003:00007dc8       ?tRightClickSwap@@3UToggleVar@@A 66097dc8     QuickSwapItem.obj
 0003:00007df8       ?tQuickDropToggle@@3UToggleVar@@A 66097df8     QuickSwapItem.obj
 0003:00007e28       ?tEnableGemAutoMerge@@3UToggleVar@@A 66097e28     QuickSwapItem.obj
 0003:00007e58       ?tEnableAutoSimpleItemStack@@3UToggleVar@@A 66097e58     QuickSwapItem.obj
 0003:00007fa0       ?tHighResolution@@3UToggleVar@@A 66097fa0     resolution.obj
 0003:00008000       ?tAutoPickupToggle@@3UToggleVar@@A 66098000     skill.obj
 0003:00008030       ?tAutoEnchant@@3UToggleVar@@A 66098030     skill.obj
 0003:00008060       ?dwRenewEnchantMs@@3HA     66098060     skill.obj
 0003:00008064       ?dwAutoEnchantMana@@3HA    66098064     skill.obj
 0003:00008068       ?dwRenewEnchantMana@@3HA   66098068     skill.obj
 0003:0000806c       ?dwAutoEnchantPlayerLevel@@3HA 6609806c     skill.obj
 0003:00008070       ?tAutoWarCry@@3UToggleVar@@A 66098070     skill.obj
 0003:000080a0       ?tAutoBackgroundSkill@@3UToggleVar@@A 660980a0     skill.obj
 0003:000080d0       ?tAutoForegroundSkillToggle@@3UToggleVar@@A 660980d0     skill.obj
 0003:00008100       ?tAutoForegroundSkill@@3UToggleVar@@A 66098100     skill.obj
 0003:00008130       ?dwAutoSkillCheckInterval@@3HA 66098130     skill.obj
 0003:00008134       ?dwAutoSkillIdleDelay@@3HA 66098134     skill.obj
 0003:00008138       ?dwAutoThrowMinQuantity@@3HA 66098138     skill.obj
 0003:0000813c       ?dwAutoStaticFieldHPPercent@@3HA 6609813c     skill.obj
 0003:00008140       ?tAutoSummon@@3UToggleVar@@A 66098140     skill.obj
 0003:00008170       ?tAutoSummonRevive@@3UToggleVar@@A 66098170     skill.obj
 0003:000081a0       ?tShowSummonInfo@@3UToggleVar@@A 660981a0     skill.obj
 0003:000081d0       ?dwAutoSummonMana@@3HA     660981d0     skill.obj
 0003:000081d4       ?dwSwitchSkillMs@@3HA      660981d4     skill.obj
 0003:000081d8       ?dwAutoSummonSkeletonLevelAdjust@@3HA 660981d8     skill.obj
 0003:000081dc       ?dwAutoSummonSkeletonMageLevelAdjust@@3HA 660981dc     skill.obj
 0003:000081e0       ?dwAutoSummonReviveLevelAdjust@@3HA 660981e0     skill.obj
 0003:000081e4       ?tAutoForegroundSkill2@@3UToggleVar@@A 660981e4     skill.obj
 0003:00008804       ?showStatNum@@3HA          66098804     Snapshot.obj
 0003:00008808       ?szSnapshotPath@@3PADA     66098808     Snapshot.obj
 0003:00008908       ?szSnapshotNamesPath@@3PADA 66098908     Snapshot.obj
 0003:00008a08       ?tDoSnapshot@@3UToggleVar@@A 66098a08     Snapshot.obj
 0003:00008a38       ?tSnapshot@@3UToggleVar@@A 66098a38     Snapshot.obj
 0003:00008a68       ?tSnapshotNewGame@@3UToggleVar@@A 66098a68     Snapshot.obj
 0003:00008a98       ?tSnapshotEndGame@@3UToggleVar@@A 66098a98     Snapshot.obj
 0003:00008ac8       ?tSnapshotLog@@3UToggleVar@@A 66098ac8     Snapshot.obj
 0003:00008af8       ?tSnapshotSaveD2s@@3UToggleVar@@A 66098af8     Snapshot.obj
 0003:00008f1c       ?tAutoTeleportEvade@@3UToggleVar@@A 66098f1c     teleport.obj
 0003:00009448       ?tServerTest@@3UToggleVar@@A 66099448     server.obj
 0003:00009478       ?tRepeatAdminCmd@@3UToggleVar@@A 66099478     server.obj
 0003:000094cc       ?fEnableAdminCmd@@3HA      660994cc     server.obj
 0003:000094d4       ?adminCmdPrefix@@3PADA     660994d4     server.obj
 0003:00009884       ?UberMephistoNbMinions@@3HA 66099884     uber.obj
 0003:00009888       ?UberMephistoMinions@@3PAHA 66099888     uber.obj
 0003:000098a0       ?UberMephistoSpawnPercent@@3HA 660998a0     uber.obj
 0003:000098a4       ?UberMephistoSpawnRadius@@3HA 660998a4     uber.obj
 0003:000098a8       ?UberBaalNbMinions@@3HA    660998a8     uber.obj
 0003:000098ac       ?UberBaalMinions@@3PAHA    660998ac     uber.obj
 0003:000098b4       ?UberBaalSpawnPercent@@3HA 660998b4     uber.obj
 0003:000098b8       ?UberBaalSpawnRadius@@3HA  660998b8     uber.obj
 0003:000098bc       ?UberDiabloNbMinions@@3HA  660998bc     uber.obj
 0003:000098c0       ?UberDiabloMinions@@3PAHA  660998c0     uber.obj
 0003:000098c4       ?UberDiabloSpawnPercent@@3HA 660998c4     uber.obj
 0003:000098c8       ?UberDiabloSpawnRadius@@3HA 660998c8     uber.obj
 0003:000098cc       ?uberBaalChillingArmorTimer@@3HA 660998cc     uber.obj
 0003:00009980       ?szVersion@@3PADA          66099980     version.obj
 0003:00009984       ?compileTime@@3PADA        66099984     version.obj
 0003:00009988       ___security_cookie         66099988     LIBCMT:gs_cookie.obj
 0003:0000998c       ___security_cookie_complement 6609998c     LIBCMT:gs_cookie.obj
 0003:00009990       __iob                      66099990     LIBCMT:_file.obj
 0003:00009c10       __fltused                  66099c10     LIBCMT:_fpinit_.obj
 0003:00009c14       __ldused                   66099c14     LIBCMT:_fpinit_.obj
 0003:00009c24       ??_R0?AVbad_alloc@std@@@8  66099c24     LIBCMT:new.obj
 0003:00009c40       ??_R0?AVexception@std@@@8  66099c40     LIBCMT:new.obj
 0003:00009c88       ___initialmbcinfo          66099c88     LIBCMT:mbctype.obj
 0003:00009ea8       __mbctype                  66099ea8     LIBCMT:mbctype.obj
 0003:00009fb0       __mbcasemap                66099fb0     LIBCMT:mbctype.obj
 0003:0000a0b0       ___ptmbcinfo               6609a0b0     LIBCMT:mbctype.obj
 0003:0000a1ac       ___globallocalestatus      6609a1ac     LIBCMT:glstatus.obj
 0003:0000a1b0       ___clocalestr              6609a1b0     LIBCMT:nlsdata2.obj
 0003:0000a1b8       ___initiallocinfo          6609a1b8     LIBCMT:nlsdata2.obj
 0003:0000a290       ___ptlocinfo               6609a290     LIBCMT:nlsdata2.obj
 0003:0000a294       ___lc_clike                6609a294     LIBCMT:nlsdata2.obj
 0003:0000a298       ___initiallocalestructinfo 6609a298     LIBCMT:nlsdata2.obj
 0003:0000a2a0       ___flsindex                6609a2a0     LIBCMT:tidtable.obj
 0003:0000a2a4       ___getvalueindex           6609a2a4     LIBCMT:tidtable.obj
 0003:0000a538       ___nullstring              6609a538     LIBCMT:output.obj
 0003:0000a53c       ___wnullstring             6609a53c     LIBCMT:output.obj
 0003:0000a540       ___badioinfo               6609a540     LIBCMT:ioinit.obj
 0003:0000a580       __amblksiz                 6609a580     LIBCMT:heapinit.obj
 0003:0000a584       __aexit_rtn                6609a584     LIBCMT:crt0dat.obj
 0003:0000a588       __cfltcvt_tab              6609a588     LIBCMT:cmiscdat.obj
 0003:0000a668       __lookuptrailbytes         6609a668     LIBCMT:read.obj
 0003:0000a778       ??_R0?AVtype_info@@@8      6609a778     LIBCMT:typinfo.obj
 0003:0000a790       __indefinite               6609a790     LIBCMT:_87disp_.obj
 0003:0000a79a       __piby2                    6609a79a     LIBCMT:_87disp_.obj
 0003:0000a7c0       __First_FPE_Indx           6609a7c0     LIBCMT:winxfltr.obj
 0003:0000a7c4       __Num_FPE                  6609a7c4     LIBCMT:winxfltr.obj
 0003:0000a7c8       __XcptActTabSize           6609a7c8     LIBCMT:winxfltr.obj
 0003:0000a7cc       __XcptActTabCount          6609a7cc     LIBCMT:winxfltr.obj
 0003:0000a7d0       __pctype                   6609a7d0     LIBCMT:ctype.obj
 0003:0000a7d4       __pwctype                  6609a7d4     LIBCMT:ctype.obj
 0003:0000a7d8       ___lc_time_c               6609a7d8     LIBCMT:strftime.obj
 0003:0000a890       ___lc_time_curr            6609a890     LIBCMT:strftime.obj
 0003:0000a894       ___lconv_static_decimal    6609a894     LIBCMT:lconv.obj
 0003:0000a898       ___lconv_c                 6609a898     LIBCMT:lconv.obj
 0003:0000a8c8       ___lconv                   6609a8c8     LIBCMT:lconv.obj
 0003:0000a8cc       ___mb_cur_max              6609a8cc     LIBCMT:nlsdata1.obj
 0003:0000a8d0       ___decimal_point           6609a8d0     LIBCMT:nlsdata1.obj
 0003:0000a8d4       ___decimal_point_length    6609a8d4     LIBCMT:nlsdata1.obj
 0003:0000a8f0       __NLG_Destination          6609a8f0     LIBCMT:exsup.obj
 0003:0000a920       __timezone                 6609a920     LIBCMT:timeset.obj
 0003:0000a924       __daylight                 6609a924     LIBCMT:timeset.obj
 0003:0000a928       __dstbias                  6609a928     LIBCMT:timeset.obj
 0003:0000a9b0       __tzname                   6609a9b0     LIBCMT:timeset.obj
 0003:0000a9b8       __lpdays                   6609a9b8     LIBCMT:days.obj
 0003:0000a9ec       __days                     6609a9ec     LIBCMT:days.obj
 0003:0000aa20       __coninpfh                 6609aa20     LIBCMT:initcon.obj
 0003:0000aa24       __confh                    6609aa24     LIBCMT:initcon.obj
 0003:0000aa28       ___abort_behavior          6609aa28     LIBCMT:abort.obj
 0003:0000ab48       __matherr_flag             6609ab48     LIBCMT:_matherr_.obj
 0003:0000ab70       __pow10pos                 6609ab70     LIBCMT:_constpow_.obj
 0003:0000acd0       __pow10neg                 6609acd0     LIBCMT:_constpow_.obj
 0003:0000ae30       __d_inf                    6609ae30     LIBCMT:_util_.obj
 0003:0000ae38       __d_ind                    6609ae38     LIBCMT:_util_.obj
 0003:0000ae40       __d_max                    6609ae40     LIBCMT:_util_.obj
 0003:0000ae48       __d_min                    6609ae48     LIBCMT:_util_.obj
 0003:0000ae50       __d_mzero                  6609ae50     LIBCMT:_util_.obj
 0003:0000ae60       ?tmpSymbols@@3PAUSymbol@@A 6609ae60     config.obj
 0003:0000b264       ?logfp@@3PAU_iobuf@@A      6609b264     config.obj
 0003:0000b268       ?tKeyEventMap@@3PAPAUToggleVar@@A 6609b268     config.obj
 0003:0000d270       ?warningMsgs@@3PAUWarningMsg@@A 6609d270     config.obj
 0003:0000d278       ?pSymbols@@3PAUSymbol@@A   6609d278     config.obj
 0003:0000d27c       ?nSymbols@@3HA             6609d27c     config.obj
 0003:0000d280       ?capSymbols@@3HA           6609d280     config.obj
 0003:0000d284       ?nTmpSymbols@@3HA          6609d284     config.obj
 0003:0000d288       ?fSymbolSorted@@3HA        6609d288     config.obj
 0003:0000d290       ?configVarCap@@3HA         6609d290     config.obj
 0003:0000d294       ?configVarCount@@3HA       6609d294     config.obj
 0003:0000d298       ?loadingConfigs@@3PAULoadingConfig@@A 6609d298     config.obj
 0003:0000d2a0       ?hInstDLL@@3PAUHINSTANCE__@@A 6609d2a0     DllMain.obj
 0003:0000d2a4       ?dllHeap@@3PAXA            6609d2a4     DllMain.obj
 0003:0000d2a8       ?confHeap@@3PAXA           6609d2a8     DllMain.obj
 0003:0000d2ac       ?gameHeap@@3PAXA           6609d2ac     DllMain.obj
 0003:0000d2b0       ?fIsSinglePlayer@@3HA      6609d2b0     DllMain.obj
 0003:0000d2b4       ?fIsTcpIp@@3HA             6609d2b4     DllMain.obj
 0003:0000d2b8       ?fIsRealmServer@@3HA       6609d2b8     DllMain.obj
 0003:0000d2bc       ?fIsRealmClient@@3HA       6609d2bc     DllMain.obj
 0003:0000d2c0       ?szDllPath@@3PADA          6609d2c0     DllMain.obj
 0003:0000d3c8       ?szPluginPath@@3PADA       6609d3c8     DllMain.obj
 0003:0000d4d0       ?reloadStorage@@3PADA      6609d4d0     DllMain.obj
 0003:0000d4d4       ?reloadStorageSize@@3HA    6609d4d4     DllMain.obj
 0003:0000d4d8       ?storm_pmpq_load_flag@@3PAHA 6609d4d8     install.obj
 0003:0000d4dc       ?storm_pmpq_crypt_table@@3PAHA 6609d4dc     install.obj
 0003:0000d4e0       ?storm_regQueryValue@@3P6GHPAD0H0H@ZA 6609d4e0     install.obj
 0003:0000d4e4       ?storm_snprintf@@3P6AHPADHHZZA 6609d4e4     install.obj
 0003:0000d4e8       ?storm_processWinMessage372@@3P6GHHPAUHWND__@@HPAUD2MSG@@@ZA 6609d4e8     install.obj
 0003:0000d4ec       ?storm_processWinMessage@@3P6GHPAUHWND__@@HHHPAX1@ZA 6609d4ec     install.obj
 0003:0000d4f0       ?storm_openMpq@@3P6GHPBDHHPAX@ZA 6609d4f0     install.obj
 0003:0000d4f4       ?storm_mpq_open_block@@3P6GHPADPAUmpq_block@@@ZA 6609d4f4     install.obj
 0003:0000d4f8       ?storm_mpq_open_block_from@@3P6GHPAXPADHPAUmpq_block@@@ZA 6609d4f8     install.obj
 0003:0000d4fc       ?storm_mpq_read_block@@3P6GHPAUmpq_block@@HPADH@ZA 6609d4fc     install.obj
 0003:0000d500       ?storm_mk_abs_path@@3P6GPADPADPAX@ZA 6609d500     install.obj
 0003:0000d504       ?storm_mpq_hashstring@@3P6GHH@ZA 6609d504     install.obj
 0003:0000d508       ?storm_mpq_uncompress@@3P6GHPAXPAH0H@ZA 6609d508     install.obj
 0003:0000d50c       ?fog_Ord10218@@3P6IHXZA    6609d50c     install.obj
 0003:0000d510       ?fog_getMCPPacket@@3P6GHPAXPADH@ZA 6609d510     install.obj
 0003:0000d514       ?fog_Ord10089@@3P6IHH@ZA   6609d514     install.obj
 0003:0000d518       ?fog_uninit@@3P6GHXZA      6609d518     install.obj
 0003:0000d51c       ?fog_realloc@@3P6IPAXHPAXHPADHH@ZA 6609d51c     install.obj
 0003:0000d520       ?fog_allocMemory@@3P6IPAXHHPADHH@ZA 6609d520     install.obj
 0003:0000d524       ?fog_getCriticalSection@@3P6IPAUCriticalSection@@HPADHH@ZA 6609d524     install.obj
 0003:0000d528       ?fog_setCriticalSection@@3P6IHPAUCriticalSection@@PADHH@ZA 6609d528     install.obj
 0003:0000d52c       ?fog_freeMemory@@3P6IHHPAXPADHH@ZA 6609d52c     install.obj
 0003:0000d530       ?fog_Ord10101@@3P6IHHH@ZA  6609d530     install.obj
 0003:0000d534       ?fog_mpq_open_block@@3P6IHPADPAUmpq_block@@@ZA 6609d534     install.obj
 0003:0000d538       ?fog_initBitStream@@3P6GPAUFogBits@@PAU1@PADH@ZA 6609d538     install.obj
 0003:0000d53c       ?fog_writeBitStream@@3P6GXPAUFogBits@@HH@ZA 6609d53c     install.obj
 0003:0000d540       ?fog_setBit@@3P6GXPAXH@ZA  6609d540     install.obj
 0003:0000d544       ?fog_clearBit@@3P6GXPAXH@ZA 6609d544     install.obj
 0003:0000d548       ?fog_getBitStreamBytes@@3P6GHPAUFogBits@@@ZA 6609d548     install.obj
 0003:0000d54c       ?fog_alignBitStreamToByte@@3P6GHPAUFogBits@@@ZA 6609d54c     install.obj
 0003:0000d550       ?fog_Ord10019@@3P6IHPADPAX0H@ZA 6609d550     install.obj
 0003:0000d554       ?fog_FogValidateCriticalSection@@3P6IHPAUCriticalSection@@H@ZA 6609d554     install.obj
 0003:0000d558       ?fog_reportError@@3P6AXPAXHH@ZA 6609d558     install.obj
 0003:0000d55c       ?fog_setLogFilePrefix@@3P6IHPAD@ZA 6609d55c     install.obj
 0003:0000d560       ?fog_getEIP@@3P6GHXZA      6609d560     install.obj
 0003:0000d564       ?fog_getClientID@@3P6GHPAUClientInfos@@H@ZA 6609d564     install.obj
 0003:0000d568       ?fog_getClientInfo@@3P6GPAUClientInfo@@PAUClientInfos@@H@ZA 6609d568     install.obj
 0003:0000d56c       ?fog_enableNTFeature@@3P6GHPAH@ZA 6609d56c     install.obj
 0003:0000d570       ?fog_exit@@3P6GXH@ZA       6609d570     install.obj
 0003:0000d574       ?d2win_pDrawHoverY@@3PAHA  6609d574     install.obj
 0003:0000d578       ?d2win_pmusic_volumn@@3PAHA 6609d578     install.obj
 0003:0000d57c       ?d2win_pRunningFlag@@3PAHA 6609d57c     install.obj
 0003:0000d580       ?d2win_pclientProcessMessageFunc@@3PAPAXA 6609d580     install.obj
 0003:0000d584       ?d2win_pFocusedControl@@3PAPAUD2EditBox@@A 6609d584     install.obj
 0003:0000d588       ?d2win_pvar_214A0@@3PAPAXA 6609d588     install.obj
 0003:0000d58c       ?d2win_DrawMainMenu@@3P6IPAXXZA 6609d58c     install.obj
 0003:0000d590       ?d2win_CreateTextBox@@3P6GPAXPAK@ZA 6609d590     install.obj
 0003:0000d594       ?d2win_DestroyListBox@@3P6GXPAUD2EditBox@@@ZA 6609d594     install.obj
 0003:0000d598       ?d2win_processMessage@@3P6GHPAUHWND__@@HHH@ZA 6609d598     install.obj
 0003:0000d59c       ?d2win_CreateEditBox@@3P6IPAUD2EditBox@@HHHHHHPAUCellFile@@KKKPAX@ZA 6609d59c     install.obj
 0003:0000d5a0       ?d2win_DestroyEditBox@@3P6IHPAUD2EditBox@@@ZA 6609d5a0     install.obj
 0003:0000d5a4       ?d2win_AddEditBoxChar@@3P6IKPAUD2EditBox@@E@ZA 6609d5a4     install.obj
 0003:0000d5a8       ?d2win_SetEditBoxText@@3P6IPAXPAUD2EditBox@@PA_W@ZA 6609d5a8     install.obj
 0003:0000d5ac       ?d2win_SetEditBoxProc@@3P6IXPAUD2EditBox@@P6GH0HPAD@Z@ZA 6609d5ac     install.obj
 0003:0000d5b0       ?d2win_SelectEditBoxText@@3P6IXPAUD2EditBox@@@ZA 6609d5b0     install.obj
 0003:0000d5b4       ?d2win_GetEditBoxText@@3P6IPA_WPAUD2EditBox@@@ZA 6609d5b4     install.obj
 0003:0000d5b8       ?d2win_DrawHover@@3P6IXXZA 6609d5b8     install.obj
 0003:0000d5bc       ?d2win_SetTextFont@@3P6IHH@ZA 6609d5bc     install.obj
 0003:0000d5c0       ?d2win_DrawText@@3P6IXPA_WJJHH@ZA 6609d5c0     install.obj
 0003:0000d5c4       ?d2win_GetTextPixelLen@@3P6IHPA_W@ZA 6609d5c4     install.obj
 0003:0000d5c8       ?d2win_DrawUnitLifeBar@@3P6IHPA_WJJHKK@ZA 6609d5c8     install.obj
 0003:0000d5cc       ?d2win_GetTextAreaSize@@3P6IHPA_WPAH1@ZA 6609d5cc     install.obj
 0003:0000d5d0       ?d2win_DrawHoverText@@3P6IXPA_WJJHH@ZA 6609d5d0     install.obj
 0003:0000d5d4       ?d2win_initMPQ@@3P6IHXZA   6609d5d4     install.obj
 0003:0000d5d8       ?d2win_uninit@@3P6GHXZA    6609d5d8     install.obj
 0003:0000d5dc       ?d2win_addLineToList@@3P6IXPAUD2EditBox@@PAD@ZA 6609d5dc     install.obj
 0003:0000d5e0       ?d2win_PrintLineOnTextBox@@3P6IXPAXPADH@ZA 6609d5e0     install.obj
 0003:0000d5e4       ?d2win_setLineEndText@@3P6IXPAUD2EditBox@@PADPAXH@ZA 6609d5e4     install.obj
 0003:0000d5e8       ?d2win_ToggleSound@@3P6GXXZA 6609d5e8     install.obj
 0003:0000d5ec       ?d2sound_pmusic_volumn@@3PAHA 6609d5ec     install.obj
 0003:0000d5f0       ?d2sound_get_music_volumn@@3P6AHXZA 6609d5f0     install.obj
 0003:0000d5f4       ?d2sound_set_music_volumn@@3P6IHH@ZA 6609d5f4     install.obj
 0003:0000d5f8       ?d2net_pclientInfos@@3PAPAUClientInfos@@A 6609d5f8     install.obj
 0003:0000d5fc       ?d2net_pUnkNetFlag@@3PAKA  6609d5fc     install.obj
 0003:0000d600       ?d2net_ppacketSizes@@3PAHA 6609d600     install.obj
 0003:0000d604       ?d2net_SendPacket@@3P6GXHHPAE@ZA 6609d604     install.obj
 0003:0000d608       ?d2net_getPacketSize@@3P6IXPADHPAH@ZA 6609d608     install.obj
 0003:0000d60c       ?d2net_initNetwork@@3P6GHHH@ZA 6609d60c     install.obj
 0003:0000d610       ?d2net_SendToClient@@3P6GHHHPAXH@ZA 6609d610     install.obj
 0003:0000d614       ?d2net_uninit@@3P6GHXZA    6609d614     install.obj
 0003:0000d618       ?d2net_getWorldId@@3P6GHH@ZA 6609d618     install.obj
 0003:0000d61c       ?d2multi_plastRefreshMs2@@3PAHA 6609d61c     install.obj
 0003:0000d620       ?d2multi_plastRefreshMs1@@3PAHA 6609d620     install.obj
 0003:0000d624       ?d2multi_pnGames@@3PAHA    6609d624     install.obj
 0003:0000d628       ?d2multi_pGameDescription@@3PAPAUD2EditBox@@A 6609d628     install.obj
 0003:0000d62c       ?d2multi_pGamePassword@@3PAPAUD2EditBox@@A 6609d62c     install.obj
 0003:0000d630       ?d2multi_pGameName@@3PAPAUD2EditBox@@A 6609d630     install.obj
 0003:0000d634       ?d2multi_pGameListControl@@3PAPAUD2EditBox@@A 6609d634     install.obj
 0003:0000d638       ?d2multi_pmcp05_games2@@3PAUMcp05Game@@A 6609d638     install.obj
 0003:0000d63c       ?d2multi_pEditboxPreferences@@3PAPAXA 6609d63c     install.obj
 0003:0000d640       ?d2multi_pmcp05_games@@3PAUMcp05Game@@A 6609d640     install.obj
 0003:0000d644       ?d2multi_reset_games@@3P6GHXZA 6609d644     install.obj
 0003:0000d648       ?d2multi_add_game@@3P6GHXZA 6609d648     install.obj
 0003:0000d64c       ?d2multi_show_games@@3P6GHXZA 6609d64c     install.obj
 0003:0000d650       ?d2multi_num2str@@3P6AHHPADH@ZA 6609d650     install.obj
 0003:0000d654       ?d2multi_num2str1058@@3P6GHHH@ZA 6609d654     install.obj
 0003:0000d658       ?d2mcpclient_pmcp05_type@@3PAHA 6609d658     install.obj
 0003:0000d65c       ?d2mcpclient_pmcp05_gameName2@@3PADA 6609d65c     install.obj
 0003:0000d660       ?d2mcpclient_pmcp05_gameName@@3PADA 6609d660     install.obj
 0003:0000d664       ?d2mcpclient_pmcp05_off08@@3PAHA 6609d664     install.obj
 0003:0000d668       ?d2mcpclient_pmcp05_nPlayers@@3PAHA 6609d668     install.obj
 0003:0000d66c       ?d2mcpclient_pmcp05_idx@@3PAHA 6609d66c     install.obj
 0003:0000d670       ?d2mcpclient_pmcp05_seqId@@3PAHA 6609d670     install.obj
 0003:0000d674       ?d2mcpclient_pmcp05_buf@@3PAUMcp05Buf@@A 6609d674     install.obj
 0003:0000d678       ?d2mcpclient_pmcpSrc@@3PAPAXA 6609d678     install.obj
 0003:0000d67c       ?d2mcpclient_pAccountInfo@@3PAUD2AccountInfo@@A 6609d67c     install.obj
 0003:0000d680       ?d2mcpclient_pmpc05_seqId@@3PAFA 6609d680     install.obj
 0003:0000d684       ?d2mcpclient_processOnePacket@@3P6GHXZA 6609d684     install.obj
 0003:0000d688       ?d2mcpclient_getMcp05Buf@@3P6GPAUMcp05Buf@@XZA 6609d688     install.obj
 0003:0000d68c       ?d2mcpclient_mcpPacket05@@3P6IHPAUMCPPacket05@@H@ZA 6609d68c     install.obj
 0003:0000d690       ?d2launch_pcharCount@@3PAHA 6609d690     install.obj
 0003:0000d694       ?d2launch_pD2Characters@@3PAPAUD2Character@@A 6609d694     install.obj
 0003:0000d698       ?d2launch_plaunchNumChildren@@3PAHA 6609d698     install.obj
 0003:0000d69c       ?d2launch_plaunchChildren@@3PAPAXA 6609d69c     install.obj
 0003:0000d6a0       ?d2launch_pSelectedCharIndex@@3PAHA 6609d6a0     install.obj
 0003:0000d6a4       ?d2launch_pcreateTextBoxParam11F0@@3PAPAKA 6609d6a4     install.obj
 0003:0000d6a8       ?d2launch_DeleteCharacter@@3P6IXPAD@ZA 6609d6a8     install.obj
 0003:0000d6ac       ?d2launch_DeleteSelectedCharacter@@3P6GHH@ZA 6609d6ac     install.obj
 0003:0000d6b0       ?d2launch_sprintf@@3P6AHPAD0ZZA 6609d6b0     install.obj
 0003:0000d6b4       ?d2lang_plocaleTxtMap20000@@3PAPAUd2lang_map@@A 6609d6b4     install.obj
 0003:0000d6b8       ?d2lang_plocaleTxtMap10000@@3PAPAUd2lang_map@@A 6609d6b8     install.obj
 0003:0000d6bc       ?d2lang_plocaleTxt20000@@3PAPAPA_WA 6609d6bc     install.obj
 0003:0000d6c0       ?d2lang_plocaleTxt10000@@3PAPAPA_WA 6609d6c0     install.obj
 0003:0000d6c4       ?d2lang_plocaleTxt0@@3PAPAPA_WA 6609d6c4     install.obj
 0003:0000d6c8       ?d2lang_plocaleTxtMap0@@3PAPAUd2lang_map@@A 6609d6c8     install.obj
 0003:0000d6cc       ?d2lang_strcat@@3P6IPA_WPA_W0@ZA 6609d6cc     install.obj
 0003:0000d6d0       ?d2lang_initLanguage@@3P6IHHPADH@ZA 6609d6d0     install.obj
 0003:0000d6d4       ?d2lang_uninit@@3P6GHXZA   6609d6d4     install.obj
 0003:0000d6d8       ?d2lang_GetLocaleText@@3P6IPA_WH@ZA 6609d6d8     install.obj
 0003:0000d6dc       ?d2lang_getLocalText9050@@3P6GPA_WPAPA_W@ZA 6609d6dc     install.obj
 0003:0000d6e0       ?d2gfx_pWinState@@3PAHA    6609d6e0     install.obj
 0003:0000d6e4       ?d2gfx_pDrawGoundH1@@3PAHA 6609d6e4     install.obj
 0003:0000d6e8       ?d2gfx_pDrawGoundH2@@3PAHA 6609d6e8     install.obj
 0003:0000d6ec       ?d2gfx_pcallbackTable@@3PAPAXA 6609d6ec     install.obj
 0003:0000d6f0       ?d2gfx_pResolutionMode@@3PAHA 6609d6f0     install.obj
 0003:0000d6f4       ?d2gfx_DrawRectangle@@3P6GXJJJJHH@ZA 6609d6f4     install.obj
 0003:0000d6f8       ?d2gfx_DrawLine@@3P6GXHHHHHH@ZA 6609d6f8     install.obj
 0003:0000d6fc       ?d2gfx_getResolutionMode@@3P6GHXZA 6609d6fc     install.obj
 0003:0000d700       ?d2gfx_DrawCellFile@@3P6GHPAUCellContext@@HHKHPAE@ZA 6609d700     install.obj
 0003:0000d704       ?d2gfx_drawSomething@@3P6GXPAXHHHHH@ZA 6609d704     install.obj
 0003:0000d708       ?d2gfx_FillOrb@@3P6GXHHHHHH@ZA 6609d708     install.obj
 0003:0000d70c       ?d2gfx_DrawAutomapNode@@3P6GXPAUCellContext@@HHPAUtagRECT@@K@ZA 6609d70c     install.obj
 0003:0000d710       ?d2gfx_drawShadow@@3P6GXPAXHH@ZA 6609d710     install.obj
 0003:0000d714       ?d2gfx_clearFramebuf@@3P6GXHHHH@ZA 6609d714     install.obj
 0003:0000d718       ?d2gfx_flushFramebuf@@3P6GXXZA 6609d718     install.obj
 0003:0000d71c       ?d2gfx_Ordinal10043@@3P6GXXZA 6609d71c     install.obj
 0003:0000d720       ?d2gfx_MinimizeWindows@@3P6GXK@ZA 6609d720     install.obj
 0003:0000d724       ?d2gfx_GetHwnd@@3P6GPAUHWND__@@XZA 6609d724     install.obj
 0003:0000d728       ?d2gfx_drawGroundPiece@@3P6GXPAX0HHHHHHH@ZA 6609d728     install.obj
 0003:0000d72c       ?d2gdi_pcriticalSection@@3PAPAUCriticalSection@@A 6609d72c     install.obj
 0003:0000d730       ?d2gdi_pFrameBuf@@3PAPAXA  6609d730     install.obj
 0003:0000d734       ?d2gdi_pDisplayRight@@3PAHA 6609d734     install.obj
 0003:0000d738       ?d2gdi_pFrameBufHeight@@3PAHA 6609d738     install.obj
 0003:0000d73c       ?d2gdi_pgdiobj@@3PAPAXA    6609d73c     install.obj
 0003:0000d740       ?d2gdi_ppalette@@3PAPAUHPALETTE__@@A 6609d740     install.obj
 0003:0000d744       ?d2gdi_pFrameBufWidth@@3PAHA 6609d744     install.obj
 0003:0000d748       ?d2gdi_phwnd@@3PAPAUHWND__@@A 6609d748     install.obj
 0003:0000d74c       ?d2gdi_pColorMap@@3PAHA    6609d74c     install.obj
 0003:0000d750       ?d2gdi_initCriticalSection@@3P6IHPAX0@ZA 6609d750     install.obj
 0003:0000d754       ?d2game_pDropChioceProb@@3PAHA 6609d754     install.obj
 0003:0000d758       ?d2game_pDropChioces@@3PAHA 6609d758     install.obj
 0003:0000d75c       ?d2game_pworldHash@@3PAPAUWorldHash@@A 6609d75c     install.obj
 0003:0000d760       ?d2game_pcriticalSection@@3PAUCriticalSection@@A 6609d760     install.obj
 0003:0000d764       ?d2game_pSPUnitOffsets@@3PAHA 6609d764     install.obj
 0003:0000d768       ?d2game_psgptDataTables@@3PAPAUD2DataTables@@A 6609d768     install.obj
 0003:0000d76c       ?d2game_MonsterMove@@3P6IXPAUWorld@@PAUUnitAny@@1HHHHH@ZA 6609d76c     install.obj
 0003:0000d770       ?d2game_MonsterUseSkill@@3P6IXPAUWorld@@PAUUnitAny@@HH1HH@ZA 6609d770     install.obj
 0003:0000d774       ?d2game_SpawnMonster@@3P6IPAUUnitAny@@HHPAUWorld@@PAUAreaRectData@@HHHH@ZA 6609d774     install.obj
 0003:0000d778       ?d2game_SpawnMonsterEF10@@3P6IPAUUnitAny@@PAUSpawnMon@@@ZA 6609d778     install.obj
 0003:0000d77c       ?d2game_MakeD2S@@3P6IHPAUUnitAny@@PAUWorld@@PADPAHHHH@ZA 6609d77c     install.obj
 0003:0000d780       ?d2game_playerUpgrade@@3P6GHPAUWorld@@@ZA 6609d780     install.obj
 0003:0000d784       ?d2game_CreateUnit@@3P6IPAUUnitAny@@HHHHPAUWorld@@PAUAreaRectData@@HHH@ZA 6609d784     install.obj
 0003:0000d788       ?d2game_GetUnit@@3P6IHPAUWorld@@H@ZA 6609d788     install.obj
 0003:0000d78c       ?d2game_isUnitDead@@3P6GHXZA 6609d78c     install.obj
 0003:0000d790       ?d2game_swapWeapon@@3P6GHPAUWorld@@PAH@ZA 6609d790     install.obj
 0003:0000d794       ?d2game_pickupItem@@3P6GHHPAH@ZA 6609d794     install.obj
 0003:0000d798       ?d2game_putItemInSocketD4A70@@3P6GHPAUWorld@@PAUUnitAny@@HPAHHHHH@ZA 6609d798     install.obj
 0003:0000d79c       ?d2game_recv19_invToHand@@3P6IHPAUWorld@@PAUUnitAny@@PADH@ZA 6609d79c     install.obj
 0003:0000d7a0       ?d2game_recv16_pickup@@3P6IHPAUWorld@@PAUUnitAny@@PADH@ZA 6609d7a0     install.obj
 0003:0000d7a4       ?d2game_pickup@@3P6IHPAUWorld@@HPAUUnitAny@@H@ZA 6609d7a4     install.obj
 0003:0000d7a8       ?d2game_recv60_swapWeapon@@3P6IHPAUWorld@@PAUUnitAny@@PADH@ZA 6609d7a8     install.obj
 0003:0000d7ac       ?d2game_recv1A_handToBody@@3P6IHPAUWorld@@PAUUnitAny@@PADH@ZA 6609d7ac     install.obj
 0003:0000d7b0       ?d2game_recv28_socket@@3P6IHPAUWorld@@PAUUnitAny@@PADH@ZA 6609d7b0     install.obj
 0003:0000d7b4       ?d2game_itemNotInInv@@3P6IHHHPAUUnitAny@@@ZA 6609d7b4     install.obj
 0003:0000d7b8       ?d2game_processPacket@@3P6GHPAUWorld@@H@ZA 6609d7b8     install.obj
 0003:0000d7bc       ?d2game_recv40_quest@@3P6IHPAUWorld@@PAUUnitAny@@PADH@ZA 6609d7bc     install.obj
 0003:0000d7c0       ?d2game_passClassicB9F20@@3P6IHPAUWorld@@PAUUnitAny@@H@ZA 6609d7c0     install.obj
 0003:0000d7c4       ?d2game_passClassicB9A30@@3P6IHXZA 6609d7c4     install.obj
 0003:0000d7c8       ?d2game_BaalAI@@3P6IXPAUWorld@@PAUUnitAny@@PAX@ZA 6609d7c8     install.obj
 0003:0000d7cc       ?d2game_UberBaalAI@@3P6IXPAUWorld@@PAUUnitAny@@PAX@ZA 6609d7cc     install.obj
 0003:0000d7d0       ?d2game_DiabloAI@@3P6IXPAUWorld@@PAUUnitAny@@PAX@ZA 6609d7d0     install.obj
 0003:0000d7d4       ?d2game_UberDiabloAI@@3P6IXPAUWorld@@PAUUnitAny@@PAX@ZA 6609d7d4     install.obj
 0003:0000d7d8       ?d2game_NecSummon@@3P6IPAUUnitAny@@XZA 6609d7d8     install.obj
 0003:0000d7dc       ?d2game_LinkPortal@@3P6GPAUUnitAny@@PAUWorld@@PAU1@HH@ZA 6609d7dc     install.obj
 0003:0000d7e0       ?d2game_fun_8EBC0@@3P6GHPAUWorld@@PAX@ZA 6609d7e0     install.obj
 0003:0000d7e4       ?d2game_SetSkillBaseLevelOnClient@@3P6IXPAXPAUUnitAny@@HHH@ZA 6609d7e4     install.obj
 0003:0000d7e8       ?d2game_sendPacket@@3P6GHPADH@ZA 6609d7e8     install.obj
 0003:0000d7ec       ?d2game_MephAI@@3P6IXPAUWorld@@PAUUnitAny@@PAX@ZA 6609d7ec     install.obj
 0003:0000d7f0       ?d2game_UberMephAI@@3P6IXPAUWorld@@PAUUnitAny@@PAX@ZA 6609d7f0     install.obj
 0003:0000d7f4       ?d2game_fun_769A0@@3P6GHPAUWorld@@HH@ZA 6609d7f4     install.obj
 0003:0000d7f8       ?d2game_OpenPandPortal@@3P6IXPAUWorld@@PAUUnitAny@@@ZA 6609d7f8     install.obj
 0003:0000d7fc       ?d2game_OpenPandFinalPortal@@3P6IXPAUWorld@@PAUUnitAny@@@ZA 6609d7fc     install.obj
 0003:0000d800       ?d2game_passExpansion599E0@@3P6IXPAUWorld@@PAUUnitAny@@H@ZA 6609d800     install.obj
 0003:0000d804       ?d2game_passExpansion58BE0@@3P6IXPAUUnitAny@@@ZA 6609d804     install.obj
 0003:0000d808       ?d2game_fun_4E2A0@@3P6IXPAUWorld@@PAUUnitAny@@H@ZA 6609d808     install.obj
 0003:0000d80c       ?d2game_getNetClient@@3P6IPAUNetClient@@H@ZA 6609d80c     install.obj
 0003:0000d810       ?d2game_processClientQuestReq@@3P6GHPAUWorld@@PAUUnitAny@@@ZA 6609d810     install.obj
 0003:0000d814       ?d2game_sendQuestToClient@@3P6GHPAUWorld@@@ZA 6609d814     install.obj
 0003:0000d818       ?d2game_processGame@@3P6GHXZA 6609d818     install.obj
 0003:0000d81c       ?d2game_isBusy@@3P6GHH@ZA  6609d81c     install.obj
 0003:0000d820       ?d2game_Ord10024@@3P6GHHH@ZA 6609d820     install.obj
 0003:0000d824       ?d2game_endAllGames@@3P6AHH@ZA 6609d824     install.obj
 0003:0000d828       ?d2game_Ord10038@@3P6GHXZA 6609d828     install.obj
 0003:0000d82c       ?d2game_SendDatabaseCharacter@@3P6GHHPAXHHHHPAUPlayerInfo@@H@ZA 6609d82c     install.obj
 0003:0000d830       ?d2game_removeClientFromGame@@3P6GHH@ZA 6609d830     install.obj
 0003:0000d834       ?d2game_SaveGame@@3P6GXPAUWorld@@@ZA 6609d834     install.obj
 0003:0000d838       ?d2game_NewEmptyGame@@3P6GHPAD00HDDDPAF@ZA 6609d838     install.obj
 0003:0000d83c       ?d2game_getWorld@@3P6GPAUWorld@@XZA 6609d83c     install.obj
 0003:0000d840       ?d2game_getWorldByID@@3P6GPAUWorld@@H@ZA 6609d840     install.obj
 0003:0000d844       ?d2game_uninit@@3P6GHXZA   6609d844     install.obj
 0003:0000d848       ?d2game_setWorldHash@@3P6GHPAUWorldHash@@PAH@ZA 6609d848     install.obj
 0003:0000d84c       ?d2game_initCallbackTable@@3P6GHPAX@ZA 6609d84c     install.obj
 0003:0000d850       ?d2game_SpawnSuperUnique@@3P6IHPAUWorld@@PAUAreaRectData@@HHHHHH@ZA 6609d850     install.obj
 0003:0000d854       ?d2game_Game235C0@@3P6GXPAUWorld@@PAUAreaRectData@@@ZA 6609d854     install.obj
 0003:0000d858       ?d2game_DropItem1880@@3P6GXPAUWorld@@HHHH@ZA 6609d858     install.obj
 0003:0000d85c       ?d2game_DropItem1490@@3P6GPAUUnitAny@@PAUWorld@@PAXH@ZA 6609d85c     install.obj
 0003:0000d860       ?d2game_GetFreeXY@@3P6GPAUAreaRectData@@PAU1@PAUtagPOINT@@H@ZA 6609d860     install.obj
 0003:0000d864       ?d2game_GetUnitLevel@@3P6GHH@ZA 6609d864     install.obj
 0003:0000d868       ?d2game_hasDroppedUnique@@3P6IHH@ZA 6609d868     install.obj
 0003:0000d86c       ?d2game_exit@@3P6GHH@ZA    6609d86c     install.obj
 0003:0000d870       ?d2game_getWorld_2130@@3P6GPAUWorld@@XZA 6609d870     install.obj
 0003:0000d874       ?d2game_TestPosition@@3P6IPAUAreaRectData@@XZA 6609d874     install.obj
 0003:0000d878       ?d2game_random@@3P6IHPAUD2Seed@@@ZA 6609d878     install.obj
 0003:0000d87c       ?d2common_pnCubeMain@@3PAHA 6609d87c     install.obj
 0003:0000d880       ?d2common_ppCubeMainTxt@@3PAPAXA 6609d880     install.obj
 0003:0000d884       ?d2common_pnMapCache@@3PAHA 6609d884     install.obj
 0003:0000d888       ?d2common_ppMapCache@@3PAPAXA 6609d888     install.obj
 0003:0000d88c       ?d2common_ppLvlSubCache@@3PAPAXA 6609d88c     install.obj
 0003:0000d890       ?d2common_pnLvlSub@@3PAHA  6609d890     install.obj
 0003:0000d894       ?d2common_ppLvlSubTxt@@3PAPAXA 6609d894     install.obj
 0003:0000d898       ?d2common_pnLvlMaze@@3PAHA 6609d898     install.obj
 0003:0000d89c       ?d2common_ppLvlMazeTxt@@3PAPAXA 6609d89c     install.obj
 0003:0000d8a0       ?d2common_pnLvlWarp@@3PAHA 6609d8a0     install.obj
 0003:0000d8a4       ?d2common_ppLvlWarpTxt@@3PAPAXA 6609d8a4     install.obj
 0003:0000d8a8       ?d2common_pnLvlTypes@@3PAHA 6609d8a8     install.obj
 0003:0000d8ac       ?d2common_pnWaypoints@@3PAHA 6609d8ac     install.obj
 0003:0000d8b0       ?d2common_ppWaypoints@@3PAPAXA 6609d8b0     install.obj
 0003:0000d8b4       ?d2common_ppLvlTypesTxt@@3PAPAXA 6609d8b4     install.obj
 0003:0000d8b8       ?d2common_ppArenaTxt@@3PAPAXA 6609d8b8     install.obj
 0003:0000d8bc       ?d2common_pnCharTemplate@@3PAHA 6609d8bc     install.obj
 0003:0000d8c0       ?d2common_ppCharTemplateTxt@@3PAPAXA 6609d8c0     install.obj
 0003:0000d8c4       ?d2common_pnLvlSubExtraStuff@@3PAHA 6609d8c4     install.obj
 0003:0000d8c8       ?d2common_ppLvlSubExtraStuff@@3PAPAXA 6609d8c8     install.obj
 0003:0000d8cc       ?d2common_pExpFieldRuntimeData@@3PAPAXA 6609d8cc     install.obj
 0003:0000d8d0       ?d2common_ppExpFieldD2@@3PAPAXA 6609d8d0     install.obj
 0003:0000d8d4       ?d2common_pnDifficultyLevels@@3PAHA 6609d8d4     install.obj
 0003:0000d8d8       ?d2common_ppDifficultyLevelsTxt@@3PAPAXA 6609d8d8     install.obj
 0003:0000d8dc       ?d2common_ppExperienceTxt@@3PAPAXA 6609d8dc     install.obj
 0003:0000d8e0       ?d2common_ppAnimTables@@3PAPAXA 6609d8e0     install.obj
 0003:0000d8e4       ?d2common_pItemStatCostStuff@@3PAPAXA 6609d8e4     install.obj
 0003:0000d8e8       ?d2common_pnLvlPrest@@3PAHA 6609d8e8     install.obj
 0003:0000d8ec       ?d2common_ppLvlPrestTxt@@3PAPAXA 6609d8ec     install.obj
 0003:0000d8f0       ?d2common_ppLvlDefsBin@@3PAPAXA 6609d8f0     install.obj
 0003:0000d8f4       ?d2common_pnLevels@@3PAHA  6609d8f4     install.obj
 0003:0000d8f8       ?d2common_ppLevelsTxt@@3PAPAXA 6609d8f8     install.obj
 0003:0000d8fc       ?d2common_pnMonUMod@@3PAHA 6609d8fc     install.obj
 0003:0000d900       ?d2common_ppMonUModTxt@@3PAPAXA 6609d900     install.obj
 0003:0000d904       ?d2common_ppMonUModLink@@3PAPAXA 6609d904     install.obj
 0003:0000d908       ?d2common_pnMonTypeNesting@@3PAHA 6609d908     install.obj
 0003:0000d90c       ?d2common_ppMonTypeNesting@@3PAPAXA 6609d90c     install.obj
 0003:0000d910       ?d2common_pnMonType@@3PAHA 6609d910     install.obj
 0003:0000d914       ?d2common_ppMonTypeTxt@@3PAPAXA 6609d914     install.obj
 0003:0000d918       ?d2common_ppMonTypeLink@@3PAPAXA 6609d918     install.obj
 0003:0000d91c       ?d2common_pnMonProp@@3PAHA 6609d91c     install.obj
 0003:0000d920       ?d2common_ppMonPropTxt@@3PAPAXA 6609d920     install.obj
 0003:0000d924       ?d2common_ppMonPropLink@@3PAPAXA 6609d924     install.obj
 0003:0000d928       ?d2common_pnUniqueItems@@3PAHA 6609d928     install.obj
 0003:0000d92c       ?d2common_ppUniqueItemsTxt@@3PAPAXA 6609d92c     install.obj
 0003:0000d930       ?d2common_ppUniqueItemsLink@@3PAPAXA 6609d930     install.obj
 0003:0000d934       ?d2common_pnSetItems@@3PAHA 6609d934     install.obj
 0003:0000d938       ?d2common_ppSetItemsTxt@@3PAPAXA 6609d938     install.obj
 0003:0000d93c       ?d2common_ppSetItemsLink@@3PAPAXA 6609d93c     install.obj
 0003:0000d940       ?d2common_pnSets@@3PAHA    6609d940     install.obj
 0003:0000d944       ?d2common_ppSetsTxt@@3PAPAXA 6609d944     install.obj
 0003:0000d948       ?d2common_ppSetsLink@@3PAPAXA 6609d948     install.obj
 0003:0000d94c       ?d2common_ppItemTypeNesting@@3PAPAXA 6609d94c     install.obj
 0003:0000d950       ?d2common_pnItemTypeNesting@@3PAHA 6609d950     install.obj
 0003:0000d954       ?d2common_pnItemTypes@@3PAHA 6609d954     install.obj
 0003:0000d958       ?d2common_ppItemTypesTxt@@3PAPAXA 6609d958     install.obj
 0003:0000d95c       ?d2common_ppItemTypesLink@@3PAPAXA 6609d95c     install.obj
 0003:0000d960       ?d2common_pnPetTypes@@3PAHA 6609d960     install.obj
 0003:0000d964       ?d2common_ppPetTypesLink@@3PAPAXA 6609d964     install.obj
 0003:0000d968       ?d2common_ppPetTypesTxt@@3PAPAXA 6609d968     install.obj
 0003:0000d96c       ?d2common_pnMonEquip@@3PAHA 6609d96c     install.obj
 0003:0000d970       ?d2common_ppMonEquipTxt@@3PAPAXA 6609d970     install.obj
 0003:0000d974       ?d2common_pnOpStatNesting@@3PAHA 6609d974     install.obj
 0003:0000d978       ?d2common_ppOpStatNesting@@3PAPAXA 6609d978     install.obj
 0003:0000d97c       ?d2common_pnItemStatCost@@3PAHA 6609d97c     install.obj
 0003:0000d980       ?d2common_ppItemStatCostLink@@3PAPAXA 6609d980     install.obj
 0003:0000d984       ?d2common_ppItemStatCostTxt@@3PAPAUItemStatCostTxt@@A 6609d984     install.obj
 0003:0000d988       ?d2common_pnCharStats@@3PAHA 6609d988     install.obj
 0003:0000d98c       ?d2common_ppCharStatsTxt@@3PAPAXA 6609d98c     install.obj
 0003:0000d990       ?d2common_pnOverlay@@3PAHA 6609d990     install.obj
 0003:0000d994       ?d2common_ppOverlayLink@@3PAPAXA 6609d994     install.obj
 0003:0000d998       ?d2common_ppOverlayTxt@@3PAPAXA 6609d998     install.obj
 0003:0000d99c       ?d2common_ppPassiveSkillList@@3PAPAXA 6609d99c     install.obj
 0003:0000d9a0       ?d2common_pnPassiveSkillCount@@3PAHA 6609d9a0     install.obj
 0003:0000d9a4       ?d2common_ppPlayerSkillList@@3PAPAXA 6609d9a4     install.obj
 0003:0000d9a8       ?d2common_pnPlayerSkillCount@@3PAHA 6609d9a8     install.obj
 0003:0000d9ac       ?d2common_ppPlayerSkillCount@@3PAPAXA 6609d9ac     install.obj
 0003:0000d9b0       ?d2common_pnSkills@@3PAHA  6609d9b0     install.obj
 0003:0000d9b4       ?d2common_ppSkillsLink@@3PAPAXA 6609d9b4     install.obj
 0003:0000d9b8       ?d2common_ppSkillsTxt@@3PAPAXA 6609d9b8     install.obj
 0003:0000d9bc       ?d2common_pnSkillDesc@@3PAHA 6609d9bc     install.obj
 0003:0000d9c0       ?d2common_ppSkillDescLink@@3PAPAXA 6609d9c0     install.obj
 0003:0000d9c4       ?d2common_ppSkillDescTxt@@3PAPAXA 6609d9c4     install.obj
 0003:0000d9c8       ?d2common_pnMonSequences@@3PAHA 6609d9c8     install.obj
 0003:0000d9cc       ?d2common_ppMonSequences@@3PAPAXA 6609d9cc     install.obj
 0003:0000d9d0       ?d2common_pnMonSeq@@3PAHA  6609d9d0     install.obj
 0003:0000d9d4       ?d2common_ppMonSeqLink@@3PAPAXA 6609d9d4     install.obj
 0003:0000d9d8       ?d2common_ppMonSeqTxt@@3PAPAXA 6609d9d8     install.obj
 0003:0000d9dc       ?d2common_pnMonLvl@@3PAHA  6609d9dc     install.obj
 0003:0000d9e0       ?d2common_ppMonLvlTxt@@3PAPAXA 6609d9e0     install.obj
 0003:0000d9e4       ?d2common_pnMissiles@@3PAHA 6609d9e4     install.obj
 0003:0000d9e8       ?d2common_ppMissilesLink@@3PAPAXA 6609d9e8     install.obj
 0003:0000d9ec       ?d2common_ppMissilesTxt@@3PAPAXA 6609d9ec     install.obj
 0003:0000d9f0       ?d2common_pSuperUniqueHcIdxList@@3PAPAXA 6609d9f0     install.obj
 0003:0000d9f4       ?d2common_pnSuperUniques@@3PAHA 6609d9f4     install.obj
 0003:0000d9f8       ?d2common_ppSuperUniquesLink@@3PAPAXA 6609d9f8     install.obj
 0003:0000d9fc       ?d2common_ppSuperUniquesTxt@@3PAPAXA 6609d9fc     install.obj
 0003:0000da00       ?d2common_pnMonPresetEachAct@@3PAHA 6609da00     install.obj
 0003:0000da04       ?d2common_ppMonPresetActList@@3PAPAXA 6609da04     install.obj
 0003:0000da08       ?d2common_ppMonPresetTxt@@3PAPAXA 6609da08     install.obj
 0003:0000da0c       ?d2common_pnMonPlace@@3PAHA 6609da0c     install.obj
 0003:0000da10       ?d2common_ppMonPlaceLink@@3PAPAXA 6609da10     install.obj
 0003:0000da14       ?d2common_ppMonPlaceTxt@@3PAPAXA 6609da14     install.obj
 0003:0000da18       ?d2common_pnMonStats2@@3PAHA 6609da18     install.obj
 0003:0000da1c       ?d2common_ppMonStats2Link@@3PAPAXA 6609da1c     install.obj
 0003:0000da20       ?d2common_ppMonStats2Txt@@3PAPAXA 6609da20     install.obj
 0003:0000da24       ?d2common_pnMonSounds@@3PAHA 6609da24     install.obj
 0003:0000da28       ?d2common_ppMonSoundsLink@@3PAPAXA 6609da28     install.obj
 0003:0000da2c       ?d2common_ppMonSoundsTxt@@3PAPAXA 6609da2c     install.obj
 0003:0000da30       ?d2common_pnMonStats@@3PAHA 6609da30     install.obj
 0003:0000da34       ?d2common_ppMonStatsLink@@3PAPAXA 6609da34     install.obj
 0003:0000da38       ?d2common_ppMonStatsTxt@@3PAPAXA 6609da38     install.obj
 0003:0000da3c       ?d2common_ppChestTreasureClassList@@3PAPAXA 6609da3c     install.obj
 0003:0000da40       ?d2common_pnTreasureClassEx@@3PAHA 6609da40     install.obj
 0003:0000da44       ?d2common_ppTreasureClassExTxt@@3PAPAXA 6609da44     install.obj
 0003:0000da48       ?d2common_ppTreasureClassExLink@@3PAPAXA 6609da48     install.obj
 0003:0000da4c       ?d2common_ppColorsLink@@3PAPAXA 6609da4c     install.obj
 0003:0000da50       ?d2common_ppColorsTxt@@3PAPAXA 6609da50     install.obj
 0003:0000da54       ?d2common_pnNpcs@@3PAHA    6609da54     install.obj
 0003:0000da58       ?d2common_ppNpcsTxt@@3PAPAXA 6609da58     install.obj
 0003:0000da5c       ?d2common_pHireNameListEnd@@3PAPAXA 6609da5c     install.obj
 0003:0000da60       ?d2common_pHireNameListStart@@3PAPAXA 6609da60     install.obj
 0003:0000da64       ?d2common_pnHirelings@@3PAHA 6609da64     install.obj
 0003:0000da68       ?d2common_ppHirelingsTxt@@3PAPAXA 6609da68     install.obj
 0003:0000da6c       ?d2common_pnSoundCodes@@3PAHA 6609da6c     install.obj
 0003:0000da70       ?d2common_ppSoundCodesLink@@3PAPAXA 6609da70     install.obj
 0003:0000da74       ?d2common_ppSoundCodesBin@@3PAPAXA 6609da74     install.obj
 0003:0000da78       ?d2common_pnColorStates@@3PAHA 6609da78     install.obj
 0003:0000da7c       ?d2common_ppColorStates@@3PAPAXA 6609da7c     install.obj
 0003:0000da80       ?d2common_pnActionStates@@3PAHA 6609da80     install.obj
 0003:0000da84       ?d2common_ppActionStates@@3PAPAXA 6609da84     install.obj
 0003:0000da88       ?d2common_pnTransformStates@@3PAHA 6609da88     install.obj
 0003:0000da8c       ?d2common_ppTransformStates@@3PAPAXA 6609da8c     install.obj
 0003:0000da90       ?d2common_pnCurseStates@@3PAHA 6609da90     install.obj
 0003:0000da94       ?d2common_ppCurseStates@@3PAPAXA 6609da94     install.obj
 0003:0000da98       ?d2common_pnProgressiveStates@@3PAHA 6609da98     install.obj
 0003:0000da9c       ?d2common_ppProgressiveStates@@3PAPAXA 6609da9c     install.obj
 0003:0000daa0       ?d2common_ppStateMaskArray@@3PAPAXA 6609daa0     install.obj
 0003:0000daa4       ?d2common_ppStateMaskFirst@@3PAPAXA 6609daa4     install.obj
 0003:0000daa8       ?d2common_pnStates@@3PAHA  6609daa8     install.obj
 0003:0000daac       ?d2common_ppStatesLink@@3PAPAXA 6609daac     install.obj
 0003:0000dab0       ?d2common_ppStatesTxt@@3PAPAXA 6609dab0     install.obj
 0003:0000dab4       ?d2common_ppHireDescLink@@3PAPAXA 6609dab4     install.obj
 0003:0000dab8       ?d2common_ppHireDescTxt@@3PAPAXA 6609dab8     install.obj
 0003:0000dabc       ?d2common_ppRunesLink@@3PAPAXA 6609dabc     install.obj
 0003:0000dac0       ?d2common_pnProperties@@3PAHA 6609dac0     install.obj
 0003:0000dac4       ?d2common_ppPropertiesLink@@3PAPAXA 6609dac4     install.obj
 0003:0000dac8       ?d2common_ppPropertiesTxt@@3PAPAXA 6609dac8     install.obj
 0003:0000dacc       ?d2common_pnItemCalcCacheDelta@@3PAHA 6609dacc     install.obj
 0003:0000dad0       ?d2common_pnItemCalcCache@@3PAHA 6609dad0     install.obj
 0003:0000dad4       ?d2common_ppItemCalcCache@@3PAPAXA 6609dad4     install.obj
 0003:0000dad8       ?d2common_ppItemLink@@3PAPAXA 6609dad8     install.obj
 0003:0000dadc       ?d2common_pnMonAi@@3PAHA   6609dadc     install.obj
 0003:0000dae0       ?d2common_ppMonAiLink@@3PAPAXA 6609dae0     install.obj
 0003:0000dae4       ?d2common_ppMonAiTxt@@3PAPAXA 6609dae4     install.obj
 0003:0000dae8       ?d2common_pnCompCodes@@3PAHA 6609dae8     install.obj
 0003:0000daec       ?d2common_ppCompCodesLink@@3PAPAXA 6609daec     install.obj
 0003:0000daf0       ?d2common_ppCompCodesTxt@@3PAPAXA 6609daf0     install.obj
 0003:0000daf4       ?d2common_ppEventsLink@@3PAPAXA 6609daf4     install.obj
 0003:0000daf8       ?d2common_ppEventsTxt@@3PAPAXA 6609daf8     install.obj
 0003:0000dafc       ?d2common_ppSkillCodesLink@@3PAPAXA 6609dafc     install.obj
 0003:0000db00       ?d2common_ppSkillCodesBin@@3PAPAXA 6609db00     install.obj
 0003:0000db04       ?d2common_pnMissCalcCacheDelta@@3PAHA 6609db04     install.obj
 0003:0000db08       ?d2common_pnMissCalcCache@@3PAHA 6609db08     install.obj
 0003:0000db0c       ?d2common_ppMissCalcCache@@3PAPAXA 6609db0c     install.obj
 0003:0000db10       ?d2common_ppMissCalcLink@@3PAPAXA 6609db10     install.obj
 0003:0000db14       ?d2common_ppMissCalcTxt@@3PAPAXA 6609db14     install.obj
 0003:0000db18       ?d2common_pnSkillDescCalcCacheDelta@@3PAHA 6609db18     install.obj
 0003:0000db1c       ?d2common_pnSkillDescCalcCache@@3PAHA 6609db1c     install.obj
 0003:0000db20       ?d2common_ppSkillDescCalcCache@@3PAPAXA 6609db20     install.obj
 0003:0000db24       ?d2common_pnSkillCalcCacheDelta@@3PAHA 6609db24     install.obj
 0003:0000db28       ?d2common_pnSkillCalcCache@@3PAHA 6609db28     install.obj
 0003:0000db2c       ?d2common_ppSkillCalcCache@@3PAPAXA 6609db2c     install.obj
 0003:0000db30       ?d2common_ppSkillCalcLink@@3PAPAXA 6609db30     install.obj
 0003:0000db34       ?d2common_ppSkillCalcTxt@@3PAPAXA 6609db34     install.obj
 0003:0000db38       ?d2common_ppPlrModeLink@@3PAPAXA 6609db38     install.obj
 0003:0000db3c       ?d2common_ppPlrModeTxt@@3PAPAXA 6609db3c     install.obj
 0003:0000db40       ?d2common_ppMonModeLink@@3PAPAXA 6609db40     install.obj
 0003:0000db44       ?d2common_ppMonModeTxt@@3PAPAXA 6609db44     install.obj
 0003:0000db48       ?d2common_ppHitClassLink@@3PAPAXA 6609db48     install.obj
 0003:0000db4c       ?d2common_ppHitClassTxt@@3PAPAXA 6609db4c     install.obj
 0003:0000db50       ?d2common_ppElemTypesLink@@3PAPAXA 6609db50     install.obj
 0003:0000db54       ?d2common_ppElemTypesTxt@@3PAPAXA 6609db54     install.obj
 0003:0000db58       ?d2common_ppStorePageLink@@3PAPAXA 6609db58     install.obj
 0003:0000db5c       ?d2common_ppStorePageTxt@@3PAPAXA 6609db5c     install.obj
 0003:0000db60       ?d2common_ppBodyLocsLink@@3PAPAXA 6609db60     install.obj
 0003:0000db64       ?d2common_ppBodyLocsTxt@@3PAPAXA 6609db64     install.obj
 0003:0000db68       ?d2common_ppPlayerClassLink@@3PAPAXA 6609db68     install.obj
 0003:0000db6c       ?d2common_ppPlayerClassTxt@@3PAPAXA 6609db6c     install.obj
 0003:0000db70       ?d2common_pRuneWordTxt@@3PAPAURuneWordTxt@@A 6609db70     install.obj
 0003:0000db74       ?d2common_pRuneWords@@3PAHA 6609db74     install.obj
 0003:0000db78       ?d2common_pArmorTxts@@3PAHA 6609db78     install.obj
 0003:0000db7c       ?d2common_pWeaponsTxts@@3PAHA 6609db7c     install.obj
 0003:0000db80       ?d2common_pItemTxts@@3PAPAUItemTxt@@A 6609db80     install.obj
 0003:0000db84       ?d2common_pItemTxtCount@@3PAHA 6609db84     install.obj
 0003:0000db88       ?d2common_pInventoryTxt@@3PAPAUInventoryBIN@@A 6609db88     install.obj
 0003:0000db8c       ?d2common_pInventoryTxtCount@@3PAHA 6609db8c     install.obj
 0003:0000db90       ?d2common_pDataTables@@3PAPAUD2DataTables@@A 6609db90     install.obj
 0003:0000db94       ?d2common_compileInventoryTxt@@3P6GPAUInventoryBIN@@H@ZA 6609db94     install.obj
 0003:0000db98       ?d2common_getInventoryPos16@@3P6GXHHPAUEquipmentLayout16@@@ZA 6609db98     install.obj
 0003:0000db9c       ?d2common_getInventoryLayout@@3P6GXHHPAUInvLayout@@@ZA 6609db9c     install.obj
 0003:0000dba0       ?d2common_getEquipmentPos@@3P6GXHHPAUEquipmentLayout20@@H@ZA 6609dba0     install.obj
 0003:0000dba4       ?d2common_compileItemStatCostTxt@@3P6GPAXH@ZA 6609dba4     install.obj
 0003:0000dba8       ?d2common_compileItemTypeTxt@@3P6GPAXH@ZA 6609dba8     install.obj
 0003:0000dbac       ?d2common_GetItemTxt@@3P6GPAUItemTxt@@H@ZA 6609dbac     install.obj
 0003:0000dbb0       ?d2common_getAreaLevel@@3P6GHHHH@ZA 6609dbb0     install.obj
 0003:0000dbb4       ?d2common_GetLevelTxt@@3P6GPAULevelTxt@@H@ZA 6609dbb4     install.obj
 0003:0000dbb8       ?d2common_GetLevelWeather@@3P6GDH@ZA 6609dbb8     install.obj
 0003:0000dbbc       ?d2common_GetLevelTxt07@@3P6GDH@ZA 6609dbbc     install.obj
 0003:0000dbc0       ?d2common_GetLevelTxt06@@3P6GDH@ZA 6609dbc0     install.obj
 0003:0000dbc4       ?d2common_GetLevelDefTxt@@3P6IPAULevelDefTxt@@H@ZA 6609dbc4     install.obj
 0003:0000dbc8       ?d2common_addToRectData1C@@3P6GHPAUUnitAny@@@ZA 6609dbc8     install.obj
 0003:0000dbcc       ?d2common_initGameDataTable@@3P6GHHHH@ZA 6609dbcc     install.obj
 0003:0000dbd0       ?d2common_getLvlOfExp@@3P6GHHH@ZA 6609dbd0     install.obj
 0003:0000dbd4       ?d2common_CompileTxtFile@@3P6GPAXHPADPAUTxtField@@PAHH@ZA 6609dbd4     install.obj
 0003:0000dbd8       ?d2common_uninit@@3P6GHXZA 6609dbd8     install.obj
 0003:0000dbdc       ?d2common_GetMinExpToLevel@@3P6GHHH@ZA 6609dbdc     install.obj
 0003:0000dbe0       ?d2common_getPlayerMaxLvl@@3P6GHH@ZA 6609dbe0     install.obj
 0003:0000dbe4       ?d2common_compileMonTypeTxt@@3P6GPAXH@ZA 6609dbe4     install.obj
 0003:0000dbe8       ?d2common_GetTreasureClasses@@3P6GPAUTreasureClass@@GH@ZA 6609dbe8     install.obj
 0003:0000dbec       ?d2common_GetSuperUniqueTxt@@3P6GPAUSuperUniqueTxt@@H@ZA 6609dbec     install.obj
 0003:0000dbf0       ?d2common_SetSkillBaseLevel@@3P6GXPAUUnitAny@@HHHPADH@ZA 6609dbf0     install.obj
 0003:0000dbf4       ?d2common_getSkillStatus@@3P6GHPAUUnitAny@@PAUSkill@@@ZA 6609dbf4     install.obj
 0003:0000dbf8       ?d2common_getMaxSkeletons@@3P6GHPAUUnitAny@@HHH@ZA 6609dbf8     install.obj
 0003:0000dbfc       ?d2common_GetSkillCost@@3P6GHPAUUnitAny@@HHH@ZA 6609dbfc     install.obj
 0003:0000dc00       ?d2common_GetSkillLevel@@3P6GHPAUUnitAny@@PAUSkill@@H@ZA 6609dc00     install.obj
 0003:0000dc04       ?d2common_CheckCorpseCanUse@@3P6GHPAUUnitAny@@K@ZA 6609dc04     install.obj
 0003:0000dc08       ?d2common_getSkillBonus@@3P6IHXZA 6609dc08     install.obj
 0003:0000dc0c       ?d2common_getSkillId@@3P6GHHH@ZA 6609dc0c     install.obj
 0003:0000dc10       ?d2common_getPlayerSkillCount@@3P6GHH@ZA 6609dc10     install.obj
 0003:0000dc14       ?d2common_setSkillCount@@3P6GXPAUSkill@@H@ZA 6609dc14     install.obj
 0003:0000dc18       ?d2common_GetDropPos@@3P6GPAUAreaRectData@@PAU1@PAUtagPOINT@@1HHHH@ZA 6609dc18     install.obj
 0003:0000dc1c       ?d2common_IsLineBlocked@@3P6GHPAUAreaRectData@@PAUtagPOINT@@1H@ZA 6609dc1c     install.obj
 0003:0000dc20       ?d2common_setItemEthereal@@3P6GHPAUUnitAny@@@ZA 6609dc20     install.obj
 0003:0000dc24       ?d2common_GetObjectTxt@@3P6GPAUObjectTxt@@H@ZA 6609dc24     install.obj
 0003:0000dc28       ?d2common_isInTown@@3P6GHPAUAreaRectData@@@ZA 6609dc28     install.obj
 0003:0000dc2c       ?d2common_GetLevelIdFromRectData@@3P6GHPAUAreaRectData@@@ZA 6609dc2c     install.obj
 0003:0000dc30       ?d2common_Common11084@@3P6GHPAUAreaRectData@@H@ZA 6609dc30     install.obj
 0003:0000dc34       ?d2common_Ord10196@@3P6GHPAUUnitAny@@@ZA 6609dc34     install.obj
 0003:0000dc38       ?d2common_stat_10807@@3P6GHPAUUnitAny@@PAUStatList@@H@ZA 6609dc38     install.obj
 0003:0000dc3c       ?d2common_changeUnitStat@@3P6GHPAUUnitAny@@HHH@ZA 6609dc3c     install.obj
 0003:0000dc40       ?d2common_AddPlayerStat@@3P6GXPAUUnitAny@@HHH@ZA 6609dc40     install.obj
 0003:0000dc44       ?d2common_addStatList@@3P6GHPAUStatList@@HHH@ZA 6609dc44     install.obj
 0003:0000dc48       ?d2common_changeStatList@@3P6GHPAUStatList@@HHH@ZA 6609dc48     install.obj
 0003:0000dc4c       ?d2common_fun39F70@@3P6GHHPAUUnitAny@@@ZA 6609dc4c     install.obj
 0003:0000dc50       ?d2common_getStatValue39380@@3P6GHH@ZA 6609dc50     install.obj
 0003:0000dc54       ?d2common_getUnitMaxHP@@3P6GHPAUUnitAny@@@ZA 6609dc54     install.obj
 0003:0000dc58       ?d2common_getUnitMaxMana@@3P6GHPAUUnitAny@@@ZA 6609dc58     install.obj
 0003:0000dc5c       ?d2common_getUnitMaxStamina@@3P6GHPAUUnitAny@@@ZA 6609dc5c     install.obj
 0003:0000dc60       ?d2common_GetUnitBaseStat@@3P6GHPAUUnitAny@@HG@ZA 6609dc60     install.obj
 0003:0000dc64       ?d2common_GetUnitStat@@3P6GHPAUUnitAny@@HG@ZA 6609dc64     install.obj
 0003:0000dc68       ?d2common_getUnitStatValueB00@@3P6GHPAUItemStatCostTxt@@@ZA 6609dc68     install.obj
 0003:0000dc6c       ?d2common_getStatValueWithMinChecked@@3P6GHPAUItemStatCostTxt@@@ZA 6609dc6c     install.obj
 0003:0000dc70       ?d2common_GetStatFromStatList@@3P6GHPAUStatList@@KPAUStatEx@@K@ZA 6609dc70     install.obj
 0003:0000dc74       ?d2common_bsearchStat@@3P6GHXZA 6609dc74     install.obj
 0003:0000dc78       ?d2common_removeStat@@3P6GHH@ZA 6609dc78     install.obj
 0003:0000dc7c       ?d2common_GetStatListWithFlag@@3P6GPAUStatList@@PAUUnitAny@@HK@ZA 6609dc7c     install.obj
 0003:0000dc80       ?d2common_GetUnitPosX@@3P6GHPAUDynamicPath@@@ZA 6609dc80     install.obj
 0003:0000dc84       ?d2common_GetUnitPosY@@3P6GHPAUDynamicPath@@@ZA 6609dc84     install.obj
 0003:0000dc88       ?d2common_CheckUnitState@@3P6GHPAUUnitAny@@H@ZA 6609dc88     install.obj
 0003:0000dc8c       ?d2common_setUnitMode@@3P6GHPAUUnitAny@@H@ZA 6609dc8c     install.obj
 0003:0000dc90       ?d2common_GetMonsterHpPercent@@3P6GHPAUUnitAny@@@ZA 6609dc90     install.obj
 0003:0000dc94       ?d2common_IsUnitBlocked@@3P6GHPAUUnitAny@@0H@ZA 6609dc94     install.obj
 0003:0000dc98       ?d2common_getUnitSize@@3P6GHPAUUnitAny@@@ZA 6609dc98     install.obj
 0003:0000dc9c       ?d2common_getLeftSkill@@3P6GPAUSkill@@PAUUnitAny@@@ZA 6609dc9c     install.obj
 0003:0000dca0       ?d2common_getCurrentSkill@@3P6GPAUSkill@@PAUUnitAny@@@ZA 6609dca0     install.obj
 0003:0000dca4       ?d2common_getUnitPos@@3P6GXPAUUnitAny@@PAUtagPOINT@@@ZA 6609dca4     install.obj
 0003:0000dca8       ?d2common_getRectData@@3P6GPAUAreaRectData@@PAUUnitAny@@@ZA 6609dca8     install.obj
 0003:0000dcac       ?d2common_GetBoxType@@3P6GHPAUUnitAny@@EH@ZA 6609dcac     install.obj
 0003:0000dcb0       ?d2common_allocUnit@@3P6GPAUUnitAny@@HH@ZA 6609dcb0     install.obj
 0003:0000dcb4       ?d2common_setStaticUnitX@@3P6GXPAUUnitAny@@H@ZA 6609dcb4     install.obj
 0003:0000dcb8       ?d2common_setStaticUnitY@@3P6GXPAUUnitAny@@H@ZA 6609dcb8     install.obj
 0003:0000dcbc       ?d2common_GetPlayerData@@3P6GPAUPlayerData@@PAUUnitAny@@@ZA 6609dcbc     install.obj
 0003:0000dcc0       ?d2common_getObjectFlags@@3P6GHPAUUnitAny@@@ZA 6609dcc0     install.obj
 0003:0000dcc4       ?d2common_setObjectFlags@@3P6GHPAUUnitAny@@H@ZA 6609dcc4     install.obj
 0003:0000dcc8       ?d2common_InitDrlgLevel@@3P6GXPAUDrlgLevel@@@ZA 6609dcc8     install.obj
 0003:0000dccc       ?d2common_GetDrlgLevel@@3P6IPAUDrlgLevel@@PAUDrlgMisc@@H@ZA 6609dccc     install.obj
 0003:0000dcd0       ?d2common_CheckQuestFlag@@3P6GHPAUQuestInfo@@HH@ZA 6609dcd0     install.obj
 0003:0000dcd4       ?d2common_setQuestFlag@@3P6GXPAUQuestInfo@@HH@ZA 6609dcd4     install.obj
 0003:0000dcd8       ?d2common_clearQuestFlag@@3P6GXPAUQuestInfo@@HH@ZA 6609dcd8     install.obj
 0003:0000dcdc       ?d2common_copyQuestData@@3P6GPAUQuestInfo@@PAU1@PAFHH@ZA 6609dcdc     install.obj
 0003:0000dce0       ?d2common_GetMercInfo@@3P6GHHHHPAX@ZA 6609dce0     install.obj
 0003:0000dce4       ?d2common_setItemSocket@@3P6GHPAUUnitAny@@H@ZA 6609dce4     install.obj
 0003:0000dce8       ?d2common_GetItemPrice@@3P6GHPAUUnitAny@@0HPAUQuestInfo@@HK@ZA 6609dce8     install.obj
 0003:0000dcec       ?d2common_EncodeItem@@3P6GHPAUUnitAny@@PADHHHH@ZA 6609dcec     install.obj
 0003:0000dcf0       ?d2common_EncodeItemBits@@3P6IHPAUUnitAny@@PAUFogBits@@HHH@ZA 6609dcf0     install.obj
 0003:0000dcf4       ?d2common_EncodeComplexItem@@3P6GHPAUUnitAny@@PAUFogBits@@HH@ZA 6609dcf4     install.obj
 0003:0000dcf8       ?d2common_searchRunewordTxt@@3P6GPAURuneWordTxt@@PAUUnitAny@@@ZA 6609dcf8     install.obj
 0003:0000dcfc       ?d2common_getSocketCount@@3P6GHPAUUnitAny@@@ZA 6609dcfc     install.obj
 0003:0000dd00       ?d2common_EncodeCompactItem@@3P6GHPAUUnitAny@@H@ZA 6609dd00     install.obj
 0003:0000dd04       ?d2common_countUsedSocketed@@3P6GHXZA 6609dd04     install.obj
 0003:0000dd08       ?d2common_getItemMaxSocket@@3P6GHPAUUnitAny@@@ZA 6609dd08     install.obj
 0003:0000dd0c       ?d2common_checkItemTypeFlags@@3P6GHPAUUnitAny@@H@ZA 6609dd0c     install.obj
 0003:0000dd10       ?d2common_isMagicItem@@3P6GHPAUUnitAny@@@ZA 6609dd10     install.obj
 0003:0000dd14       ?d2common_writeBitStream@@3P6GXPAUFogBits@@@ZA 6609dd14     install.obj
 0003:0000dd18       ?d2common_getItemSeed@@3P6GPAUD2Seed@@PAUUnitAny@@@ZA 6609dd18     install.obj
 0003:0000dd1c       ?d2common_getItemFingerPrint@@3P6GHPAUUnitAny@@@ZA 6609dd1c     install.obj
 0003:0000dd20       ?d2common_setItemFingerPrint@@3P6GXPAUUnitAny@@H@ZA 6609dd20     install.obj
 0003:0000dd24       ?d2common_getItemQuality@@3P6GHPAUUnitAny@@@ZA 6609dd24     install.obj
 0003:0000dd28       ?d2common_setItemQuality@@3P6GXPAUUnitAny@@H@ZA 6609dd28     install.obj
 0003:0000dd2c       ?d2common_getItemMagicPrefix@@3P6GHPAUUnitAny@@H@ZA 6609dd2c     install.obj
 0003:0000dd30       ?d2common_getItemMagicSuffix@@3P6GHPAUUnitAny@@H@ZA 6609dd30     install.obj
 0003:0000dd34       ?d2common_getRarePrefix@@3P6GFPAUUnitAny@@@ZA 6609dd34     install.obj
 0003:0000dd38       ?d2common_getRareSuffix@@3P6GFPAUUnitAny@@@ZA 6609dd38     install.obj
 0003:0000dd3c       ?d2common_CheckItemFlag@@3P6GHPAUUnitAny@@KHPAD@ZA 6609dd3c     install.obj
 0003:0000dd40       ?d2common_setItemFlag@@3P6GXPAUUnitAny@@HH@ZA 6609dd40     install.obj
 0003:0000dd44       ?d2common_getItemFlag@@3P6GXPAUUnitAny@@@ZA 6609dd44     install.obj
 0003:0000dd48       ?d2common_setItemLevel@@3P6GHPAUUnitAny@@H@ZA 6609dd48     install.obj
 0003:0000dd4c       ?d2common_setItemLocation@@3P6GHPAUUnitAny@@D@ZA 6609dd4c     install.obj
 0003:0000dd50       ?d2common_getItemTypeB14@@3P6GHPAUUnitAny@@@ZA 6609dd50     install.obj
 0003:0000dd54       ?d2common_getItemCode@@3P6GPADPAUUnitAny@@@ZA 6609dd54     install.obj
 0003:0000dd58       ?d2common_getItemWidthHeight@@3P6GHPAUUnitAny@@PAD1@ZA 6609dd58     install.obj
 0003:0000dd5c       ?d2common_getItemType@@3P6GHPAUUnitAny@@@ZA 6609dd5c     install.obj
 0003:0000dd60       ?d2common_getItemTypeByTxt@@3P6GHH@ZA 6609dd60     install.obj
 0003:0000dd64       ?d2common_getItemCode1@@3P6GPADPAUUnitAny@@@ZA 6609dd64     install.obj
 0003:0000dd68       ?d2common_isQuestItem@@3P6GHPAUUnitAny@@@ZA 6609dd68     install.obj
 0003:0000dd6c       ?d2common_GetItemFileIndex@@3P6GHPAUUnitAny@@@ZA 6609dd6c     install.obj
 0003:0000dd70       ?d2common_setItemFileIndex@@3P6GHPAUUnitAny@@H@ZA 6609dd70     install.obj
 0003:0000dd74       ?d2common_getItemData1C_20@@3P6GXPAUUnitAny@@PAX1@ZA 6609dd74     install.obj
 0003:0000dd78       ?d2common_setOwnerId@@3P6GXPAUUnitAny@@H@ZA 6609dd78     install.obj
 0003:0000dd7c       ?d2common_isCompactItem@@3P6IDXZA 6609dd7c     install.obj
 0003:0000dd80       ?d2common_getItemFormat@@3P6GHPAUUnitAny@@@ZA 6609dd80     install.obj
 0003:0000dd84       ?d2common_setItemFormat@@3P6GXPAUUnitAny@@F@ZA 6609dd84     install.obj
 0003:0000dd88       ?d2common_isBitSet@@3P6GHHH@ZA 6609dd88     install.obj
 0003:0000dd8c       ?d2common_putItemIntoSocket10405@@3P6GHPAUUnitInventory@@PAUUnitAny@@H@ZA 6609dd8c     install.obj
 0003:0000dd90       ?d2common_setCursorItem@@3P6GHPAUUnitInventory@@PAUUnitAny@@@ZA 6609dd90     install.obj
 0003:0000dd94       ?d2common_isItemInside@@3P6GHPAUUnitInventory@@PAUUnitAny@@@ZA 6609dd94     install.obj
 0003:0000dd98       ?d2common_CheckInvLocation@@3P6GHPAUUnitInventory@@PAUUnitAny@@HHHPAH2E@ZA 6609dd98     install.obj
 0003:0000dd9c       ?d2common_GetNextItemInInv@@3P6GPAUUnitAny@@PAU1@@ZA 6609dd9c     install.obj
 0003:0000dda0       ?d2common_getOwnerInventory@@3P6GPAUUnitInventory@@XZA 6609dda0     install.obj
 0003:0000dda4       ?d2common_createInventory@@3P6GPAUUnitInventory@@PAXPAUUnitAny@@@ZA 6609dda4     install.obj
 0003:0000dda8       ?d2common_getEquippedItemInfo@@3P6GHPAUUnitInventory@@H@ZA 6609dda8     install.obj
 0003:0000ddac       ?d2common_createEquippedItem@@3P6GPAUEquippedGears@@XZA 6609ddac     install.obj
 0003:0000ddb0       ?d2common_GetFirstItemInInv@@3P6GPAUUnitAny@@PAUUnitInventory@@@ZA 6609ddb0     install.obj
 0003:0000ddb4       ?d2common_GetCursorItem@@3P6GPAUUnitAny@@PAUUnitInventory@@@ZA 6609ddb4     install.obj
 0003:0000ddb8       ?d2common_getFilledSockets@@3P6GHPAUUnitInventory@@@ZA 6609ddb8     install.obj
 0003:0000ddbc       ?d2common_subEsp@@3P6GHXZA 6609ddbc     install.obj
 0003:0000ddc0       ?d2common_exit@@3P6GHH@ZA  6609ddc0     install.obj
 0003:0000ddc4       ?d2common_GetMonStats2@@3P6IPAXXZA 6609ddc4     install.obj
 0003:0000ddc8       ?d2common_GetNearRectDataWithPos@@3P6IPAUAreaRectData@@XZA 6609ddc8     install.obj
 0003:0000ddcc       ?d2common_GetCharStatsTxt@@3P6GPAXXZA 6609ddcc     install.obj
 0003:0000ddd0       ?d2cmp_mpq_path_3010@@3P6IHPAD@ZA 6609ddd0     install.obj
 0003:0000ddd4       ?d2cmp_InitCellFile@@3P6GXPAXPAPAUCellFile@@PADHH2@ZA 6609ddd4     install.obj
 0003:0000ddd8       ?d2cmp_DeleteCellFile@@3P6GXPAUCellFile@@@ZA 6609ddd8     install.obj
 0003:0000dddc       ?d2client_pIsEquipment800x600@@3PAHA 6609dddc     install.obj
 0003:0000dde0       ?d2client_pQuestPage@@3PAHA 6609dde0     install.obj
 0003:0000dde4       ?d2client_plpCritialSection@@3PAPAUCriticalSection@@A 6609dde4     install.obj
 0003:0000dde8       ?d2client_pworldHash@@3PAPAUWorldHash@@A 6609dde8     install.obj
 0003:0000ddec       ?d2client_pLastChatMessage@@3PA_WA 6609ddec     install.obj
 0003:0000ddf0       ?d2client_pPetUnitList@@3PAPAUPetUnit@@A 6609ddf0     install.obj
 0003:0000ddf4       ?d2client_pShowManaStr@@3PAHA 6609ddf4     install.obj
 0003:0000ddf8       ?d2client_pShowLifeStr@@3PAHA 6609ddf8     install.obj
 0003:0000ddfc       ?d2client_pBeltNotEmpty@@3PADA 6609ddfc     install.obj
 0003:0000de00       ?d2client_pscreenDrawXsub@@3PAHA 6609de00     install.obj
 0003:0000de04       ?d2client_pScreenBlocked@@3PAHA 6609de04     install.obj
 0003:0000de08       ?d2client_pStandStill@@3PAHA 6609de08     install.obj
 0003:0000de0c       ?d2client_pNpcConvData@@3PAPAXA 6609de0c     install.obj
 0003:0000de10       ?d2client_pDrlgAct@@3PAPAUDrlgAct@@A 6609de10     install.obj
 0003:0000de14       ?d2client_pnotAcceptKeys@@3PAHA 6609de14     install.obj
 0003:0000de18       ?d2client_pMButton@@3PAHA  6609de18     install.obj
 0003:0000de1c       ?d2client_pInGame@@3PAHA   6609de1c     install.obj
 0003:0000de20       ?d2client_pDifficulty@@3PAEA 6609de20     install.obj
 0003:0000de24       ?d2client_pMercData32@@3PAHA 6609de24     install.obj
 0003:0000de28       ?d2client_pFlagUnknownC2F8@@3PAHA 6609de28     install.obj
 0003:0000de2c       ?d2client_pHasSelectedObject@@3PAHA 6609de2c     install.obj
 0003:0000de30       ?d2client_pFps@@3PAHA      6609de30     install.obj
 0003:0000de34       ?d2client_pAutoMapSize@@3PAUtagPOINT@@A 6609de34     install.obj
 0003:0000de38       ?d2client_pMinimapOffset@@3PAUtagPOINT@@A 6609de38     install.obj
 0003:0000de3c       ?d2client_pInfoPositionY@@3PAHA 6609de3c     install.obj
 0003:0000de40       ?d2client_pScreenMinimapY@@3PAHA 6609de40     install.obj
 0003:0000de44       ?d2client_pScreenMinimapX@@3PAHA 6609de44     install.obj
 0003:0000de48       ?d2client_pAutomapPos@@3PAUtagPOINT@@A 6609de48     install.obj
 0003:0000de4c       ?d2client_pMinimapCellFile@@3PAPAUCellFile@@A 6609de4c     install.obj
 0003:0000de50       ?d2client_pAutomapLayer@@3PAPAUAutomapLayer@@A 6609de50     install.obj
 0003:0000de54       ?d2client_pAutomapLayerList@@3PAPAUAutomapLayer@@A 6609de54     install.obj
 0003:0000de58       ?d2client_pMinimapType@@3PAHA 6609de58     install.obj
 0003:0000de5c       ?d2client_pChatTextLength@@3PAHA 6609de5c     install.obj
 0003:0000de60       ?d2client_pMapShakeX@@3PAJA 6609de60     install.obj
 0003:0000de64       ?d2client_pIsMapShakeOn@@3PAHA 6609de64     install.obj
 0003:0000de68       ?d2client_pActiveWeapon@@3PAHA 6609de68     install.obj
 0003:0000de6c       ?d2client_pStachImage@@3PAPAUCellFile@@A 6609de6c     install.obj
 0003:0000de70       ?d2client_pPanelTradeStash@@3PAPAUCellFile@@A 6609de70     install.obj
 0003:0000de74       ?d2client_pPanelCube@@3PAPAUCellFile@@A 6609de74     install.obj
 0003:0000de78       ?d2client_pPanelBank@@3PAPAUCellFile@@A 6609de78     install.obj
 0003:0000de7c       ?d2client_pNpcTradeCurrentTab@@3PAHA 6609de7c     install.obj
 0003:0000de80       ?d2client_pCurrentViewItem@@3PAPAUUnitAny@@A 6609de80     install.obj
 0003:0000de84       ?d2client_pRosterUnitList@@3PAPAURosterUnit@@A 6609de84     install.obj
 0003:0000de88       ?d2client_pnpcInteract@@3PAPAXA 6609de88     install.obj
 0003:0000de8c       ?d2client_pPlayerUnit@@3PAPAUUnitAny@@A 6609de8c     install.obj
 0003:0000de90       ?d2client_pGoldInTranBox@@3PAHA 6609de90     install.obj
 0003:0000de94       ?d2client_pDrawOffsetY@@3PAHA 6609de94     install.obj
 0003:0000de98       ?d2client_pDrawOffsetX@@3PAHA 6609de98     install.obj
 0003:0000de9c       ?d2client_pDrawOffset@@3PAUtagPOINT@@A 6609de9c     install.obj
 0003:0000dea0       ?d2client_pIs800x600@@3PAHA 6609dea0     install.obj
 0003:0000dea4       ?d2client_pGameInfo@@3PAPAUGameStructInfo@@A 6609dea4     install.obj
 0003:0000dea8       ?d2client_pMouseX@@3PAHA   6609dea8     install.obj
 0003:0000deac       ?d2client_pMouseY@@3PAHA   6609deac     install.obj
 0003:0000deb0       ?d2client_pPanelBtn@@3PAPAUCellFile@@A 6609deb0     install.obj
 0003:0000deb4       ?d2client_pPanelInvChar@@3PAPAUCellFile@@A 6609deb4     install.obj
 0003:0000deb8       ?d2client_pXButton1@@3PAHA 6609deb8     install.obj
 0003:0000debc       ?d2client_pXButton2@@3PAHA 6609debc     install.obj
 0003:0000dec0       ?d2client_pKeyboardSettingEnd@@3PAUKeyboardSetting@@A 6609dec0     install.obj
 0003:0000dec4       ?d2client_pKeyboardSettingStart@@3PAUKeyboardSetting@@A 6609dec4     install.obj
 0003:0000dec8       ?d2client_pSkillHotKeyLeft@@3PAHA 6609dec8     install.obj
 0003:0000decc       ?d2client_pSkillHotKeys@@3PAHA 6609decc     install.obj
 0003:0000ded0       ?d2client_pscreenDrawX@@3PAHA 6609ded0     install.obj
 0003:0000ded4       ?d2client_pscreenDrawY@@3PAHA 6609ded4     install.obj
 0003:0000ded8       ?d2client_pCastingDelayEndFrame@@3PAHA 6609ded8     install.obj
 0003:0000dedc       ?d2client_pExpansion@@3PAHA 6609dedc     install.obj
 0003:0000dee0       ?d2client_pPing@@3PAHA     6609dee0     install.obj
 0003:0000dee4       ?d2client_pCurFrame@@3PAHA 6609dee4     install.obj
 0003:0000dee8       ?d2client_pTradeRelated@@3PAPAHA 6609dee8     install.obj
 0003:0000deec       ?d2client_pGameQuestData@@3PAPAUQuestInfo@@A 6609deec     install.obj
 0003:0000def0       ?d2client_pQuestData@@3PAPAUQuestInfo@@A 6609def0     install.obj
 0003:0000def4       ?d2client_pAutomapNodeListBaseAddr@@3PAPAXA 6609def4     install.obj
 0003:0000def8       ?d2client_pMapShakeY@@3PAJA 6609def8     install.obj
 0003:0000defc       ?d2client_pUnitTable@@3PAPAUUnitAny@@A 6609defc     install.obj
 0003:0000df00       ?d2client_pWaypointMenuCount@@3PAHA 6609df00     install.obj
 0003:0000df04       ?d2client_pWaypointMenuCurTab@@3PAHA 6609df04     install.obj
 0003:0000df08       ?d2client_pWaypointMenuItems@@3PAUWaypointMenuItem@@A 6609df08     install.obj
 0003:0000df0c       ?d2client_pUiHelpOn@@3PAHA 6609df0c     install.obj
 0003:0000df10       ?d2client_pUiBeltOn@@3PAHA 6609df10     install.obj
 0003:0000df14       ?d2client_pUiCubeOn@@3PAHA 6609df14     install.obj
 0003:0000df18       ?d2client_pUiStashOn@@3PAHA 6609df18     install.obj
 0003:0000df1c       ?d2client_pUiMessageLogOn@@3PAHA 6609df1c     install.obj
 0003:0000df20       ?d2client_pUiPPLTradeOn@@3PAHA 6609df20     install.obj
 0003:0000df24       ?d2client_pUiPartyOn@@3PAHA 6609df24     install.obj
 0003:0000df28       ?d2client_pUiWaypointOn@@3PAHA 6609df28     install.obj
 0003:0000df2c       ?d2client_pUiNewQuestOn@@3PAHA 6609df2c     install.obj
 0003:0000df30       ?d2client_pUiQuestOn@@3PAHA 6609df30     install.obj
 0003:0000df34       ?d2client_pUiModItemOn@@3PAHA 6609df34     install.obj
 0003:0000df38       ?d2client_pUiShowItemsOn@@3PAHA 6609df38     install.obj
 0003:0000df3c       ?d2client_pUiNpcTradeOn@@3PAHA 6609df3c     install.obj
 0003:0000df40       ?d2client_pAutomapOn@@3PAHA 6609df40     install.obj
 0003:0000df44       ?d2client_pUiGameMenuOn@@3PAHA 6609df44     install.obj
 0003:0000df48       ?d2client_pUiInteractOn@@3PAHA 6609df48     install.obj
 0003:0000df4c       ?d2client_pUiNewSkillOn@@3PAHA 6609df4c     install.obj
 0003:0000df50       ?d2client_pUiNewStatOn@@3PAHA 6609df50     install.obj
 0003:0000df54       ?d2client_pUiChatOn@@3PAHA 6609df54     install.obj
 0003:0000df58       ?d2client_pUiSkillTreeOn@@3PAHA 6609df58     install.obj
 0003:0000df5c       ?d2client_pUiSelectSkillOn@@3PAHA 6609df5c     install.obj
 0003:0000df60       ?d2client_pUiCharacterOn@@3PAHA 6609df60     install.obj
 0003:0000df64       ?d2client_pUiInventoryOn@@3PAHA 6609df64     install.obj
 0003:0000df68       ?d2client_pUiDropGoldWindow@@3PAPAXA 6609df68     install.obj
 0003:0000df6c       ?d2client_pInfoPositionX@@3PAHA 6609df6c     install.obj
 0003:0000df70       ?d2client_pExitAppFlag@@3PAHA 6609df70     install.obj
 0003:0000df74       ?d2client_pGameControlEnd@@3PAHA 6609df74     install.obj
 0003:0000df78       ?d2client_pGameControlStart@@3PAHA 6609df78     install.obj
 0003:0000df7c       ?d2client_pMercData16@@3PAHA 6609df7c     install.obj
 0003:0000df80       ?d2client_pMinimapZoom@@3PAHA 6609df80     install.obj
 0003:0000df84       ?d2client_pCurSkillClass@@3PAHA 6609df84     install.obj
 0003:0000df88       ?d2client_pCursorInvGridY@@3PAHA 6609df88     install.obj
 0003:0000df8c       ?d2client_pCursorInvGridX@@3PAHA 6609df8c     install.obj
 0003:0000df90       ?d2client_pLastMousePos@@3PAUtagPOINT@@A 6609df90     install.obj
 0003:0000df94       ?d2client_pScreenHeight@@3PAHA 6609df94     install.obj
 0003:0000df98       ?d2client_pScreenSize@@3PAUtagPOINT@@A 6609df98     install.obj
 0003:0000df9c       ?d2client_pScreenWidth@@3PAHA 6609df9c     install.obj
 0003:0000dfa0       ?d2client_psgptDataTables@@3PAPAUD2DataTables@@A 6609dfa0     install.obj
 0003:0000dfa4       ?d2client_DrawControls@@3P6GHH@ZA 6609dfa4     install.obj
 0003:0000dfa8       ?d2client_SetUiStatus@@3P6IHHHK@ZA 6609dfa8     install.obj
 0003:0000dfac       ?d2client_LoadUiImageSubpath@@3P6IPAUCellFile@@XZA 6609dfac     install.obj
 0003:0000dfb0       ?d2client_CheckUiStatusStub@@3P6IHH@ZA 6609dfb0     install.obj
 0003:0000dfb4       ?d2client_RecvPacket3F@@3P6IXPAD@ZA 6609dfb4     install.obj
 0003:0000dfb8       ?d2client_RecvPacket0E@@3P6IXHPAD@ZA 6609dfb8     install.obj
 0003:0000dfbc       ?d2client_RecvPacket9D@@3P6IXPAD@ZA 6609dfbc     install.obj
 0003:0000dfc0       ?d2client_RecvPacket9C@@3P6IXPAD@ZA 6609dfc0     install.obj
 0003:0000dfc4       ?d2client_PacketHandler@@3P6GXH@ZA 6609dfc4     install.obj
 0003:0000dfc8       ?d2client_RecvCommand07@@3P6IXPAE@ZA 6609dfc8     install.obj
 0003:0000dfcc       ?d2client_RecvCommand08@@3P6IXPAE@ZA 6609dfcc     install.obj
 0003:0000dfd0       ?d2client_removeUnitFromHash@@3P6IHPAPAUUnitAny@@HHH@ZA 6609dfd0     install.obj
 0003:0000dfd4       ?d2client_addUnitToHash@@3P6GHXZA 6609dfd4     install.obj
 0003:0000dfd8       ?d2client_GetUnitFromId@@3P6IPAUUnitAny@@HH@ZA 6609dfd8     install.obj
 0003:0000dfdc       ?d2client_CanUseSkillNow@@3P6GHH@ZA 6609dfdc     install.obj
 0003:0000dfe0       ?d2client_processMessageA3C10@@3P6GHPAUD2MSG@@@ZA 6609dfe0     install.obj
 0003:0000dfe4       ?d2client_drawFloatingWindow@@3P6GHXZA 6609dfe4     install.obj
 0003:0000dfe8       ?d2client_drawUnits9EE90@@3P6GHPAX@ZA 6609dfe8     install.obj
 0003:0000dfec       ?d2client_drawInventory@@3P6GHXZA 6609dfec     install.obj
 0003:0000dff0       ?d2client_func_958A0@@3P6GHPAUUnitAny@@@ZA 6609dff0     install.obj
 0003:0000dff4       ?d2client_DrawAllUnits@@3P6GHXZA 6609dff4     install.obj
 0003:0000dff8       ?d2client_CalcShake@@3P6GXPAH0@ZA 6609dff8     install.obj
 0003:0000dffc       ?d2client_useStackableItem@@3P6GXPAD@ZA 6609dffc     install.obj
 0003:0000e000       ?d2client_packet9C_4@@3P6IXXZA 6609e000     install.obj
 0003:0000e004       ?d2client_drawEnvironment@@3P6GXPAX0@ZA 6609e004     install.obj
 0003:0000e008       ?d2client_drawNpcConversition@@3P6IHXZA 6609e008     install.obj
 0003:0000e00c       ?d2client_isNpcConversitionEnd@@3P6IHPAX@ZA 6609e00c     install.obj
 0003:0000e010       ?d2client_ShowGameMessage@@3P6GXPA_WH@ZA 6609e010     install.obj
 0003:0000e014       ?d2client_ShowPartyMessage@@3P6GXPA_WH@ZA 6609e014     install.obj
 0003:0000e018       ?d2client_getSkillTreeButtonY@@3P6IHXZA 6609e018     install.obj
 0003:0000e01c       ?d2client_getSkillTreeButtonX@@3P6IHXZA 6609e01c     install.obj
 0003:0000e020       ?d2client_ChatInputStub@@3P6GXPAUD2MSG@@@ZA 6609e020     install.obj
 0003:0000e024       ?d2client_drawInvItem@@3P6GHHH@ZA 6609e024     install.obj
 0003:0000e028       ?d2client_drawUnit@@3P6GHPAX@ZA 6609e028     install.obj
 0003:0000e02c       ?d2client_shouldDrawUnit@@3P6GHXZA 6609e02c     install.obj
 0003:0000e030       ?d2client_InitAutomapLayerStub@@3P6IPAUAutomapLayer@@K@ZA 6609e030     install.obj
 0003:0000e034       ?d2client_AddAreaRectToMinimap@@3P6GXPAUAreaRectData@@KPAUAutomapLayer@@@ZA 6609e034     install.obj
 0003:0000e038       ?d2client_AddAutomapNode@@3P6IXPAUAutomapNode@@PAPAU1@@ZA 6609e038     install.obj
 0003:0000e03c       ?d2client_SetAutomapPartyStub@@3P6IXK@ZA 6609e03c     install.obj
 0003:0000e040       ?d2client_SetAutomapNamesStub@@3P6IXK@ZA 6609e040     install.obj
 0003:0000e044       ?d2client_NewAutomapNode@@3P6IPAUAutomapNode@@XZA 6609e044     install.obj
 0003:0000e048       ?d2client_drawAllHeads@@3P6GHXZA 6609e048     install.obj
 0003:0000e04c       ?d2client_recvCmd77ButtonAction@@3P6GXXZA 6609e04c     install.obj
 0003:0000e050       ?d2client_clickAcceptTradeMenuItem@@3P6GHXZA 6609e050     install.obj
 0003:0000e054       ?d2client_GetSelectedUnit@@3P6GPAUUnitAny@@XZA 6609e054     install.obj
 0003:0000e058       ?d2client_fun_4B8A0@@3P6GHHPAFD@ZA 6609e058     install.obj
 0003:0000e05c       ?d2client_clickHireMercMenu@@3P6GHXZA 6609e05c     install.obj
 0003:0000e060       ?d2client_clickGotoAct2MenuItem@@3P6GHXZA 6609e060     install.obj
 0003:0000e064       ?d2client_clickGotoAct3MenuItem@@3P6GHXZA 6609e064     install.obj
 0003:0000e068       ?d2client_drawNpcInteractMenu@@3P6GHXZA 6609e068     install.obj
 0003:0000e06c       ?d2client_Unknown6150@@3P6GHXZA 6609e06c     install.obj
 0003:0000e070       ?d2client_GetScreenDrawY@@3P6GJXZA 6609e070     install.obj
 0003:0000e074       ?d2client_GetScreenDrawX@@3P6GJXZA 6609e074     install.obj
 0003:0000e078       ?d2client_DrawSkillButtonE5E0@@3P6GXHHHHHH@ZA 6609e078     install.obj
 0003:0000e07c       ?d2client_SkillUnusable@@3P6IXXZA 6609e07c     install.obj
 0003:0000e080       ?d2client_processWinMessage@@3P6GHPAUHWND__@@HHH@ZA 6609e080     install.obj
 0003:0000e084       ?d2client_processMessages@@3P6IXXZA 6609e084     install.obj
 0003:0000e088       ?d2client_ShowMap@@3P6IXXZA 6609e088     install.obj
 0003:0000e08c       ?d2client_LoadUiImageFunc@@3P6GPAUCellFile@@H@ZA 6609e08c     install.obj
 0003:0000e090       ?d2client_setState_2A750@@3P6IXHHHH@ZA 6609e090     install.obj
 0003:0000e094       ?d2client_UseBelt@@3P6IXPAUUnitInventory@@PAUUnitAny@@H@ZA 6609e094     install.obj
 0003:0000e098       ?d2client_DrawClient@@3P6IXXZA 6609e098     install.obj
 0003:0000e09c       ?d2client_DrawSkillButton@@3P6GXPAUSkill@@HHH@ZA 6609e09c     install.obj
 0003:0000e0a0       ?d2client_drawHpManaText@@3P6GHXZA 6609e0a0     install.obj
 0003:0000e0a4       ?d2client_PlaySound@@3P6IHHHH@ZA 6609e0a4     install.obj
 0003:0000e0a8       ?d2client_ItemProtect@@3P6GXPAUUnitAny@@K@ZA 6609e0a8     install.obj
 0003:0000e0ac       ?d2client_GetMonsterOwner@@3P6IHH@ZA 6609e0ac     install.obj
 0003:0000e0b0       ?d2client_LeftClickBDE0@@3P6GHXZA 6609e0b0     install.obj
 0003:0000e0b4       ?d2client_RightClickBC40@@3P6GHXZA 6609e0b4     install.obj
 0003:0000e0b8       ?d2client_ShouldClick85E0@@3P6GHXZA 6609e0b8     install.obj
 0003:0000e0bc       ?d2client_SendPacket3@@3P6IXF@ZA 6609e0bc     install.obj
 0003:0000e0c0       ?d2client_sendPacketLen13@@3P6IXHHH@ZA 6609e0c0     install.obj
 0003:0000e0c4       ?d2client_SendPacket43E0@@3P6GXPAD@ZA 6609e0c4     install.obj
 0003:0000e0c8       ?d2client_drawGround@@3P6GHPAX@ZA 6609e0c8     install.obj
 0003:0000e0cc       ?d2client_drawGroundPiece@@3P6GXHHHHHH@ZA 6609e0cc     install.obj
 0003:0000e0d0       ?d2client_SetResolutionMode@@3P6GXXZA 6609e0d0     install.obj
 0003:0000e0d4       ?d2client_getNearbyRectData@@3P6GXPAUAreaRectData@@PAPAPAU1@PAH@ZA 6609e0d4     install.obj
 0003:0000e0d8       ?d2client_Storm511@@3P6GXPAUD2MSG@@@ZA 6609e0d8     install.obj
 0003:0000e0dc       ?d2client_subEsp@@3P6GHXZA 6609e0dc     install.obj
 0003:0000e0e0       ?d2client_getSkillDescTxt@@3P6IPAXXZA 6609e0e0     install.obj
 0003:0000e0e4       ?bnclient_pBnChatMessage@@3PAPAKA 6609e0e4     install.obj
 0003:0000e0ec       ?bnetIp@@3PADA             6609e0ec     install.obj
 0003:0000e0f4       ?load_dll_error@@3HA       6609e0f4     install.obj
 0003:0000e0f8       ?fLocalizationSupport@@3HA 6609e0f8     install.obj
 0003:0000e0fc       ?addr_storm@@3PAUHINSTANCE__@@A 6609e0fc     install.obj
 0003:0000e100       ?addr_d2client@@3PAUHINSTANCE__@@A 6609e100     install.obj
 0003:0000e104       ?addr_d2common@@3PAUHINSTANCE__@@A 6609e104     install.obj
 0003:0000e108       ?addr_d2gfx@@3PAUHINSTANCE__@@A 6609e108     install.obj
 0003:0000e10c       ?addr_d2win@@3PAUHINSTANCE__@@A 6609e10c     install.obj
 0003:0000e110       ?addr_d2lang@@3PAUHINSTANCE__@@A 6609e110     install.obj
 0003:0000e114       ?addr_d2cmp@@3PAUHINSTANCE__@@A 6609e114     install.obj
 0003:0000e118       ?addr_bnclient@@3PAUHINSTANCE__@@A 6609e118     install.obj
 0003:0000e11c       ?addr_d2net@@3PAUHINSTANCE__@@A 6609e11c     install.obj
 0003:0000e120       ?addr_fog@@3PAUHINSTANCE__@@A 6609e120     install.obj
 0003:0000e124       ?addr_d2game@@3PAUHINSTANCE__@@A 6609e124     install.obj
 0003:0000e128       ?addr_d2launch@@3PAUHINSTANCE__@@A 6609e128     install.obj
 0003:0000e12c       ?addr_d2gdi@@3PAUHINSTANCE__@@A 6609e12c     install.obj
 0003:0000e130       ?addr_d2sound@@3PAUHINSTANCE__@@A 6609e130     install.obj
 0003:0000e134       ?addr_d2multi@@3PAUHINSTANCE__@@A 6609e134     install.obj
 0003:0000e138       ?addr_d2mcpclient@@3PAUHINSTANCE__@@A 6609e138     install.obj
 0003:0000e13c       ?fGameFilter@@3HA          6609e13c     install.obj
 0003:0000e140       ?hasPlugY@@3HA             6609e140     install.obj
 0003:0000e144       ?pPatchList@@3PAPAUInstalledPatch@@A 6609e144     install.obj
 0003:0000e154       ?networkPatch@@3PAUInstalledPatch@@A 6609e154     install.obj
 0003:0000f568       ?dwDumpMpqPath@@3HA        6609f568     mpq.obj
 0003:0000f600       ?singlePlayerWorld@@3PAUWorld@@A 6609f600     common.obj
 0003:0000f604       ?forceStandStill@@3HA      6609f604     common.obj
 0003:00010ef0       ?nPet@@3HA                 660a0ef0     common.obj
 0003:00010ef4       ?petCap@@3HA               660a0ef4     common.obj
 0003:00010ef8       ?dwPetListChangeVerify@@3HA 660a0ef8     common.obj
 0003:00010f00       ?fPartyListValid@@3HA      660a0f00     common.obj
 0003:00010f3c       ?autoTerminateNpcInteractMs@@3HA 660a0f3c     loop.obj
 0003:00010f40       ?screenDrawY@@3HA          660a0f40     loop.obj
 0003:00010f44       ?screenDrawX@@3HA          660a0f44     loop.obj
 0003:00010f48       ?exitGameMs@@3HA           660a0f48     loop.obj
 0003:00010f4c       ?dwChangeLeftSkill@@3HA    660a0f4c     loop.obj
 0003:00010f50       ?dwLoopCount@@3HA          660a0f50     loop.obj
 0003:00010f54       ?fDebugMs@@3HA             660a0f54     loop.obj
 0003:00010f58       ?dwLevelChangeMs@@3HA      660a0f58     loop.obj
 0003:00010f5c       ?dwCpuUser@@3HA            660a0f5c     loop.obj
 0003:00010f60       ?dwCpuKernel@@3HA          660a0f60     loop.obj
 0003:00010f64       ?dwLoopFPS@@3HA            660a0f64     loop.obj
 0003:00010f68       ?dwDrawFPS@@3HA            660a0f68     loop.obj
 0003:00010f6c       ?dwCurMs@@3HC              660a0f6c     loop.obj
 0003:00010f70       ?dwEnterGameMs@@3HA        660a0f70     loop.obj
 0003:00010f74       ?fStartingGame@@3HA        660a0f74     loop.obj
 0003:00010f78       ?fInGame@@3HA              660a0f78     loop.obj
 0003:00010f7c       ?dwEnterGameShowDifficultyMs@@3HA 660a0f7c     loop.obj
 0003:00010f80       ?dwCurrentAct@@3HA         660a0f80     loop.obj
 0003:00010f84       ?dwPlayerX@@3HA            660a0f84     loop.obj
 0003:00010f88       ?dwPlayerY@@3HA            660a0f88     loop.obj
 0003:00010f8c       ?dwPlayerId@@3HA           660a0f8c     loop.obj
 0003:00010f90       ?dwPlayerPartyId@@3HA      660a0f90     loop.obj
 0003:00010f94       ?dwPlayerClass@@3HA        660a0f94     loop.obj
 0003:00010f98       ?pLeftSkill@@3PAUSkill@@A  660a0f98     loop.obj
 0003:00010f9c       ?pRightSkill@@3PAUSkill@@A 660a0f9c     loop.obj
 0003:00010fa0       ?dwLeftSkillStatus@@3HA    660a0fa0     loop.obj
 0003:00010fa4       ?dwRightSkillStatus@@3HA   660a0fa4     loop.obj
 0003:00010fa8       ?dwPlayerLevel@@3HA        660a0fa8     loop.obj
 0003:00010fac       ?dwPlayerHP@@3HA           660a0fac     loop.obj
 0003:00010fb0       ?dwPlayerMaxHP@@3HA        660a0fb0     loop.obj
 0003:00010fb4       ?dwPlayerMana@@3HA         660a0fb4     loop.obj
 0003:00010fb8       ?dwPlayerMaxMana@@3HA      660a0fb8     loop.obj
 0003:00010fbc       ?dwPlayerFcrFrame@@3HA     660a0fbc     loop.obj
 0003:00010fc0       ?dwPlayerFcrMs@@3HA        660a0fc0     loop.obj
 0003:00010fc4       ?dwSlowRestoreMs@@3HA      660a0fc4     loop.obj
 0003:00010fd8       ?dwBugFlag@@3HA            660a0fd8     loop.obj
 0003:00010fdc       ?fIsHardCoreSafe@@3HA      660a0fdc     loop.obj
 0003:00010fe0       ?fUsingHardCoreConfig@@3HA 660a0fe0     loop.obj
 0003:00010fe4       ?fIsHardCoreGame@@3HA      660a0fe4     loop.obj
 0003:00010fe8       ?fHasHardCoreConfig@@3HA   660a0fe8     loop.obj
 0003:00010fec       ?needReloadConfig@@3HA     660a0fec     loop.obj
 0003:00011018       ?wcsLevelTargetName@@3PA_WA 660a1018     map.obj
 0003:00011148       ?minimapLevels@@3PAUMinimapLevel@@A 660a1148     map.obj
 0003:00012728       ?pCurMapLevel@@3PAUMinimapLevel@@A 660a2728     map.obj
 0003:00012814       ?pMinimapObjectCell@@3PAUCellFile@@A 660a2814     map.obj
 0003:00012818       ?dwRevealMapMs@@3HA        660a2818     map.obj
 0003:0001281c       ?dwAutoRevealCLevel@@3HA   660a281c     map.obj
 0003:00012820       ?anMonsterColours@@3PAEA   660a2820     map.obj
 0003:00012c08       ?wszStaffTombLvlDesc@@3PA_WA 660a2c08     map.obj
 0003:00012c6c       ?nCaveNameTextCol@@3EA     660a2c6c     map.obj
 0003:00012c6d       ?nSuperUniqueDescFont@@3EA 660a2c6d     map.obj
 0003:00012c70       ?aszUnitBlobFiles@@3PAY0DC@DA 660a2c70     map.obj
 0003:00012e98       ?awszEnchantDescs@@3PAY0BE@_WA 660a2e98     map.obj
 0003:00013668       ?awszAuraDescs@@3PAY0BE@_WA 660a3668     map.obj
 0003:00013780       ?awszImmuneDescs@@3PAY0BE@_WA 660a3780     map.obj
 0003:00013870       ?anMonsterCorpseColors@@3PAEA 660a3870     map.obj
 0003:00013c58       ?anMissileColours@@3PAEA   660a3c58     map.obj
 0003:00014040       ?dwScreenScrollCount@@3HA  660a4040     map.obj
 0003:00014044       ?dwMinimapScrollCount@@3HA 660a4044     map.obj
 0003:00014048       ?tScreenScrollKeys@@3PAUToggleVar@@A 660a4048     map.obj
 0003:00014348       ?dwScreenScrollOffset@@3PAY01HA 660a4348     map.obj
 0003:000143c8       ?tMiniMapScrollKeys@@3PAUToggleVar@@A 660a43c8     map.obj
 0003:000146c8       ?dwMiniMapScrollOffset@@3PAY01HA 660a46c8     map.obj
 0003:00014954       ?npcChatTxt@@3HA           660a4954     packet.obj
 0003:00014958       ?dwSendPacketCount@@3HA    660a4958     packet.obj
 0003:0001495c       ?dwInteractEntityCount@@3HA 660a495c     packet.obj
 0003:00014960       ?fMonitorSendCmd@@3PADA    660a4960     packet.obj
 0003:00014a60       ?fMonitorRecvCmd@@3PADA    660a4a60     packet.obj
 0003:00014c68       ?dwTargetDistanceMs@@3HA   660a4c68     route.obj
 0003:00014c6c       ?dwTargetDistance@@3HA     660a4c6c     route.obj
 0003:00014c98       ?pSrcRect@@3PAURouteRect@@A 660a4c98     route.obj
 0003:00014ca0       ?dwTakeWaypointToLevel@@3HA 660a4ca0     waypoint.obj
 0003:00014ca4       ?waypointBits@@3PADA       660a4ca4     waypoint.obj
 0003:00014cb0       ?waypointMap@@3PAHA        660a4cb0     waypoint.obj
 0003:00014ee0       ?mainMenuLoopCount@@3HA    660a4ee0     winmsg.obj
 0003:00014ee4       ?mouseL@@3HA               660a4ee4     winmsg.obj
 0003:00014ee8       ?mouseW@@3HA               660a4ee8     winmsg.obj
 0003:000172f0       ?fSkipPainting@@3HA        660a72f0     winmsg.obj
 0003:000172f4       ?fSkipPaintingMenu@@3HA    660a72f4     winmsg.obj
 0003:000172f8       ?dwQuickSwapItemMs@@3HA    660a72f8     winmsg.obj
 0003:000172fc       ?dwScreenBlockMask@@3HA    660a72fc     winmsg.obj
 0003:00017300       ?dwDrawCount@@3HA          660a7300     winmsg.obj
 0003:00017304       ?fInMainMenu@@3HA          660a7304     winmsg.obj
 0003:00017308       ?fLeftBtnDown@@3HA         660a7308     winmsg.obj
 0003:0001730c       ?fRightBtnDown@@3HA        660a730c     winmsg.obj
 0003:00017310       ?dwBtnReleaseMs@@3HA       660a7310     winmsg.obj
 0003:00017314       ?fUserOperating@@3HA       660a7314     winmsg.obj
 0003:00017318       ?need_paint@@3HA           660a7318     winmsg.obj
 0003:0001731c       ?altDown@@3HA              660a731c     winmsg.obj
 0003:00017320       ?ctrlDown@@3HA             660a7320     winmsg.obj
 0003:00017324       ?shiftDown@@3HA            660a7324     winmsg.obj
 0003:00017340       ?fNoBackgroundImage@@3HA   660a7340     winmsg.obj
 0003:00017344       ?dwAutoHideMinimapKey@@3HA 660a7344     winmsg.obj
 0003:00017348       ?dwGameControlKeys@@3PAY03HA 660a7348     winmsg.obj
 0003:00017748       ?dwGameSoundKeys@@3PAHA    660a7748     winmsg.obj
 0003:00017948       ?tSwitchWindowKeys@@3PAY01UToggleVar@@A 660a7948     winmsg.obj
 0003:00017f48       ?dwSwitchSkillKeyCount@@3HA 660a7f48     winmsg.obj
 0003:00017f4c       ?fFullWindows@@3HA         660a7f4c     winmsg.obj
 0003:00017f50       ?dwSwitchSkillKeys@@3PAHA  660a7f50     winmsg.obj
 0003:00017fd0       ?dwSwitchSkillLeft@@3PAY173HA 660a7fd0     winmsg.obj
 0003:00018fd0       ?dwSwitchSkillRight@@3PAY173HA 660a8fd0     winmsg.obj
 0003:00019fd0       ?dwSwitchSkillLeftUp@@3PAY07HA 660a9fd0     winmsg.obj
 0003:0001a3d0       ?dwSwitchSkillRightUp@@3PAY07HA 660aa3d0     winmsg.obj
 0003:0001a7d0       ?dwSwitchSkillStandStill@@3PAHA 660aa7d0     winmsg.obj
 0003:0001a850       ?dwSwitchSkillLeftOrg@@3PAHA 660aa850     winmsg.obj
 0003:0001a8d0       ?dwSwitchSkillRightOrg@@3PAHA 660aa8d0     winmsg.obj
 0003:0001a950       ?dwTpSwitchBackground@@3PAHA 660aa950     winmsg.obj
 0003:0001a970       ?dwEnterDoorInBackgroundSkill@@3PAY0MI@HA 660aa970     winmsg.obj
 0003:0001bf50       ?dwDrawUnitCount@@3HA      660abf50     winmsg.obj
 0003:0001bf88       ?skipMonsters@@3PADA       660abf88     env.obj
 0003:0001c388       ?dwVisualEffectMode@@3HA   660ac388     env.obj
 0003:0001c390       ?afMonsterCorpses@@3PAEA   660ac390     env.obj
 0003:0001c778       ?afMissileCorpses@@3PAEA   660ac778     env.obj
 0003:0001cce0       ?dwNextStackLoc@@3HA       660acce0     GameMonitor.obj
 0003:0001cce4       ?dwNextStackY@@3HA         660acce4     GameMonitor.obj
 0003:0001cce8       ?dwNextStackX@@3HA         660acce8     GameMonitor.obj
 0003:0001ccec       ?dwNextStackingId@@3HA     660accec     GameMonitor.obj
 0003:0001ccf0       ?dwThrowWeaponId@@3HA      660accf0     GameMonitor.obj
 0003:0001cd00       ?dwNextMPotionId@@3HA      660acd00     GameMonitor.obj
 0003:0001cd04       ?dwNextHPotionId@@3HA      660acd04     GameMonitor.obj
 0003:0001cd08       ?beltLayers@@3HA           660acd08     GameMonitor.obj
 0003:0001cd0c       ?dwNeedPotionType@@3HA     660acd0c     GameMonitor.obj
 0003:0001cd10       ?beltType@@3PAEA           660acd10     GameMonitor.obj
 0003:0001cd14       ?beltCount@@3PAEA          660acd14     GameMonitor.obj
 0003:0001cd18       ?fWerebear@@3HA            660acd18     GameMonitor.obj
 0003:0001cd1c       ?fWerewolf@@3HA            660acd1c     GameMonitor.obj
 0003:0001cd20       ?dwOakSageLvl@@3HA         660acd20     GameMonitor.obj
 0003:0001cd44       ?bossHps@@3PAHA            660acd44     GameMonitor.obj
 0003:0001cd50       ?dwRecheckSelfItemMs@@3HA  660acd50     GameMonitor.obj
 0003:0001cd54       ?leftWeapon@@3PAUUnitAny@@A 660acd54     GameMonitor.obj
 0003:0001cd58       ?rightWeapon@@3PAUUnitAny@@A 660acd58     GameMonitor.obj
 0003:0001cd5c       ?dwTownPortalCount@@3HA    660acd5c     GameMonitor.obj
 0003:0001cd60       ?dwIdentifyPortalCount@@3HA 660acd60     GameMonitor.obj
 0003:0001cd64       ?fUsingBow@@3HA            660acd64     GameMonitor.obj
 0003:0001cd68       ?fUsingCrossBow@@3HA       660acd68     GameMonitor.obj
 0003:0001cd6c       ?fUsingThrow@@3HA          660acd6c     GameMonitor.obj
 0003:0001cd70       ?dwHPotionCount@@3HA       660acd70     GameMonitor.obj
 0003:0001cd74       ?dwMPotionCount@@3HA       660acd74     GameMonitor.obj
 0003:0001cd78       ?dwRPotionCount@@3HA       660acd78     GameMonitor.obj
 0003:0001cd7c       ?dwArrowCount@@3HA         660acd7c     GameMonitor.obj
 0003:0001cd80       ?dwCArrowCount@@3HA        660acd80     GameMonitor.obj
 0003:0001cd84       ?dwThrowCount@@3HA         660acd84     GameMonitor.obj
 0003:0001cd88       ?curStashPage@@3HA         660acd88     GameMonitor.obj
 0003:0001cd8c       ?nStashPages@@3HA          660acd8c     GameMonitor.obj
 0003:0001cd90       ?stashPages@@3PAPAUStashPage@@A 660acd90     GameMonitor.obj
 0003:0001cf90       ?bossX@@3HA                660acf90     GameMonitor.obj
 0003:0001cf94       ?bossY@@3HA                660acf94     GameMonitor.obj
 0003:0001cf98       ?bossId@@3HA               660acf98     GameMonitor.obj
 0003:0001cf9c       ?nBoss@@3HA                660acf9c     GameMonitor.obj
 0003:0001cfa8       ?fMonitorQuantity@@3HA     660acfa8     GameMonitor.obj
 0003:0001cfac       ?fMonitorDurability@@3HA   660acfac     GameMonitor.obj
 0003:0001cfb0       ?dwKillSum@@3HA            660acfb0     GameMonitor.obj
 0003:0001cfb4       ?dwGameKills@@3HA          660acfb4     GameMonitor.obj
 0003:0001cfb8       ?dwLastKills@@3HA          660acfb8     GameMonitor.obj
 0003:0001cfbc       ?dwGetHitSum@@3HA          660acfbc     GameMonitor.obj
 0003:0001cfc0       ?dwGetHits@@3HA            660acfc0     GameMonitor.obj
 0003:0001cfc4       ?dwOrgMode@@3HA            660acfc4     GameMonitor.obj
 0003:0001cfc8       ?targetNameColor@@3DA      660acfc8     GameMonitor.obj
 0003:0001cfcc       ?fState100HP@@3HA          660acfcc     GameMonitor.obj
 0003:0001cfd0       ?fState106ManaMs@@3HA      660acfd0     GameMonitor.obj
 0003:0001cfd8       ?dwGuessBOMs@@3HA          660acfd8     GameMonitor.obj
 0003:0001cfdc       ?dwGuessEnchantMs@@3HA     660acfdc     GameMonitor.obj
 0003:0001cfe0       ?nPlayerCast@@3HA          660acfe0     GameMonitor.obj
 0003:0001f910       ?fViewingTargetUnit@@3HA   660af910     info.obj
 0003:0001f914       ?currentgameexp@@3HA       660af914     info.obj
 0003:00094c70       ?dwGoldGoodNum@@3HA        66124c70     item.obj
 0003:00094c74       ?fSimplifiedPotionName@@3HA 66124c74     item.obj
 0003:00094c78       ?anRuneColours@@3PAY03DA   66124c78     item.obj
 0003:00094e08       ?anItemColours@@3PAY37163DA 66124e08     item.obj
 0003:001dd008       ?anItemHideLevel@@3PAY07DA 6626d008     item.obj
 0003:001e2dc8       ?anItemShowCLevel@@3PAY01DA 66272dc8     item.obj
 0003:001e4538       ?wszEtherealItemPrefix@@3PA_WA 66274538     item.obj
 0003:001e4574       ?wszEtherealItemPostfix@@3PA_WA 66274574     item.obj
 0003:001e45b0       ?dwShowValuableItem@@3HA   662745b0     item.obj
 0003:001e45b8       ?szItemExtInfoCfgName@@3PAY0BAA@DA 662745b8     item.obj
 0003:001e47b8       ?fViewSockFlag@@3HA        662747b8     item.obj
 0003:001e47bc       ?fViewSocketableOn@@3HA    662747bc     item.obj
 0003:001e47c0       ?wszDescText@@3PA_WA       662747c0     item.obj
 0003:001e4fc0       ?pViewingItem@@3PAUUnitAny@@A 66274fc0     item.obj
 0003:001e4fc8       ?marketItemCount@@3HA      66274fc8     item.obj
 0003:001e4fcc       ?marketItemCount1@@3HA     66274fcc     item.obj
 0003:001f48f0       ?dwCheckMercMs@@3HA        662848f0     dangerous.obj
 0003:001f490c       ?dwIronGolemLifeAlertPercent@@3HA 6628490c     dangerous.obj
 0003:001f4910       ?dwIronGolemLifeTownPercent@@3HA 66284910     dangerous.obj
 0003:001f4914       ?dwIronGolemLifeExitPercent@@3HA 66284914     dangerous.obj
 0003:001f4918       ?dwIronGolemTownLifePercent@@3HA 66284918     dangerous.obj
 0003:001f491c       ?dwHirePotionMinCLevel@@3HA 6628491c     dangerous.obj
 0003:001f4920       ?dwHirePotionLifePercent@@3HA 66284920     dangerous.obj
 0003:001f4924       ?dwHirePotionColumn@@3HA   66284924     dangerous.obj
 0003:001f4928       ?dwHealingPotionLifePercent@@3HA 66284928     dangerous.obj
 0003:001f492c       ?dwHealingPotionDelayMs@@3HA 6628492c     dangerous.obj
 0003:001f4930       ?dwManaPotionMax@@3HA      66284930     dangerous.obj
 0003:001f4934       ?dwManaPotionValue@@3HA    66284934     dangerous.obj
 0003:001f4938       ?dwManaPotionNTValue@@3HA  66284938     dangerous.obj
 0003:001f493c       ?dwChickenLife@@3HA        6628493c     dangerous.obj
 0003:001f4940       ?dwChickenLifeCondition@@3HA 66284940     dangerous.obj
 0003:001f4944       ?dwChickenHostileLife@@3HA 66284944     dangerous.obj
 0003:001f4948       ?dwChickenHostileNearbyLife@@3HA 66284948     dangerous.obj
 0003:001f494c       ?dwChickenLifePercent@@3HA 6628494c     dangerous.obj
 0003:001f4950       ?dwHCChickenLifePercent@@3HA 66284950     dangerous.obj
 0003:001f4954       ?dwChickenHostileLifePercent@@3HA 66284954     dangerous.obj
 0003:001f4958       ?dwChickenHostileNearbyLifePercent@@3HA 66284958     dangerous.obj
 0003:001f495c       ?dwChickenLifeMinClevel@@3HA 6628495c     dangerous.obj
 0003:001f4960       ?fLifeProtectOn@@3HA       66284960     dangerous.obj
 0003:001f4964       ?fDangerousMonsterActive@@3HA 66284964     dangerous.obj
 0003:001f4968       ?anDangerousMonster@@3PAY01DA 66284968     dangerous.obj
 0003:001f51c8       ?dwUpdateQuestMs@@3HA      662851c8     quest.obj
 0003:001f51cc       ?dwQuestAlertMs@@3HA       662851cc     quest.obj
 0003:001f51d0       ?hasRune789@@3HA           662851d0     quest.obj
 0003:001f51d8       ?wszBugKBAlertMessage@@3PA_WA 662851d8     quest.obj
 0003:001f53d8       ?dwKBSkillSwitch@@3PAY05HA 662853d8     quest.obj
 0003:001f93e8       ?afMonsterDeathAnims@@3PAEA 662893e8     lifebar.obj
 0003:001f9808       ?aDropProtectRune@@3PADA   66289808     DropProtection.obj
 0003:001f9830       ?aDropProtectRuneword@@3PADA 66289830     DropProtection.obj
 0003:001f9930       ?aDropProtectUnique@@3PADA 66289930     DropProtection.obj
 0003:001f9b30       ?aDropProtectSet@@3PADA    66289b30     DropProtection.obj
 0003:001f9c30       ?dwSimpleItemProtectionCount@@3HA 66289c30     DropProtection.obj
 0003:001fe050       ?fAutoEnchantCheckUnit@@3HA 6628e050     enchant.obj
 0003:001fe058       ?pD2WinEditBox@@3PAUD2EditBox@@A 6628e058     chat.obj
 0003:001fe060       ?chatPasteMs@@3HA          6628e060     chat.obj
 0003:001fe068       ?fMyChatOn@@3HA            6628e068     chat.obj
 0003:001fe130       ?dwAutoLoginMs@@3HA        6628e130     login.obj
 0003:001fe138       ?dwAutoSelectCharMs@@3HA   6628e138     login.obj
 0003:001fe148       ?nCurCharTags@@3HA         6628e148     login.obj
 0003:001fe160       ?mSkipQuestMessage@@3HA    6628e160     misc.obj
 0003:001fe174       ?dwWaitTeamEnterPortalId@@3HA 6628e174     multi.obj
 0003:001fe178       ?dwWaitTeamEnterPortalMs@@3HA 6628e178     multi.obj
 0003:001fe1b4       ?hydraY@@3HA               6628e1b4     multi.obj
 0003:001fe1b8       ?hydraX@@3HA               6628e1b8     multi.obj
 0003:001fe1bc       ?clickAcceptTradeMs@@3HA   6628e1bc     multi.obj
 0003:001fe1c0       ?autoNpcTxt@@3HA           6628e1c0     multi.obj
 0003:001fe1c4       ?dwMultiClientMaxWindowId@@3HA 6628e1c4     multi.obj
 0003:001fe1c8       ?d2winLastId@@3HA          6628e1c8     multi.obj
 0003:001fe1cc       ?fAutoFollowMoving@@3HA    6628e1cc     multi.obj
 0003:001fe1d0       ?wszTransferClick@@3PA_WA  6628e1d0     multi.obj
 0003:001fe250       ?acceptTradeFromGid@@3HA   6628e250     multi.obj
 0003:001fe254       ?acceptTradeFromUid@@3HA   6628e254     multi.obj
 0003:001fe258       ?acceptTradeMs@@3HA        6628e258     multi.obj
 0003:001fe274       ?hydraLock@@3HA            6628e274     multi.obj
 0003:001fe278       ?hydraUid@@3HA             6628e278     multi.obj
 0003:001fe27c       ?fTransferClick@@3HA       6628e27c     multi.obj
 0003:001fe280       ?tMCFormationKeys@@3PAUToggleVar@@A 6628e280     multi.obj
 0003:001fe880       ?aMCFormation@@3PAY0BA@CA  6628e880     multi.obj
 0003:001fea80       ?aAutoFollowClickObject@@3PADA 6628ea80     multi.obj
 0003:001fee80       ?dwTeamMemberCount@@3HA    6628ee80     multi.obj
 0003:001fee84       ?dwLeaderId@@3HA           6628ee84     multi.obj
 0003:001fee90       ?d2wins@@3PAUD2Window@@A   6628ee90     multi.obj
 0003:00200f28       ?wszNpcTradeInfo@@3PA_WA   66290f28     NpcTrade.obj
 0003:00201a8c       ?dwNpcTradeCheckMs@@3HA    66291a8c     NpcTrade.obj
 0003:00201a90       ?dwPartyInvideMs@@3HA      66291a90     party.obj
 0003:00201a94       ?dwCheckRelationMs@@3HA    66291a94     party.obj
 0003:00201a98       ?hasHostilePlayer@@3HA     66291a98     party.obj
 0003:00201a9c       ?fCanInvite@@3HA           66291a9c     party.obj
 0003:00201aa0       ?dwPartyResponseMs@@3HA    66291aa0     party.obj
 0003:00201ab8       ?fCanExitGame@@3HA         66291ab8     quick.obj
 0003:00201abc       ?dwBackToTownTimeout@@3HA  66291abc     quick.obj
 0003:00201ac8       ?fAutoNextGameName@@3HA    66291ac8     quick.obj
 0003:00201acc       ?fAutoNextGamePassword@@3HA 66291acc     quick.obj
 0003:00201ad0       ?fAutoNextGameDescription@@3HA 66291ad0     quick.obj
 0003:00201ad8       ?wszGameName@@3PA_WA       66291ad8     quick.obj
 0003:00201b18       ?wszGamePassword@@3PA_WA   66291b18     quick.obj
 0003:00201b58       ?wszGameDescription@@3PA_WA 66291b58     quick.obj
 0003:00201b9c       ?autoJoinGameMs@@3HA       66291b9c     quick.obj
 0003:00202128       ?fHighRes@@3HA             66292128     resolution.obj
 0003:002061fc       ?dwAutoSkillReloading@@3HA 662961fc     skill.obj
 0003:00206200       ?dwRescueBarSafeDistance@@3HA 66296200     skill.obj
 0003:00206204       ?fAutoEnchant@@3HA         66296204     skill.obj
 0003:00206208       ?aAutoPickupItem@@3PADA    66296208     skill.obj
 0003:00206dc0       ?fAutoEnchantUseLeftSkill@@3HA 66296dc0     skill.obj
 0003:00206dc4       ?fAutoWarCry@@3HA          66296dc4     skill.obj
 0003:00206dc8       ?dwAutoEnchantMonster@@3PADA 66296dc8     skill.obj
 0003:002071c8       ?fAutoWarCryUseLeftSkill@@3HA 662971c8     skill.obj
 0003:002071cc       ?dwAutoWarCryRenewPercent@@3HA 662971cc     skill.obj
 0003:002071d0       ?dwUseLeftSkillFirst@@3HA  662971d0     skill.obj
 0003:002071d4       ?dwAutoReloadThrowing@@3HA 662971d4     skill.obj
 0003:002071d8       ?dwAutoSkillCheckMs@@3HA   662971d8     skill.obj
 0003:002071dc       ?dwAutoSkillMode@@3HA      662971dc     skill.obj
 0003:002071e0       ?fAutoSkillNow@@3HA        662971e0     skill.obj
 0003:002071e4       ?fAutoSkill@@3HA           662971e4     skill.obj
 0003:002071e8       ?aAutoDimVisionMonster@@3PADA 662971e8     skill.obj
 0003:002075e8       ?aAutoSkillMonsterType@@3PADA 662975e8     skill.obj
 0003:002079e8       ?aAutoSkillDistance@@3PAY01DA 662979e8     skill.obj
 0003:00207de8       ?fAutoSummon@@3HA          66297de8     skill.obj
 0003:00207dec       ?fAutoSummonUseLeftSkill@@3HA 66297dec     skill.obj
 0003:00207df0       ?dwAutoSummonStartMs@@3HA  66297df0     skill.obj
 0003:00207df4       ?dwAutoSummonCheckEnchantMs@@3HA 66297df4     skill.obj
 0003:00207df8       ?aAutoReviveMonster@@3PADA 66297df8     skill.obj
 0003:002081f8       ?dwSkeletonCount@@3HA      662981f8     skill.obj
 0003:002081fc       ?dwEnchantSkeletonCount@@3HA 662981fc     skill.obj
 0003:00208200       ?dwSkeletonMaxCount@@3HA   66298200     skill.obj
 0003:00208204       ?dwSkeletonMageCount@@3HA  66298204     skill.obj
 0003:00208208       ?dwSkeletonMageMaxCount@@3HA 66298208     skill.obj
 0003:0020820c       ?dwReviveCount@@3HA        6629820c     skill.obj
 0003:00208210       ?dwReviveMaxCount@@3HA     66298210     skill.obj
 0003:00208214       ?dwSkeletonHPPercent@@3HA  66298214     skill.obj
 0003:00208218       ?dwSkeletonMageHPPercent@@3HA 66298218     skill.obj
 0003:0020abe8       ?questNames@@3PAPADA       6629abe8     Snapshot.obj
 0003:0020aca8       ?dwMercNameId@@3HA         6629aca8     Snapshot.obj
 0003:0020acb4       ?dwMercSeed@@3HA           6629acb4     Snapshot.obj
 0003:0020ae28       ?dwCheckSkeletonCountMs@@3HA 6629ae28     summon.obj
 0003:0020ee50       ?fAutoSummonSwitchSkillTmp@@3HA 6629ee50     summon.obj
 0003:0020ee54       ?fAutoSummonSwitchSkill@@3HA 6629ee54     summon.obj
 0003:0020ee58       ?fAutoSummonNeedCorpse@@3HA 6629ee58     summon.obj
 0003:0020ee5c       ?dwNecInfoExpireMs@@3HA    6629ee5c     summon.obj
 0003:0020ee60       ?dwNecMana@@3HA            6629ee60     summon.obj
 0003:0020ee64       ?dwTotalMonsterCount@@3HA  6629ee64     summon.obj
 0003:0020ee68       ?dwSkillChangeCount@@3HA   6629ee68     summon.obj
 0003:0020f2d8       ?maxTpDisRaw@@3HA          6629f2d8     teleport.obj
 0003:0020f354       ?dwTpDoneMs@@3HA           6629f354     teleport.obj
 0003:0020f358       ?dwTpMs@@3HA               6629f358     teleport.obj
 0003:0020f35c       ?TPfailedRect@@3PAUAreaRectData@@A 6629f35c     teleport.obj
 0003:0020f360       ?TPtargetRect@@3PAUAreaRectData@@A 6629f360     teleport.obj
 0003:0020f364       ?TPtarget@@3UtagPOINT@@A   6629f364     teleport.obj
 0003:0020f398       ?isAutoTeleporting@@3HA    6629f398     teleport.obj
 0003:0020f39c       ?fAutoTeleporting@@3HA     6629f39c     teleport.obj
 0003:0020f3a0       ?unexpectedMonCount@@3HA   6629f3a0     teleport.obj
 0003:0020f3a4       ?unexpectedMonTotalMs@@3HA 6629f3a4     teleport.obj
 0003:0020f3bc       ?fEnableHighResolutionPatch@@3HA 6629f3bc     panel.obj
 0003:0020f3c0       ?serverCubeType@@3HA       6629f3c0     panel.obj
 0003:0020f3c4       ?clientCubeType@@3HA       6629f3c4     panel.obj
 0003:0020f3c8       ?serverStashType@@3HA      6629f3c8     panel.obj
 0003:0020f3cc       ?clientStashType@@3HA      6629f3cc     panel.obj
 0003:0020f3d0       ?serverInvType@@3HA        6629f3d0     panel.obj
 0003:0020f3d4       ?clientInvType@@3HA        6629f3d4     panel.obj
 0003:0020f3e0       ?fEnableBigStash@@3HA      6629f3e0     panel.obj
 0003:0020f3e4       ?dwInvType@@3HA            6629f3e4     panel.obj
 0003:0020f3e8       ?dwStashType@@3HA          6629f3e8     panel.obj
 0003:0020f3ec       ?dwCubeType@@3HA           6629f3ec     panel.obj
 0003:0020f644       ?active_UberDiabloRushTweekAI@@3_NA 6629f644     uber.obj
 0003:0020f645       ?active_UberBaalTeleportTweekAI@@3_NA 6629f645     uber.obj
 0003:0020f646       ?active_UberBaalChillingArmorTweekAI@@3_NA 6629f646     uber.obj
 0003:0020f648       ?uberBaalChillingArmorLastFrame@@3HA 6629f648     uber.obj
 0003:0020f64c       __cflush                   6629f64c     LIBCMT:_file.obj
 0003:0020f650       ___fastflag                6629f650     LIBCMT:_fpinit_.obj
 0003:0020f654       __adjust_fdiv              6629f654     LIBCMT:_fpinit_.obj
 0003:0020f670       __aenvptr                  6629f670     LIBCMT:dllcrt0.obj
 0003:0020f674       __wenvptr                  6629f674     LIBCMT:dllcrt0.obj
 0003:0020f678       ___error_mode              6629f678     LIBCMT:dllcrt0.obj
 0003:0020f67c       ___app_type                6629f67c     LIBCMT:dllcrt0.obj
 0003:0020f684       ___mbulinfo                6629f684     LIBCMT:mbctype.obj
 0003:0020f690       ___mbcodepage              6629f690     LIBCMT:mbctype.obj
 0003:0020f694       ___ismbcodepage            6629f694     LIBCMT:mbctype.obj
 0003:0020f698       ___mblcid                  6629f698     LIBCMT:mbctype.obj
 0003:0020f69c       ___locale_changed          6629f69c     LIBCMT:setlocal.obj
 0003:0020f6a0       ___lc_handle               6629f6a0     LIBCMT:nlsdata2.obj
 0003:0020f6b8       ___lc_codepage             6629f6b8     LIBCMT:nlsdata2.obj
 0003:0020f6bc       ___lc_collate_cp           6629f6bc     LIBCMT:nlsdata2.obj
 0003:0020f6c0       _gpFlsAlloc                6629f6c0     LIBCMT:tidtable.obj
 0003:0020f6c4       _gpFlsGetValue             6629f6c4     LIBCMT:tidtable.obj
 0003:0020f6c8       _gpFlsSetValue             6629f6c8     LIBCMT:tidtable.obj
 0003:0020f6cc       _gpFlsFree                 6629f6cc     LIBCMT:tidtable.obj
 0003:0020f6d0       ___pInvalidArgHandler      6629f6d0     LIBCMT:invarg.obj
 0003:0020f828       __stdbuf                   6629f828     LIBCMT:_sftbuf.obj
 0003:0020fb54       ?_pnhHeap@@3P6AHI@ZA       6629fb54     LIBCMT:handler.obj
 0003:0020fb58       __newmode                  6629fb58     LIBCMT:_newmode.obj
 0003:0020fb5c       __crtheap                  6629fb5c     LIBCMT:heapinit.obj
 0003:0020fb60       ___sbh_pHeaderDefer        6629fb60     LIBCMT:sbheap.obj
 0003:0020fb68       __maxwait                  6629fb68     LIBCMT:crtheap.obj
 0003:0020fb6c       __umaskval                 6629fb6c     LIBCMT:crt0dat.obj
 0003:0020fb70       ___argc                    6629fb70     LIBCMT:crt0dat.obj
 0003:0020fb74       ___argv                    6629fb74     LIBCMT:crt0dat.obj
 0003:0020fb78       ___wargv                   6629fb78     LIBCMT:crt0dat.obj
 0003:0020fb7c       __environ                  6629fb7c     LIBCMT:crt0dat.obj
 0003:0020fb80       ___initenv                 6629fb80     LIBCMT:crt0dat.obj
 0003:0020fb84       __wenviron                 6629fb84     LIBCMT:crt0dat.obj
 0003:0020fb88       ___winitenv                6629fb88     LIBCMT:crt0dat.obj
 0003:0020fb8c       __pgmptr                   6629fb8c     LIBCMT:crt0dat.obj
 0003:0020fb90       __wpgmptr                  6629fb90     LIBCMT:crt0dat.obj
 0003:0020fb94       __exitflag                 6629fb94     LIBCMT:crt0dat.obj
 0003:0020fb98       __C_Termination_Done       6629fb98     LIBCMT:crt0dat.obj
 0003:0020fb9c       __C_Exit_Done              6629fb9c     LIBCMT:crt0dat.obj
 0003:0020ffc8       ___lconv_static_null       6629ffc8     LIBCMT:lconv.obj
 0003:0020ffd0       ?__pInconsistency@@3P6AXXZA 6629ffd0     LIBCMT:hooks.obj
 0003:0020fff4       ___pPurecall               6629fff4     LIBCMT:inithelp.obj
 0003:0020fff8       __outputformat             6629fff8     LIBCMT:outputformat.obj
 0003:002100d0       __commode                  662a00d0     LIBCMT:ncommode.obj
 0003:002100e8       ?pArgList@UnDecorator@@0PAVReplicator@@A 662a00e8     LIBCMT:undname.obj
 0003:002100ec       ?pZNameList@UnDecorator@@0PAVReplicator@@A 662a00ec     LIBCMT:undname.obj
 0003:002100f0       ?pTemplateArgList@UnDecorator@@0PAVReplicator@@A 662a00f0     LIBCMT:undname.obj
 0003:002100f4       ?gName@UnDecorator@@0PBDB  662a00f4     LIBCMT:undname.obj
 0003:002100f8       ?name@UnDecorator@@0PBDB   662a00f8     LIBCMT:undname.obj
 0003:002100fc       ?outputString@UnDecorator@@0PADA 662a00fc     LIBCMT:undname.obj
 0003:00210100       ?maxStringLength@UnDecorator@@0HA 662a0100     LIBCMT:undname.obj
 0003:00210104       ?disableFlags@UnDecorator@@0KA 662a0104     LIBCMT:undname.obj
 0003:00210108       ?m_pGetParameter@UnDecorator@@0P6APADJ@ZA 662a0108     LIBCMT:undname.obj
 0003:0021010c       ?fExplicitTemplateParams@UnDecorator@@0_NA 662a010c     LIBCMT:undname.obj
 0003:0021010d       ?fGetTemplateArgumentList@UnDecorator@@0_NA 662a010d     LIBCMT:undname.obj
 0003:00210110       __fmode                    662a0110     LIBCMT:txtmode.obj
 0003:00210118       __debugger_hook_dummy      662a0118     <common>
 0003:0021011c       ___use_sse2_mathfcns       662a011c     <common>
 0003:00210120       ___env_initialized         662a0120     <common>
 0003:00210124       ___onexitend               662a0124     <common>
 0003:00210128       ___onexitbegin             662a0128     <common>
 0003:0021012c       ___mbctype_initialized     662a012c     <common>
 0003:00210130       ___dyn_tls_init_callback   662a0130     <common>
 0003:00210134       ___sbh_cntHeaderList       662a0134     <common>
 0003:00210138       ___sbh_pHeaderList         662a0138     <common>
 0003:0021013c       ___sbh_threshold           662a013c     <common>
 0003:00210140       ___sbh_pHeaderScan         662a0140     <common>
 0003:00210144       ___sbh_sizeHeaderList      662a0144     <common>
 0003:00210148       ___sbh_indGroupDefer       662a0148     <common>
 0003:0021014c       ___active_heap             662a014c     <common>
 0003:00210150       ___sse2_available          662a0150     <common>
 0003:00210154       __nhandle                  662a0154     <common>
 0003:00210160       ___pioinfo                 662a0160     <common>
 0003:00210260       __acmdln                   662a0260     <common>
 0003:00210264       __pDestructExceptionObject 662a0264     <common>
 0003:00210268       ___piob                    662a0268     <common>
 0003:00210280       __bufin                    662a0280     <common>
 0003:00211280       __nstream                  662a1280     <common>

 entry point at        0001:00063fe4

 Static symbols

 0001:00000a30       ?initKeyArray@@YAXPAUConfigVar@@HH@Z 66001a30 f   config.obj
 0001:00002090       ?InitValues@@YAXXZ         66003090 f   config.obj
 0001:00002380       ?changeLogPath@@YAHPAD@Z   66003380 f   config.obj
 0001:00002520       ?loadConfig@@YAXPAD@Z      66003520 f   config.obj
 0001:00002c30       ?StoreConfig@@YAHPAUConfigVar@@PAD1@Z 66003c30 f   config.obj
 0001:000041d0       ?parseInt@@YAHPADPAPAD@Z   660051d0 f   config.obj
 0001:00004270       ?parseValues8@@YAXPAD0H@Z  66005270 f   config.obj
 0001:00004340       ?parseValues32@@YAXPAHPADH@Z 66005340 f   config.obj
 0001:00004410       ?parseStringConfig@@YAHPAUConfigVar@@PAD1@Z 66005410 f   config.obj
 0001:00004590       ?loadTagFile@@YAXPAD@Z     66005590 f   config.obj
 0001:00004830       ?loadSymbolFile@@YAXPAD@Z  66005830 f   config.obj
 0001:00004a30       ?isNumber@@YAHPAD@Z        66005a30 f   config.obj
 0001:00005960       ?doPatchCALL@@YAXHHH@Z     66006960 f   install.obj
 0001:000059b0       ?doPatchJMP@@YAXHHH@Z      660069b0 f   install.obj
 0001:00005a00       ?doPatchFILL@@YAXHHH@Z     66006a00 f   install.obj
 0001:00005a50       ?doPatchVALUE@@YAXHHH@Z    66006a50 f   install.obj
 0001:00005c70       ?parseOriginalCode@@YAHPADH0HPAH@Z 66006c70 f   install.obj
 0001:00009950       ?InstallPatchAfterLoad@@YAXXZ 6600a950 f   install.obj
 0001:00009980       ?installD2PatchesAfterLoad@@YAHXZ 6600a980 f   install.obj
 0001:00009ce0       ?installNetworkRecvPatch@@YAHXZ 6600ace0 f   install.obj
 0001:00009d30       ?installPatchToggle@@YAHXZ 6600ad30 f   install.obj
 0001:00009df0       ?installD2Patches@@YAHXZ   6600adf0 f   install.obj
 0001:00013bb0       ?dumpPtr@@YAXPAU_iobuf@@PADHH1H@Z 66014bb0 f   install.obj
 0001:00013e30       ?dump@@YAXXZ               66014e30 f   install.obj
 0001:00014370       ?ReloadDll@@YAHXZ          66015370 f   install.obj
 0001:00014530       _stat                      66015530 f   install.obj
 0001:00014530       _stat                      66015530 f   install.obj
 0001:00015100       ?d2msg@@YAXHPA_WH@Z        66016100 f   common.obj
 0001:000184e0       ?sendPacket43E0Patch_ASM@@YAXXZ 660194e0 f   dbg.obj
 0001:00018500       ?sendPacket43E0@@YIXPADHH@Z 66019500 f   dbg.obj
 0001:00018550       ?sendPacket3Patch_ASM@@YAXXZ 66019550 f   dbg.obj
 0001:00018570       ?sendPacket3@@YIXDFH@Z     66019570 f   dbg.obj
 0001:000185c0       ?clickMenuItemPatch_ASM@@YAXXZ 660195c0 f   dbg.obj
 0001:000185e0       ?clickMenuItem@@YIXH@Z     660195e0 f   dbg.obj
 0001:00019120       ?gameStart@@YAXXZ          6601a120 f   loop.obj
 0001:000195f0       ?checkTag@@YAXPAD@Z        6601a5f0 f   loop.obj
 0001:0001a0c0       ?updateTargetName@@YAXXZ   6601b0c0 f   map.obj
 0001:0001a480       ?selectWaypointTarget@@YAXXZ 6601b480 f   map.obj
 0001:0001aa50       ?LoadBmpCellFile@@YAPAUCellFile@@PAD@Z 6601ba50 f   map.obj
 0001:0001ab00       ?InitCellFile@@YAPAUCellFile@@PAU1@@Z 6601bb00 f   map.obj
 0001:0001ac10       ?DeleteCellFile@@YAXPAUCellFile@@@Z 6601bc10 f   map.obj
 0001:0001ae70       ?addCorner@@YAXPAUSC@@HH@Z 6601be70 f   map.obj
 0001:0001b1b0       ?modifyRescueBarTarget@@YAXXZ 6601c1b0 f   map.obj
 0001:0001b340       ?target_sort@@YAXPAPAUMinimapLevelTarget@@@Z 6601c340 f   map.obj
 0001:0001b410       ?modifySealTarget@@YAXXZ   6601c410 f   map.obj
 0001:0001b870       ?modifyTempleTarget@@YAXXZ 6601c870 f   map.obj
 0001:0001b920       ?modifyTeleportTarget@@YAXXZ 6601c920 f   map.obj
 0001:0001bc90       ?ResetAutomapNodeCellNo@@YAXPAUAutomapNode@@@Z 6601cc90 f   map.obj
 0001:0001d900       ?isConnected@@YAHPAUAreaRectInfo@@0PAUtagPOINT@@@Z 6601e900 f   map.obj
 0001:0001dc60       ?drawAreaRectOnMap@@YAXPAUAreaRectInfo@@H@Z 6601ec60 f   map.obj
 0001:0001dde0       ?drawAreaRectOnScreen@@YAXPAUAreaRectInfo@@H@Z 6601ede0 f   map.obj
 0001:0001e160       ?DrawMinimapPoint@@YAXXZ   6601f160 f   map.obj
 0001:0001f3c0       ?hex@@YAXPAU_iobuf@@HPAXH@Z 660203c0 f   packet.obj
 0001:00021520       ?drawAARect@@YAXPAURouteRect@@@Z 66022520 f   route.obj
 0001:00021880       ?initRectRoute@@YAHPAUMinimapLevelTarget@@@Z 66022880 f   route.obj
 0001:00021cd0       ?canTeleport@@YAHPAUAreaRectData@@PAURouteRect@@@Z 66022cd0 f   route.obj
 0001:00021e30       ?recycleRouteInfo@@YAXPAUMinimapLevelTarget@@@Z 66022e30 f   route.obj
 0001:00021f90       ?performRectRoute@@YAXPAUMinimapLevelTarget@@@Z 66022f90 f   route.obj
 0001:00022ab0       ?recvWaypointMenu@@YIHPADH@Z 66023ab0 f   waypoint.obj
 0001:00023980       ?setWinTitle@@YAXPAUHWND__@@H@Z 66024980 f   winmsg.obj
 0001:00024b70       ?keyDown@@YIHHH@Z          66025b70 f   winmsg.obj
 0001:00024e80       ?shouldProcessKey@@YAHHH@Z 66025e80 f   winmsg.obj
 0001:00024f90       ?keyUp@@YIHHH@Z            66025f90 f   winmsg.obj
 0001:000251c0       ?createVersionTextBox@@YAXXZ 660261c0 f   winmsg.obj
 0001:000252d0       ?debugMsDrawUnitStart@@YAXXZ 660262d0 f   winmsg.obj
 0001:00025350       ?beforeDrawControl@@YAXXZ  66026350 f   winmsg.obj
 0001:00025390       ?debugMsDrawControlStart@@YAXXZ 66026390 f   winmsg.obj
 0001:000253d0       ?debugMsDrawControlEnd@@YAXXZ 660263d0 f   winmsg.obj
 0001:00025430       ?shouldSkipDrawUnitAndControl@@YAHXZ 66026430 f   winmsg.obj
 0001:000254d0       ?shouldSkipAllDrawing@@YAHXZ 660264d0 f   winmsg.obj
 0001:00025580       ?skipDrawMenu2@@YAHXZ      66026580 f   winmsg.obj
 0001:00025610       ?mainMenuSkip@@YAHXZ       66026610 f   winmsg.obj
 0001:00025e80       ?drawGroundRect@@YAXPAUAreaRectData@@@Z 66026e80 f   env.obj
 0001:00026620       ?checkWeapon@@YAXPAUUnitAny@@@Z 66027620 f   GameMonitor.obj
 0001:00026720       ?checkItem@@YAXPAUUnitAny@@H@Z 66027720 f   GameMonitor.obj
 0001:00029200       ?recvState@@YIXPAE@Z       6602a200 f   GameMonitor.obj
 0001:000299e0       ?drawUnitsInfoInRect@@YAXPAUAreaRectData@@@Z 6602a9e0 f   GameMonitor.obj
 0001:00029ee0       ?drawPlayerName@@YAXPAUUnitAny@@@Z 6602aee0 f   GameMonitor.obj
 0001:0002a5e0       ?drawBossHp@@YAXPAUUnitAny@@HHH@Z 6602b5e0 f   GameMonitor.obj
 0001:0002b0d0       ?drawEmit@@YAXPAUUnitAny@@HH@Z 6602c0d0 f   GameMonitor.obj
 0001:0002b1d0       ?drawCircle@@YAXPAUUnitAny@@HH@Z 6602c1d0 f   GameMonitor.obj
 0001:0002b3e0       ?playerSkillOnTarget@@YIXPAD@Z 6602c3e0 f   GameMonitor.obj
 0001:0002ee60       ?wscolorcpy@@YAPA_WPA_W0E@Z 6602fe60 f   item.obj
 0001:0002ee60       ?wscolorcpy@@YAPA_WPA_W0E@Z 6602fe60 f   item.obj
 0001:00033ae0       ?rescanMercPointers@@YAXXZ 66034ae0 f   dangerous.obj
 0001:00035280       ?checkQuest@@YAXHHHPAD@Z   66036280 f   quest.obj
 0001:000356a0       ?questAlert@@YAXXZ         660366a0 f   quest.obj
 0001:000369d0       ?drawQuestState@@YAXPAG0HHH@Z 660379d0 f   quest.obj
 0001:00036d30       ?recv28_quest@@YIXPAD@Z    66037d30 f   quest.obj
 0001:00038f10       ?switchTo@@YAXH@Z          66039f10 f   bo.obj
 0001:00039010       ?useSkill@@YAHH@Z          6603a010 f   bo.obj
 0001:00039380       _time                      6603a380 f   d2s.obj
 0001:0003a530       ?hasProp@@YAHPAUUnitAny@@HH@Z 6603b530 f   DropProtection.obj
 0001:0003a9b0       ?deleteCharacterCallback@@YIXPAD0@Z 6603b9b0 f   DropProtection.obj
 0001:0003aa40       ?canDeleteCharacter@@YIHPAUD2Character@@@Z 6603ba40 f   DropProtection.obj
 0001:0003b290       ?skipMenuItem@@YIHPAUMenuItem@@@Z 6603c290 f   DropProtection.obj
 0001:0003bc90       ?findTargetItem@@YAPAUUnitAny@@H@Z 6603cc90 f   DropProtection.obj
 0001:0003c340       ?doEnchant@@YAHPAUUnitAny@@@Z 6603d340 f   enchant.obj
 0001:0003d7c0       ?sortGameList@@YAXXZ       6603e7c0 f   mcp.obj
 0001:0003d800       ?compareMcp05Game@@YAHPBX0@Z 6603e800 f   mcp.obj
 0001:0003d850       ?showGameListDifficulty@@YIXPAXPAD@Z 6603e850 f   mcp.obj
 0001:0003dae0       ?compareCharTag@@YAHPBX0@Z 6603eae0 f   login.obj
 0001:0003e0f0       ?c2w@@YAXPADPA_W@Z         6603f0f0 f   login.obj
 0001:0003e270       ?selectChar@@YIXH@Z        6603f270 f   login.obj
 0001:00040fe0       ?teamMemberInArea@@YAHH@Z  66041fe0 f   multi.obj
 0001:00041080       ?interactObject@@YAXXZ     66042080 f   multi.obj
 0001:000416c0       ?sendStartFollowCmd@@YAHPAUD2Window@@@Z 660426c0 f   multi.obj
 0001:000416f0       ?sendStopFollowCmd@@YAHPAUD2Window@@@Z 660426f0 f   multi.obj
 0001:000427c0       ?doTransferClick@@YAHHPAUUnitAny@@HH@Z 660437c0 f   multi.obj
 0001:00042db0       ?protect3BB@@YAHXZ         66043db0 f   multi.obj
 0001:00043060       ?recvCommand77@@YIXPAD@Z   66044060 f   multi.obj
 0001:00043270       ?recvCommand78@@YIXPAD@Z   66044270 f   multi.obj
 0001:00043520       ?checkItems@@YAXHH@Z       66044520 f   NpcTrade.obj
 0001:00043660       ?checkItem@@YAXPAUUnitAny@@H@Z 66044660 f   NpcTrade.obj
 0001:00044200       ?CheckInvite@@YAHXZ        66045200 f   party.obj
 0001:00044250       ?invitePlayerLater@@YAXHPADH@Z 66045250 f   party.obj
 0001:00044550       ?autoPartyBugMF@@YAHXZ     66045550 f   party.obj
 0001:00044640       ?recv5A@@YGXPAD@Z          66045640 f   party.obj
 0001:00044b30       ?setLootPermit@@YAXHPAD@Z  66045b30 f   party.obj
 0001:00044d60       ?recvCommand5B@@YIXPAE@Z   66045d60 f   party.obj
 0001:00044e30       ?assignPlayer@@YIXPAD@Z    66045e30 f   party.obj
 0001:000461a0       ?canPutIn@@YAHPADHHHH@Z    660471a0 f   QuickSwapItem.obj
 0001:00046a10       ?updateCubeInvMap@@YAXXZ   66047a10 f   QuickSwapItem.obj
 0001:00046f60       ?dropItemToGound@@YAHXZ    66047f60 f   QuickSwapItem.obj
 0001:00046fd0       ?updateInv@@YAXPAUInventoryType@@H@Z 66047fd0 f   QuickSwapItem.obj
 0001:00047080       ?putIntoSimpleItemStack@@YAHXZ 66048080 f   QuickSwapItem.obj
 0001:00047140       ?findSimpleItemStack@@YAPAUUnitAny@@H@Z 66048140 f   QuickSwapItem.obj
 0001:00047720       ?pickupItem@@YAHPAUUnitAny@@@Z 66048720 f   QuickSwapItem.obj
 0001:000477b0       ?findGemInv@@YAPAUUnitAny@@HH@Z 660487b0 f   QuickSwapItem.obj
 0001:000482f0       ?getGlobalBeltSlotPosition@@YIXPAH0@Z 660492f0 f   resolution.obj
 0001:000483a0       ?getGlobalBeltRecord@@YIXPAH@Z 660493a0 f   resolution.obj
 0001:00048460       ?adjWinRectEx@@YGHHPAUtagRECT@@HHH@Z 66049460 f   resolution.obj
 0001:00048f10       ?isAutoSkill@@YAHPAUSkill@@@Z 66049f10 f   skill.obj
 0001:00049070       ?checkAutoSkill1@@YAXHH@Z  6604a070 f   skill.obj
 0001:00049940       ?updateSkill@@YAXPAUAutoSkillInfo@@H@Z 6604a940 f   skill.obj
 0001:00049fc0       ?processStacking@@YAXXZ    6604afc0 f   skill.obj
 0001:0004a100       ?canUse@@YAHPAUAutoSkillInfo@@@Z 6604b100 f   skill.obj
 0001:0004a1e0       ?checkUnit@@YAXPAUUnitAny@@@Z 6604b1e0 f   skill.obj
 0001:0004bc80       ?getLvPercent@@YAHPAUUnitAny@@@Z 6604cc80 f   Snapshot.obj
 0001:0004c780       ?countGemRunes@@YAXPAUUnitAny@@@Z 6604d780 f   Snapshot.obj
 0001:0004cb70       ?isStartEq@@YAHPAUUnitAny@@@Z 6604db70 f   Snapshot.obj
 0001:0004ce60       ?dumpStats@@YAHPAU_iobuf@@PAUStat@@@Z 6604de60 f   Snapshot.obj
 0001:0004d250       ?dumpInventory@@YAXXZ      6604e250 f   Snapshot.obj
 0001:0004d950       ?dumpUnit@@YAXPAU_iobuf@@PAUUnitAny@@@Z 6604e950 f   Snapshot.obj
 0001:0004e3c0       ?outputGemRune@@YAXPAU_iobuf@@@Z 6604f3c0 f   Snapshot.obj
 0001:0004e650       ?dumpItem@@YAXPAU_iobuf@@PAUUnitAny@@HH@Z 6604f650 f   Snapshot.obj
 0001:0004f6f0       ?comparePet@@YAHPBX0@Z     660506f0 f   Snapshot.obj
 0001:0004f6f0       ?comparePvp@@YAHPBX0@Z     660506f0 f   Snapshot.obj
 0001:0004f6f0       ?compareItem@@YAHPBX0@Z    660506f0 f   Snapshot.obj
 0001:0004f700       ?addItem@@YAXPAUUnitAny@@H@Z 66050700 f   Snapshot.obj
 0001:0004fa90       ?dumpItems@@YAXPAU_iobuf@@PAUUnitAny@@H@Z 66050a90 f   Snapshot.obj
 0001:0004fb70       ?dumpQuests@@YAXPAU_iobuf@@@Z 66050b70 f   Snapshot.obj
 0001:000502e0       ?dumpTodo@@YAXPAU_iobuf@@HPADPAUQ@@@Z 660512e0 f   Snapshot.obj
 0001:00050400       ?loadQuests@@YAXXZ         66051400 f   Snapshot.obj
 0001:000504d0       ?dumpWaypoints@@YAXPAU_iobuf@@@Z 660514d0 f   Snapshot.obj
 0001:00050670       ?dumpSkills@@YAXPAU_iobuf@@PAUUnitAny@@@Z 66051670 f   Snapshot.obj
 0001:00050780       ?dumpSkill@@YAXPAU_iobuf@@PAUSkill@@@Z 66051780 f   Snapshot.obj
 0001:00050890       ?dumpObject@@YAXPAU_iobuf@@PAUUnitAny@@@Z 66051890 f   Snapshot.obj
 0001:000509f0       ?dumpAreatile@@YAXPAU_iobuf@@PAUUnitAny@@@Z 660519f0 f   Snapshot.obj
 0001:000514f0       ?doDeleteSnapshotFile@@YAXPAD@Z 660524f0 f   Snapshot.obj
 0001:00052000       ?saveItem@@YAXPAU_iobuf@@PAUUnitAny@@@Z 66053000 f   snap.obj
 0001:00052450       ?formatItems2@@YAHPAU_iobuf@@0H@Z 66053450 f   snap.obj
 0001:00052640       ?formatItem@@YAXPAU_iobuf@@0HH@Z 66053640 f   snap.obj
 0001:00053340       ?isAllAttr@@YAHPAUStatEx@@@Z 66054340 f   snap.obj
 0001:000533b0       ?isAllResist@@YAHPAUStatEx@@@Z 660543b0 f   snap.obj
 0001:00053420       ?isSocketable@@YAHH@Z      66054420 f   snap.obj
 0001:00054500       ?checkSummonSkillLevel@@YAXXZ 66055500 f   summon.obj
 0001:00054660       ?getSummonCount@@YAHH@Z    66055660 f   summon.obj
 0001:00054690       ?needSummon@@YAHXZ         66055690 f   summon.obj
 0001:000548a0       ?switchSummonSkill@@YAXH@Z 660558a0 f   summon.obj
 0001:000548d0       ?checkUnit@@YAXPAUUnitAny@@@Z 660558d0 f   summon.obj
 0001:00054bf0       ?dumpMonsterInfo@@YIXH@Z   66055bf0 f   summon.obj
 0001:000553e0       ?isMonster@@YAHPAUUnitAny@@@Z 660563e0 f   teleport.obj
 0001:00055460       ?findMonsters@@YAXH@Z      66056460 f   teleport.obj
 0001:00055800       ?addMonMap@@YAXHH@Z        66056800 f   teleport.obj
 0001:00055860       ?resetMonsters@@YAXXZ      66056860 f   teleport.obj
 0001:000558e0       ?calBoundingBox@@YAXXZ     660568e0 f   teleport.obj
 0001:00055a20       ?addPossiblePostions@@YAXPAUAreaRectData@@0PAUtagPOINT@@H@Z 66056a20 f   teleport.obj
 0001:00055e40       ?disM256@@YAHPAUtagPOINT@@0@Z 66056e40 f   teleport.obj
 0001:00055e70       ?hasMon@@YAHHH@Z           66056e70 f   teleport.obj
 0001:00055ed0       ?findValidPosition@@YAHXZ  66056ed0 f   teleport.obj
 0001:00055fb0       ?comparePos@@YAHPBX0@Z     66056fb0 f   teleport.obj
 0001:00055fd0       ?dis@@YAHPAUtagPOINT@@0@Z  66056fd0 f   teleport.obj
 0001:00056750       ?findBoss@@YAHHH@Z         66057750 f   teleport.obj
 0001:00056820       ?getMonDis@@YAHPAUtagPOINT@@@Z 66057820 f   teleport.obj
 0001:00056880       ?interact@@YAXPAUtagPOINT@@HH@Z 66057880 f   teleport.obj
 0001:00056960       ?interactObj@@YAXPAUUnitAny@@@Z 66057960 f   teleport.obj
 0001:00056b20       ?teleportForward@@YAHXZ    66057b20 f   teleport.obj
 0001:00056f50       ?teleportToSafety@@YAHXZ   66057f50 f   teleport.obj
 0001:00057210       ?savePrevMonsters@@YAXXZ   66058210 f   teleport.obj
 0001:000572e0       ?findSafestPosition@@YAHXZ 660582e0 f   teleport.obj
 0001:00057370       ?tpToBoss@@YAHXZ           66058370 f   teleport.obj
 0001:00057530       ?autoTarget@@YAHXZ         66058530 f   teleport.obj
 0001:00057730       ?telekinesisTarget@@YAHPAUUnitAny@@@Z 66058730 f   teleport.obj
 0001:00057a40       ?findTelekinesisPosition@@YAHXZ 66058a40 f   teleport.obj
 0001:00057b30       ?autoDuranceofHateLevel3@@YAHXZ 66058b30 f   teleport.obj
 0001:00057db0       ?dumpProp@@YAXPAU_iobuf@@PAUItemProp@@@Z 66058db0 f   txt.obj
 0001:00057f40       ?dumpItemTxt@@YAXXZ        66058f40 f   txt.obj
 0001:000580b0       ?dumpUniqueTxt@@YAXXZ      660590b0 f   txt.obj
 0001:000582c0       ?dumpSetTxt@@YAXXZ         660592c0 f   txt.obj
 0001:00058980       ?setStash@@YAXHH@Z         66059980 f   panel.obj
 0001:00058ae0       ?setCube@@YAXH@Z           66059ae0 f   panel.obj
 0001:00058c60       ?setCharInv@@YAXHH@Z       66059c60 f   panel.obj
 0001:00058e80       ?loadInvChar8x10@@YAXXZ    66059e80 f   panel.obj
 0001:00058ee0       ?calDrawOffset@@YAXXZ      66059ee0 f   panel.obj
 0001:00058f70       ?getEquipmentSlotLayout@@YIXPAH0@Z 66059f70 f   panel.obj
 0001:00059010       ?getEquipInvDrawOffset@@YAXPAH0PAX@Z 6605a010 f   panel.obj
 0001:00059110       ?getInventoryGridLayout@@YIXPAH0@Z 6605a110 f   panel.obj
 0001:000591c0       ?getInventoryPosition@@YIXPAH0@Z 6605a1c0 f   panel.obj
 0001:00059270       ?addSkillPatch@@YIXH@Z     6605a270 f   panel.obj
 0001:000592f0       ?recvCommand26@@YIXPAD@Z   6605a2f0 f   panel.obj
 0001:00059670       ?guessInvType@@YAHHH@Z     6605a670 f   panel.obj
 0001:00059690       ?guessStashType@@YAHHH@Z   6605a690 f   panel.obj
 0001:000596b0       ?guessCubeType@@YAHHH@Z    6605a6b0 f   panel.obj
 0001:0005a690       ?SetSkillBaseLevelOnClient@@YAXPAXPAUUnitAny@@HHH@Z 6605b690 f   server.obj
 0001:0005ac00       ?resetQuest@@YAXPAUWorld@@PAUUnitAny@@H@Z 6605bc00 f   server.obj
 0001:0005ae60       ?gameStart@@YIXPAUNetClient@@@Z 6605be60 f   server.obj
 0001:0005aeb0       ?createHackmapMsg@@YAXXZ   6605beb0 f   server.obj
 0001:0005b000       ?serverRecvTest@@YAXPAUWorld@@PAUUnitAny@@H@Z 6605c000 f   server.obj
 0001:0005b0c0       ?necSummon@@YAPAUUnitAny@@PAUNecSummon@@@Z 6605c0c0 f   server.obj
 0001:0005b5d0       ?clientChat@@YIXPAD@Z      6605c5d0 f   admin.obj
 0001:0005bb30       ?selectUnique@@YIHHH@Z     6605cb30 f   admin.obj
 0001:0005bc10       ?selectSet@@YIHPAHH@Z      6605cc10 f   admin.obj
 0001:0005cfb0       ?dropItem@@YAPAUUnitAny@@PAUWorld@@PAU1@HHHH@Z 6605dfb0 f   admin.obj
 0001:0005d150       ?getFreePos@@YAPAUAreaRectData@@PAU1@PAUtagPOINT@@1H@Z 6605e150 f   admin.obj
 0001:0005d170       ?dropRuneword@@YAPAUUnitAny@@PAUWorld@@PAU1@HHH@Z 6605e170 f   admin.obj
 0001:0005d3c0       ?dropUnique@@YAPAUUnitAny@@PAUWorld@@PAU1@HHH@Z 6605e3c0 f   admin.obj
 0001:0005d4e0       ?dropSet@@YAPAUUnitAny@@PAUWorld@@PAU1@HHH@Z 6605e4e0 f   admin.obj
 0001:0005d5b0       ?setItemStats@@YAXPAUUnitAny@@PAUd2stats@@@Z 6605e5b0 f   admin.obj
 0001:0005d6c0       ?parseStats@@YAPADPADPAUd2stats@@@Z 6605e6c0 f   admin.obj
 0001:0005eed0       ?setStat@@YAHPAUd2stats@@HHH@Z 6605fed0 f   admin.obj
 0001:0005ef60       ?pickupItemTo@@YAXPAUWorld@@PAUUnitAny@@1H@Z 6605ff60 f   admin.obj
 0001:0005ff0d       _flsall                    66060f0d f   LIBCMT:fflush.obj
 0001:00060760       _swap                      66061760 f   LIBCMT:qsort.obj
 0001:00060790       _shortsort                 66061790 f   LIBCMT:qsort.obj
 0001:000611ff       ?strtoxl@@YAKPAUlocaleinfo_struct@@PBDPAPBDHH@Z 660621ff f   LIBCMT:strtol.obj
 0001:00062453       _IsRootUNCName             66063453 f   LIBCMT:stati32.obj
 0001:000624cd       __fullpath_helper          660634cd f   LIBCMT:stati32.obj
 0001:000636e9       ?_strupr_s_l_stat@@YAHPADIPAUlocaleinfo_struct@@@Z 660646e9 f   LIBCMT:strupr.obj
 0001:00063901       ?wcstoxl@@YAKPAUlocaleinfo_struct@@PB_WPAPB_WHH@Z 66064901 f   LIBCMT:wcstol.obj
 0001:00063eee       ___DllMainCRTStartup       66064eee f   LIBCMT:dllcrt0.obj
 0001:00064007       ?CPtoLCID@@YAHH@Z          66065007 f   LIBCMT:mbctype.obj
 0001:00064036       ?setSBCS@@YAXPAUthreadmbcinfostruct@@@Z 66065036 f   LIBCMT:mbctype.obj
 0001:0006409a       ?setSBUpLow@@YAXPAUthreadmbcinfostruct@@@Z 6606509a f   LIBCMT:mbctype.obj
 0001:000642d1       ?getSystemCP@@YAHH@Z       660652d1 f   LIBCMT:mbctype.obj
 0001:0006495b       __updatetlocinfoEx_nolock  6606595b f   LIBCMT:setlocal.obj
 0001:00065f3d       _write_char                66066f3d f   LIBCMT:output.obj
 0001:00065f70       _write_multi_char          66066f70 f   LIBCMT:output.obj
 0001:00065f96       _write_string              66066f96 f   LIBCMT:output.obj
 0001:00067087       _fastzero_I                66068087 f   LIBCMT:p4_memset.obj
 0001:0006716d       _has_osfxsr_set            6606816d f   LIBCMT:cpu_disp.obj
 0001:00067ffa       _fastcopy_I                66068ffa f   LIBCMT:p4_memcpy.obj
 0001:0006821c       ?__crtLCMapStringA_stat@@YAHPAUlocaleinfo_struct@@KKPBDHPADHHH@Z 6606921c f   LIBCMT:a_map.obj
 0001:00068884       __initterm                 66069884 f   LIBCMT:crt0dat.obj
 0001:0006894a       _doexit                    6606994a f   LIBCMT:crt0dat.obj
 0001:00068c56       __shift                    66069c56 f   LIBCMT:cvt.obj
 0001:00068c9b       __cftoe2_l                 66069c9b f   LIBCMT:cvt.obj
 0001:0006926d       __cftof2_l                 6606a26d f   LIBCMT:cvt.obj
 0001:00069708       __unwind_handler4          6606a708 f   LIBCMT:exsup4.obj
 0001:0006a608       __onexit_nolock            6606b608 f   LIBCMT:onexit.obj
 0001:0006be6a       _parse_cmdline             6606ce6a f   LIBCMT:stdargv.obj
 0001:0006c459       ?__crtGetStringTypeA_stat@@YAHPAUlocaleinfo_struct@@KPBDHPAGHHH@Z 6606d459 f   LIBCMT:a_str.obj
 0001:0006daac       _siglookup                 6606eaac f   LIBCMT:winsig.obj
 0001:0006e1b4       __unwind_handler           6606f1b4 f   LIBCMT:exsup.obj
 0001:0006eace       __tzset_nolock             6606face f   LIBCMT:tzset.obj
 0001:0006ee14       _cvtdate                   6606fe14 f   LIBCMT:tzset.obj
 0001:0006f00b       __isindst_nolock           6607000b f   LIBCMT:tzset.obj
 0001:0006f374       __tsopen_nolock            66070374 f   LIBCMT:open.obj
 0001:000700c5       ?x_ismbbtype_l@@YAHPAUlocaleinfo_struct@@IHH@Z 660710c5 f   LIBCMT:ismbbyte.obj
 0001:00071e9d       __hw_cw                    66072e9d f   LIBCMT:_ieee87_.obj
 0001:00071f2b       ___hw_cw_sse2              66072f2b f   LIBCMT:_ieee87_.obj
 0001:000730f3       ?strncnt@@YAHPBDH@Z        660740f3 f   LIBCMT:a_cmp.obj
 0001:00073111       ?__crtCompareStringA_stat@@YAHPAUlocaleinfo_struct@@KKPBDH1HH@Z 66074111 f   LIBCMT:a_cmp.obj
 0001:000735bd       _findenv                   660745bd f   LIBCMT:setenv.obj
 0001:0007360f       _copy_environ              6607460f f   LIBCMT:setenv.obj
 0001:00073994       ??__Fnomem@?5???2@YAPAXI@Z@YAXXZ 66074994 f   LIBCMT:new.obj
