 d2hackmap

 Timestamp is 6880c29a (Wed Jul 23 19:08:10 2025)

 Preferred load address is 66000000

 Start         Length     Name                   Class
 0001:00000000 000769e4H .text                   CODE
 0001:000769e4 00000014H .text$yd                CODE
 0002:00000000 00000228H .idata$5                DATA
 0002:00000228 00000004H .CRT$XCA                DATA
 0002:0000022c 00000004H .CRT$XCZ                DATA
 0002:00000230 00000004H .CRT$XIA                DATA
 0002:00000234 00000014H .CRT$XIC                DATA
 0002:00000248 00000004H .CRT$XIZ                DATA
 0002:0000024c 00000004H .CRT$XPA                DATA
 0002:00000250 00000004H .CRT$XPX                DATA
 0002:00000254 00000004H .CRT$XPXA               DATA
 0002:00000258 00000004H .CRT$XPZ                DATA
 0002:0000025c 00000004H .CRT$XTA                DATA
 0002:00000260 00000004H .CRT$XTZ                DATA
 0002:00000270 00019c90H .rdata                  DATA
 0002:00019f00 000000dcH .rdata$r                DATA
 0002:00019fe0 0000000cH .rdata$sxdata           DATA
 0002:00019fec 00000004H .rtc$IAA                DATA
 0002:00019ff0 00000004H .rtc$IZZ                DATA
 0002:00019ff4 00000004H .rtc$TAA                DATA
 0002:00019ff8 00000004H .rtc$TZZ                DATA
 0002:0001a000 00000734H .xdata$x                DATA
 0002:0001a734 00000050H .idata$2                DATA
 0002:0001a784 00000014H .idata$3                DATA
 0002:0001a798 00000228H .idata$4                DATA
 0002:0001a9c0 000009acH .idata$6                DATA
 0002:0001b370 000000c7H .edata                  DATA
 0003:00000000 0000b2f8H .data                   DATA
 0003:0000b300 0020d704H .bss                    DATA

  Address         Publics by Value              Rva+Base       Lib:Object

 0000:00000000       __except_list              00000000     <absolute>
 0000:00000003       ___safe_se_handler_count   00000003     <absolute>
 0000:00000000       ___ImageBase               66000000     <linker-defined>
 0001:00000000       ?bitstream_init@@YAXPAUbitstream@@PAX1@Z 66001000 f   bitstream.obj
 0001:00000040       ?bitstream_seek@@YAXPAUbitstream@@H@Z 66001040 f   bitstream.obj
 0001:00000080       ?bitstream_rbit@@YAHPAUbitstream@@H@Z 66001080 f   bitstream.obj
 0001:00000170       ?bitstream_wbit@@YAHPAUbitstream@@IH@Z 66001170 f   bitstream.obj
 0001:00000250       ?bitstream_wbit_done@@YAXPAUbitstream@@@Z 66001250 f   bitstream.obj
 0001:000002d0       ?compareConfigVar@@YAHPBX0@Z 660012d0 f   config.obj
 0001:000002f0       ?compareSymbol@@YAHPBX0@Z  660012f0 f   config.obj
 0001:00000310       ?findConfigVar@@YAPAUConfigVar@@PAD@Z 66001310 f   config.obj
 0001:00000410       ?addConfigVar@@YAXPAUConfigVar@@@Z 66001410 f   config.obj
 0001:00000480       ?FixValues@@YAXXZ          66001480 f   config.obj
 0001:000004c0       ?formatKey@@YAXPADH@Z      660014c0 f   config.obj
 0001:00000570       ?formatKeyW@@YAXPA_WH@Z    66001570 f   config.obj
 0001:000006a0       ?setupKey@@YAXPAUToggleVar@@@Z 660016a0 f   config.obj
 0001:000006f0       ?addExtraKey@@YAPAUToggleVar@@H@Z 660016f0 f   config.obj
 0001:00000750       ?InitKeyEvent@@YAXXZ       66001750 f   config.obj
 0001:00000b00       ?AddWarningMessage@@YAXPADH@Z 66001b00 f   config.obj
 0001:00000c30       ?ShowWarningMessage@@YAXXZ 66001c30 f   config.obj
 0001:00000c90       ?isquote@@YADD@Z           66001c90 f   config.obj
 0001:00000cc0       ?filterSpace@@YAXPAD@Z     66001cc0 f   config.obj
 0001:00000d80       ?splitLine@@YAXPADPAPAD1@Z 66001d80 f   config.obj
 0001:00000e50       ?strchr@@YAPADPADH@Z       66001e50 f i config.obj
 0001:00000e70       ?strrchr@@YAPADPADH@Z      66001e70 f i config.obj
 0001:00000e90       ?findSymbol@@YAPAUSymbol@@PAD@Z 66001e90 f   config.obj
 0001:00000f50       ?doneNameValues@@YAXXZ     66001f50 f   config.obj
 0001:00000ff0       ?addNameValue@@YAXPAD0@Z   66001ff0 f   config.obj
 0001:00001080       ?replaceSymbols@@YAPADPAD@Z 66002080 f   config.obj
 0001:00001420       ?ConvertToWString@@YAHPA_WPADH@Z 66002420 f   config.obj
 0001:00001450       ?ConvertToD2String@@YAXPA_WPADH@Z 66002450 f   config.obj
 0001:000015a0       ?StoreArrayConfig@@YAHPAUConfigVar@@HHPAD1HH@Z 660025a0 f   config.obj
 0001:00001ac0       ?LoadConfigFile@@YAHPADH@Z 66002ac0 f   config.obj
 0001:00002360       ?strstr@@YAPADPADPBD@Z     66003360 f i config.obj
 0001:00004b10       ?ReleaseMem@@YAXXZ         66005b10 f   DllMain.obj
 0001:00004b30       _DllMain@12                66005b30 f   DllMain.obj
 0001:00004d00       _QueryInterface@0          66005d00 f   DllMain.obj
 0001:00004d20       _PatchClient               66005d20 f   DllMain.obj
 0001:00004d70       _MainMenuFlushFramebuf@0   66005d70 f   DllMain.obj
 0001:00004d90       _PatchServer@4             66005d90 f   DllMain.obj
 0001:00004dd0       ?guessEnchantLevel@@YAHXZ  66005dd0 f   guess.obj
 0001:00004e80       ?guessBOLevel@@YAHH@Z      66005e80 f   guess.obj
 0001:000056b0       ?Install_AddConfigVars@@YAXXZ 660066b0 f   install.obj
 0001:000056f0       ?Install_FixValues@@YAXXZ  660066f0 f   install.obj
 0001:00005710       ?get_dll_addr@@YAPAUHINSTANCE__@@PAD@Z 66006710 f   install.obj
 0001:000057a0       ?VirtualProtect@@YAKKKK@Z  660067a0 f   install.obj
 0001:000057d0       ?WriteLocalBYTES@@YAXKPAXH@Z 660067d0 f   install.obj
 0001:00005820       ?FillLocalBYTES@@YAXKEH@Z  66006820 f   install.obj
 0001:00005880       ?InterceptLocalCode2@@YAXEKKH@Z 66006880 f   install.obj
 0001:00005900       ?InterceptLocalCode@@YAXEKKH@Z 66006900 f   install.obj
 0001:00005930       ?patchCall@@YAHPAD0HHHH0@Z 66006930 f   install.obj
 0001:00005980       ?patchJmp@@YAHPAD0HHHH0@Z  66006980 f   install.obj
 0001:000059d0       ?patchFill@@YAHPAD0HHHH0@Z 660069d0 f   install.obj
 0001:00005a20       ?patchValue@@YAHPAD0HHHH0@Z 66006a20 f   install.obj
 0001:00005a70       ?installPatch@@YAHP6AXHHH@ZPAD1HHHH1@Z 66006a70 f   install.obj
 0001:00005e00       ?removePatches@@YAHPAPAUInstalledPatch@@@Z 66006e00 f   install.obj
 0001:00005e70       ?init_d2_ptrs@@YAHH@Z      66006e70 f   install.obj
 0001:00009a20       ?init_d2_ptrs2@@YAHXZ      6600aa20 f   install.obj
 0001:00009a90       ?InstallPatchAfterLoad_ASM@@YAXXZ 6600aa90 f   install.obj
 0001:00009d80       ?setResolutionPatch@@YAXH@Z 6600ad80 f   install.obj
 0001:00009dd0       ?MonitorPacket@@YAXXZ      6600add0 f   install.obj
 0001:0000c170       ?check_d2ptrs@@YAXXZ       6600d170 f   install.obj
 0001:000140c0       ?Install@@YAHXZ            660150c0 f   install.obj
 0001:00014670       ?patchServer@@YAXXZ        66015670 f   install.obj
 0001:000146d0       @SetReloadFlag@8           660156d0 f   install.obj
 0001:00014700       @SetBnetIp@4               66015700 f   install.obj
 0001:00014720       ?unpatchServer@@YAXXZ      66015720 f   install.obj
 0001:00014770       ?Uninstall@@YAXXZ          66015770 f   install.obj
 0001:00014890       ?ReloadConfig@@YAHXZ       66015890 f   install.obj
 0001:00014a10       ?init_crypt_table@@YAXXZ   66015a10 f   mpq.obj
 0001:00014ab0       ?mpq_hashstring@@YAIPBDI@Z 66015ab0 f   mpq.obj
 0001:00014b30       ?saveMpqTable@@YAXXZ       66015b30 f   mpq.obj
 0001:00014be0       ?add_mpq_path@@YIHPAD@Z    66015be0 f   mpq.obj
 0001:00014d10       ?dump_mpq_path@@YIXH@Z     66015d10 f   mpq.obj
 0001:00014eb0       ?storm268_patch_ASM@@YAXXZ 66015eb0 f   mpq.obj
 0001:00014ee0       ?common_addConfigVars@@YAXXZ 66015ee0 f   common.obj
 0001:00014f20       ?UnicodeFix2@@YAXPA_W@Z    66015f20 f   common.obj
 0001:00014fb0       ?MyMultiByteToWideChar@@YAHIKPBDHPA_WH@Z 66015fb0 f   common.obj
 0001:00014ff0       ?GB2GBK@@YAXPAD@Z          66015ff0 f   common.obj
 0001:00015170       ?readFully@@YAHPAU_iobuf@@PADH@Z 66016170 f   common.obj
 0001:000151d0       ?getFileSize@@YAHPBD@Z     660161d0 f   common.obj
 0001:00015200       ?fileExist@@YAHPBD@Z       66016200 f   common.obj
 0001:00015220       ?openFile@@YAPAU_iobuf@@PAD0@Z 66016220 f   common.obj
 0001:00015330       ?heap_strdup@@YAPADPAXPAD@Z 66016330 f   common.obj
 0001:000153b0       ?loadFile@@YAPADPAXPAU_iobuf@@PAH@Z 660163b0 f   common.obj
 0001:00015500       ?mainMenuMsg@@YAXPA_WH@Z   66016500 f   common.obj
 0001:000155c0       ?gameMessage@@YAXPADZZ     660165c0 f   common.obj
 0001:000156d0       ?partyMessage@@YAXPADZZ    660166d0 f   common.obj
 0001:00015790       ?gameMessageW@@YAXPA_WZZ   66016790 f   common.obj
 0001:000157e0       ?gameMessageWColor@@YAXHPA_WZZ 660167e0 f   common.obj
 0001:00015840       ?partyMessageW@@YAXPA_WZZ  66016840 f   common.obj
 0001:00015890       ?partyMessageWColor@@YAXHPA_WZZ 66016890 f   common.obj
 0001:000158f0       ?get_cpu_usage@@YAHPAH0@Z  660168f0 f   common.obj
 0001:000159d0       ?getSkillClass@@YAHH@Z     660169d0 f   common.obj
 0001:00015a20       ?getSkillType@@YAHHH@Z     66016a20 f   common.obj
 0001:00015a70       ?getSkillLevel@@YAHPAUUnitAny@@H@Z 66016a70 f   common.obj
 0001:00015bd0       ?getUnitRawDistance2@@YAHPAUUnitAny@@0@Z 66016bd0 f   common.obj
 0001:00015ce0       ?getUnitYardDistance2@@YAMPAUUnitAny@@0@Z 66016ce0 f   common.obj
 0001:00015d20       ?saveDistanceMap@@YAXXZ    66016d20 f   common.obj
 0001:00015d80       ?getDistanceM256@@YAHHH@Z  66016d80 f   common.obj
 0001:00015eb0       ?getPlayerDistanceM256@@YAHPAUUnitAny@@@Z 66016eb0 f   common.obj
 0001:00015f40       ?getPlayerDistanceRaw@@YAMPAUUnitAny@@@Z 66016f40 f   common.obj
 0001:00015fe0       ?getPlayerDistanceYard@@YAMPAUUnitAny@@@Z 66016fe0 f   common.obj
 0001:00016010       ?getRosterUnit@@YAPAURosterUnit@@H@Z 66017010 f   common.obj
 0001:00016050       ?findObjectByTxt@@YAPAUUnitAny@@HHH@Z 66017050 f   common.obj
 0001:00016100       ?getPortalToArea@@YAPAUUnitAny@@HPAD@Z 66017100 f   common.obj
 0001:00016240       ?getSinglePlayerWorld@@YAPAUWorld@@XZ 66017240 f   common.obj
 0001:00016270       ?encodeItem@@YAHPAUUnitAny@@PADH@Z 66017270 f   common.obj
 0001:000162b0       ?hasSkill@@YAHH@Z          660172b0 f   common.obj
 0001:00016330       ?selectSkill@@YAXHH@Z      66017330 f   common.obj
 0001:00016380       ?switchLeftSkill@@YAXH@Z   66017380 f   common.obj
 0001:000163a0       ?switchRightSkill@@YAXH@Z  660173a0 f   common.obj
 0001:000163c0       ?getSinglePlayerUnit@@YAPAUUnitAny@@HH@Z 660173c0 f   common.obj
 0001:00016490       ?SendPacket@@YAXPAEH@Z     66017490 f   common.obj
 0001:00016520       ?LeftClickType@@YAHHPAUUnitAny@@HH@Z 66017520 f   common.obj
 0001:00016600       ?LeftClickPos@@YAHHH@Z     66017600 f   common.obj
 0001:00016620       ?LeftClickUnit@@YAHPAUUnitAny@@@Z 66017620 f   common.obj
 0001:00016640       ?ShiftLeftClickUnit@@YAHPAUUnitAny@@@Z 66017640 f   common.obj
 0001:00016690       ?ShiftLeftClickPos@@YAHHH@Z 66017690 f   common.obj
 0001:000166e0       ?RightSkill@@YAHPAUUnitAny@@HH@Z 660176e0 f   common.obj
 0001:00016730       ?RightSkillPos@@YAHHH@Z    66017730 f   common.obj
 0001:00016750       ?RightSkillUnit@@YAHPAUUnitAny@@@Z 66017750 f   common.obj
 0001:00016780       ?canUseSkillNow@@YAHPAUUnitAny@@H@Z 66017780 f   common.obj
 0001:000167a0       ?skillUnusableAsm@@YAHPAUUnitAny@@PAUSkill@@@Z 660177a0 f   common.obj
 0001:000167c0       ?skillUnusable@@YAHPAUUnitAny@@PAUSkill@@@Z 660177c0 f   common.obj
 0001:00016800       ?useBelt@@YAXHH@Z          66017800 f   common.obj
 0001:00016880       ?GameControlStart@@YAHH@Z  66017880 f   common.obj
 0001:00016910       ?GameControlEnd@@YAHH@Z    66017910 f   common.obj
 0001:00016990       ?GameControl@@YAXH@Z       66017990 f   common.obj
 0001:000169b0       ?getGameControlKey@@YAHH@Z 660179b0 f   common.obj
 0001:00016a00       ?sqrt@@YAMM@Z              66017a00 f i common.obj
 0001:00016a20       _sqrtf                     66017a20 f i common.obj
 0001:00016a40       ?StandStillPatch_ASM@@YAXXZ 66017a40 f   common.obj
 0001:00016a60       ?setBottomAlertMsg@@YAXHPA_WHHHH@Z 66017a60 f   common.obj
 0001:00016b40       ?setBottomAlertBg@@YAXHHH@Z 66017b40 f   common.obj
 0001:00016b90       ?DrawCenterAlertMsg@@YAXXZ 66017b90 f   common.obj
 0001:00016d10       ?GetAreaLevel@@YAHXZ       66017d10 f   common.obj
 0001:00016d70       ?GetPetByType@@YAPAUPetUnit@@PAUUnitAny@@H@Z 66017d70 f   common.obj
 0001:00016dc0       ?GetUnitFromIdSafe@@YAPAUUnitAny@@KK@Z 66017dc0 f   common.obj
 0001:00016e30       ?GetUnitPet@@YAPAUUnitAny@@PAU1@@Z 66017e30 f   common.obj
 0001:00016e70       ?getPlayerClass@@YAHH@Z    66017e70 f   common.obj
 0001:00016eb0       ?GetUnitMagicStat@@YAKPAUUnitAny@@K@Z 66017eb0 f   common.obj
 0001:00016f00       ?GetUnitResist@@YAHPAUUnitAny@@K@Z 66017f00 f   common.obj
 0001:00016f50       ?CheckUnitSelect@@YAHPAUUnitAny@@@Z 66017f50 f   common.obj
 0001:00017080       ?GetItemILvlAfterCube@@YAHHHH@Z 66018080 f   common.obj
 0001:00017130       ?GetItemAlvl@@YAHHHH@Z     66018130 f   common.obj
 0001:000171b0       ?GetTextWidth@@YAKPA_W@Z   660181b0 f   common.obj
 0001:000171d0       ?DrawD2Text@@YAXKPA_WHHKK@Z 660181d0 f   common.obj
 0001:00017210       ?DrawCenterText@@YAXKPA_WHHKHK@Z 66018210 f   common.obj
 0001:00017260       ?drawBgText@@YAHPA_WHHHH@Z 66018260 f   common.obj
 0001:000172e0       ?drawBgTextMiddle@@YAHPA_WHHHH@Z 660182e0 f   common.obj
 0001:00017350       ?drawBgTextLeft@@YAHPA_WHHHH@Z 66018350 f   common.obj
 0001:000173b0       ?ExitGame@@YAXXZ           660183b0 f   common.obj
 0001:000173f0       ?GetGameLanguage@@YAHXZ    660183f0 f   common.obj
 0001:000174b0       ?getFcrFrame@@YAHHPAUUnitAny@@@Z 660184b0 f   common.obj
 0001:00017770       ?IsFullWindow@@YAHXZ       66018770 f   common.obj
 0001:00017830       ?getUnitOwnerId@@YAHPAUUnitAny@@@Z 66018830 f   common.obj
 0001:00017a00       ?compareDllAddr@@YAHPBX0@Z 66018a00 f   dbg.obj
 0001:00017a10       ?testPvpFlag@@YAHH@Z       66018a10 f   common.obj
 0001:00017c10       ?sameParty@@YAHH@Z         66018c10 f   common.obj
 0001:00017c30       ?isInRect@@YA_NPAUAreaRectData@@HH@Z 66018c30 f   common.obj
 0001:00017ca0       ?testPosition@@YAPAUAreaRectData@@PAU1@HH@Z 66018ca0 f   common.obj
 0001:00017cc0       ?portalToLevel@@YAHPAUWorld@@PAUUnitAny@@H@Z 66018cc0 f   common.obj
 0001:00017e70       ?hasPortalInRect@@YAHPAUAreaRectData@@H@Z 66018e70 f   common.obj
 0001:00017ee0       ?hasPortalNearby@@YAHPAUAreaRectData@@H@Z 66018ee0 f   common.obj
 0001:00017f50       ?findTxtInRect@@YAPAUUnitAny@@PAUAreaRectData@@HHHH@Z 66018f50 f   common.obj
 0001:00017fb0       ?findTxtNearby@@YAPAUUnitAny@@PAUAreaRectData@@HHHH@Z 66018fb0 f   common.obj
 0001:00018040       ?hasPortalInLevel@@YAHPAUDrlgLevel@@H@Z 66019040 f   common.obj
 0001:000180a0       ?unitHasItem@@YAHPAUUnitAny@@H@Z 660190a0 f   common.obj
 0001:00018110       ?sendPacketToClient@@YAXPAUNetClient@@PADH@Z 66019110 f   common.obj
 0001:00018130       ?sendChatMessageToServer@@YAXPADZZ 66019130 f   common.obj
 0001:000181f0       ?sendMessageToClient@@YAXPAUNetClient@@HHPAD1@Z 660191f0 f   common.obj
 0001:00018390       ?getCharStatsTxt@@YAPAUCharStatsTxt@@H@Z 66019390 f   common.obj
 0001:000183a0       ?getStatMaxValue@@YAHH@Z   660193a0 f   common.obj
 0001:00018400       ?cpLocaleName@@YAHPA_W0H@Z 66019400 f   common.obj
 0001:000184a0       ?acp_fputs@@YAXPA_WPAU_iobuf@@@Z 660194a0 f   common.obj
 0001:00018560       ?acpLocaleName@@YAHPADPA_WH@Z 66019560 f   common.obj
 0001:00018650       ?getSimpleItemStackContent@@YAHPAUUnitAny@@PAH@Z 66019650 f   common.obj
 0001:00018730       ?getUnitFromWorld@@YAPAUUnitAny@@PAUWorld@@HH@Z 66019730 f   common.obj
 0001:00018750       ?sendItemToClient@@YAXPAUNetClient@@PAUUnitAny@@1@Z 66019750 f   common.obj
 0001:00018770       ?d2client_SetAutomapParty@@YIXK@Z 66019770 f   d2callstub.obj
 0001:00018780       ?d2client_SetAutomapNames@@YIXK@Z 66019780 f   d2callstub.obj
 0001:00018790       ?d2client_ChatInput@@YIKPAUD2MSG@@@Z 66019790 f   d2callstub.obj
 0001:000187a0       ?d2client_CheckUiStatus@@YIHH@Z 660197a0 f   d2callstub.obj
 0001:000187b0       ?d2client_InitAutomapLayer@@YIPAUAutomapLayer@@H@Z 660197b0 f   d2callstub.obj
 0001:000187c0       ?d2common_GetUniqueItemTxt@@YIPAUUniqueItemTxt@@H@Z 660197c0 f   d2callstub.obj
 0001:000187f0       ?d2common_GetItemStatCostTxt@@YIPAUItemStatCostTxt@@H@Z 660197f0 f   d2callstub.obj
 0001:00018820       ?d2common_GetPropertiesTxt@@YIPAUPropertiesTxt@@H@Z 66019820 f   d2callstub.obj
 0001:00018850       ?d2common_GetSetItemTxt@@YIPAUSetItemTxt@@H@Z 66019850 f   d2callstub.obj
 0001:00018880       ?d2common_GetItemTypeTxt@@YIPAUItemTypeTxt@@H@Z 66019880 f   d2callstub.obj
 0001:000188b0       ?d2common_GetRuneWordTxt@@YIPAURuneWordTxt@@H@Z 660198b0 f   d2callstub.obj
 0001:000188e0       ?d2common_GetRuneWordTxtIndex@@YIHH@Z 660198e0 f   d2callstub.obj
 0001:00018920       ?d2client_LoadUiImage@@YIPAUCellFile@@PAD@Z 66019920 f   d2callstub.obj
 0001:00018930       ?SaveGame@@YAHXZ           66019930 f   dbg.obj
 0001:00018980       ?DoTest@@YAHXZ             66019980 f   dbg.obj
 0001:000189f0       ?initDllInfo@@YAXXZ        660199f0 f   dbg.obj
 0001:00018d30       ?bsearchDllAddr@@YAPAUDll@@PAU1@HHH@Z 66019d30 f   dbg.obj
 0001:00018de0       ?getEnclosingDll@@YAPAUDll@@H@Z 66019de0 f   dbg.obj
 0001:00018ed0       ?dumpStackFrom@@YGXPAHH@Z  66019ed0 f   dbg.obj
 0001:00018ff0       ?installAlwaysDebugPatches@@YAHXZ 66019ff0 f   dbg.obj
 0001:00019000       ?installDebugPatches@@YAHXZ 6601a000 f   dbg.obj
 0001:000191f0       ?loop_addConfigVars@@YAXXZ 6601a1f0 f   loop.obj
 0001:00019230       ?ToggleIMEInput@@YAXH@Z    6601a230 f   loop.obj
 0001:00019280       ?GameLoopPatch@@YAXXZ      6601a280 f   loop.obj
 0001:0001a3c0       ?GameEndPatch@@YAXXZ       6601b3c0 f   loop.obj
 0001:0001a5e0       ?GameLoopPatch_ASM@@YAXXZ  6601b5e0 f   loop.obj
 0001:0001a5f0       ?GameEndPatch_ASM@@YAXXZ   6601b5f0 f   loop.obj
 0001:0001a600       ?automap_addConfigVars@@YAXXZ 6601b600 f   map.obj
 0001:0001a640       ?automap_initConfigVars@@YAXXZ 6601b640 f   map.obj
 0001:0001a950       ?automap_initKeyEvent@@YAXXZ 6601b950 f   map.obj
 0001:0001a9d0       ?draw2map@@YAXPAUtagPOINT@@HH@Z 6601b9d0 f   map.obj
 0001:0001aa40       ?tile2draw@@YAXPAUtagPOINT@@HH@Z 6601ba40 f   map.obj
 0001:0001aa70       ?tile2map@@YAXPAUtagPOINT@@HH@Z 6601ba70 f   map.obj
 0001:0001aac0       ?addMapTarget@@YAXHHHPA_W0@Z 6601bac0 f   map.obj
 0001:0001aba0       ?automap_fixValues@@YAXXZ  6601bba0 f   map.obj
 0001:0001ac00       ?AutoMapNewGame@@YAXXZ     6601bc00 f   map.obj
 0001:0001ad10       ?PrevMapTarget@@YAHXZ      6601bd10 f   map.obj
 0001:0001af50       ?NextMapTarget@@YAHXZ      6601bf50 f   map.obj
 0001:0001b000       ?incMapTargetIf@@YAXH@Z    6601c000 f   map.obj
 0001:0001b030       ?nextSeal@@YAXXZ           6601c030 f   map.obj
 0001:0001b0f0       ?AutoMapNewLevel@@YAXXZ    6601c0f0 f   map.obj
 0001:0001b2d0       ?addMinimapTarget@@YAXPAUAreaRectInfo@@HHHHHH@Z 6601c2d0 f   map.obj
 0001:0001b3d0       ?bitmap2dc6@@YAPAUCellFile@@PAEHH@Z 6601c3d0 f   map.obj
 0001:0001b600       ?InitCellFiles@@YAXXZ      6601c600 f   map.obj
 0001:0001b900       ?DeleteCellFiles@@YAXXZ    6601c900 f   map.obj
 0001:0001ba10       ?InitAutomapLayer@@YAXH@Z  6601ca10 f   map.obj
 0001:0001ba30       ?mapReveal@@YAXPAUAreaRectInfo@@@Z 6601ca30 f   map.obj
 0001:0001ba80       ?mapHide@@YAXPAUAreaRectInfo@@@Z 6601ca80 f   map.obj
 0001:0001bad0       ?addSecretCowLevelCorners@@YAXPAUDrlgLevel@@@Z 6601cad0 f   map.obj
 0001:0001bc80       ?RevealAutomapLevel@@YAXPAUDrlgLevel@@H@Z 6601cc80 f   map.obj
 0001:0001c840       ?RevealLevelPlayerIn@@YAHXZ 6601d840 f   map.obj
 0001:0001c880       ?RevealCurAct@@YAHXZ       6601d880 f   map.obj
 0001:0001ca30       ?RemoveMyAutomapNodes@@YAXXZ 6601da30 f   map.obj
 0001:0001cb20       ?DrawAutomapNodePatch@@YGXPAUCellContext@@HHPAUtagRECT@@H@Z 6601db20 f   map.obj
 0001:0001ced0       ?AddShrinePatch_ASM@@YAXXZ 6601ded0 f   map.obj
 0001:0001cf00       ?OverrideShrinePatch@@YIXPAUAutomapNode@@0@Z 6601df00 f   map.obj
 0001:0001cf60       ?OverrideShrinePatch_ASM@@YAXXZ 6601df60 f   map.obj
 0001:0001cf80       ?DrawAutomapNode@@YAXPAUCellFile@@HHD@Z 6601df80 f   map.obj
 0001:0001d100       ?DrawAutomapBlob@@YIXHHHPAUUnitAny@@@Z 6601e100 f   map.obj
 0001:0001d280       ?ForceDrawBlob_ASM@@YAXXZ  6601e280 f   map.obj
 0001:0001d290       ?DrawBlobPath_ASM@@YAXXZ   6601e290 f   map.obj
 0001:0001d2a0       ?DrawPartyPlayerBlobPatch_ASM@@YAXXZ 6601e2a0 f   map.obj
 0001:0001d2b0       ?HostilePlayerPatch@@YIEPAUUnitAny@@@Z 6601e2b0 f   map.obj
 0001:0001d2f0       ?HostilePlayerColor_ASM@@YAXXZ 6601e2f0 f   map.obj
 0001:0001d300       ?DrawPlayerTextPatch@@YIEPAUUnitAny@@@Z 6601e300 f   map.obj
 0001:0001d360       ?DrawPlayerTextPatch_ASM@@YAXXZ 6601e360 f   map.obj
 0001:0001d380       ?MonsterBlobDesc@@YIXPAUUnitAny@@@Z 6601e380 f   map.obj
 0001:0001d870       ?MonsterBlobDescPatch_ASM@@YAXXZ 6601e870 f   map.obj
 0001:0001d890       ?MonsterBlobCol@@YIEPAUUnitAny@@@Z 6601e890 f   map.obj
 0001:0001d9c0       ?CorpseBlobCol@@YIEPAUUnitAny@@@Z 6601e9c0 f   map.obj
 0001:0001da70       ?ObjectBlobCol@@YIEPAUUnitAny@@@Z 6601ea70 f   map.obj
 0001:0001dc30       ?MissileBlobCol@@YIEPAUUnitAny@@@Z 6601ec30 f   map.obj
 0001:0001dd30       ?MixedBlobColPatch@@YIEPAUUnitAny@@@Z 6601ed30 f   map.obj
 0001:0001dde0       ?MixedBlobColPatch_ASM@@YAXXZ 6601ede0 f   map.obj
 0001:0001de10       ?AddRectToMinimap@@YAHPAUAreaRectInfo@@H@Z 6601ee10 f   map.obj
 0001:0001ed70       ?drawActiveRectAreaOnMinimap@@YAXXZ 6601fd70 f   map.obj
 0001:0001eed0       ?drawActiveRectAreaOnScreen@@YAXXZ 6601fed0 f   map.obj
 0001:0001f0c0       ?drawScreenAreaOnMinimap@@YAXXZ 660200c0 f   map.obj
 0001:0001f1e0       ?MinimapPatch@@YAXXZ       660201e0 f   map.obj
 0001:0001f4c0       ?MinimapPatch_ASM@@YAXXZ   660204c0 f   map.obj
 0001:0001f4d0       ?InitScrollLock@@YAXH@Z    660204d0 f   map.obj
 0001:0001f500       ?SetScrollMapPos@@YAXHH@Z  66020500 f   map.obj
 0001:0001f560       ?MiniMapScroll@@YAHH@Z     66020560 f   map.obj
 0001:0001f590       ?CenterMap@@YAHXZ          66020590 f   map.obj
 0001:0001f5b0       ?ShakeScreenPatch@@YGXPAH0@Z 660205b0 f   map.obj
 0001:0001f650       ?ScrollScreenEnd@@YAHH@Z   66020650 f   map.obj
 0001:0001f690       ?ScrollScreenStart@@YAHH@Z 66020690 f   map.obj
 0001:0001f760       ?DrawScrollOffset@@YAXPA_WH@Z 66020760 f   map.obj
 0001:0001f7b0       ?recvObjectState@@YIXPAD@Z 660207b0 f   map.obj
 0001:0001f850       ?RecvPacket0EPatch_ASM@@YAXXZ 66020850 f   map.obj
 0001:0001f860       ?packet_addConfigVars@@YAXXZ 66020860 f   packet.obj
 0001:0001f8a0       ?packet_initConfigVars@@YAXXZ 660208a0 f   packet.obj
 0001:0001f8d0       ?packet_FixValues@@YAXXZ   660208d0 f   packet.obj
 0001:0001f910       ?ResetPacketHandlerTimer@@YAXXZ 66020910 f   packet.obj
 0001:0001f920       ?PacketNewGame@@YAXXZ      66020920 f   packet.obj
 0001:0001f940       ?FixSocketTimeOut_ASM@@YAXXZ 66020940 f   packet.obj
 0001:0001f950       ?FixSocketErrRet_ASM@@YAXXZ 66020950 f   packet.obj
 0001:0001f970       ?dump9c@@YAXPAEH@Z         66020970 f   packet.obj
 0001:0001fad0       ?GamePacketReceivedInterceptPatch_ASM@@YAXXZ 66020ad0 f   packet.obj
 0001:0001fb00       ?dumpRecvPacket@@YIXPAEH@Z 66020b00 f   packet.obj
 0001:000206d0       ?GamePacketSendInterceptPatch_ASM@@YAXXZ 660216d0 f   packet.obj
 0001:00020730       ?dumpSendPacket@@YIXPAH@Z  66021730 f   packet.obj
 0001:00020de0       ?showResetProtectMsg@@YAXXZ 66021de0 f   packet.obj
 0001:00020e50       ?activeBufferItem@@YAHHHH@Z 66021e50 f   packet.obj
 0001:00020ec0       ?ResetSkillPatch_ASM@@YAXXZ 66021ec0 f   packet.obj
 0001:00020ef0       ?blockSendPacket@@YIHPAH@Z 66021ef0 f   packet.obj
 0001:00021a50       ?initSendPacketCheckTable@@YAXXZ 66022a50 f   packet.obj
 0001:00021af0       ?autoroute_addConfigVars@@YAXXZ 66022af0 f   route.obj
 0001:00021b30       ?autoroute_fixValues@@YAXXZ 66022b30 f   route.obj
 0001:00021b50       ?AutoRouteNewGame@@YAXXZ   66022b50 f   route.obj
 0001:00021b80       ?AutoRouteLocateSource@@YAHH@Z 66022b80 f   route.obj
 0001:00021d20       ?minimapDebug@@YAXXZ       66022d20 f   route.obj
 0001:00021e70       ?AutoRouteDrawScreenPath@@YAXXZ 66022e70 f   route.obj
 0001:00022130       ?AutoRouteDrawMinimapPath@@YAXXZ 66023130 f   route.obj
 0001:000227d0       ?markNextPathInvalid@@YAXH@Z 660237d0 f   route.obj
 0001:00022840       ?AutoTeleportGetTarget@@YAHPAUtagPOINT@@PAH11@Z 66023840 f   route.obj
 0001:000229a0       ?RerouteRectPath@@YAHXZ    660239a0 f   route.obj
 0001:000235e0       ?AutoMapRoute@@YAXXZ       660245e0 f   route.obj
 0001:000236d0       ?waypoint_initConfigVars@@YAXXZ 660246d0 f   waypoint.obj
 0001:00023750       ?waypointExist@@YAHH@Z     66024750 f   waypoint.obj
 0001:00023790       ?hasWaypoint@@YAHH@Z       66024790 f   waypoint.obj
 0001:000237f0       ?WaypointNewGame@@YAXXZ    660247f0 f   waypoint.obj
 0001:00023810       ?isWaypointTxt@@YAHH@Z     66024810 f   waypoint.obj
 0001:000239d0       ?findWaypoint@@YAPAUUnitAny@@H@Z 660249d0 f   waypoint.obj
 0001:00023c10       ?takeWaypointToLevel@@YAHPAUUnitAny@@H@Z 66024c10 f   waypoint.obj
 0001:00023c80       ?takeWaypointToLvl@@YAHHH@Z 66024c80 f   waypoint.obj
 0001:00023cc0       ?RecvCommand_63_Patch_ASM@@YAXXZ 66024cc0 f   waypoint.obj
 0001:00023db0       ?winmsg_addConfigVars@@YAXXZ 66024db0 f   winmsg.obj
 0001:00023df0       ?winmsg_initConfigVars@@YAXXZ 66024df0 f   winmsg.obj
 0001:00023f00       ?WinMessageFixValues@@YAXXZ 66024f00 f   winmsg.obj
 0001:00023f90       ?WinMessage_initKeyEvent@@YAXXZ 66024f90 f   winmsg.obj
 0001:000243d0       ?IsKeyDown@@YAHH@Z         660253d0 f   winmsg.obj
 0001:000243f0       ?LockMouse@@YAHXZ          660253f0 f   winmsg.obj
 0001:000245b0       ?switchSkillStart@@YAHH@Z  660255b0 f   winmsg.obj
 0001:00024730       ?switchSkillEnd@@YAHH@Z    66025730 f   winmsg.obj
 0001:000248b0       ?GameSound@@YAHH@Z         660258b0 f   winmsg.obj
 0001:000248f0       ?FullScreen@@YAHXZ         660258f0 f   winmsg.obj
 0001:000249e0       ?AttractNPC@@YAHXZ         660259e0 f   winmsg.obj
 0001:00024a80       ?SwitchWindow@@YAHH@Z      66025a80 f   winmsg.obj
 0001:00024ae0       ?WinMessageNewGame@@YAXXZ  66025ae0 f   winmsg.obj
 0001:00024d30       ?WinMessageEndGame@@YAXXZ  66025d30 f   winmsg.obj
 0001:00024d60       ?refreshScreenSaver@@YAXXZ 66025d60 f   winmsg.obj
 0001:00024da0       ?refreshMenuScreenSaver@@YAXXZ 66025da0 f   winmsg.obj
 0001:00024de0       ?winActiveMsg@@YAXH@Z      66025de0 f   winmsg.obj
 0001:00024f20       ?hasCTA@@YAHXZ             66025f20 f   winmsg.obj
 0001:00024fc0       ?WinMessageRunLoop@@YAXXZ  66025fc0 f   winmsg.obj
 0001:00025290       ?canExitGame@@YAHXZ        66026290 f   winmsg.obj
 0001:00025440       ?WinMessage@@YAHHHPAUHWND__@@HHH@Z 66026440 f   winmsg.obj
 0001:00026460       ?WinMessagePatch_ASM@@YAXXZ 66027460 f   winmsg.obj
 0001:00026470       ?KeydownPatch_ASM@@YAXXZ   66027470 f   winmsg.obj
 0001:00026490       ?KeyupPatch_ASM@@YAXXZ     66027490 f   winmsg.obj
 0001:000264b0       ?ReceiveSwapWeapon_ASM@@YAXXZ 660274b0 f   winmsg.obj
 0001:000264f0       ?ShowVersion_Patch_ASM@@YAXXZ 660274f0 f   winmsg.obj
 0001:00026590       ?SetCursorPosPatch_ASM@@YAXXZ 66027590 f   winmsg.obj
 0001:000265b0       ?DrawLeftBackImagePatch_ASM@@YAXXZ 660275b0 f   winmsg.obj
 0001:000265d0       ?DrawRightBackImagePatch_ASM@@YAXXZ 660275d0 f   winmsg.obj
 0001:000265f0       ?DrawGroundAndUnitPatch_ASM@@YAXXZ 660275f0 f   winmsg.obj
 0001:00026650       ?DrawControlsPatch_ASM@@YAXXZ 66027650 f   winmsg.obj
 0001:00026750       ?SkipDrawUnitAndControlPatch_ASM@@YAXXZ 66027750 f   winmsg.obj
 0001:000267f0       ?SkipAllDrawingPatch_ASM@@YAXXZ 660277f0 f   winmsg.obj
 0001:000268a0       ?SkipDrawMenuPatch2_ASM@@YAXXZ 660278a0 f   winmsg.obj
 0001:00026930       ?SkipDrawMenuPatch_ASM@@YAXXZ 66027930 f   winmsg.obj
 0001:00026a40       ?NoHidePatch_ASM@@YAXXZ    66027a40 f   winmsg.obj
 0001:00026a70       ?env_addConfigVars@@YAXXZ  66027a70 f   env.obj
 0001:00026ab0       ?env_initConfigVars@@YAXXZ 66027ab0 f   env.obj
 0001:00026b00       ?ChangeVisualEffect@@YAHXZ 66027b00 f   env.obj
 0001:00026b80       ?WeatherPatch_ASM@@YAXXZ   66027b80 f   env.obj
 0001:00026b90       ?LightingPatch_ASM@@YAXXZ  66027b90 f   env.obj
 0001:00026bc0       ?InfravisionPatch@@YIKPAUUnitAny@@@Z 66027bc0 f   env.obj
 0001:000271a0       ?InfravisionPatch_ASM@@YAXXZ 660281a0 f   env.obj
 0001:000271c0       ?drawMyGround@@YAXXZ       660281c0 f   env.obj
 0001:00027360       ?SkipDrawGroundPatch_ASM@@YAXXZ 66028360 f   env.obj
 0001:00027380       ?playerAddExp@@YAXH@Z      66028380 f   GameMonitor.obj
 0001:00027400       ?gamemonitor_addConfigVars@@YAXXZ 66028400 f   GameMonitor.obj
 0001:00027440       ?gamemonitor_initConfigVars@@YAXXZ 66028440 f   GameMonitor.obj
 0001:00027480       ?usePotion@@YAXH@Z         66028480 f   GameMonitor.obj
 0001:00027560       ?updateCurStashPage@@YAXXZ 66028560 f   GameMonitor.obj
 0001:000276a0       ?recheckSelfItems@@YAXXZ   660286a0 f   GameMonitor.obj
 0001:00027dc0       ?setKDCountDown@@YAXH@Z    66028dc0 f   GameMonitor.obj
 0001:00027de0       ?setKBCountDown@@YAXHH@Z   66028de0 f   GameMonitor.obj
 0001:00027e80       ?setCountDownEndTime@@YAXPAUCountDown@@@Z 66028e80 f   GameMonitor.obj
 0001:00027f60       ?setupCountdown@@YAXPAUCountDown@@@Z 66028f60 f   GameMonitor.obj
 0001:00027fb0       ?onRightSkillMap@@YAXHH@Z  66028fb0 f   GameMonitor.obj
 0001:00028160       ?onRightSkillUnit@@YAXHH@Z 66029160 f   GameMonitor.obj
 0001:000282c0       ?GameMonitorNewGame@@YAXXZ 660292c0 f   GameMonitor.obj
 0001:00028380       ?GameMonitorEndGame@@YAXXZ 66029380 f   GameMonitor.obj
 0001:000283a0       ?ShowGameCount@@YAXXZ      660293a0 f   GameMonitor.obj
 0001:00028630       ?SetKills@@YIXK@Z          66029630 f   GameMonitor.obj
 0001:00028680       ?KillCountPatch_ASM@@YAXXZ 66029680 f   GameMonitor.obj
 0001:000286a0       ?UnitModeChangePatch_ASM@@YAXXZ 660296a0 f   GameMonitor.obj
 0001:000286e0       ?drawSimpleItemStackInfo@@YAXPAUUnitAny@@HH@Z 660296e0 f   GameMonitor.obj
 0001:00028940       ?DrawMonitorInfo@@YAXXZ    66029940 f   GameMonitor.obj
 0001:0002a400       ?SetState@@YGXKH@Z         6602b400 f   GameMonitor.obj
 0001:0002a730       ?RecvCommand_A7_Patch_ASM@@YAXXZ 6602b730 f   GameMonitor.obj
 0001:0002a8b0       ?RecvCommand_A8_Patch_ASM@@YAXXZ 6602b8b0 f   GameMonitor.obj
 0001:0002a900       ?RecvCommand_A9_Patch_ASM@@YAXXZ 6602b900 f   GameMonitor.obj
 0001:0002a950       ?itemAction@@YAXPAUbitstream@@PAD@Z 6602b950 f   GameMonitor.obj
 0001:0002aac0       ?changeStashPage@@YAXH@Z   6602bac0 f   GameMonitor.obj
 0001:0002ab90       ?itemAction9C@@YIXPAD@Z    6602bb90 f   GameMonitor.obj
 0001:0002ac10       ?itemAction9D@@YIXPAD@Z    6602bc10 f   GameMonitor.obj
 0001:0002ac90       ?updateItemSkill@@YIXPAD@Z 6602bc90 f   GameMonitor.obj
 0001:0002ad20       ?RecvCommand_9C_Patch_ASM@@YAXXZ 6602bd20 f   GameMonitor.obj
 0001:0002ad30       ?RecvCommand_9D_Patch_ASM@@YAXXZ 6602bd30 f   GameMonitor.obj
 0001:0002ad40       ?RecvCommand_22_Patch_ASM@@YAXXZ 6602bd40 f   GameMonitor.obj
 0001:0002ad50       ?getOverheadNameGid@@YAHHH@Z 6602bd50 f   GameMonitor.obj
 0001:0002add0       ?getTowerValue@@YAHHH@Z    6602bdd0 f   GameMonitor.obj
 0001:0002ae60       ?drawUnitsInfo@@YAXXZ      6602be60 f   GameMonitor.obj
 0001:0002cdc0       ?playerSkillOnMap@@YIXPAD@Z 6602ddc0 f   GameMonitor.obj
 0001:0002cea0       ?RecvCommand_4C_Patch_ASM@@YAXXZ 6602dea0 f   GameMonitor.obj
 0001:0002d000       ?info_AddConfigVars@@YAXXZ 6602e000 f   info.obj
 0001:0002d040       ?infoNewGame@@YAXXZ        6602e040 f   info.obj
 0001:0002d060       ?wsprintfW2@@YAPA_WPA_WPADZZ 6602e060 f   info.obj
 0001:0002d0c0       ?DrawGameInfoPatch@@YIXH@Z 6602e0c0 f   info.obj
 0001:0002d380       ?DrawPetHeadPatch@@YIXHPAUUnitAny@@@Z 6602e380 f   info.obj
 0001:0002d400       ?DrawPetHeadPatch_ASM@@YAXXZ 6602e400 f   info.obj
 0001:0002d410       ?getGameWinId@@YAHH@Z      6602e410 f   info.obj
 0001:0002d470       ?DrawPartyHeadPatch@@YIXHPAURosterUnit@@@Z 6602e470 f   info.obj
 0001:0002d970       ?StartDrawPartyHeadPatch_ASM@@YAXXZ 6602e970 f   info.obj
 0001:0002d990       ?DrawPartyHeadPatch_ASM@@YAXXZ 6602e990 f   info.obj
 0001:0002d9b0       ?DrawSkeletonHeadPatch@@YIXHH@Z 6602e9b0 f   info.obj
 0001:0002dad0       ?DrawSkeletonHeadPatch_ASM@@YAXXZ 6602ead0 f   info.obj
 0001:0002dae0       ?UpdateExp@@YAXXZ          6602eae0 f   info.obj
 0001:0002dd00       ?InitExp@@YAXXZ            6602ed00 f   info.obj
 0001:0002dd30       ?UpdateExp_ASM@@YAXXZ      6602ed30 f   info.obj
 0001:0002dd50       ?info_FixValues@@YAXXZ     6602ed50 f   info.obj
 0001:0002de30       ?DrawClientPatch@@YAXXZ    6602ee30 f   info.obj
 0001:0002dfb0       ?DrawClientPatch_ASM@@YAXXZ 6602efb0 f   info.obj
 0001:0002dfe0       ?ShowLifeWithMyPattern@@YGKKHH@Z 6602efe0 f   info.obj
 0001:0002e060       ?ShowManaWithMyPattern@@YGKKHH@Z 6602f060 f   info.obj
 0001:0002e0e0       ?ShowLifePatch_ASM@@YAXXZ  6602f0e0 f   info.obj
 0001:0002e100       ?ShowManaPatch_ASM@@YAXXZ  6602f100 f   info.obj
 0001:0002e120       ?SetLifeManaShow@@YAHXZ    6602f120 f   info.obj
 0001:0002e160       ?GetViewEquUnit@@YAPAUUnitAny@@XZ 6602f160 f   info.obj
 0001:0002e190       ?GetViewStatUnit@@YAPAUUnitAny@@XZ 6602f190 f   info.obj
 0001:0002e1c0       ?SetViewUnit@@YAXXZ        6602f1c0 f   info.obj
 0001:0002e2b0       ?ViewUnit@@YAHH@Z          6602f2b0 f   info.obj
 0001:0002e350       ?GetViewingStatsPlayerPatch1_ASM@@YAXXZ 6602f350 f   info.obj
 0001:0002e360       ?GetViewingStatsPlayerPatch2_ASM@@YAXXZ 6602f360 f   info.obj
 0001:0002e370       ?GetUnitDrawEquipItemPatch_ASM@@YAXXZ 6602f370 f   info.obj
 0001:0002e380       ?GetUnitDrawItemDescPath_ASM@@YAXXZ 6602f380 f   info.obj
 0001:0002e390       ?GetUnitTestHasItem_ASM@@YAXXZ 6602f390 f   info.obj
 0001:0002e3b0       ?GetUnitText@@YIPA_WPA_WPAUUnitAny@@@Z 6602f3b0 f   info.obj
 0001:0002e450       ?ViewDrawInvItemPatch@@YAPAUUnitAny@@XZ 6602f450 f   info.obj
 0001:0002e4d0       ?GetUnitDrawInvItemPatch_ASM@@YAXXZ 6602f4d0 f   info.obj
 0001:0002e4e0       ?GetUnitProtectClickEquipPatch_ASM@@YAXXZ 6602f4e0 f   info.obj
 0001:0002e520       ?GetUnitProtectClickInvPatch_ASM@@YAXXZ 6602f520 f   info.obj
 0001:0002e550       ?DrawDefaultFontText@@YAXPA_WHHKHK@Z 6602f550 f   info.obj
 0001:0002e580       ?SwitchStatPage@@YAHH@Z    6602f580 f   info.obj
 0001:0002e5d0       ?DrawUnitStat@@YAXHHHHPAD00KHH@Z 6602f5d0 f   info.obj
 0001:0002e6b0       ?ViewUnitStatPatch@@YIXPAUUnitAny@@@Z 6602f6b0 f   info.obj
 0001:0002eab0       ?ViewUnitStatPatch_ASM@@YAXXZ 6602fab0 f   info.obj
 0001:0002ead0       ?ViewPetStatPatch@@YIXPAUUnitAny@@@Z 6602fad0 f   info.obj
 0001:0002ed40       ?ViewPetStatPatch_ASM@@YAXXZ 6602fd40 f   info.obj
 0001:0002ed60       ?HpOrbPatch_ASM@@YAXXZ     6602fd60 f   info.obj
 0001:0002ed90       ?messagelog_AddConfigVars@@YAXXZ 6602fd90 f   MessageLog.obj
 0001:0002edd0       ?OpenFileNew@@YAPAXPAD@Z   6602fdd0 f   MessageLog.obj
 0001:0002ee00       ?OpenFileWrite@@YAPAXPAD@Z 6602fe00 f   MessageLog.obj
 0001:0002ee30       ?WriteFile@@YAKPAX0K@Z     6602fe30 f   MessageLog.obj
 0001:0002ee60       ?MessageLogPatch1_ASM@@YAXXZ 6602fe60 f   MessageLog.obj
 0001:0002f340       ?MessageLogPatch2_ASM@@YAXXZ 66030340 f   MessageLog.obj
 0001:0002f350       ?MessageLogExitGame@@YAXXZ 66030350 f   MessageLog.obj
 0001:0002f640       ?item_addConfigVars@@YAXXZ 66030640 f   item.obj
 0001:0002f680       ?item_initConfigVars@@YAXXZ 66030680 f   item.obj
 0001:0002f720       ?item_NewGame@@YAXXZ       66030720 f   item.obj
 0001:0002f740       ?wcs_insert@@YAPA_WPA_W0@Z 66030740 f   item.obj
 0001:0002f810       ?GetItemIndex@@YAHH@Z      66030810 f   item.obj
 0001:0002f860       ?CheckItemVisible@@YAHPAUUnitAny@@@Z 66030860 f   item.obj
 0001:0002f960       ?GetItemColour@@YAEPAUUnitAny@@H@Z 66030960 f   item.obj
 0001:0002fc40       ?SwitchItemMode@@YAHXZ     66030c40 f   item.obj
 0001:0002fcf0       ?trimspaces@@YAXPA_W@Z     66030cf0 f   item.obj
 0001:0002fdb0       ?ColourD2String@@YIPA_WPA_WK@Z 66030db0 f   item.obj
 0001:0002fe40       ?ItemHaveLevel@@YAHE@Z     66030e40 f   item.obj
 0001:0002fea0       ?ItemNamePatch@@YIXPA_WPAUUnitAny@@PAUItemTxt@@@Z 66030ea0 f   item.obj
 0001:00030af0       ?ItemNamePatch_ASM@@YAXXZ  66031af0 f   item.obj
 0001:00030b10       ?OpenCubeStringPatch@@YIPA_WPA_WK@Z 66031b10 f   item.obj
 0001:00030b70       ?OpenCubeStringPatch_ASM@@YAXXZ 66031b70 f   item.obj
 0001:00030b80       ?PermShowItemsPatch1@@YAHXZ 66031b80 f   item.obj
 0001:00030bb0       ?PermShowItemsPatch2@@YAHXZ 66031bb0 f   item.obj
 0001:00030c00       ?PermShowItemsPatch3@@YAHXZ 66031c00 f   item.obj
 0001:00030c70       ?PermShowItemsPatch1_ASM@@YAXXZ 66031c70 f   item.obj
 0001:00030c80       ?PermShowItemsPatch2_ASM@@YAXXZ 66031c80 f   item.obj
 0001:00030ca0       ?PermShowItemsPatch3_ASM@@YAXXZ 66031ca0 f   item.obj
 0001:00030cc0       ?PermShowItemsPatch4_ASM@@YAXXZ 66031cc0 f   item.obj
 0001:00030cd0       ?ItemDescPath@@YIXPA_WHHHH@Z 66031cd0 f   item.obj
 0001:00030dd0       ?SocketViewCallRoutine@@YIXPAUUnitAny@@KP6GX0K@Z@Z 66031dd0 f   item.obj
 0001:00030de0       ?ItemSocketViewPatch@@YGXP6GXPAUUnitAny@@K@Z0K@Z 66031de0 f   item.obj
 0001:00030eb0       ?ItemSocketViewPatch_ASM@@YAXXZ 66031eb0 f   item.obj
 0001:00030ec0       ?SocketItemStatViewPatch_ASM@@YAXXZ 66031ec0 f   item.obj
 0001:00030ee0       ?GetItemExtStatListPatch@@YGPAUStatList@@PAUUnitAny@@KK@Z 66031ee0 f   item.obj
 0001:00030f10       ?ItemBasicStatPatch_ASM@@YAXXZ 66031f10 f   item.obj
 0001:00030f40       ?SetPropInfo@@YAXHHHPAUItemProp@@@Z 66031f40 f   item.obj
 0001:000313c0       ?GetStatRange@@YAPA_WPA_WKK@Z 660323c0 f   item.obj
 0001:000317b0       ?GetItemPropStringPatch@@YIKPA_WPAUStatEx@@K@Z 660327b0 f   item.obj
 0001:00031880       ?GetItemPropStringPatch_ASM@@YAXXZ 66032880 f   item.obj
 0001:000318a0       ?StrcatItemPropStringPatch@@YIXPA_W0K@Z 660328a0 f   item.obj
 0001:000319c0       ?StrcatItemPropStringPatch_ASM@@YAXXZ 660329c0 f   item.obj
 0001:000319d0       ?StrcatSocketStringPatch@@YIPA_WPA_W@Z 660329d0 f   item.obj
 0001:00031a00       ?StrcatSocketStringPatch_ASM@@YAXXZ 66032a00 f   item.obj
 0001:00031a10       ?StrcatDefenseStringPatch@@YIPA_WPA_W@Z 66032a10 f   item.obj
 0001:00031cb0       ?StrcatDefenseStringPatch_ASM@@YAXXZ 66032cb0 f   item.obj
 0001:00031cc0       ?StrcatDamageStringPatch@@YIPA_WPA_W@Z 66032cc0 f   item.obj
 0001:00031ee0       ?StrcatDamageStringPatch_ASM1@@YAXXZ 66032ee0 f   item.obj
 0001:00031ef0       ?StrcatDamageStringPatch_ASM2@@YAXXZ 66032ef0 f   item.obj
 0001:00031f10       ?ShowSocketProtectInfo@@YAXXZ 66032f10 f   item.obj
 0001:00031f80       ?SocketProtectPatch_ASM@@YAXXZ 66032f80 f   item.obj
 0001:00031fa0       ?SocketProtectPatch1_ASM@@YAXXZ 66032fa0 f   item.obj
 0001:00031fe0       ?SocketProtectPatch2_ASM@@YAXXZ 66032fe0 f   item.obj
 0001:00032020       ?searchStat@@YAHPAUUnitAny@@HPAH@Z 66033020 f   item.obj
 0001:000320f0       ?drawInvItemInfo@@YAXPAUUnitAny@@HH@Z 660330f0 f   item.obj
 0001:00033a00       ?drawInvItemPatch@@YIHPAUDrawCellFileArgs@@PAUUnitAny@@@Z 66034a00 f   item.obj
 0001:00033a60       ?DrawInvItemPatch_ASM@@YAXXZ 66034a60 f   item.obj
 0001:00033a80       ?activeBufferItem@@YIXHHH@Z 66034a80 f   item.obj
 0001:00033b90       ?ActiveBufferItemPatch_ASM@@YAXXZ 66034b90 f   item.obj
 0001:00033bb0       ?ItemExtInfoNewGame@@YAXXZ 66034bb0 f   ItemExtInfo.obj
 0001:00033bc0       ?ConvertToColorString@@YAXPAEPADH@Z 66034bc0 f   ItemExtInfo.obj
 0001:00033d60       ?LoadExtInfo@@YAHXZ        66034d60 f   ItemExtInfo.obj
 0001:00034d60       ?UnLoadExtInfo@@YAXXZ      66035d60 f   ItemExtInfo.obj
 0001:00034f40       ?SetExtInfoPos@@YAXHHHH@Z  66035f40 f   ItemExtInfo.obj
 0001:00035030       ?ShowItemExtInfo@@YAXXZ    66036030 f   ItemExtInfo.obj
 0001:00035350       ?DrawHoverPatch_ASM@@YAXXZ 66036350 f   ItemExtInfo.obj
 0001:00035360       ?dangerous_addConfigVars@@YAXXZ 66036360 f   dangerous.obj
 0001:000353a0       ?dangerous_initConfigVars@@YAXXZ 660363a0 f   dangerous.obj
 0001:000353c0       ?protectExitGame@@YAHXZ    660363c0 f   dangerous.obj
 0001:000353f0       ?ProtectAction@@YAHPA_WHE@Z 660363f0 f   dangerous.obj
 0001:00035690       ?ChickenLifeNewGame@@YAXXZ 66036690 f   dangerous.obj
 0001:000359a0       ?ChickenLifeLoop@@YAXXZ    660369a0 f   dangerous.obj
 0001:000362b0       ?isCowKing@@YAHPAUMonsterData@@@Z 660372b0 f   dangerous.obj
 0001:00036370       ?checkBossMonster@@YAXPAUUnitAny@@@Z 66037370 f   dangerous.obj
 0001:00036470       ?CheckDangerousPlayer@@YAXPAUUnitAny@@@Z 66037470 f   dangerous.obj
 0001:00036520       ?TestMonsterOnScreen@@YAHPAUUnitAny@@0@Z 66037520 f   dangerous.obj
 0001:000365a0       ?CheckDangerousMonster@@YAXPAUUnitAny@@@Z 660375a0 f   dangerous.obj
 0001:00036690       ?canLeaveTown@@YAHXZ       66037690 f   dangerous.obj
 0001:00036b80       ?quest_initConfigVars@@YAXXZ 66037b80 f   quest.obj
 0001:00036ba0       ?quest_addConfigVars@@YAXXZ 66037ba0 f   quest.obj
 0001:00036be0       ?ReSetTimer@@YAHXZ         66037be0 f   quest.obj
 0001:00036c00       ?QuestNewAct@@YAXXZ        66037c00 f   quest.obj
 0001:00036c10       ?QuestNewLevel@@YAXXZ      66037c10 f   quest.obj
 0001:000373e0       ?quest_FixValues@@YAXXZ    660383e0 f   quest.obj
 0001:000374b0       ?QuestNewGame@@YAXXZ       660384b0 f   quest.obj
 0001:00037610       ?QuestRunLoop@@YAXXZ       66038610 f   quest.obj
 0001:00037980       ?BugKDProtect@@YIXK@Z      66038980 f   quest.obj
 0001:00037c00       ?BugKBProtect@@YIXPAE@Z    66038c00 f   quest.obj
 0001:00038440       ?RecvCommand_89_Patch_ASM@@YAXXZ 66039440 f   quest.obj
 0001:00038460       ?RecvCommand_5D_Patch_ASM@@YAXXZ 66039460 f   quest.obj
 0001:00038470       ?CheckUnitKM@@YAXXZ        66039470 f   quest.obj
 0001:00038540       ?getMouseQuestId@@YAHHH@Z  66039540 f   quest.obj
 0001:00038620       ?DrawQuestPagePatch@@YIXHH@Z 66039620 f   quest.obj
 0001:00038b00       ?DrawQuestPagePatch_ASM@@YAXXZ 66039b00 f   quest.obj
 0001:00038b10       ?PacketA4@@YIXPAD@Z        66039b10 f   quest.obj
 0001:00038c90       ?Packet4D@@YIXPAD@Z        66039c90 f   quest.obj
 0001:00038ce0       ?RecvCommand_A4_Patch_ASM@@YAXXZ 66039ce0 f   quest.obj
 0001:00038cf0       ?RecvCommand_4D_Patch_ASM@@YAXXZ 66039cf0 f   quest.obj
 0001:00038d00       ?RecvCommand_28_Patch_ASM@@YAXXZ 66039d00 f   quest.obj
 0001:00038e30       ?UnicodeFix@@YAXPA_WPAK@Z  66039e30 f   unicode.obj
 0001:00039020       ?D2Lang_Unicode2WinPatch@@YIPBDPADPA_WH@Z 6603a020 f   unicode.obj
 0001:00039060       ?D2Lang_Win2UnicodePatch@@YIPA_WPA_WPBDH@Z 6603a060 f   unicode.obj
 0001:00039090       ?EditDeleteSelect@@YAXPAUD2EditBox@@@Z 6603a090 f   unicode.obj
 0001:000391c0       ?ChannelEnterCharPatch@@YIKPAUD2EditBox@@E@Z 6603a1c0 f   unicode.obj
 0001:000394f0       ?UnicodeToUTF_8@@YAXPADPA_W@Z 6603a4f0 f   unicode.obj
 0001:00039560       ?MultiByteFix@@YGXPAD@Z    6603a560 f   unicode.obj
 0001:00039750       ?MultiByteFixPatch_ASM@@YAXXZ 6603a750 f   unicode.obj
 0001:00039760       ?IsPritableCharacterPatch_ASM@@YAXXZ 6603a760 f   unicode.obj
 0001:00039780       ?lifebar_addConfigVars@@YAXXZ 6603a780 f   lifebar.obj
 0001:000397c0       ?lifebar_initConfigVars@@YAXXZ 6603a7c0 f   lifebar.obj
 0001:000397e0       ?lifebarNewGame@@YAXXZ     6603a7e0 f   lifebar.obj
 0001:000397f0       ?MonsterNamePatch@@YIJPA_WJPAUUnitAny@@JJ@Z 6603a7f0 f   lifebar.obj
 0001:0003a300       ?MonsterNamePatch_ASM@@YAXXZ 6603b300 f   lifebar.obj
 0001:0003a320       ?MonsterDescCommaPatch1_ASM@@YAXXZ 6603b320 f   lifebar.obj
 0001:0003a330       ?MonsterDescCommaPatch2_ASM@@YAXXZ 6603b330 f   lifebar.obj
 0001:0003a340       ?MonsterDescCommaPatch3@@YIXPA_WPAUMonsterTxt@@@Z 6603b340 f   lifebar.obj
 0001:0003a3d0       ?MonsterDescCommaPatch3_ASM@@YAXXZ 6603b3d0 f   lifebar.obj
 0001:0003a3e0       ?LifeBarPatch_ASM@@YAXXZ   6603b3e0 f   lifebar.obj
 0001:0003a400       ?MonsterDeathPatch_ASM@@YAXXZ 6603b400 f   lifebar.obj
 0001:0003a420       ?CalculateHighestTC@@YAXHG@Z 6603b420 f   lifebar.obj
 0001:0003a660       ?InitTCList@@YAXXZ         6603b660 f   lifebar.obj
 0001:0003a6e0       ?GetTcLevel@@YAPAUMonTC@@GH@Z 6603b6e0 f   lifebar.obj
 0001:0003a770       ?GetPlayerHpPercent@@YAHPAUUnitAny@@@Z 6603b770 f   lifebar.obj
 0001:0003a7b0       ?PlayerNamePatch@@YIXPA_WPAUUnitAny@@@Z 6603b7b0 f   lifebar.obj
 0001:0003a920       ?PlayerNamePatch_ASM@@YAXXZ 6603b920 f   lifebar.obj
 0001:0003a940       ?AutoWarCryNewGame@@YAXXZ  6603b940 f   bo.obj
 0001:0003a9b0       ?AutoWarCryRunLoop@@YAXXZ  6603b9b0 f   bo.obj
 0001:0003b130       ?d2s_init@@YAXPAUd2s_file@@@Z 6603c130 f   d2s.obj
 0001:0003b390       ?d2s_write@@YAHPAUd2s_file@@PADH@Z 6603c390 f   d2s.obj
 0001:0003b4b0       ?d2s_checksum@@YAXPADH@Z   6603c4b0 f   d2s.obj
 0001:0003b530       ?d2s_generate@@YAHPAU_iobuf@@PAUUnitAny@@1PAGPAD1@Z 6603c530 f   d2s.obj
 0001:0003c170       ?DropProtection_addConfigVars@@YAXXZ 6603d170 f   DropProtection.obj
 0001:0003c1b0       ?DropProtection_initConfigVars@@YAXXZ 6603d1b0 f   DropProtection.obj
 0001:0003c230       ?DropProtection@@YAHPAUUnitAny@@@Z 6603d230 f   DropProtection.obj
 0001:0003c640       ?canHireMerc@@YAHXZ        6603d640 f   DropProtection.obj
 0001:0003c7a0       ?DropProtectionPacketBlock@@YAHPAEH@Z 6603d7a0 f   DropProtection.obj
 0001:0003c900       ?ClickHireMercMenuItemPatch_ASM@@YAXXZ 6603d900 f   DropProtection.obj
 0001:0003c920       ?unicode2win@@YAXPADPA_WH@Z 6603d920 f   DropProtection.obj
 0001:0003c980       ?DeleteCharacter_Patch_ASM@@YAXXZ 6603d980 f   DropProtection.obj
 0001:0003ca10       ?DeleteSelectedCharacter_Patch_ASM@@YAXXZ 6603da10 f   DropProtection.obj
 0001:0003d260       ?ClickMenuItem_Patch_ASM@@YAXXZ 6603e260 f   DropProtection.obj
 0001:0003d380       ?playerHasRune@@YAHH@Z     6603e380 f   DropProtection.obj
 0001:0003d3d0       ?isValidRuneword@@YIHPAUUnitAny@@@Z 6603e3d0 f   DropProtection.obj
 0001:0003dd70       ?AutoEnchantNewGame@@YAXXZ 6603ed70 f   enchant.obj
 0001:0003ddd0       ?checkUnit@@YAHPAUUnitAny@@@Z 6603edd0 f   enchant.obj
 0001:0003e0e0       ?AutoEnchantRunLoop@@YAXXZ 6603f0e0 f   enchant.obj
 0001:0003e450       ?AutoEnchantPlayerNeedHelp@@YAXH@Z 6603f450 f   enchant.obj
 0001:0003e490       ?check3bb@@YAXXZ           6603f490 f   enchant.obj
 0001:0003e790       ?GamePacketPlaySound@@YIXPAE@Z 6603f790 f   enchant.obj
 0001:0003e7f0       ?RecvCommand_2C_Patch_ASM@@YAXXZ 6603f7f0 f   enchant.obj
 0001:0003e800       ?GameChat_addConfigVars@@YAXXZ 6603f800 f   chat.obj
 0001:0003e840       ?chat_initConfigVars@@YAXXZ 6603f840 f   chat.obj
 0001:0003e850       ?setClipboard@@YAHPAUHWND__@@PA_WH@Z 6603f850 f   chat.obj
 0001:0003e920       ?processChatPaste@@YAXXZ   6603f920 f   chat.obj
 0001:0003ea50       ?sendQuickMessage@@YAHPAUMessageKey@@@Z 6603fa50 f   chat.obj
 0001:0003eb00       ?addQuickMessage@@YAXHPA_WH@Z 6603fb00 f   chat.obj
 0001:0003ec10       ?SendChatMessageW@@YAXPA_W@Z 6603fc10 f   chat.obj
 0001:0003ecd0       ?SendChatMessage@@YAXPAD@Z 6603fcd0 f   chat.obj
 0001:0003ed80       ?WisperPatch@@YAXXZ        6603fd80 f   chat.obj
 0001:0003eda0       ?WisperPatch_ASM@@YAXXZ    6603fda0 f   chat.obj
 0001:0003edb0       ?CheckD2WinEditBox@@YAXXZ  6603fdb0 f   chat.obj
 0001:0003ee10       ?InputLinePatch@@YAHE@Z    6603fe10 f   chat.obj
 0001:0003eeb0       ?InputLinePatch1_ASM@@YAXXZ 6603feb0 f   chat.obj
 0001:0003eed0       ?InitD2EditBox@@YAHXZ      6603fed0 f   chat.obj
 0001:0003efa0       ?InputLinePatch2_ASM@@YAXXZ 6603ffa0 f   chat.obj
 0001:0003efc0       ?SelectTextPatch1@@YGHPAD@Z 6603ffc0 f   chat.obj
 0001:0003f0a0       ?SelectTextPatch1_ASM@@YAXXZ 660400a0 f   chat.obj
 0001:0003f0c0       ?SelectTextPatch2@@YGHPAD@Z 660400c0 f   chat.obj
 0001:0003f170       ?SelectTextPatch2_ASM@@YAXXZ 66040170 f   chat.obj
 0001:0003f190       ?ResetGameList@@YAXXZ      66040190 f   mcp.obj
 0001:0003f1b0       ?gameFilter_addConfigVars@@YAXXZ 660401b0 f   mcp.obj
 0001:0003f1f0       ?D2MCPPacketHandler_05_Patch@@YIHPAEH@Z 660401f0 f   mcp.obj
 0001:0003f480       ?D2MCPPacketHandler_05_Patch_ASM@@YAXXZ 66040480 f   mcp.obj
 0001:0003f4a0       ?Filterbox_ReturnHandler@@YGHPA_W@Z 660404a0 f   mcp.obj
 0001:0003f510       ?Filterbox_InputHandler@@YGHPAUD2EditBox@@HPAD@Z 66040510 f   mcp.obj
 0001:0003f510       ?EditBoxCallBack@@YGHPAUD2EditBox@@HPAD@Z 66040510 f   chat.obj
 0001:0003f520       ?CreateFilterBox@@YAXXZ    66040520 f   mcp.obj
 0001:0003f5a0       ?CreateGameBoxPatch_ASM@@YAXXZ 660405a0 f   mcp.obj
 0001:0003f5b0       ?DestroyGamelistPatch@@YGXPAUD2EditBox@@@Z 660405b0 f   mcp.obj
 0001:0003f5f0       ?GameListRefreshTimePatch_ASM@@YAXXZ 660405f0 f   mcp.obj
 0001:0003f630       ?DrawGameListPatch@@YAXXZ  66040630 f   mcp.obj
 0001:0003f7c0       ?DrawGameListPatch_ASM@@YAXXZ 660407c0 f   mcp.obj
 0001:0003f7d0       ?SortGameList_Patch_ASM@@YAXXZ 660407d0 f   mcp.obj
 0001:0003f860       ?ShowGameListDifficulty_Patch_ASM@@YAXXZ 66040860 f   mcp.obj
 0001:0003f910       ?clearCharacterTag@@YAXXZ  66040910 f   login.obj
 0001:0003f940       ?addCharacterTag@@YAXPAD0@Z 66040940 f   login.obj
 0001:0003fac0       ?getCharTag@@YAPADPAD@Z    66040ac0 f   login.obj
 0001:0003fb80       ?doneCharacterTag@@YAXXZ   66040b80 f   login.obj
 0001:0003fbe0       ?drawCharTags@@YAXXZ       66040be0 f   login.obj
 0001:0003fd10       ?login_initConfigVars@@YAXXZ 66040d10 f   login.obj
 0001:0003fd20       ?addAccount@@YAXHPAD0@Z    66040d20 f   login.obj
 0001:0003fe70       ?isLoginScreen@@YAPAUD2EditBox@@XZ 66040e70 f   login.obj
 0001:0003ff20       ?getLastUser@@YAPADXZ      66040f20 f   login.obj
 0001:0003ff90       ?inputUserPassword@@YAHPAULoginInfo@@@Z 66040f90 f   login.obj
 0001:000401f0       ?autoLogin@@YAXXZ          660411f0 f   login.obj
 0001:000402c0       ?LastBNet_Patch@@YGHPAD0H0H@Z 660412c0 f   login.obj
 0001:00040310       ?SelectCharPatch_ASM@@YAXXZ 66041310 f   login.obj
 0001:00040430       ?autoSelectChar@@YAXXZ     66041430 f   login.obj
 0001:00040550       ?saveCharMenu@@YAXXZ       66041550 f   login.obj
 0001:00040920       ?OpenCharMenuPatch_ASM@@YAXXZ 66041920 f   login.obj
 0001:00040930       ?misc_addConfigVars@@YAXXZ 66041930 f   misc.obj
 0001:00040970       ?ULCPatch_ASM@@YAXXZ       66041970 f   misc.obj
 0001:00040990       ?OutTownSelectPatch@@YIHPAUUnitAny@@@Z 66041990 f   misc.obj
 0001:000409d0       ?OutTownSelectPatch_ASM1@@YAXXZ 660419d0 f   misc.obj
 0001:00040a00       ?CheckOutTownSelected@@YGHPAUUnitAny@@@Z 66041a00 f   misc.obj
 0001:00040a60       ?OutTownSelectPatch_ASM2@@YAXXZ 66041a60 f   misc.obj
 0001:00040a80       ?NPCMessageLoopPatch_ASM@@YAXXZ 66041a80 f   misc.obj
 0001:00040ac0       ?NPCQuestMessageStartPatch_ASM@@YAXXZ 66041ac0 f   misc.obj
 0001:00040ae0       ?NPCQuestMessageEndPatch1_ASM@@YAXXZ 66041ae0 f   misc.obj
 0001:00040b00       ?NPCQuestMessageEndPatch2_ASM@@YAXXZ 66041b00 f   misc.obj
 0001:00040b10       ?NsPassingActBugFixPatch_ASM@@YAXXZ 66041b10 f   misc.obj
 0001:00040b20       ?SetGoldPatch@@YIHH@Z      66041b20 f   misc.obj
 0001:00040ba0       ?SetGoldPatch_ASM@@YAXXZ   66041ba0 f   misc.obj
 0001:00040bb0       ?SetDefaultGoldPatch_ASM@@YAXXZ 66041bb0 f   misc.obj
 0001:00040bc0       ?multiclient_addConfigVars@@YAXXZ 66041bc0 f   multi.obj
 0001:00040c00       ?multiclient_initConfigVars@@YAXXZ 66041c00 f   multi.obj
 0001:00040c30       ?multiclient_FixValues@@YAXXZ 66041c30 f   multi.obj
 0001:00040c60       ?MultiClientNewGame@@YAXXZ 66041c60 f   multi.obj
 0001:00040d80       ?MultiClientEndGame@@YAXXZ 66041d80 f   multi.obj
 0001:00040da0       ?makeRuntimeInfoPath@@YAHPADH@Z 66041da0 f   multi.obj
 0001:00040e90       ?saveRuntimeInfo1@@YAHPAUHWND__@@H@Z 66041e90 f   multi.obj
 0001:000410a0       ?saveRuntimeInfo@@YAHPAUHWND__@@@Z 660420a0 f   multi.obj
 0001:000410c0       ?loadRuntimeInfo@@YAHPAUD2Window@@H@Z 660420c0 f   multi.obj
 0001:00041900       ?getLocalPlayer@@YAPAUD2Window@@H@Z 66042900 f   multi.obj
 0001:00041960       ?isLocalPlayerName@@YAHPAD@Z 66042960 f   multi.obj
 0001:00041a30       ?isLocalPlayer@@YAHH@Z     66042a30 f   multi.obj
 0001:00041aa0       ?refresh_clients@@YAXXZ    66042aa0 f   multi.obj
 0001:00041c70       ?multiclient_load_config@@YAXXZ 66042c70 f   multi.obj
 0001:00041d00       ?multiclient_winactive@@YAXXZ 66042d00 f   multi.obj
 0001:00041e40       ?getGameWindowHwnd@@YAPAUHWND__@@H@Z 66042e40 f   multi.obj
 0001:00041e80       ?pressESC@@YAXXZ           66042e80 f   multi.obj
 0001:00041ee0       ?canRemoteControl@@YAHXZ   66042ee0 f   multi.obj
 0001:00041fa0       ?leader_click_object@@YAXHH@Z 66042fa0 f   multi.obj
 0001:00042060       ?send_multi_skill_info@@YAXH@Z 66043060 f   multi.obj
 0001:00042090       ?recv_multi_skill_info@@YAXPAUD2Window@@H@Z 66043090 f   multi.obj
 0001:00042100       ?send_multi_quest_info@@YAXH@Z 66043100 f   multi.obj
 0001:00042130       ?recv_multi_quest_info@@YAXPAUD2Window@@H@Z 66043130 f   multi.obj
 0001:00042240       ?send_multi_reply@@YAXH@Z  66043240 f   multi.obj
 0001:00042270       ?recv_multi_quest_reply@@YAXPAUD2Window@@H@Z 66043270 f   multi.obj
 0001:000422f0       ?multiclient_recv_info@@YAXH@Z 660432f0 f   multi.obj
 0001:00042700       ?multiclient_send_info@@YAXH@Z 66043700 f   multi.obj
 0001:00042750       ?follower_click_object@@YAXHH@Z 66043750 f   multi.obj
 0001:000428b0       ?autoHydra@@YAXXZ          660438b0 f   multi.obj
 0001:00042a40       ?MultiClientLoop@@YAXXZ    66043a40 f   multi.obj
 0001:00043700       ?follower_left_click_xy@@YAXHH@Z 66044700 f   multi.obj
 0001:00043740       ?follower_right_click_xy@@YAXHH@Z 66044740 f   multi.obj
 0001:00043780       ?follower_left_click_unit@@YAXHH@Z 66044780 f   multi.obj
 0001:000437c0       ?follower_right_client_unit@@YAXHH@Z 660447c0 f   multi.obj
 0001:00043800       ?refresh_followers@@YAXH@Z 66044800 f   multi.obj
 0001:00043920       ?toggle_follower@@YAXH@Z   66044920 f   multi.obj
 0001:00043a30       ?follower_stop_follow@@YAXXZ 66044a30 f   multi.obj
 0001:00043ad0       ?findClosetPortal@@YAPAUUnitAny@@XZ 66044ad0 f   multi.obj
 0001:00043c50       ?talkToNpc@@YAXXZ          66044c50 f   multi.obj
 0001:00043ef0       ?follower_cmd@@YAXH@Z      66044ef0 f   multi.obj
 0001:00044380       ?MultiClientStartFollow@@YAHH@Z 66045380 f   multi.obj
 0001:00044460       ?MultiClientStopFollow@@YAHXZ 66045460 f   multi.obj
 0001:00044500       ?MultiClientStartFollow1@@YAHXZ 66045500 f   multi.obj
 0001:00044520       ?MultiClientStartFollow2@@YAHXZ 66045520 f   multi.obj
 0001:00044540       ?MultiClientToggleFollow@@YAHXZ 66045540 f   multi.obj
 0001:00044570       ?MultiClientTalkToNpc@@YAHXZ 66045570 f   multi.obj
 0001:00044640       ?MultiClientAllNextGame@@YAHXZ 66045640 f   multi.obj
 0001:000446f0       ?MultiClientJoinGame@@YAHXZ 660456f0 f   multi.obj
 0001:00044790       ?leader_back_to_town@@YAHXZ 66045790 f   multi.obj
 0001:00044840       ?MultiClientEnterDoor@@YAHXZ 66045840 f   multi.obj
 0001:00044a00       ?MultiClientStartClick@@YAHH@Z 66045a00 f   multi.obj
 0001:00044a20       ?MultiClientStopClick@@YAHH@Z 66045a20 f   multi.obj
 0001:00044a40       ?MultiClientInitClick@@YAHXZ 66045a40 f   multi.obj
 0001:00044aa0       ?leader_tp@@YAHHH@Z        66045aa0 f   multi.obj
 0001:00044bc0       ?follower_tp@@YAXHH@Z      66045bc0 f   multi.obj
 0001:00044c20       ?transferClick@@YAHHPAUUnitAny@@HH@Z 66045c20 f   multi.obj
 0001:00044e50       ?canTranferClick@@YAHXZ    66045e50 f   multi.obj
 0001:00044ec0       ?shouldLeftClick@@YIHPAH@Z 66045ec0 f   multi.obj
 0001:000452f0       ?shouldRightClick@@YIHPAH@Z 660462f0 f   multi.obj
 0001:000454f0       ?LeftClick_Patch_ASM@@YAXXZ 660464f0 f   multi.obj
 0001:00045510       ?RightClick_Patch_ASM@@YAXXZ 66046510 f   multi.obj
 0001:00045530       ?RecvCommand_77_Patch_ASM@@YAXXZ 66046530 f   multi.obj
 0001:00045750       ?RecvCommand_78_Patch_ASM@@YAXXZ 66046750 f   multi.obj
 0001:000457e0       ?NpcTrade_AddConfigVars@@YAXXZ 660467e0 f   NpcTrade.obj
 0001:00045820       ?NpcTradeNewGame@@YAXXZ    66046820 f   NpcTrade.obj
 0001:00045830       ?drawNpcTradeInfo@@YAXH@Z  66046830 f   NpcTrade.obj
 0001:00046340       ?NpcTradeLoop@@YAXXZ       66047340 f   NpcTrade.obj
 0001:000465a0       ?NpcTradePatch_ASM@@YAXXZ  660475a0 f   NpcTrade.obj
 0001:000465d0       ?PartyHelp_addConfigVars@@YAXXZ 660475d0 f   party.obj
 0001:00046610       ?PartyHelp_initConfigVars@@YAXXZ 66047610 f   party.obj
 0001:00046620       ?PartyHelpNewGame@@YAXXZ   66047620 f   party.obj
 0001:000467e0       ?PartyHelpEndGame@@YAXXZ   660477e0 f   party.obj
 0001:000467f0       ?ResponseInvite@@YAXXZ     660477f0 f   party.obj
 0001:00046b20       ?RecvCommand_5A_Patch_ASM@@YAXXZ 66047b20 f   party.obj
 0001:00046d00       ?AutoInvite@@YAXXZ         66047d00 f   party.obj
 0001:00047240       ?RecvCommand_5B_Patch_ASM@@YAXXZ 66048240 f   party.obj
 0001:00047310       ?RecvCommand_59_Patch_ASM@@YAXXZ 66048310 f   party.obj
 0001:00047430       ?RecvCommand_8C_Patch_ASM@@YAXXZ 66048430 f   party.obj
 0001:00047620       ?quick_addConfigVars@@YAXXZ 66048620 f   quick.obj
 0001:00047660       ?quick_NewGame@@YAXXZ      66048660 f   quick.obj
 0001:00047680       ?quick_EndGame@@YAXXZ      66048680 f   quick.obj
 0001:00047690       ?skillCount@@YAHH@Z        66048690 f   quick.obj
 0001:000476f0       ?BackToTown@@YAHXZ         660486f0 f   quick.obj
 0001:000477d0       ?QuickToLevel@@YAHPAUstQuickToLevel@@@Z 660487d0 f   quick.obj
 0001:00047820       ?addQuickToLevel@@YAXHHH@Z 66048820 f   quick.obj
 0001:00047930       ?quickLoop@@YAXXZ          66048930 f   quick.obj
 0001:00047a10       ?AutoBackToTown@@YIXPAE@Z  66048a10 f   quick.obj
 0001:00047b30       ?RecvCommand_60_Patch_ASM@@YAXXZ 66048b30 f   quick.obj
 0001:00047b40       ?setGameNamePassword@@YAXPAD0@Z 66048b40 f   quick.obj
 0001:00047ba0       ?autoJoinGame@@YAXXZ       66048ba0 f   quick.obj
 0001:00047fd0       ?joinGame@@YAXPAD0@Z       66048fd0 f   quick.obj
 0001:00048070       ?SaveGameName@@YAXXZ       66049070 f   quick.obj
 0001:00048110       ?QuickExitGame@@YAHXZ      66049110 f   quick.obj
 0001:00048150       ?QuickNextGame@@YAHH@Z     66049150 f   quick.obj
 0001:000483c0       ?NextGameNamePatch@@YIXPAUD2EditBox@@P6GH0HPAD@Z@Z 660493c0 f   quick.obj
 0001:00048400       ?NextGamePasswordPatch@@YIXPAUD2EditBox@@P6GH0HPAD@Z@Z 66049400 f   quick.obj
 0001:00048440       ?NextGameDecriptionPatch@@YIXPAUD2EditBox@@P6GH0HPAD@Z@Z 66049440 f   quick.obj
 0001:00048480       ?SelectGamePatch@@YIPAXPAUD2EditBox@@PA_W@Z 66049480 f   quick.obj
 0001:00048520       ?quickswap_addConfigVars@@YAXXZ 66049520 f   QuickSwapItem.obj
 0001:00048560       ?getInvTxt@@YAPAUInventoryBIN@@XZ 66049560 f   QuickSwapItem.obj
 0001:000485e0       ?putIntoCubeIndirect@@YAHXZ 660495e0 f   QuickSwapItem.obj
 0001:000486c0       ?putItem@@YAHPAUInventoryBIN@@PADH@Z 660496c0 f   QuickSwapItem.obj
 0001:000488b0       ?putIntoInv@@YAHXZ         660498b0 f   QuickSwapItem.obj
 0001:000488d0       ?putIntoStash@@YAHXZ       660498d0 f   QuickSwapItem.obj
 0001:00048930       ?MoveItem@@YAXPAUD2MSG@@@Z 66049930 f   QuickSwapItem.obj
 0001:00049930       ?RButtonUpHandlerPatch@@YGXPAUD2MSG@@@Z 6604a930 f   QuickSwapItem.obj
 0001:00049970       ?RButtonUpHandlerPatch_ASM@@YAXXZ 6604a970 f   QuickSwapItem.obj
 0001:00049990       ?RButtonInTradePatch_ASM@@YAXXZ 6604a990 f   QuickSwapItem.obj
 0001:000499a0       ?CtrlClickHandlerPatch_ASM@@YAXXZ 6604a9a0 f   QuickSwapItem.obj
 0001:000499d0       ?clickCubeTransformButton@@YAXXZ 6604a9d0 f   QuickSwapItem.obj
 0001:00049a20       ?autoCubeTransform@@YAHXZ  6604aa20 f   QuickSwapItem.obj
 0001:00049f40       ?quickswap_NewGame@@YAXXZ  6604af40 f   QuickSwapItem.obj
 0001:00049f70       ?RecvPacket3FPatch_ASM@@YAXXZ 6604af70 f   QuickSwapItem.obj
 0001:00049f90       ?activeItemStack@@YAXH@Z   6604af90 f   QuickSwapItem.obj
 0001:0004a000       ?autoSimpleItemStack@@YAHXZ 6604b000 f   QuickSwapItem.obj
 0001:0004a1d0       ?autoIdentify@@YAHXZ       6604b1d0 f   QuickSwapItem.obj
 0001:0004a300       ?dropRune789@@YAXXZ        6604b300 f   QuickSwapItem.obj
 0001:0004a420       ?Resolution_AddConfigVars@@YAXXZ 6604b420 f   resolution.obj
 0001:0004a460       ?changeResolution@@YAXH@Z  6604b460 f   resolution.obj
 0001:0004a470       ?resolution_init@@YAXXZ    6604b470 f   resolution.obj
 0001:0004a4c0       ?resolution_uninit@@YAXXZ  6604b4c0 f   resolution.obj
 0001:0004a510       ?fitWindowToResolution@@YAXXZ 6604b510 f   resolution.obj
 0001:0004a650       ?fitResolution@@YAXXZ      6604b650 f   resolution.obj
 0001:0004a930       ?SetBitBlockWidthAndHeightPatch_ASM@@YAXXZ 6604b930 f   resolution.obj
 0001:0004a940       ?SetCelDisplayLeftAndRightPatch_ASM@@YAXXZ 6604b940 f   resolution.obj
 0001:0004a960       ?IsNeedRestoreDownWindowPatchW_ASM@@YAXXZ 6604b960 f   resolution.obj
 0001:0004a960       ?IsNeedResizeWindowPatchW_ASM@@YAXXZ 6604b960 f   resolution.obj
 0001:0004a970       ?IsNeedResizeWindowPatchH_ASM@@YAXXZ 6604b970 f   resolution.obj
 0001:0004a970       ?IsNeedRestoreDownWindowPatchH_ASM@@YAXXZ 6604b970 f   resolution.obj
 0001:0004a980       ?SetDisplayWidthAndHeightPatch_ASM@@YAXXZ 6604b980 f   resolution.obj
 0001:0004a9a0       ?SetGeneralDisplayWidthAndHeightPatch_ASM@@YAXXZ 6604b9a0 f   resolution.obj
 0001:0004a9c0       ?GetGlobalBeltSlotPositionPatch_ASM@@YAXXZ 6604b9c0 f   resolution.obj
 0001:0004aa70       ?GetGlobalBeltRecordPatch_ASM@@YAXXZ 6604ba70 f   resolution.obj
 0001:0004ab40       ?AdjustWindowRectExPatch_ASM@@YAXXZ 6604bb40 f   resolution.obj
 0001:0004ac90       ?ClearFramebufPatch_ASM@@YAXXZ 6604bc90 f   resolution.obj
 0001:0004acb0       ?DrawLeftOrbImagePatch_ASM@@YAXXZ 6604bcb0 f   resolution.obj
 0001:0004ace0       ?DrawLeftOrbPatch_ASM@@YAXXZ 6604bce0 f   resolution.obj
 0001:0004ad00       ?DrawRightOrbImagePatch_ASM@@YAXXZ 6604bd00 f   resolution.obj
 0001:0004ad30       ?DrawRightOrbPatch_ASM@@YAXXZ 6604bd30 f   resolution.obj
 0001:0004ad50       ?FillLeftOrbPatch_ASM@@YAXXZ 6604bd50 f   resolution.obj
 0001:0004ad70       ?FillRightOrbPatch_ASM@@YAXXZ 6604bd70 f   resolution.obj
 0001:0004ad90       ?DrawLeftSkillButtonPatch_ASM@@YAXXZ 6604bd90 f   resolution.obj
 0001:0004adb0       ?DrawRightSkillButtonPatch_ASM@@YAXXZ 6604bdb0 f   resolution.obj
 0001:0004add0       ?DisplayHPTextPatch_ASM@@YAXXZ 6604bdd0 f   resolution.obj
 0001:0004adf0       ?DisplayManaTextPatch_ASM@@YAXXZ 6604bdf0 f   resolution.obj
 0001:0004ae10       ?DrawGroundHeightPatch_ASM@@YAXXZ 6604be10 f   resolution.obj
 0001:0004ae40       ?BottomBoundPatch_ASM@@YAXXZ 6604be40 f   resolution.obj
 0001:0004ae60       ?installResolutionPatches@@YAHXZ 6604be60 f   resolution.obj
 0001:0004b310       ?autoskill_addConfigVars@@YAXXZ 6604c310 f   skill.obj
 0001:0004b350       ?autoskill_initConfigVars@@YAXXZ 6604c350 f   skill.obj
 0001:0004b4b0       ?AutoSkillNewGame@@YAXXZ   6604c4b0 f   skill.obj
 0001:0004b520       ?checkAutoSkill@@YAXXZ     6604c520 f   skill.obj
 0001:0004b860       ?checkAutoSkillStatus@@YAXXZ 6604c860 f   skill.obj
 0001:0004b940       ?stackThrowing@@YAXXZ      6604c940 f   skill.obj
 0001:0004ba00       ?AutoSkillNow@@YAHXZ       6604ca00 f   skill.obj
 0001:0004ba30       ?AutoSkillRunLoop@@YAXXZ   6604ca30 f   skill.obj
 0001:0004d030       ?autoSkillDimVision@@YIXPAD@Z 6604e030 f   skill.obj
 0001:0004d080       ?autoTelekinesis@@YAHXZ    6604e080 f   skill.obj
 0001:0004d1a0       ?Snapshot_AddConfigVars@@YAXXZ 6604e1a0 f   Snapshot.obj
 0001:0004d1e0       ?hex@@YAXPAU_iobuf@@HPAXH@Z 6604e1e0 f   Snapshot.obj
 0001:0004d370       ?LoadLogNames@@YAXPAU_iobuf@@@Z 6604e370 f   Snapshot.obj
 0001:0004d960       ?getSnapshotPath1@@YAXPAD00000D@Z 6604e960 f   Snapshot.obj
 0001:0004de40       ?getSnapshotPath@@YAXPAD00000D@Z 6604ee40 f   Snapshot.obj
 0001:0004de90       ?openSnapshotFile@@YAPAU_iobuf@@PAD00D0H@Z 6604ee90 f   Snapshot.obj
 0001:0004dfb0       ?openDbgFile@@YAPAU_iobuf@@PAD@Z 6604efb0 f   Snapshot.obj
 0001:0004e1e0       ?SnapshotNewGame@@YAXXZ    6604f1e0 f   Snapshot.obj
 0001:0004e420       ?SnapshotEndGame@@YAXXZ    6604f420 f   Snapshot.obj
 0001:0004e790       ?dumpStat@@YAXPAU_iobuf@@HHPAH@Z 6604f790 f   Snapshot.obj
 0001:0004ecd0       ?countAllGemRunes@@YAXXZ   6604fcd0 f   Snapshot.obj
 0001:0004f2d0       ?dumpStatList@@YAHPAU_iobuf@@PAUStatList@@H@Z 660502d0 f   Snapshot.obj
 0001:0004f800       ?loadWaypoints@@YAXPADH@Z  66050800 f   Snapshot.obj
 0001:0004f8b0       ?saveWaypoints@@YAXPADH@Z  660508b0 f   Snapshot.obj
 0001:00053140       ?dumpUnit2@@YAXPAU_iobuf@@PAUUnitAny@@@Z 66054140 f   Snapshot.obj
 0001:00053320       ?saveMercInfo@@YIXPAD@Z    66054320 f   Snapshot.obj
 0001:00053460       ?RecvCommand_81_Patch_ASM@@YAXXZ 66054460 f   Snapshot.obj
 0001:00053470       ?removeSnapshot@@YAXPAD00@Z 66054470 f   Snapshot.obj
 0001:000536b0       ?dumpServerQuest@@YAXPAU_iobuf@@@Z 660546b0 f   Snapshot.obj
 0001:00053930       ?DoSnapshot@@YAHXZ         66054930 f   Snapshot.obj
 0001:00053fa0       ?saveItems@@YAXXZ          66054fa0 f   snap.obj
 0001:00054410       ?formatItems@@YAXPAD00@Z   66055410 f   snap.obj
 0001:00055ba0       ?AutoSummonNewGame@@YAXXZ  66056ba0 f   summon.obj
 0001:00055c90       ?checkSkeletonCount@@YAXXZ 66056c90 f   summon.obj
 0001:00055e60       ?AutoSummonRunLoop@@YAXXZ  66056e60 f   summon.obj
 0001:00056690       ?addUnit@@YIXPAUUnitAny@@@Z 66057690 f   summon.obj
 0001:00056710       ?AddUnitPatch_ASM@@YAXXZ   66057710 f   summon.obj
 0001:00056730       ?RemoveUnitPatch1_ASM@@YAXXZ 66057730 f   summon.obj
 0001:00056750       ?RemoveUnitPatch2_ASM@@YAXXZ 66057750 f   summon.obj
 0001:00056770       ?RecvCommand_69_Patch_ASM@@YAXXZ 66057770 f   summon.obj
 0001:00056b30       ?RecvCommand_7A_Patch_ASM@@YAXXZ 66057b30 f   summon.obj
 0001:00056b60       ?RecvCommand_21_Patch_ASM@@YAXXZ 66057b60 f   summon.obj
 0001:00056b80       ?autoteleport_addConfigVars@@YAXXZ 66057b80 f   teleport.obj
 0001:00056bc0       ?autoteleport_initConfigVars@@YAXXZ 66057bc0 f   teleport.obj
 0001:00056c00       ?autoteleport_fixValues@@YAXXZ 66057c00 f   teleport.obj
 0001:00056c20       ?autoTpEvade@@YAHPAD@Z     66057c20 f   teleport.obj
 0001:00057c40       ?AutoTeleportStart@@YAHXZ  66058c40 f   teleport.obj
 0001:00057c90       ?AutoTeleportEnd@@YAHXZ    66058c90 f   teleport.obj
 0001:00057d20       ?AutoTeleportNewLevel@@YAXXZ 66058d20 f   teleport.obj
 0001:00057d70       ?AutoTeleport@@YAHXZ       66058d70 f   teleport.obj
 0001:00058fd0       ?abs@@YAJJ@Z               66059fd0 f i teleport.obj
 0001:00059c20       ?dumpRunewordTxt@@YAXXZ    6605ac20 f   txt.obj
 0001:00059f90       ?dumpTxt@@YAXXZ            6605af90 f   txt.obj
 0001:0005a870       ?panel_addConfigVars@@YAXXZ 6605b870 f   panel.obj
 0001:0005a8b0       ?printPanelConf@@YAPADHPAD0@Z 6605b8b0 f   panel.obj
 0001:0005a9e0       ?panelNewGame@@YAXXZ       6605b9e0 f   panel.obj
 0001:0005ab70       ?panelEndGame@@YAXXZ       6605bb70 f   panel.obj
 0001:0005aba0       ?modifyStashGrid@@YAXXZ    6605bba0 f   panel.obj
 0001:0005b0a0       ?MpqLoadPatch@@YIXPAD0@Z   6605c0a0 f   panel.obj
 0001:0005b180       ?MqpLoadPathPatch_ASM@@YAXXZ 6605c180 f   panel.obj
 0001:0005b1a0       ?ModifyStashImagePatch_ASM@@YAXXZ 6605c1a0 f   panel.obj
 0001:0005b1b0       ?ModifyCubeImagePatch_ASM@@YAXXZ 6605c1b0 f   panel.obj
 0001:0005b1e0       ?ModifyInvCharImagePatch_ASM@@YAXXZ 6605c1e0 f   panel.obj
 0001:0005b220       ?ChooseInvCharImagePatch_ASM@@YAXXZ 6605c220 f   panel.obj
 0001:0005b250       ?CalDrawOffsetPatch_ASM@@YAXXZ 6605c250 f   panel.obj
 0001:0005b2e0       ?GetEquipmentSlotLayoutPatch_ASM@@YAXXZ 6605c2e0 f   panel.obj
 0001:0005b480       ?GetInventoryGridLayoutPatch_ASM@@YAXXZ 6605c480 f   panel.obj
 0001:0005b530       ?GetInventoryPositionPatch_ASM@@YAXXZ 6605c530 f   panel.obj
 0001:0005b5e0       ?AddSkillPatch_ASM@@YAXXZ  6605c5e0 f   panel.obj
 0001:0005b660       ?RecvCommand_26_Patch_ASM@@YAXXZ 6605c660 f   panel.obj
 0001:0005ba60       ?installPanelPatches@@YAHXZ 6605ca60 f   panel.obj
 0001:0005bc00       ?uninstallBigstashPatches@@YAHXZ 6605cc00 f   panel.obj
 0001:0005bc30       ?installBigstashPatches@@YAHXZ 6605cc30 f   panel.obj
 0001:0005c0f0       ?server_initConfigVars@@YAXXZ 6605d0f0 f   server.obj
 0001:0005c120       ?server_addConfigVars@@YAXXZ 6605d120 f   server.obj
 0001:0005c160       ?client_unassign_stat@@YAHHH@Z 6605d160 f   server.obj
 0001:0005c240       ?client_mouse_stat@@YAHHH@Z 6605d240 f   server.obj
 0001:0005c310       ?getSkillDescTxt@@YAPAXH@Z 6605d310 f   server.obj
 0001:0005c320       ?getSkillTreeButtonY@@YAHH@Z 6605d320 f   server.obj
 0001:0005c330       ?getSkillTreeButtonX@@YAHH@Z 6605d330 f   server.obj
 0001:0005c340       ?client_mouse_skillBtn@@YAHHH@Z 6605d340 f   server.obj
 0001:0005c440       ?client_unassign_skill@@YAHHH@Z 6605d440 f   server.obj
 0001:0005c520       ?client_reset_quest@@YAHH@Z 6605d520 f   server.obj
 0001:0005c550       ?UndoStr@@YAXPAUUnitAny@@H@Z 6605d550 f   server.obj
 0001:0005c5f0       ?UndoDex@@YAXPAUUnitAny@@H@Z 6605d5f0 f   server.obj
 0001:0005c690       ?UndoVit@@YAXPAUUnitAny@@H@Z 6605d690 f   server.obj
 0001:0005c790       ?UndoEne@@YAXPAUUnitAny@@H@Z 6605d790 f   server.obj
 0001:0005c860       ?getClient@@YAPAXPAUUnitAny@@@Z 6605d860 f   server.obj
 0001:0005c890       ?UndoSkill@@YAXPAUUnitAny@@HH@Z 6605d890 f   server.obj
 0001:0005ca70       ?getQuest@@YAPAGPAUWorld@@PAUUnitAny@@@Z 6605da70 f   server.obj
 0001:0005cab0       ?serverUndo@@YAHPAUWorld@@PAUUnitAny@@PAD2@Z 6605dab0 f   server.obj
 0001:0005d1a0       ?ModifyStashGridPatch_ASM@@YAXXZ 6605e1a0 f   server.obj
 0001:0005d1b0       ?compileRunesTxt@@YGPAXHPADPAUTxtField@@PAHH@Z 6605e1b0 f   server.obj
 0001:0005d210       ?GameStartPatch_ASM@@YAXXZ 6605e210 f   server.obj
 0001:0005d3e0       ?ServerSendHandShakePatch_ASM@@YAXXZ 6605e3e0 f   server.obj
 0001:0005d4a0       ?ServerSendLoadCompletePatch_ASM@@YAXXZ 6605e4a0 f   server.obj
 0001:0005d4c0       ?ServerSendPacketPatch_ASM@@YAXXZ 6605e4c0 f   server.obj
 0001:0005d5a0       ?ServerRecvPacket20Patch_ASM@@YAXXZ 6605e5a0 f   server.obj
 0001:0005d7b0       ?ServerRecvPacket1FPatch_ASM@@YAXXZ 6605e7b0 f   server.obj
 0001:0005d8e0       ?ServerChangeHpPatch_ASM@@YAXXZ 6605e8e0 f   server.obj
 0001:0005dad0       ?ServerChangeHp2Patch_ASM@@YAXXZ 6605ead0 f   server.obj
 0001:0005daf0       ?ServerChangeHp3Patch_ASM@@YAXXZ 6605eaf0 f   server.obj
 0001:0005db10       ?ServerSpawnMonsterPatch_ASM@@YAXXZ 6605eb10 f   server.obj
 0001:0005dd00       ?DoServerTest@@YAHXZ       6605ed00 f   server.obj
 0001:0005de00       ?installServerPatches@@YAHXZ 6605ee00 f   server.obj
 0001:0005e670       ?RepeatAdminCmd@@YAHXZ     6605f670 f   admin.obj
 0001:0005e6e0       ?ClientChatPatch_ASM@@YAXXZ 6605f6e0 f   admin.obj
 0001:0005e780       ?setCharLv@@YAXPAUWorld@@PAUUnitAny@@H@Z 6605f780 f   admin.obj
 0001:0005e830       ?maxCharStat@@YAXPAUWorld@@PAUUnitAny@@@Z 6605f830 f   admin.obj
 0001:0005e900       ?enableAllWaypoints@@YAXPAUUnitAny@@@Z 6605f900 f   admin.obj
 0001:0005e980       ?passGame@@YAHPAUWorld@@PAUUnitAny@@H@Z 6605f980 f   admin.obj
 0001:0005eba0       ?itemIndex2txt@@YAHH@Z     6605fba0 f   admin.obj
 0001:0005ec30       ?dropItemTxt@@YAPAUUnitAny@@PAUWorld@@PAU1@HHHH@Z 6605fc30 f   admin.obj
 0001:0005edc0       ?SelectUniquePatch_ASM@@YAXXZ 6605fdc0 f   admin.obj
 0001:0005ee90       ?SelectSetPatch_ASM@@YAXXZ 6605fe90 f   admin.obj
 0001:0005ef20       ?getRunewordTxt@@YAPAURuneWordTxt@@H@Z 6605ff20 f   admin.obj
 0001:0005ef60       ?pickupItem@@YAXPAUWorld@@PAUUnitAny@@1H@Z 6605ff60 f   admin.obj
 0001:0005efc0       ?invToHand@@YAXPAUWorld@@PAUUnitAny@@1@Z 6605ffc0 f   admin.obj
 0001:0005f000       ?handToBody@@YAXPAUWorld@@PAUUnitAny@@1H@Z 66060000 f   admin.obj
 0001:0005f090       ?putItemIntoSocket@@YAXPAUWorld@@PAUUnitAny@@11@Z 66060090 f   admin.obj
 0001:0005f0d0       ?autoPortal@@YAHPAUWorld@@PAUUnitAny@@@Z 660600d0 f   admin.obj
 0001:0005f500       ?MonsterSleepPatch_ASM@@YAXXZ 66060500 f   admin.obj
 0001:0005f520       ?skipServerPacket15@@YIHPAUWorld@@PAUUnitAny@@PADH@Z 66060520 f   admin.obj
 0001:000620f0       ?ServerRecvPacket15Patch_ASM@@YAXXZ 660630f0 f   admin.obj
 0001:00062120       ?uber_addConfigVars@@YAXXZ 66063120 f   uber.obj
 0001:00062160       ?resetUberQuest@@YAXXZ     66063160 f   uber.obj
 0001:000621d0       ?openPandPortal@@YIHPAUWorld@@PAUUnitAny@@@Z 660631d0 f   uber.obj
 0001:00062290       ?openPandFinalPortal@@YIHPAUWorld@@PAUUnitAny@@@Z 66063290 f   uber.obj
 0001:000622d0       ?spawnSuperUnique@@YAHPAUWorld@@PAUAreaRectData@@HHHHHH@Z 660632d0 f   uber.obj
 0001:00062300       ?monsterUseSkill@@YAXPAUWorld@@PAUUnitAny@@HH1HH@Z 66063300 f   uber.obj
 0001:00062340       ?spawnUber@@YGXPAUWorld@@PAUAreaRectData@@@Z 66063340 f   uber.obj
 0001:00062590       ?GetNbMonsters@@YAHPAUDrlgLevel@@@Z 66063590 f   uber.obj
 0001:00062620       ?GetNbMonstersRadius@@YAHPAUDrlgLevel@@UtagPOINT@@H@Z 66063620 f   uber.obj
 0001:000626e0       ?CastSummonMonster@@YAHPAUWorld@@PAUUnitAny@@HHPAHHH@Z 660636e0 f   uber.obj
 0001:00062810       ?randf@@YANXZ              66063810 f   uber.obj
 0001:00062830       ?RandInCircle@@YAXPAUtagPOINT@@H@Z 66063830 f   uber.obj
 0001:00062890       ?uberMephAI@@YIXPAUWorld@@PAUUnitAny@@PAUAIParam@@@Z 66063890 f   uber.obj
 0001:00062920       ?uberDiabloAI@@YIXPAUWorld@@PAUUnitAny@@PAUAIParam@@@Z 66063920 f   uber.obj
 0001:00062a70       ?uberBaalAI@@YIXPAUWorld@@PAUUnitAny@@PAUAIParam@@@Z 66063a70 f   uber.obj
 0001:00062c40       ?installUberQuestPatches@@YAHXZ 66063c40 f   uber.obj
 0001:00062d66       _GetModuleInformation@16   66063d66 f   psapi:PSAPI.DLL
 0001:00062d6c       _GetModuleBaseNameA@16     66063d6c f   psapi:PSAPI.DLL
 0001:00062d72       _EnumProcessModules@16     66063d72 f   psapi:PSAPI.DLL
 0001:00062d78       ??0_LocaleUpdate@@QAE@PAUlocaleinfo_struct@@@Z 66063d78 f i LIBCMT:stricmp.obj
 0001:00062dff       ___ascii_stricmp           66063dff f   LIBCMT:stricmp.obj
 0001:00062e38       __stricmp_l                66063e38 f   LIBCMT:stricmp.obj
 0001:00062f0d       __stricmp                  66063f0d f   LIBCMT:stricmp.obj
 0001:00062f5f       __flush                    66063f5f f   LIBCMT:fflush.obj
 0001:00062fc7       __fflush_nolock            66063fc7 f   LIBCMT:fflush.obj
 0001:000630e9       _fflush                    660640e9 f   LIBCMT:fflush.obj
 0001:0006313c       __flushall                 6606413c f   LIBCMT:fflush.obj
 0001:00063145       _fprintf                   66064145 f   LIBCMT:fprintf.obj
 0001:00063261       _bsearch                   66064261 f   LIBCMT:bsearch.obj
 0001:00063323       @__security_check_cookie@4 66064323 f   LIBCMT:secchk.obj
 0001:00063332       _sprintf                   66064332 f   LIBCMT:sprintf.obj
 0001:000633b0       _memset                    660643b0 f   LIBCMT:memset.obj
 0001:0006342a       __fclose_nolock            6606442a f   LIBCMT:fclose.obj
 0001:000634a1       _fclose                    660644a1 f   LIBCMT:fclose.obj
 0001:0006351d       _fputs                     6606451d f   LIBCMT:fputs.obj
 0001:0006362c       __snprintf                 6606462c f   LIBCMT:snprintf.obj
 0001:000636f0       _strchr                    660646f0 f   LIBCMT:strchr.obj
 0001:000636f6       ___from_strstr_to_strchr   660646f6     LIBCMT:strchr.obj
 0001:000637b0       _strrchr                   660647b0 f   LIBCMT:strrchr.obj
 0001:000638a0       _qsort                     660648a0 f   LIBCMT:qsort.obj
 0001:00063aed       _realloc                   66064aed f   LIBCMT:realloc.obj
 0001:00063d10       _memcpy                    66064d10 f   LIBCMT:memcpy.obj
 0001:00064075       __isalpha_l                66065075 f i LIBCMT:_ctype.obj
 0001:000640cb       _isalpha                   660650cb f i LIBCMT:_ctype.obj
 0001:000640fb       __isdigit_l                660650fb f i LIBCMT:_ctype.obj
 0001:0006414c       _isdigit                   6606514c f i LIBCMT:_ctype.obj
 0001:0006417a       __isspace_l                6606517a f i LIBCMT:_ctype.obj
 0001:000641cb       _isspace                   660651cb f i LIBCMT:_ctype.obj
 0001:000641f9       __isalnum_l                660651f9 f i LIBCMT:_ctype.obj
 0001:0006424f       _isalnum                   6606524f f i LIBCMT:_ctype.obj
 0001:000644ae       _strtol                    660654ae f   LIBCMT:strtol.obj
 0001:000644d9       _strtoul                   660654d9 f   LIBCMT:strtol.obj
 0001:00064505       __toupper_l                66065505 f   LIBCMT:toupper.obj
 0001:0006461b       _toupper                   6606561b f   LIBCMT:toupper.obj
 0001:00064647       ___iob_func                66065647 f   LIBCMT:_file.obj
 0001:0006464d       ___initstdio               6606564d f   LIBCMT:_file.obj
 0001:000646fe       ___endstdio                660656fe f   LIBCMT:_file.obj
 0001:0006471e       __lock_file                6606571e f   LIBCMT:_file.obj
 0001:0006475f       __lock_file2               6606575f f   LIBCMT:_file.obj
 0001:00064791       __unlock_file              66065791 f   LIBCMT:_file.obj
 0001:000647cd       __unlock_file2             660657cd f   LIBCMT:_file.obj
 0001:000647fc       __fpclear                  660657fc f   LIBCMT:_fpinit_.obj
 0001:000647fc       __initp_misc_winxfltr      660657fc f   LIBCMT:winxfltr.obj
 0001:000647fd       __cfltcvt_init             660657fd f   LIBCMT:_fpinit_.obj
 0001:0006485d       __fpmath                   6606585d f   LIBCMT:_fpinit_.obj
 0001:00064880       __except_handler4          66065880 f   LIBCMT:chandler4.obj
 0001:00064a0c       _V6_HeapAlloc              66065a0c f   LIBCMT:malloc.obj
 0001:00064a5b       _malloc                    66065a5b f   LIBCMT:malloc.obj
 0001:00064b30       _strstr                    66065b30 f   LIBCMT:strstr.obj
 0001:00064bb6       _fgets                     66065bb6 f   LIBCMT:fgets.obj
 0001:00064cfe       __fseek_nolock             66065cfe f   LIBCMT:fseek.obj
 0001:00064d88       _fseek                     66065d88 f   LIBCMT:fseek.obj
 0001:00064e0d       __fread_nolock_s           66065e0d f   LIBCMT:fread.obj
 0001:00065017       _fread_s                   66066017 f   LIBCMT:fread.obj
 0001:000650ad       _fread                     660660ad f   LIBCMT:fread.obj
 0001:000650d0       _strncpy                   660660d0 f   LIBCMT:strncpy.obj
 0001:000651f4       __memicmp_l                660661f4 f   LIBCMT:memicmp.obj
 0001:000652c9       __memicmp                  660662c9 f   LIBCMT:memicmp.obj
 0001:00065328       _strtok                    66066328 f   LIBCMT:strtok.obj
 0001:000653f0       __ftol2_sse                660663f0 f   LIBCMT:ftol2.obj
 0001:000653f9       __ftol2_pentium4           660663f9 f   LIBCMT:ftol2.obj
 0001:0006540c       __ftol2_sse_excpt          6606640c f   LIBCMT:ftol2.obj
 0001:00065426       __ftol2                    66066426 f   LIBCMT:ftol2.obj
 0001:0006549b       ??3@YAXPAX@Z               6606649b f   LIBCMT:delete.obj
 0001:000654a6       ??0bad_alloc@std@@QAE@XZ   660664a6 f i LIBCMT:new.obj
 0001:000654c1       ??1bad_alloc@std@@UAE@XZ   660664c1 f i LIBCMT:new.obj
 0001:000654cc       ??_Gbad_alloc@std@@UAEPAXI@Z 660664cc f i LIBCMT:new.obj
 0001:000654cc       ??_Ebad_alloc@std@@UAEPAXI@Z 660664cc f i LIBCMT:new.obj
 0001:000654f3       ??0bad_alloc@std@@QAE@ABV01@@Z 660664f3 f i LIBCMT:new.obj
 0001:00065510       ??2@YAPAXI@Z               66066510 f   LIBCMT:new.obj
 0001:00065575       _free                      66066575 f   LIBCMT:free.obj
 0001:000656dd       __stat64i32                660666dd f   LIBCMT:stati32.obj
 0001:00065ab1       __fwrite_nolock            66066ab1 f   LIBCMT:fwrite.obj
 0001:00065c13       _fwrite                    66066c13 f   LIBCMT:fwrite.obj
 0001:00065c95       __fsopen                   66066c95 f   LIBCMT:fopen.obj
 0001:00065d59       _fopen                     66066d59 f   LIBCMT:fopen.obj
 0001:00065d70       __ftell_nolock             66066d70 f   LIBCMT:ftell.obj
 0001:00065f0d       _ftell                     66066f0d f   LIBCMT:ftell.obj
 0001:00065f80       __alloca_probe             66066f80     LIBCMT:chkstk.obj
 0001:00065f80       __chkstk                   66066f80 f   LIBCMT:chkstk.obj
 0001:00065fb0       __CIsqrt                   66066fb0 f   LIBCMT:_sqrt_.obj
 0001:00065fc4       _sqrt                      66066fc4     LIBCMT:_sqrt_.obj
 0001:0006606a       __vsnprintf_l              6606706a f   LIBCMT:vsnprint.obj
 0001:0006611d       __vsnprintf                6606711d f   LIBCMT:vsnprint.obj
 0001:0006613a       __strdup                   6606713a f   LIBCMT:strdup.obj
 0001:0006618f       _fputc                     6606718f f   LIBCMT:fputc.obj
 0001:0006629b       _rand                      6606729b f   LIBCMT:rand.obj
 0001:000662bd       _rename                    660672bd f   LIBCMT:rename.obj
 0001:000662f0       _memmove                   660672f0 f   LIBCMT:memmove.obj
 0001:00066655       __isleadbyte_l             66067655 f i LIBCMT:_wctype.obj
 0001:0006668d       _isleadbyte                6606768d f i LIBCMT:_wctype.obj
 0001:000666a0       _iswspace                  660676a0 f i LIBCMT:_wctype.obj
 0001:000666b3       __get_printf_count_output  660676b3 f   LIBCMT:printf.obj
 0001:000666c9       __time64                   660676c9 f   LIBCMT:time64.obj
 0001:0006671a       __freea                    6606771a f i LIBCMT:strupr.obj
 0001:000668b8       __strupr_s_l               660678b8 f   LIBCMT:strupr.obj
 0001:000668ed       __strupr                   660678ed f   LIBCMT:strupr.obj
 0001:00066b4c       _wcstol                    66067b4c f   LIBCMT:wcstol.obj
 0001:00066b80       __allshr                   66067b80 f   LIBCMT:llshr.obj
 0001:00066bb0       _sin                       66067bb0 f   LIBCMT:_sin_.obj
 0001:00066bf0       __CIsin                    66067bf0 f   LIBCMT:_sin_.obj
 0001:00066c2b       __CIsin_default            66067c2b f   LIBCMT:_sin_.obj
 0001:00066c3f       __sin_default              66067c3f     LIBCMT:_sin_.obj
 0001:00066ce0       _cos                       66067ce0 f   LIBCMT:_cos_.obj
 0001:00066d20       __CIcos                    66067d20 f   LIBCMT:_cos_.obj
 0001:00066d5b       __CIcos_default            66067d5b f   LIBCMT:_cos_.obj
 0001:00066d6f       __cos_default              66067d6f     LIBCMT:_cos_.obj
 0001:00066e09       __CRT_INIT@12              66067e09 f   LIBCMT:dllcrt0.obj
 0001:00067034       __DllMainCRTStartup@12     66068034 f   LIBCMT:dllcrt0.obj
 0001:0006727d       ___updatetmbcinfo          6606827d f   LIBCMT:mbctype.obj
 0001:0006739d       __setmbcp_nolock           6606839d f   LIBCMT:mbctype.obj
 0001:00067582       __setmbcp                  66068582 f   LIBCMT:mbctype.obj
 0001:0006771c       ___initmbctable            6606871c f   LIBCMT:mbctype.obj
 0001:0006773a       ___freetlocinfo            6606873a f   LIBCMT:setlocal.obj
 0001:00067883       ___addlocaleref            66068883 f   LIBCMT:setlocal.obj
 0001:00067912       ___removelocaleref         66068912 f   LIBCMT:setlocal.obj
 0001:000679e9       ___updatetlocinfo          660689e9 f   LIBCMT:setlocal.obj
 0001:00067a5f       __encode_pointer           66068a5f f   LIBCMT:tidtable.obj
 0001:00067ad1       __encoded_null             66068ad1 f   LIBCMT:tidtable.obj
 0001:00067ada       __decode_pointer           66068ada f   LIBCMT:tidtable.obj
 0001:00067b4c       ___crtTlsAlloc@4           66068b4c f   LIBCMT:tidtable.obj
 0001:00067b55       ___set_flsgetvalue         66068b55 f   LIBCMT:tidtable.obj
 0001:00067b89       __mtterm                   66068b89 f   LIBCMT:tidtable.obj
 0001:00067bc6       __initptd                  66068bc6 f   LIBCMT:tidtable.obj
 0001:00067cad       __getptd_noexit            66068cad f   LIBCMT:tidtable.obj
 0001:00067d26       __getptd                   66068d26 f   LIBCMT:tidtable.obj
 0001:00067d40       __freefls@4                66068d40 f   LIBCMT:tidtable.obj
 0001:00067e6f       __freeptd                  66068e6f f   LIBCMT:tidtable.obj
 0001:00067edd       __mtinit                   66068edd f   LIBCMT:tidtable.obj
 0001:0006806a       __tolower_l                6606906a f   LIBCMT:tolower.obj
 0001:0006817f       _tolower                   6606917f f   LIBCMT:tolower.obj
 0001:000681ab       __initp_misc_invarg        660691ab f   LIBCMT:invarg.obj
 0001:000681ba       __invoke_watson            660691ba f   LIBCMT:invarg.obj
 0001:000682e2       __invalid_parameter        660692e2 f   LIBCMT:invarg.obj
 0001:00068308       __get_errno_from_oserr     66069308 f   LIBCMT:dosmap.obj
 0001:0006834a       __errno                    6606934a f   LIBCMT:dosmap.obj
 0001:0006835d       ___doserrno                6606935d f   LIBCMT:dosmap.obj
 0001:00068370       __dosmaperr                66069370 f   LIBCMT:dosmap.obj
 0001:00068393       __write_nolock             66069393 f   LIBCMT:write.obj
 0001:00068ac6       __write                    66069ac6 f   LIBCMT:write.obj
 0001:00068ba2       __fileno                   66069ba2 f   LIBCMT:fileno.obj
 0001:00068bd4       __commit                   66069bd4 f   LIBCMT:commit.obj
 0001:00068cb5       __mtinitlocks              66069cb5 f   LIBCMT:mlock.obj
 0001:00068d00       __mtdeletelocks            66069d00 f   LIBCMT:mlock.obj
 0001:00068d57       __unlock                   66069d57 f   LIBCMT:mlock.obj
 0001:00068d6e       __mtinitlocknum            66069d6e f   LIBCMT:mlock.obj
 0001:00068e31       __lock                     66069e31 f   LIBCMT:mlock.obj
 0001:00068e64       __SEH_prolog4              66069e64 f   LIBCMT:sehprolg4.obj
 0001:00068ea9       __SEH_epilog4              66069ea9 f   LIBCMT:sehprolg4.obj
 0001:00068ebd       __stbuf                    66069ebd f   LIBCMT:_sftbuf.obj
 0001:00068f59       __ftbuf                    66069f59 f   LIBCMT:_sftbuf.obj
 0001:00069033       __output_l                 6606a033 f   LIBCMT:output.obj
 0001:00069bcb       __ioinit                   6606abcb f   LIBCMT:ioinit.obj
 0001:00069e1f       __ioterm                   6606ae1f f   LIBCMT:ioinit.obj
 0001:00069e6d       ___report_gsfailure        6606ae6d f   LIBCMT:gs_report.obj
 0001:00069f73       __flsbuf                   6606af73 f   LIBCMT:_flsbuf.obj
 0001:0006a12e       __VEC_memzero              6606b12e f   LIBCMT:p4_memset.obj
 0001:0006a20d       __get_sse2_info            6606b20d f   LIBCMT:cpu_disp.obj
 0001:0006a26f       ___sse2_available_init     6606b26f f   LIBCMT:cpu_disp.obj
 0001:0006a27c       __close_nolock             6606b27c f   LIBCMT:close.obj
 0001:0006a318       __close                    6606b318 f   LIBCMT:close.obj
 0001:0006a3e5       __freebuf                  6606b3e5 f   LIBCMT:_freebuf.obj
 0001:0006a420       _strlen                    6606b420 f   LIBCMT:strlen.obj
 0001:0006a4ab       __initp_heap_handler       6606b4ab f   LIBCMT:handler.obj
 0001:0006a4ba       __callnewh                 6606b4ba f   LIBCMT:handler.obj
 0001:0006a4e2       __heap_init                6606b4e2 f   LIBCMT:heapinit.obj
 0001:0006a512       __heap_term                6606b512 f   LIBCMT:heapinit.obj
 0001:0006a586       ___sbh_find_block          6606b586 f   LIBCMT:sbheap.obj
 0001:0006a5b6       ___sbh_free_block          6606b5b6 f   LIBCMT:sbheap.obj
 0001:0006a8cc       ___sbh_alloc_new_region    6606b8cc f   LIBCMT:sbheap.obj
 0001:0006a97c       ___sbh_alloc_new_group     6606b97c f   LIBCMT:sbheap.obj
 0001:0006aa84       ___sbh_resize_block        6606ba84 f   LIBCMT:sbheap.obj
 0001:0006ad65       ___sbh_alloc_block         6606bd65 f   LIBCMT:sbheap.obj
 0001:0006b0d1       __VEC_memcpy               6606c0d1 f   LIBCMT:p4_memcpy.obj
 0001:0006b1b4       __isctype_l                6606c1b4 f   LIBCMT:isctype.obj
 0001:0006b611       ___crtLCMapStringA         6606c611 f   LIBCMT:a_map.obj
 0001:0006b656       __malloc_crt               6606c656 f   LIBCMT:crtheap.obj
 0001:0006b69b       __calloc_crt               6606c69b f   LIBCMT:crtheap.obj
 0001:0006b6e7       __realloc_crt              6606c6e7 f   LIBCMT:crtheap.obj
 0001:0006b735       __recalloc_crt             6606c735 f   LIBCMT:crtheap.obj
 0001:0006b787       __fcloseall                6606c787 f   LIBCMT:closeall.obj
 0001:0006b826       __crt_waiting_on_module_handle 6606c826 f   LIBCMT:crt0dat.obj
 0001:0006b856       __amsg_exit                6606c856 f   LIBCMT:crt0dat.obj
 0001:0006b87f       ___crtCorExitProcess       6606c87f f   LIBCMT:crt0dat.obj
 0001:0006b8aa       ___crtExitProcess          6606c8aa f   LIBCMT:crt0dat.obj
 0001:0006b8c2       __lockexit                 6606c8c2 f   LIBCMT:crt0dat.obj
 0001:0006b8cb       __unlockexit               6606c8cb f   LIBCMT:crt0dat.obj
 0001:0006b8f1       __initterm_e               6606c8f1 f   LIBCMT:crt0dat.obj
 0001:0006b915       __cinit                    6606c915 f   LIBCMT:crt0dat.obj
 0001:0006bac6       __exit                     6606cac6 f   LIBCMT:crt0dat.obj
 0001:0006badc       __cexit                    6606cadc f   LIBCMT:crt0dat.obj
 0001:0006baeb       __init_pointers            6606caeb f   LIBCMT:crt0dat.obj
 0001:0006bb39       __forcdecpt_l              6606cb39 f   LIBCMT:cvt.obj
 0001:0006bbac       __cropzeros_l              6606cbac f   LIBCMT:cvt.obj
 0001:0006bc2e       __positive                 6606cc2e f   LIBCMT:cvt.obj
 0001:0006bc4a       __fassign_l                6606cc4a f   LIBCMT:cvt.obj
 0001:0006bc8c       __fassign                  6606cc8c f   LIBCMT:cvt.obj
 0001:0006bcc5       __forcdecpt                6606ccc5 f   LIBCMT:cvt.obj
 0001:0006bcd8       __cropzeros                6606ccd8 f   LIBCMT:cvt.obj
 0001:0006be5a       __cftoe_l                  6606ce5a f   LIBCMT:cvt.obj
 0001:0006bf2a       __cftoe                    6606cf2a f   LIBCMT:cvt.obj
 0001:0006bf4a       __cftoa_l                  6606cf4a f   LIBCMT:cvt.obj
 0001:0006c3b4       __cftof_l                  6606d3b4 f   LIBCMT:cvt.obj
 0001:0006c46f       __cftog_l                  6606d46f f   LIBCMT:cvt.obj
 0001:0006c569       __cfltcvt_l                6606d569 f   LIBCMT:cvt.obj
 0001:0006c5f1       __cfltcvt                  6606d5f1 f   LIBCMT:cvt.obj
 0001:0006c614       __initp_misc_cfltcvt_tab   6606d614 f   LIBCMT:cmiscdat.obj
 0001:0006c635       __setdefaultprecision      6606d635 f   LIBCMT:fp8.obj
 0001:0006c660       __ms_p5_test_fdiv          6606d660 f   LIBCMT:_testfdiv_.obj
 0001:0006c69e       __ms_p5_mp_test_fdiv       6606d69e f   LIBCMT:_testfdiv_.obj
 0001:0006c6c8       __local_unwind4            6606d6c8 f   LIBCMT:exsup4.obj
 0001:0006c79e       __seh_longjmp_unwind4@4    6606d79e f   LIBCMT:exsup4.obj
 0001:0006c7ba       @_EH4_CallFilterFunc@8     6606d7ba f   LIBCMT:exsup4.obj
 0001:0006c7d1       @_EH4_TransferToHandler@8  6606d7d1 f   LIBCMT:exsup4.obj
 0001:0006c7ea       @_EH4_GlobalUnwind@4       6606d7ea f   LIBCMT:exsup4.obj
 0001:0006c804       @_EH4_LocalUnwind@16       6606d804 f   LIBCMT:exsup4.obj
 0001:0006c820       __ValidateImageBase        6606d820 f   LIBCMT:pesect.obj
 0001:0006c860       __FindPESection            6606d860 f   LIBCMT:pesect.obj
 0001:0006c8b0       __IsNonwritableInCurrentImage 6606d8b0 f   LIBCMT:pesect.obj
 0001:0006c96d       __NMSG_WRITE               6606d96d f   LIBCMT:crt0msg.obj
 0001:0006cb18       __FF_MSGBANNER             6606db18 f   LIBCMT:crt0msg.obj
 0001:0006cb51       __filbuf                   6606db51 f   LIBCMT:_filbuf.obj
 0001:0006cc7c       __lseek_nolock             6606dc7c f   LIBCMT:lseek.obj
 0001:0006ccf1       __lseek                    6606dcf1 f   LIBCMT:lseek.obj
 0001:0006cdcd       __read_nolock              6606ddcd f   LIBCMT:read.obj
 0001:0006d38f       __read                     6606e38f f   LIBCMT:read.obj
 0001:0006d48c       _memcpy_s                  6606e48c f   LIBCMT:memcpy_s.obj
 0001:0006d510       ___ascii_memicmp           6606e510 f   LIBCMT:_memicmp.obj
 0001:0006d569       ??0exception@std@@QAE@ABQBDH@Z 6606e569 f   LIBCMT:stdexcpt.obj
 0001:0006d586       ??0exception@std@@QAE@ABV01@@Z 6606e586 f   LIBCMT:stdexcpt.obj
 0001:0006d5e3       ??1exception@std@@UAE@XZ   6606e5e3 f   LIBCMT:stdexcpt.obj
 0001:0006d5f9       ?what@exception@std@@UBEPBDXZ 6606e5f9 f   LIBCMT:stdexcpt.obj
 0001:0006d606       ??_Eexception@std@@UAEPAXI@Z 6606e606 f i LIBCMT:stdexcpt.obj
 0001:0006d606       ??_Gexception@std@@UAEPAXI@Z 6606e606 f i LIBCMT:stdexcpt.obj
 0001:0006d627       ??1type_info@@UAE@XZ       6606e627 f   LIBCMT:typinfo.obj
 0001:0006d637       ??_Etype_info@@UAEPAXI@Z   6606e637 f i LIBCMT:typinfo.obj
 0001:0006d637       ??_Gtype_info@@UAEPAXI@Z   6606e637 f i LIBCMT:typinfo.obj
 0001:0006d712       ___onexitinit              6606e712 f   LIBCMT:onexit.obj
 0001:0006d743       __onexit                   6606e743 f   LIBCMT:onexit.obj
 0001:0006d77f       _atexit                    6606e77f f   LIBCMT:onexit.obj
 0001:0006d796       __CxxThrowException@8      6606e796 f   LIBCMT:throw.obj
 0001:0006d7e2       __fullpath                 6606e7e2 f   LIBCMT:fullpath.obj
 0001:0006d8ec       ___dtoxmode                6606e8ec f   LIBCMT:stat.obj
 0001:0006d9a9       ___loctotime64_t           6606e9a9 f   LIBCMT:dtoxtm64.obj
 0001:0006dc14       __getdrive                 6606ec14 f   LIBCMT:drive.obj
 0001:0006dcdd       __mbctolower_l             6606ecdd f   LIBCMT:mbtolwr.obj
 0001:0006dd83       __mbctolower               6606ed83 f   LIBCMT:mbtolwr.obj
 0001:0006dd96       __mbspbrk_l                6606ed96 f   LIBCMT:mbspbrk.obj
 0001:0006de63       __mbspbrk                  6606ee63 f   LIBCMT:mbspbrk.obj
 0001:0006de7a       __openfile                 6606ee7a f   LIBCMT:_open.obj
 0001:0006e143       __getstream                6606f143 f   LIBCMT:stream.obj
 0001:0006e280       __trandisp1                6606f280 f   LIBCMT:_87disp_.obj
 0001:0006e2e7       __trandisp2                6606f2e7 f   LIBCMT:_87disp_.obj
 0001:0006e373       __rttospopde               6606f373     LIBCMT:_87disp_.obj
 0001:0006e378       __rttospop                 6606f378     LIBCMT:_87disp_.obj
 0001:0006e37a       __rtnospop                 6606f37a     LIBCMT:_87disp_.obj
 0001:0006e37c       __rttosnpop                6606f37c     LIBCMT:_87disp_.obj
 0001:0006e37d       __rtnospopde               6606f37d     LIBCMT:_87disp_.obj
 0001:0006e384       __rtzeropop                6606f384     LIBCMT:_87disp_.obj
 0001:0006e386       __rtzeronpop               6606f386     LIBCMT:_87disp_.obj
 0001:0006e38b       __rtonepop                 6606f38b     LIBCMT:_87disp_.obj
 0001:0006e38d       __rtonenpop                6606f38d     LIBCMT:_87disp_.obj
 0001:0006e392       __tosnan1                  6606f392     LIBCMT:_87disp_.obj
 0001:0006e3bd       __nosnan2                  6606f3bd     LIBCMT:_87disp_.obj
 0001:0006e3bf       __tosnan2                  6606f3bf     LIBCMT:_87disp_.obj
 0001:0006e3e7       __nan2                     6606f3e7     LIBCMT:_87disp_.obj
 0001:0006e426       __rtindfpop                6606f426     LIBCMT:_87disp_.obj
 0001:0006e428       __rtindfnpop               6606f428     LIBCMT:_87disp_.obj
 0001:0006e439       __rttosnpopde              6606f439     LIBCMT:_87disp_.obj
 0001:0006e443       __rtchsifneg               6606f443     LIBCMT:_87disp_.obj
 0001:0006e450       __startTwoArgErrorHandling 6606f450 f   LIBCMT:_genexcep_.obj
 0001:0006e467       __startOneArgErrorHandling 6606f467 f   LIBCMT:_genexcep_.obj
 0001:0006e4b0       __twoToTOS                 6606f4b0 f   LIBCMT:_common_.obj
 0001:0006e4c5       __load_CW                  6606f4c5 f   LIBCMT:_common_.obj
 0001:0006e4dc       __convertTOStoQNaN         6606f4dc f   LIBCMT:_common_.obj
 0001:0006e4f5       __fload_withFB             6606f4f5 f   LIBCMT:_common_.obj
 0001:0006e538       __checkTOS_withFB          6606f538 f   LIBCMT:_common_.obj
 0001:0006e54e       __fast_exit                6606f54e f   LIBCMT:_common_.obj
 0001:0006e55b       __math_exit                6606f55b f   LIBCMT:_common_.obj
 0001:0006e585       __check_overflow_exit      6606f585 f   LIBCMT:_common_.obj
 0001:0006e599       __check_range_exit         6606f599 f   LIBCMT:_common_.obj
 0001:0006e63c       _strcpy_s                  6606f63c f   LIBCMT:strcpy_s.obj
 0001:0006e6a4       __iswctype_l               6606f6a4 f   LIBCMT:iswctype.obj
 0001:0006e72e       _iswctype                  6606f72e f   LIBCMT:iswctype.obj
 0001:0006e7b0       __aulldiv                  6606f7b0 f   LIBCMT:ulldiv.obj
 0001:0006e818       _strnlen                   6606f818 f   LIBCMT:strlen_s.obj
 0001:0006e840       __alloca_probe_16          6606f840 f   LIBCMT:alloca16.obj
 0001:0006e856       __alloca_probe_8           6606f856     LIBCMT:alloca16.obj
 0001:0006e86c       __wchartodigit             6606f86c f   LIBCMT:wchtodig.obj
 0001:0006ea47       __sse2_mathfcns_init       6606fa47 f   LIBCMT:_mathfcns_.obj
 0001:0006ea60       __CIsin_pentium4           6606fa60 f   LIBCMT:_sin_pentium4_.obj
 0001:0006ea78       __sin_pentium4             6606fa78     LIBCMT:_sin_pentium4_.obj
 0001:0006ec30       __CIcos_pentium4           6606fc30 f   LIBCMT:_cos_pentium4_.obj
 0001:0006ec48       __cos_pentium4             6606fc48     LIBCMT:_cos_pentium4_.obj
 0001:0006eddc       __setenvp                  6606fddc f   LIBCMT:stdenvp.obj
 0001:0006f054       __setargv                  66070054 f   LIBCMT:stdargv.obj
 0001:0006f10f       ___crtGetEnvironmentStringsA 6607010f f   LIBCMT:a_env.obj
 0001:0006f246       __RTC_Initialize           66070246 f   LIBCMT:_initsect_.obj
 0001:0006f26c       __RTC_Terminate            6607026c f   LIBCMT:_initsect_.obj
 0001:0006f292       __XcptFilter               66070292 f   LIBCMT:winxfltr.obj
 0001:0006f3f2       ___CppXcptFilter           660703f2 f   LIBCMT:winxfltr.obj
 0001:0006f412       ___security_init_cookie    66070412 f   LIBCMT:gs_support.obj
 0001:0006f662       ___crtGetStringTypeA       66070662 f   LIBCMT:a_str.obj
 0001:0006f6a4       ___free_lc_time            660706a4 f   LIBCMT:inittime.obj
 0001:0006f839       ___free_lconv_num          66070839 f   LIBCMT:initnum.obj
 0001:0006f87e       ___free_lconv_mon          6607087e f   LIBCMT:initmon.obj
 0001:0006f90c       ____lc_codepage_func       6607090c f   LIBCMT:initctyp.obj
 0001:0006f932       _strcat_s                  66070932 f   LIBCMT:strcat_s.obj
 0001:0006f9b0       _strcspn                   660709b0 f   LIBCMT:strcspn.obj
 0001:0006f9f6       _strncpy_s                 660709f6 f   LIBCMT:strncpy_s.obj
 0001:0006fab0       _strcmp                    66070ab0 f   LIBCMT:strcmp.obj
 0001:0006fb38       _strncmp                   66070b38 f   LIBCMT:strncmp.obj
 0001:0006fc00       _strpbrk                   66070c00 f   LIBCMT:strpbrk.obj
 0001:0006fc40       __crt_debugger_hook        66070c40 f   LIBCMT:dbghook.obj
 0001:0006fc48       __putwch_nolock            66070c48 f   LIBCMT:putwch.obj
 0001:0006fd0d       __mbtowc_l                 66070d0d f   LIBCMT:mbtowc.obj
 0001:0006fe24       _mbtowc                    66070e24 f   LIBCMT:mbtowc.obj
 0001:0006fe3e       __isatty                   66070e3e f   LIBCMT:isatty.obj
 0001:0006fea2       __lseeki64_nolock          66070ea2 f   LIBCMT:lseeki64.obj
 0001:0006ff27       __lseeki64                 66070f27 f   LIBCMT:lseeki64.obj
 0001:00070040       __set_osfhnd               66071040 f   LIBCMT:osfinfo.obj
 0001:000700c1       __free_osfhnd              660710c1 f   LIBCMT:osfinfo.obj
 0001:00070147       __get_osfhandle            66071147 f   LIBCMT:osfinfo.obj
 0001:000701be       ___lock_fhandle            660711be f   LIBCMT:osfinfo.obj
 0001:0007025e       __unlock_fhandle           6607125e f   LIBCMT:osfinfo.obj
 0001:00070285       __alloc_osfhnd             66071285 f   LIBCMT:osfinfo.obj
 0001:0007041f       __initp_misc_initcrit      6607141f f   LIBCMT:initcrit.obj
 0001:0007042e       ___crtInitCritSecAndSpinCount 6607142e f   LIBCMT:initcrit.obj
 0001:0007048e       __wctomb_s_l               6607148e f   LIBCMT:wctomb.obj
 0001:000705fa       _wctomb_s                  660715fa f   LIBCMT:wctomb.obj
 0001:00070620       __aulldvrm                 66071620 f   LIBCMT:ulldvrm.obj
 0001:000706b5       __getbuf                   660716b5 f   LIBCMT:_getbuf.obj
 0001:000706fe       ___ansicp                  660716fe f   LIBCMT:convrtcp.obj
 0001:00070747       ___convertcp               66071747 f   LIBCMT:convrtcp.obj
 0001:000708fb       __calloc_impl              660718fb f   LIBCMT:calloc_impl.obj
 0001:00070a19       __recalloc                 66071a19 f   LIBCMT:recalloc.obj
 0001:00070a94       ?terminate@@YAXXZ          66071a94 f   LIBCMT:hooks.obj
 0001:00070acd       __initp_eh_hooks           66071acd f   LIBCMT:hooks.obj
 0001:00070ade       __initp_misc_winsig        66071ade f   LIBCMT:winsig.obj
 0001:00070b33       ___get_sigabrt             66071b33 f   LIBCMT:winsig.obj
 0001:00070b40       _raise                     66071b40 f   LIBCMT:winsig.obj
 0001:00070cf0       __initp_misc_rand_s        66071cf0 f   LIBCMT:rand_s.obj
 0001:00070cff       __initp_misc_purevirt      66071cff f   LIBCMT:inithelp.obj
 0001:00070d0e       __atodbl_l                 66071d0e f   LIBCMT:atodbl.obj
 0001:00070db6       __atoflt_l                 66071db6 f   LIBCMT:atodbl.obj
 0001:00070e5e       __fptostr                  66071e5e f   LIBCMT:_fptostr.obj
 0001:00070f1d       ___dtold                   66071f1d f   LIBCMT:_cfout_.obj
 0001:00070fda       __fltout2                  66071fda f   LIBCMT:_cfout_.obj
 0001:00071070       __alldvrm                  66072070 f   LIBCMT:lldvrm.obj
 0001:00071150       __aullshr                  66072150 f   LIBCMT:ullshr.obj
 0001:0007116f       __fptrap                   6607216f f   LIBCMT:crt0fp.obj
 0001:00071178       __controlfp_s              66072178 f   LIBCMT:_contrlfp_.obj
 0001:000711e4       __global_unwind2           660721e4 f   LIBCMT:exsup.obj
 0001:00071249       __local_unwind2            66072249 f   LIBCMT:exsup.obj
 0001:000712cd       __abnormal_termination     660722cd f   LIBCMT:exsup.obj
 0001:000712f0       __NLG_Notify1              660722f0 f   LIBCMT:exsup.obj
 0001:000712f9       __NLG_Notify               660722f9 f   LIBCMT:exsup.obj
 0001:00071310       __NLG_Dispatch             66072310     LIBCMT:exsup.obj
 0001:00071310       __NLG_Dispatch2            66072310     LIBCMT:exsup.obj
 0001:00071318       __NLG_Call                 66072318 f   LIBCMT:exsup.obj
 0001:0007131a       __NLG_Return2              6607231a     LIBCMT:exsup.obj
 0001:0007131b       ___crtMessageBoxA          6607231b f   LIBCMT:crtmbox.obj
 0001:00071484       __set_error_mode           66072484 f   LIBCMT:errmode.obj
 0001:000714cf       ?_Type_info_dtor@type_info@@CAXPAV1@@Z 660724cf f   LIBCMT:typname.obj
 0001:0007153f       __msize                    6607253f f   LIBCMT:msize.obj
 0001:000715e2       __validdrive               660725e2 f   LIBCMT:getcwd.obj
 0001:0007161b       __getdcwd_nolock           6607261b f   LIBCMT:getcwd.obj
 0001:00071752       __getcwd                   66072752 f   LIBCMT:getcwd.obj
 0001:0007179b       _calloc                    6607279b f   LIBCMT:calloc.obj
 0001:000717db       __mbsicmp_l                660727db f   LIBCMT:mbsicmp.obj
 0001:00071a01       __mbsicmp                  66072a01 f   LIBCMT:mbsicmp.obj
 0001:00071a18       __mbsrchr_l                66072a18 f   LIBCMT:mbsrchr.obj
 0001:00071ad4       __mbsrchr                  66072ad4 f   LIBCMT:mbsrchr.obj
 0001:00071aeb       __set_daylight             66072aeb f i LIBCMT:tzset.obj
 0001:00071afc       __set_dstbias              66072afc f i LIBCMT:tzset.obj
 0001:00071b0d       __set_timezone             66072b0d f i LIBCMT:tzset.obj
 0001:00072233       ___tzset                   66073233 f   LIBCMT:tzset.obj
 0001:00072282       __isindst                  66073282 f   LIBCMT:tzset.obj
 0001:000722c3       __get_daylight             660732c3 f   LIBCMT:timeset.obj
 0001:000722fc       __get_dstbias              660732fc f   LIBCMT:timeset.obj
 0001:00072335       __get_timezone             66073335 f   LIBCMT:timeset.obj
 0001:0007236e       ___daylight                6607336e f   LIBCMT:timeset.obj
 0001:00072374       ___dstbias                 66073374 f   LIBCMT:timeset.obj
 0001:0007237a       ___timezone                6607337a f   LIBCMT:timeset.obj
 0001:00072380       ___tzname                  66073380 f   LIBCMT:timeset.obj
 0001:00072390       __allmul                   66073390 f   LIBCMT:llmul.obj
 0001:00072ae3       __sopen_helper             66073ae3 f   LIBCMT:open.obj
 0001:00072baf       __sopen_s                  66073baf f   LIBCMT:open.obj
 0001:00072bcf       __mbsnbicmp_l              66073bcf f   LIBCMT:mbsnbicm.obj
 0001:00072dfa       __mbsnbicmp                66073dfa f   LIBCMT:mbsnbicm.obj
 0001:00072e14       __mbsnbcmp_l               66073e14 f   LIBCMT:mbsnbcmp.obj
 0001:00072f7e       __mbsnbcmp                 66073f7e f   LIBCMT:mbsnbcmp.obj
 0001:00072f98       __87except                 66073f98 f   LIBCMT:_87except_.obj
 0001:000730d7       ___crtGetStringTypeW       660740d7 f   LIBCMT:w_str.obj
 0001:00073168       __ismbblead                66074168 f   LIBCMT:ismbbyte.obj
 0001:00073180       _atol                      66074180 f   LIBCMT:atox.obj
 0001:00073196       __strnicmp_l               66074196 f   LIBCMT:strnicmp.obj
 0001:00073288       __strnicmp                 66074288 f   LIBCMT:strnicmp.obj
 0001:000732e6       ___initconout              660742e6 f   LIBCMT:initcon.obj
 0001:00073305       ___termcon                 66074305 f   LIBCMT:initcon.obj
 0001:00073332       _abort                     66074332 f   LIBCMT:abort.obj
 0001:00073449       __ld12tod                  66074449 f   LIBCMT:_intrncvt_.obj
 0001:0007398d       __ld12tof                  6607498d f   LIBCMT:_intrncvt_.obj
 0001:00073ed1       ___strgtold12_l            66074ed1 f   LIBCMT:_strgtold_.obj
 0001:000745c9       _$I10_OUTPUT               660755c9 f   LIBCMT:_x10fout_.obj
 0001:0007501b       __control87                6607601b f i LIBCMT:_ieee87_.obj
 0001:0007532a       __getenv_helper_nolock     6607632a f   LIBCMT:getenv.obj
 0001:000753b1       __chsize_nolock            660763b1 f   LIBCMT:chsize.obj
 0001:00075567       __setmode_nolock           66076567 f   LIBCMT:setmode.obj
 0001:00075623       __get_fmode                66076623 f   LIBCMT:setmode.obj
 0001:0007565c       __raise_exc_ex             6607665c f   LIBCMT:_fpexcept_.obj
 0001:00075938       __raise_exc                66076938 f   LIBCMT:_fpexcept_.obj
 0001:0007595b       __handle_exc               6607695b f   LIBCMT:_fpexcept_.obj
 0001:00075b3d       __set_errno_from_matherr   66076b3d f   LIBCMT:_fpexcept_.obj
 0001:00075b6a       __matherr                  66076b6a f   LIBCMT:_matherr_.obj
 0001:00075b6d       __statfp                   66076b6d f   LIBCMT:_fpctrl_.obj
 0001:00075b7d       __clrfp                    66076b7d f   LIBCMT:_fpctrl_.obj
 0001:00075b8e       __ctrlfp                   66076b8e f   LIBCMT:_fpctrl_.obj
 0001:00075bb7       __set_statfp               66076bb7 f   LIBCMT:_fpctrl_.obj
 0001:00075c0f       ___set_fpsr_sse2           66076c0f f   LIBCMT:_fpctrl_.obj
 0001:00075c90       ___ascii_strnicmp          66076c90 f   LIBCMT:_strnicm.obj
 0001:00075cf1       ___mtold12                 66076cf1 f   LIBCMT:_mantold_.obj
 0001:00075ebf       __mbsnbicoll_l             66076ebf f   LIBCMT:mbsnbico.obj
 0001:00075fad       __mbsnbicoll               66076fad f   LIBCMT:mbsnbico.obj
 0001:00075fc7       ___wtomb_environ           66076fc7 f   LIBCMT:wtombenv.obj
 0001:0007605e       __set_exp                  6607705e f   LIBCMT:_util_.obj
 0001:0007608a       __decomp                   6607708a f   LIBCMT:_util_.obj
 0001:000764d1       ___crtCompareStringA       660774d1 f   LIBCMT:a_cmp.obj
 0001:00076513       __strnicoll_l              66077513 f   LIBCMT:strnicol.obj
 0001:000766b9       ___crtsetenv               660776b9 f   LIBCMT:setenv.obj
 0001:00076904       __mbschr_l                 66077904 f   LIBCMT:mbschr.obj
 0001:000769c0       __mbschr                   660779c0 f   LIBCMT:mbschr.obj
 0001:000769d8       _ImmAssociateContext@8     660779d8 f   imm32:IMM32.dll
 0001:000769de       _RtlUnwind@16              660779de f   kernel32:KERNEL32.dll
 0002:00000000       __imp__ImmAssociateContext@8 66078000     imm32:IMM32.dll
 0002:00000004       \177IMM32_NULL_THUNK_DATA  66078004     imm32:IMM32.dll
 0002:00000008       __imp__IsBadReadPtr@8      66078008     kernel32:KERNEL32.dll
 0002:0000000c       __imp__MultiByteToWideChar@24 6607800c     kernel32:KERNEL32.dll
 0002:00000010       __imp__QueryPerformanceFrequency@4 66078010     kernel32:KERNEL32.dll
 0002:00000014       __imp__HeapCreate@12       66078014     kernel32:KERNEL32.dll
 0002:00000018       __imp__HeapDestroy@4       66078018     kernel32:KERNEL32.dll
 0002:0000001c       __imp__QueryPerformanceCounter@4 6607801c     kernel32:KERNEL32.dll
 0002:00000020       __imp__GetCommandLineA@0   66078020     kernel32:KERNEL32.dll
 0002:00000024       __imp__GetModuleFileNameA@12 66078024     kernel32:KERNEL32.dll
 0002:00000028       __imp__DeleteFileA@4       66078028     kernel32:KERNEL32.dll
 0002:0000002c       __imp__HeapFree@12         6607802c     kernel32:KERNEL32.dll
 0002:00000030       __imp__WideCharToMultiByte@32 66078030     kernel32:KERNEL32.dll
 0002:00000034       __imp__DisableThreadLibraryCalls@4 66078034     kernel32:KERNEL32.dll
 0002:00000038       __imp__LoadLibraryA@4      66078038     kernel32:KERNEL32.dll
 0002:0000003c       __imp__GetModuleHandleA@4  6607803c     kernel32:KERNEL32.dll
 0002:00000040       __imp__VirtualProtect@16   66078040     kernel32:KERNEL32.dll
 0002:00000044       __imp__WriteProcessMemory@20 66078044     kernel32:KERNEL32.dll
 0002:00000048       __imp__GetCurrentProcess@0 66078048     kernel32:KERNEL32.dll
 0002:0000004c       __imp__GetProcAddress@8    6607804c     kernel32:KERNEL32.dll
 0002:00000050       __imp__IsBadWritePtr@8     66078050     kernel32:KERNEL32.dll
 0002:00000054       __imp__LCMapStringA@24     66078054     kernel32:KERNEL32.dll
 0002:00000058       __imp__GetProcessTimes@20  66078058     kernel32:KERNEL32.dll
 0002:0000005c       __imp__GetSystemTimeAsFileTime@4 6607805c     kernel32:KERNEL32.dll
 0002:00000060       __imp__IsBadCodePtr@4      66078060     kernel32:KERNEL32.dll
 0002:00000064       __imp__Sleep@4             66078064     kernel32:KERNEL32.dll
 0002:00000068       __imp__GetTickCount@0      66078068     kernel32:KERNEL32.dll
 0002:0000006c       __imp__GetLocalTime@4      6607806c     kernel32:KERNEL32.dll
 0002:00000070       __imp__CreateFileA@28      66078070     kernel32:KERNEL32.dll
 0002:00000074       __imp__WriteFile@20        66078074     kernel32:KERNEL32.dll
 0002:00000078       __imp__SetFilePointer@16   66078078     kernel32:KERNEL32.dll
 0002:0000007c       __imp__CloseHandle@4       6607807c     kernel32:KERNEL32.dll
 0002:00000080       __imp__GetFileSize@8       66078080     kernel32:KERNEL32.dll
 0002:00000084       __imp__GetCurrentProcessId@0 66078084     kernel32:KERNEL32.dll
 0002:00000088       __imp__GlobalFree@4        66078088     kernel32:KERNEL32.dll
 0002:0000008c       __imp__GlobalUnlock@4      6607808c     kernel32:KERNEL32.dll
 0002:00000090       __imp__GlobalLock@4        66078090     kernel32:KERNEL32.dll
 0002:00000094       __imp__GlobalAlloc@8       66078094     kernel32:KERNEL32.dll
 0002:00000098       __imp__HeapAlloc@12        66078098     kernel32:KERNEL32.dll
 0002:0000009c       __imp__FindFirstFileA@8    6607809c     kernel32:KERNEL32.dll
 0002:000000a0       __imp__GetFileAttributesA@4 660780a0     kernel32:KERNEL32.dll
 0002:000000a4       __imp__CompareStringW@24   660780a4     kernel32:KERNEL32.dll
 0002:000000a8       __imp__CompareStringA@24   660780a8     kernel32:KERNEL32.dll
 0002:000000ac       __imp__GetProcessHeap@0    660780ac     kernel32:KERNEL32.dll
 0002:000000b0       __imp__SetEndOfFile@4      660780b0     kernel32:KERNEL32.dll
 0002:000000b4       __imp__GetTimeZoneInformation@4 660780b4     kernel32:KERNEL32.dll
 0002:000000b8       __imp__HeapSize@12         660780b8     kernel32:KERNEL32.dll
 0002:000000bc       __imp__InitializeCriticalSectionAndSpinCount@8 660780bc     kernel32:KERNEL32.dll
 0002:000000c0       __imp__SetStdHandle@8      660780c0     kernel32:KERNEL32.dll
 0002:000000c4       __imp__WriteConsoleW@20    660780c4     kernel32:KERNEL32.dll
 0002:000000c8       __imp__GetConsoleOutputCP@0 660780c8     kernel32:KERNEL32.dll
 0002:000000cc       __imp__WriteConsoleA@20    660780cc     kernel32:KERNEL32.dll
 0002:000000d0       __imp__GetLocaleInfoA@16   660780d0     kernel32:KERNEL32.dll
 0002:000000d4       __imp__GetStringTypeW@16   660780d4     kernel32:KERNEL32.dll
 0002:000000d8       __imp__GetStringTypeA@20   660780d8     kernel32:KERNEL32.dll
 0002:000000dc       __imp__GetEnvironmentStringsW@0 660780dc     kernel32:KERNEL32.dll
 0002:000000e0       __imp__FreeEnvironmentStringsW@4 660780e0     kernel32:KERNEL32.dll
 0002:000000e4       __imp__GetEnvironmentStrings@0 660780e4     kernel32:KERNEL32.dll
 0002:000000e8       __imp__FreeEnvironmentStringsA@4 660780e8     kernel32:KERNEL32.dll
 0002:000000ec       __imp__GetCurrentDirectoryA@8 660780ec     kernel32:KERNEL32.dll
 0002:000000f0       __imp__GetFullPathNameA@16 660780f0     kernel32:KERNEL32.dll
 0002:000000f4       __imp__RaiseException@16   660780f4     kernel32:KERNEL32.dll
 0002:000000f8       __imp__ReadFile@20         660780f8     kernel32:KERNEL32.dll
 0002:000000fc       __imp__SetEnvironmentVariableA@8 660780fc     kernel32:KERNEL32.dll
 0002:00000100       __imp__CreateDirectoryA@8  66078100     kernel32:KERNEL32.dll
 0002:00000104       __imp__HeapReAlloc@16      66078104     kernel32:KERNEL32.dll
 0002:00000108       __imp__GetLastError@0      66078108     kernel32:KERNEL32.dll
 0002:0000010c       __imp__EnterCriticalSection@4 6607810c     kernel32:KERNEL32.dll
 0002:00000110       __imp__LeaveCriticalSection@4 66078110     kernel32:KERNEL32.dll
 0002:00000114       __imp__FindClose@4         66078114     kernel32:KERNEL32.dll
 0002:00000118       __imp__FileTimeToSystemTime@8 66078118     kernel32:KERNEL32.dll
 0002:0000011c       __imp__FileTimeToLocalFileTime@8 6607811c     kernel32:KERNEL32.dll
 0002:00000120       __imp__GetDriveTypeA@4     66078120     kernel32:KERNEL32.dll
 0002:00000124       __imp__MoveFileA@8         66078124     kernel32:KERNEL32.dll
 0002:00000128       __imp__GetCurrentThreadId@0 66078128     kernel32:KERNEL32.dll
 0002:0000012c       __imp__GetCPInfo@8         6607812c     kernel32:KERNEL32.dll
 0002:00000130       __imp__InterlockedIncrement@4 66078130     kernel32:KERNEL32.dll
 0002:00000134       __imp__InterlockedDecrement@4 66078134     kernel32:KERNEL32.dll
 0002:00000138       __imp__GetACP@0            66078138     kernel32:KERNEL32.dll
 0002:0000013c       __imp__GetOEMCP@0          6607813c     kernel32:KERNEL32.dll
 0002:00000140       __imp__IsValidCodePage@4   66078140     kernel32:KERNEL32.dll
 0002:00000144       __imp__GetModuleHandleW@4  66078144     kernel32:KERNEL32.dll
 0002:00000148       __imp__TlsGetValue@4       66078148     kernel32:KERNEL32.dll
 0002:0000014c       __imp__TlsAlloc@0          6607814c     kernel32:KERNEL32.dll
 0002:00000150       __imp__TlsSetValue@8       66078150     kernel32:KERNEL32.dll
 0002:00000154       __imp__TlsFree@4           66078154     kernel32:KERNEL32.dll
 0002:00000158       __imp__SetLastError@4      66078158     kernel32:KERNEL32.dll
 0002:0000015c       __imp__TerminateProcess@8  6607815c     kernel32:KERNEL32.dll
 0002:00000160       __imp__UnhandledExceptionFilter@4 66078160     kernel32:KERNEL32.dll
 0002:00000164       __imp__SetUnhandledExceptionFilter@4 66078164     kernel32:KERNEL32.dll
 0002:00000168       __imp__IsDebuggerPresent@0 66078168     kernel32:KERNEL32.dll
 0002:0000016c       __imp__GetConsoleCP@0      6607816c     kernel32:KERNEL32.dll
 0002:00000170       __imp__GetConsoleMode@8    66078170     kernel32:KERNEL32.dll
 0002:00000174       __imp__FlushFileBuffers@4  66078174     kernel32:KERNEL32.dll
 0002:00000178       __imp__DeleteCriticalSection@4 66078178     kernel32:KERNEL32.dll
 0002:0000017c       __imp__SetHandleCount@4    6607817c     kernel32:KERNEL32.dll
 0002:00000180       __imp__GetStdHandle@4      66078180     kernel32:KERNEL32.dll
 0002:00000184       __imp__GetFileType@4       66078184     kernel32:KERNEL32.dll
 0002:00000188       __imp__GetStartupInfoA@4   66078188     kernel32:KERNEL32.dll
 0002:0000018c       __imp__VirtualFree@12      6607818c     kernel32:KERNEL32.dll
 0002:00000190       __imp__VirtualAlloc@16     66078190     kernel32:KERNEL32.dll
 0002:00000194       __imp__LCMapStringW@24     66078194     kernel32:KERNEL32.dll
 0002:00000198       __imp__ExitProcess@4       66078198     kernel32:KERNEL32.dll
 0002:0000019c       __imp__RtlUnwind@16        6607819c     kernel32:KERNEL32.dll
 0002:000001a0       \177KERNEL32_NULL_THUNK_DATA 660781a0     kernel32:KERNEL32.dll
 0002:000001a4       __imp__EnumProcessModules@16 660781a4     psapi:PSAPI.DLL
 0002:000001a8       __imp__GetModuleBaseNameA@16 660781a8     psapi:PSAPI.DLL
 0002:000001ac       __imp__GetModuleInformation@16 660781ac     psapi:PSAPI.DLL
 0002:000001b0       \177PSAPI_NULL_THUNK_DATA  660781b0     psapi:PSAPI.DLL
 0002:000001b4       __imp__GetWindowRect@8     660781b4     user32:USER32.dll
 0002:000001b8       __imp__AdjustWindowRectEx@16 660781b8     user32:USER32.dll
 0002:000001bc       __imp__SetWindowPos@28     660781bc     user32:USER32.dll
 0002:000001c0       __imp__GetClassNameA@12    660781c0     user32:USER32.dll
 0002:000001c4       __imp__OpenClipboard@4     660781c4     user32:USER32.dll
 0002:000001c8       __imp__EmptyClipboard@0    660781c8     user32:USER32.dll
 0002:000001cc       __imp__SetClipboardData@8  660781cc     user32:USER32.dll
 0002:000001d0       __imp__CloseClipboard@0    660781d0     user32:USER32.dll
 0002:000001d4       __imp__SetCursorPos@8      660781d4     user32:USER32.dll
 0002:000001d8       __imp__GetKeyState@4       660781d8     user32:USER32.dll
 0002:000001dc       __imp__PostMessageA@16     660781dc     user32:USER32.dll
 0002:000001e0       __imp__SetWindowTextA@8    660781e0     user32:USER32.dll
 0002:000001e4       __imp__GetWindowLongA@8    660781e4     user32:USER32.dll
 0002:000001e8       __imp__SetWindowLongA@12   660781e8     user32:USER32.dll
 0002:000001ec       __imp__ShowWindow@8        660781ec     user32:USER32.dll
 0002:000001f0       __imp__GetWindowPlacement@8 660781f0     user32:USER32.dll
 0002:000001f4       __imp__GetClipCursor@4     660781f4     user32:USER32.dll
 0002:000001f8       __imp__GetClientRect@8     660781f8     user32:USER32.dll
 0002:000001fc       __imp__ClientToScreen@8    660781fc     user32:USER32.dll
 0002:00000200       __imp__ClipCursor@4        66078200     user32:USER32.dll
 0002:00000204       __imp__GetDesktopWindow@0  66078204     user32:USER32.dll
 0002:00000208       __imp__GetWindowInfo@8     66078208     user32:USER32.dll
 0002:0000020c       __imp__SendMessageA@16     6607820c     user32:USER32.dll
 0002:00000210       __imp__wvsprintfW@12       66078210     user32:USER32.dll
 0002:00000214       __imp__wvsprintfA@12       66078214     user32:USER32.dll
 0002:00000218       __imp__MessageBoxA@16      66078218     user32:USER32.dll
 0002:0000021c       __imp__wsprintfW           6607821c     user32:USER32.dll
 0002:00000220       __imp__SetForegroundWindow@4 66078220     user32:USER32.dll
 0002:00000224       \177USER32_NULL_THUNK_DATA 66078224     user32:USER32.dll
 0002:00000228       ___xc_a                    66078228     LIBCMT:crt0init.obj
 0002:0000022c       ___xc_z                    6607822c     LIBCMT:crt0init.obj
 0002:00000230       ___xi_a                    66078230     LIBCMT:crt0init.obj
 0002:00000248       ___xi_z                    66078248     LIBCMT:crt0init.obj
 0002:0000024c       ___xp_a                    6607824c     LIBCMT:crt0init.obj
 0002:00000258       ___xp_z                    66078258     LIBCMT:crt0init.obj
 0002:0000025c       ___xt_a                    6607825c     LIBCMT:crt0init.obj
 0002:00000260       ___xt_z                    66078260     LIBCMT:crt0init.obj
 0002:00001018       __real@408f400000000000    66079018     config.obj
 0002:00001268       __real@4014000000000000    66079268     guess.obj
 0002:00001270       __real@4052c00000000000    66079270     guess.obj
 0002:00001278       __real@4039000000000000    66079278     guess.obj
 0002:00001280       __real@3fe0000000000000    66079280     guess.obj
 0002:00001288       __real@4008000000000000    66079288     guess.obj
 0002:00001290       __real@4040000000000000    66079290     guess.obj
 0002:00001298       __real@4059000000000000    66079298     guess.obj
 0002:000012a0       __real@4010000000000000    660792a0     guess.obj
 0002:000094e8       __real@4022000000000000    660814e8     common.obj
 0002:000094f0       __real@4070000000000000    660814f0     common.obj
 0002:000094f8       __real@3fd999999999999a    660814f8     common.obj
 0002:00009ea8       __real@412e848000000000    66081ea8     loop.obj
 0002:0000d350       __real@4024000000000000    66085350     GameMonitor.obj
 0002:0000e748       __real@3ff8000000000000    66086748     item.obj
 0002:00013324       __real@41200000            6608b324     skill.obj
 0002:00013328       __real@41e80000            6608b328     skill.obj
 0002:0001332c       __real@41d00000            6608b32c     skill.obj
 0002:00013330       __real@41c00000            6608b330     skill.obj
 0002:00013334       __real@41f00000            6608b334     skill.obj
 0002:00013338       __real@41f80000            6608b338     skill.obj
 0002:0001333c       __real@41000000            6608b33c     skill.obj
 0002:00013340       __real@41a00000            6608b340     skill.obj
 0002:00013344       __real@41980000            6608b344     skill.obj
 0002:00013348       __real@40a00000            6608b348     skill.obj
 0002:00013350       __real@0000000000000000    6608b350     skill.obj
 0002:00013358       __real@42040000            6608b358     skill.obj
 0002:00014ba8       __real@40c3880000000000    6608cba8     Snapshot.obj
 0002:00014bb0       __real@4054400000000000    6608cbb0     Snapshot.obj
 0002:00014bb8       __real@4020000000000000    6608cbb8     Snapshot.obj
 0002:00014bc0       __real@40a0000000000000    6608cbc0     Snapshot.obj
 0002:000157b8       __real@401c000000000000    6608d7b8     teleport.obj
 0002:000171c0       __real@40f0000000000000    6608f1c0     uber.obj
 0002:000171c8       __real@401921fb3fa6defc    6608f1c8     uber.obj
 0002:000171f0       __FPinit                   6608f1f0     LIBCMT:_fpinit_.obj
 0002:000171f4       __FPmtinit                 6608f1f4     LIBCMT:_fpinit_.obj
 0002:000171f8       __FPmtterm                 6608f1f8     LIBCMT:_fpinit_.obj
 0002:000171fc       ??_C@_0P@GHFPNOJB@bad?5allocation?$AA@ 6608f1fc     LIBCMT:new.obj
 0002:00017210       ??_7bad_alloc@std@@6B@     6608f210     LIBCMT:new.obj
 0002:00017218       ??_C@_03LLEJOLGL@?4?1?2?$AA@ 6608f218     LIBCMT:stati32.obj
 0002:0001721c       ??_C@_02EAOCEIGI@?$DP?$CK?$AA@ 6608f21c     LIBCMT:stati32.obj
 0002:00017220       __pDefaultRawDllMain       6608f220     LIBCMT:dllcrt0.obj
 0002:00017220       __pRawDllMain              6608f220     LIBCMT:dllcrt0.obj
 0002:000172a8       ??_C@_01NEMOKFLO@?$DN?$AA@ 6608f2a8     LIBCMT:setlocal.obj
 0002:000172aa       ??_C@_00CNPNBAHC@?$AA@     6608f2aa     LIBCMT:setlocal.obj
 0002:000172ac       ??_C@_0O@NLDKAIKN@EncodePointer?$AA@ 6608f2ac     LIBCMT:tidtable.obj
 0002:000172bc       ??_C@_1BK@DBDEIDLH@?$AAK?$AAE?$AAR?$AAN?$AAE?$AAL?$AA3?$AA2?$AA?4?$AAD?$AAL?$AAL?$AA?$AA@ 6608f2bc     LIBCMT:tidtable.obj
 0002:000172d8       ??_C@_0O@KBPMFGHI@DecodePointer?$AA@ 6608f2d8     LIBCMT:tidtable.obj
 0002:000172e8       ??_C@_07PEJMOBNF@FlsFree?$AA@ 6608f2e8     LIBCMT:tidtable.obj
 0002:000172f0       ??_C@_0M@JCPCPOEF@FlsSetValue?$AA@ 6608f2f0     LIBCMT:tidtable.obj
 0002:000172fc       ??_C@_0M@GDNOONDI@FlsGetValue?$AA@ 6608f2fc     LIBCMT:tidtable.obj
 0002:00017308       ??_C@_08KNHFBNJ@FlsAlloc?$AA@ 6608f308     LIBCMT:tidtable.obj
 0002:00017314       ??_C@_1O@CEDCILHN@?$AA?$CI?$AAn?$AAu?$AAl?$AAl?$AA?$CJ?$AA?$AA@ 6608f314     LIBCMT:output.obj
 0002:00017324       ??_C@_06OJHGLDPL@?$CInull?$CJ?$AA@ 6608f324     LIBCMT:output.obj
 0002:00017330       ___lookuptable             6608f330     LIBCMT:output.obj
 0002:00017394       ??_C@_13NOLLCAOD@?$AA?$AA?$AA?$AA@ 6608f394     LIBCMT:a_map.obj
 0002:00017398       ??_C@_0P@MIGLKIOC@CorExitProcess?$AA@ 6608f398     LIBCMT:crt0dat.obj
 0002:000173a8       ??_C@_1BI@BGOHAHKC@?$AAm?$AAs?$AAc?$AAo?$AAr?$AAe?$AAe?$AA?4?$AAd?$AAl?$AAl?$AA?$AA@ 6608f3a8     LIBCMT:crt0dat.obj
 0002:000173c0       ??_C@_05KLBDPFGC@e?$CL000?$AA@ 6608f3c0     LIBCMT:cvt.obj
 0002:000173c8       __real@4150017ec0000000    6608f3c8     LIBCMT:_testfdiv_.obj
 0002:000173d0       __real@4147ffff80000000    6608f3d0     LIBCMT:_testfdiv_.obj
 0002:000173d8       ??_C@_0BK@NHEOCAHP@IsProcessorFeaturePresent?$AA@ 6608f3d8     LIBCMT:_testfdiv_.obj
 0002:000173f4       ??_C@_08CPNIBGIE@KERNEL32?$AA@ 6608f3f4     LIBCMT:_testfdiv_.obj
 0002:00017400       ??_C@_0P@GGKDKEEG@runtime?5error?5?$AA@ 6608f400     LIBCMT:crt0msg.obj
 0002:00017410       ??_C@_02PCIJFNDE@?$AN?6?$AA@ 6608f410     LIBCMT:crt0msg.obj
 0002:00017414       ??_C@_0O@MJNIPGOH@TLOSS?5error?$AN?6?$AA@ 6608f414     LIBCMT:crt0msg.obj
 0002:00017424       ??_C@_0N@BONNPDHF@SING?5error?$AN?6?$AA@ 6608f424     LIBCMT:crt0msg.obj
 0002:00017434       ??_C@_0P@MBDAJNE@DOMAIN?5error?$AN?6?$AA@ 6608f434     LIBCMT:crt0msg.obj
 0002:00017448       ??_C@_0JL@DFDOOABL@R6034?$AN?6An?5application?5has?5made?5a@ 6608f448     LIBCMT:crt0msg.obj
 0002:000174e8       ??_C@_0PH@EPAFIJ@R6033?$AN?6?9?5Attempt?5to?5use?5MSIL?5cod@ 6608f4e8     LIBCMT:crt0msg.obj
 0002:000175e0       ??_C@_0DD@BKEEABMM@R6032?$AN?6?9?5not?5enough?5space?5for?5lo@ 6608f5e0     LIBCMT:crt0msg.obj
 0002:00017618       ??_C@_0GD@OFKILIED@R6031?$AN?6?9?5Attempt?5to?5initialize?5t@ 6608f618     LIBCMT:crt0msg.obj
 0002:0001767c       ??_C@_0BP@LPMHJOKI@R6030?$AN?6?9?5CRT?5not?5initialized?$AN?6?$AA@ 6608f67c     LIBCMT:crt0msg.obj
 0002:0001769c       ??_C@_0CF@KJDAIALP@R6028?$AN?6?9?5unable?5to?5initialize?5he@ 6608f69c     LIBCMT:crt0msg.obj
 0002:000176c4       ??_C@_0DF@GAKBPDFP@R6027?$AN?6?9?5not?5enough?5space?5for?5lo@ 6608f6c4     LIBCMT:crt0msg.obj
 0002:000176fc       ??_C@_0DF@IBLNNAIG@R6026?$AN?6?9?5not?5enough?5space?5for?5st@ 6608f6fc     LIBCMT:crt0msg.obj
 0002:00017734       ??_C@_0CG@IOHKGFNJ@R6025?$AN?6?9?5pure?5virtual?5function?5c@ 6608f734     LIBCMT:crt0msg.obj
 0002:0001775c       ??_C@_0DF@JIJJFJDC@R6024?$AN?6?9?5not?5enough?5space?5for?5_o@ 6608f75c     LIBCMT:crt0msg.obj
 0002:00017794       ??_C@_0CJ@EGEJHFME@R6019?$AN?6?9?5unable?5to?5open?5console?5@ 6608f794     LIBCMT:crt0msg.obj
 0002:000177c0       ??_C@_0CB@GNHNIELH@R6018?$AN?6?9?5unexpected?5heap?5error?$AN?6@ 6608f7c0     LIBCMT:crt0msg.obj
 0002:000177e4       ??_C@_0CN@FOLDKNG@R6017?$AN?6?9?5unexpected?5multithread?5@ 6608f7e4     LIBCMT:crt0msg.obj
 0002:00017814       ??_C@_0CM@FAHFJNHO@R6016?$AN?6?9?5not?5enough?5space?5for?5th@ 6608f814     LIBCMT:crt0msg.obj
 0002:00017840       ??_C@_0JG@LBKMGKLD@?$AN?6This?5application?5has?5requested@ 6608f840     LIBCMT:crt0msg.obj
 0002:000178d8       ??_C@_0CM@FLCNIPKK@R6009?$AN?6?9?5not?5enough?5space?5for?5en@ 6608f8d8     LIBCMT:crt0msg.obj
 0002:00017904       ??_C@_0CK@KMMJOAPP@R6008?$AN?6?9?5not?5enough?5space?5for?5ar@ 6608f904     LIBCMT:crt0msg.obj
 0002:00017930       ??_C@_0CN@LEKKICBM@R6002?$AN?6?9?5floating?5point?5support?5@ 6608f930     LIBCMT:crt0msg.obj
 0002:00017960       ??_C@_0CF@GOGNBNAK@Microsoft?5Visual?5C?$CL?$CL?5Runtime?5Lib@ 6608f960     LIBCMT:crt0msg.obj
 0002:00017988       ??_C@_02PHMGELLB@?6?6?$AA@ 6608f988     LIBCMT:crt0msg.obj
 0002:0001798c       ??_C@_03KHICJKCI@?4?4?4?$AA@ 6608f98c     LIBCMT:crt0msg.obj
 0002:00017990       ??_C@_0BH@DNAGHKFM@?$DMprogram?5name?5unknown?$DO?$AA@ 6608f990     LIBCMT:crt0msg.obj
 0002:000179a8       ??_C@_0BK@OFGJDLJJ@Runtime?5Error?$CB?6?6Program?3?5?$AA@ 6608f9a8     LIBCMT:crt0msg.obj
 0002:000179c8       ??_7exception@std@@6B@     6608f9c8     LIBCMT:stdexcpt.obj
 0002:000179d0       ??_C@_0BC@EOODALEL@Unknown?5exception?$AA@ 6608f9d0     LIBCMT:stdexcpt.obj
 0002:000179e8       ??_7type_info@@6B@         6608f9e8     LIBCMT:typinfo.obj
 0002:00017a0c       ??_C@_04PNGHFIJN@?4com?$AA@ 6608fa0c     LIBCMT:stat.obj
 0002:00017a14       ??_C@_04NEEFLLOK@?4bat?$AA@ 6608fa14     LIBCMT:stat.obj
 0002:00017a1c       ??_C@_04CPCBDHLK@?4cmd?$AA@ 6608fa1c     LIBCMT:stat.obj
 0002:00017a24       ??_C@_04JLMDILM@?4exe?$AA@ 6608fa24     LIBCMT:stat.obj
 0002:00017a58       __DEFAULT_CW_in_mem        6608fa58     LIBCMT:_common_.obj
 0002:00017a5a       __pi_by_2_to_61            6608fa5a     LIBCMT:_common_.obj
 0002:00018bf0       __XcptActTab               66090bf0     LIBCMT:winxfltr.obj
 0002:00018c68       ___newctype                66090c68     LIBCMT:ctype.obj
 0002:00018f68       __wctype                   66090f68     LIBCMT:ctype.obj
 0002:00019170       ___newclmap                66091170     LIBCMT:ctype.obj
 0002:000192f0       ___newcumap                660912f0     LIBCMT:ctype.obj
 0002:00019470       ??_C@_08JCCMCCIL@HH?3mm?3ss?$AA@ 66091470     LIBCMT:strftime.obj
 0002:0001947c       ??_C@_0BE@CKGJFCPC@dddd?0?5MMMM?5dd?0?5yyyy?$AA@ 6609147c     LIBCMT:strftime.obj
 0002:00019490       ??_C@_08BPBNCDIB@MM?1dd?1yy?$AA@ 66091490     LIBCMT:strftime.obj
 0002:0001949c       ??_C@_02CJNFDJBF@PM?$AA@   6609149c     LIBCMT:strftime.obj
 0002:000194a0       ??_C@_02DEDBPAFC@AM?$AA@   660914a0     LIBCMT:strftime.obj
 0002:000194a4       ??_C@_08EDHMEBNP@December?$AA@ 660914a4     LIBCMT:strftime.obj
 0002:000194b0       ??_C@_08HCHEGEOA@November?$AA@ 660914b0     LIBCMT:strftime.obj
 0002:000194bc       ??_C@_07JJNFCEND@October?$AA@ 660914bc     LIBCMT:strftime.obj
 0002:000194c4       ??_C@_09BHHEALKD@September?$AA@ 660914c4     LIBCMT:strftime.obj
 0002:000194d0       ??_C@_06LBBHFDDG@August?$AA@ 660914d0     LIBCMT:strftime.obj
 0002:000194d8       ??_C@_04MIEPOIFP@July?$AA@ 660914d8     LIBCMT:strftime.obj
 0002:000194e0       ??_C@_04CNLMGBGM@June?$AA@ 660914e0     LIBCMT:strftime.obj
 0002:000194e8       ??_C@_05DMJDNLEJ@April?$AA@ 660914e8     LIBCMT:strftime.obj
 0002:000194f0       ??_C@_05HPCKOFNC@March?$AA@ 660914f0     LIBCMT:strftime.obj
 0002:000194f8       ??_C@_08GNJGEPFN@February?$AA@ 660914f8     LIBCMT:strftime.obj
 0002:00019504       ??_C@_07CGJPFGJA@January?$AA@ 66091504     LIBCMT:strftime.obj
 0002:0001950c       ??_C@_03MKABNOCG@Dec?$AA@  6609150c     LIBCMT:strftime.obj
 0002:00019510       ??_C@_03JPJOFNIA@Nov?$AA@  66091510     LIBCMT:strftime.obj
 0002:00019514       ??_C@_03BMAOKBAD@Oct?$AA@  66091514     LIBCMT:strftime.obj
 0002:00019518       ??_C@_03GGCAPAJC@Sep?$AA@  66091518     LIBCMT:strftime.obj
 0002:0001951c       ??_C@_03IFJFEIGA@Aug?$AA@  6609151c     LIBCMT:strftime.obj
 0002:00019520       ??_C@_03LBGABGKK@Jul?$AA@  66091520     LIBCMT:strftime.obj
 0002:00019524       ??_C@_03IDFGHECI@Jun?$AA@  66091524     LIBCMT:strftime.obj
 0002:00019528       ??_C@_03CNMDKL@May?$AA@    66091528     LIBCMT:strftime.obj
 0002:0001952c       ??_C@_03LEOLGMJP@Apr?$AA@  6609152c     LIBCMT:strftime.obj
 0002:00019530       ??_C@_03ODNJBKGA@Mar?$AA@  66091530     LIBCMT:strftime.obj
 0002:00019534       ??_C@_03HJBDCHOM@Feb?$AA@  66091534     LIBCMT:strftime.obj
 0002:00019538       ??_C@_03JIHJHPIE@Jan?$AA@  66091538     LIBCMT:strftime.obj
 0002:0001953c       ??_C@_08INBOOONO@Saturday?$AA@ 6609153c     LIBCMT:strftime.obj
 0002:00019548       ??_C@_06JECMNKMI@Friday?$AA@ 66091548     LIBCMT:strftime.obj
 0002:00019550       ??_C@_08HACCIKIA@Thursday?$AA@ 66091550     LIBCMT:strftime.obj
 0002:0001955c       ??_C@_09DLIGFAKA@Wednesday?$AA@ 6609155c     LIBCMT:strftime.obj
 0002:00019568       ??_C@_07BAAGCFCM@Tuesday?$AA@ 66091568     LIBCMT:strftime.obj
 0002:00019570       ??_C@_06JLEDEDGH@Monday?$AA@ 66091570     LIBCMT:strftime.obj
 0002:00019578       ??_C@_06OOPIFAJ@Sunday?$AA@ 66091578     LIBCMT:strftime.obj
 0002:00019580       ??_C@_03FEFJNEK@Sat?$AA@   66091580     LIBCMT:strftime.obj
 0002:00019584       ??_C@_03IDIOELNC@Fri?$AA@  66091584     LIBCMT:strftime.obj
 0002:00019588       ??_C@_03IOFIKPDN@Thu?$AA@  66091588     LIBCMT:strftime.obj
 0002:0001958c       ??_C@_03MHOMLAJA@Wed?$AA@  6609158c     LIBCMT:strftime.obj
 0002:00019590       ??_C@_03NAGEINEP@Tue?$AA@  66091590     LIBCMT:strftime.obj
 0002:00019594       ??_C@_03PDAGKDH@Mon?$AA@   66091594     LIBCMT:strftime.obj
 0002:00019598       ??_C@_03KOEHGMDN@Sun?$AA@  66091598     LIBCMT:strftime.obj
 0002:000195a0       ___lookuptable_s           660915a0     LIBCMT:outputs.obj
 0002:000195fc       ??_C@_0BI@DFKBFLJE@GetProcessWindowStation?$AA@ 660915fc     LIBCMT:crtmbox.obj
 0002:00019614       ??_C@_0BK@CIDNPOGP@GetUserObjectInformationA?$AA@ 66091614     LIBCMT:crtmbox.obj
 0002:00019630       ??_C@_0BD@HHGDFDBJ@GetLastActivePopup?$AA@ 66091630     LIBCMT:crtmbox.obj
 0002:00019644       ??_C@_0BA@HNOPNCHB@GetActiveWindow?$AA@ 66091644     LIBCMT:crtmbox.obj
 0002:00019654       ??_C@_0M@CHKKJDAI@MessageBoxA?$AA@ 66091654     LIBCMT:crtmbox.obj
 0002:00019660       ??_C@_0L@NDEGIDAG@USER32?4DLL?$AA@ 66091660     LIBCMT:crtmbox.obj
 0002:0001966c       ??_C@_02CLFPBFFP@TZ?$AA@   6609166c     LIBCMT:tzset.obj
 0002:00019670       ___dnames                  66091670     LIBCMT:timeset.obj
 0002:00019688       ___mnames                  66091688     LIBCMT:timeset.obj
 0002:000196b0       ??_C@_07GPDNMNG@CONOUT$?$AA@ 660916b0     LIBCMT:initcon.obj
 0002:000196b8       ??_C@_06IMKFLFPG@1?$CDQNAN?$AA@ 660916b8     LIBCMT:_x10fout_.obj
 0002:000196c0       ??_C@_05DNEBIAHO@1?$CDINF?$AA@ 660916c0     LIBCMT:_x10fout_.obj
 0002:000196c8       ??_C@_05PHHOCPM@1?$CDIND?$AA@ 660916c8     LIBCMT:_x10fout_.obj
 0002:000196d0       ??_C@_06PGGFOGJG@1?$CDSNAN?$AA@ 660916d0     LIBCMT:_x10fout_.obj
 0002:000196d8       ??_C@_0BK@CFCOFLF@?5Complete?5Object?5Locator?8?$AA@ 660916d8     LIBCMT:undname.obj
 0002:000196f4       ??_C@_0BN@MECKDCOJ@?5Class?5Hierarchy?5Descriptor?8?$AA@ 660916f4     LIBCMT:undname.obj
 0002:00019714       ??_C@_0BD@LGICGFMM@?5Base?5Class?5Array?8?$AA@ 66091714     LIBCMT:undname.obj
 0002:00019728       ??_C@_0BM@LDKODKLH@?5Base?5Class?5Descriptor?5at?5?$CI?$AA@ 66091728     LIBCMT:undname.obj
 0002:00019744       ??_C@_0BC@DAFEJGAK@?5Type?5Descriptor?8?$AA@ 66091744     LIBCMT:undname.obj
 0002:00019758       ??_C@_0BM@PMGGMLDN@?$GAlocal?5static?5thread?5guard?8?$AA@ 66091758     LIBCMT:undname.obj
 0002:00019774       ??_C@_0CL@FGIJHLCE@?$GAmanaged?5vector?5copy?5constructor@ 66091774     LIBCMT:undname.obj
 0002:000197a0       ??_C@_0CJ@GJELGAMM@?$GAvector?5vbase?5copy?5constructor?5i@ 660917a0     LIBCMT:undname.obj
 0002:000197cc       ??_C@_0CD@CGAJBKEJ@?$GAvector?5copy?5constructor?5iterato@ 660917cc     LIBCMT:undname.obj
 0002:000197f0       ??_C@_0CB@PDBIFEP@?$GAdynamic?5atexit?5destructor?5for?5?8@ 660917f0     LIBCMT:undname.obj
 0002:00019814       ??_C@_0BL@CLIPGLGB@?$GAdynamic?5initializer?5for?5?8?$AA@ 66091814     LIBCMT:undname.obj
 0002:00019830       ??_C@_0CM@FCBBDIGB@?$GAeh?5vector?5vbase?5copy?5constructo@ 66091830     LIBCMT:undname.obj
 0002:0001985c       ??_C@_0CG@HLDDJMAG@?$GAeh?5vector?5copy?5constructor?5iter@ 6609185c     LIBCMT:undname.obj
 0002:00019884       ??_C@_0CF@IMGKMJNO@?$GAmanaged?5vector?5destructor?5itera@ 66091884     LIBCMT:undname.obj
 0002:000198ac       ??_C@_0CG@CFDHKGGD@?$GAmanaged?5vector?5constructor?5iter@ 660918ac     LIBCMT:undname.obj
 0002:000198d4       ??_C@_0BN@CKNJLHMB@?$GAplacement?5delete?$FL?$FN?5closure?8?$AA@ 660918d4     LIBCMT:undname.obj
 0002:000198f4       ??_C@_0BL@CNOONJFP@?$GAplacement?5delete?5closure?8?$AA@ 660918f4     LIBCMT:undname.obj
 0002:00019910       ??_C@_0P@HJKNJFNN@?$GAomni?5callsig?8?$AA@ 66091910     LIBCMT:undname.obj
 0002:00019920       ??_C@_09LBNFPBCA@?5delete?$FL?$FN?$AA@ 66091920     LIBCMT:undname.obj
 0002:0001992c       ??_C@_06FHBGPFGH@?5new?$FL?$FN?$AA@ 6609192c     LIBCMT:undname.obj
 0002:00019934       ??_C@_0CE@IIHCMGGL@?$GAlocal?5vftable?5constructor?5closu@ 66091934     LIBCMT:undname.obj
 0002:00019958       ??_C@_0BA@KKLDJDLB@?$GAlocal?5vftable?8?$AA@ 66091958     LIBCMT:undname.obj
 0002:00019968       ??_C@_05KHLCHHI@?$GARTTI?$AA@ 66091968     LIBCMT:undname.obj
 0002:00019970       ??_C@_03KLGMFNMG@?$GAEH?$AA@ 66091970     LIBCMT:undname.obj
 0002:00019974       ??_C@_0BA@KBCDOMBN@?$GAudt?5returning?8?$AA@ 66091974     LIBCMT:undname.obj
 0002:00019984       ??_C@_0BL@LLKPOHJI@?$GAcopy?5constructor?5closure?8?$AA@ 66091984     LIBCMT:undname.obj
 0002:000199a0       ??_C@_0CH@OOJPLCPH@?$GAeh?5vector?5vbase?5constructor?5ite@ 660919a0     LIBCMT:undname.obj
 0002:000199c8       ??_C@_0CA@GCEOPDGL@?$GAeh?5vector?5destructor?5iterator?8?$AA@ 660919c8     LIBCMT:undname.obj
 0002:000199e8       ??_C@_0CB@JONCMFFK@?$GAeh?5vector?5constructor?5iterator?8@ 660919e8     LIBCMT:undname.obj
 0002:00019a0c       ??_C@_0BL@NILFHHPC@?$GAvirtual?5displacement?5map?8?$AA@ 66091a0c     LIBCMT:undname.obj
 0002:00019a28       ??_C@_0CE@IKBNEHA@?$GAvector?5vbase?5constructor?5iterat@ 66091a28     LIBCMT:undname.obj
 0002:00019a4c       ??_C@_0BN@LFPFMEDL@?$GAvector?5destructor?5iterator?8?$AA@ 66091a4c     LIBCMT:undname.obj
 0002:00019a6c       ??_C@_0BO@PFGOCPJJ@?$GAvector?5constructor?5iterator?8?$AA@ 66091a6c     LIBCMT:undname.obj
 0002:00019a8c       ??_C@_0BN@IMDCHIKM@?$GAscalar?5deleting?5destructor?8?$AA@ 66091a8c     LIBCMT:undname.obj
 0002:00019aac       ??_C@_0BO@OBMKPJIG@?$GAdefault?5constructor?5closure?8?$AA@ 66091aac     LIBCMT:undname.obj
 0002:00019acc       ??_C@_0BN@DEGPLNFK@?$GAvector?5deleting?5destructor?8?$AA@ 66091acc     LIBCMT:undname.obj
 0002:00019aec       ??_C@_0BD@JDLKDPAB@?$GAvbase?5destructor?8?$AA@ 66091aec     LIBCMT:undname.obj
 0002:00019b00       ??_C@_08OBABFOLI@?$GAstring?8?$AA@ 66091b00     LIBCMT:undname.obj
 0002:00019b0c       ??_C@_0BF@KDPPACIK@?$GAlocal?5static?5guard?8?$AA@ 66091b0c     LIBCMT:undname.obj
 0002:00019b24       ??_C@_08LLFFHHDJ@?$GAtypeof?8?$AA@ 66091b24     LIBCMT:undname.obj
 0002:00019b30       ??_C@_07FEEIOKP@?$GAvcall?8?$AA@ 66091b30     LIBCMT:undname.obj
 0002:00019b38       ??_C@_09BLBHBJP@?$GAvbtable?8?$AA@ 66091b38     LIBCMT:undname.obj
 0002:00019b44       ??_C@_09IFPLHPGF@?$GAvftable?8?$AA@ 66091b44     LIBCMT:undname.obj
 0002:00019b50       ??_C@_02MHEGNOJ@?$FO?$DN?$AA@ 66091b50     LIBCMT:undname.obj
 0002:00019b54       ??_C@_02DHLNPPGH@?$HM?$DN?$AA@ 66091b54     LIBCMT:undname.obj
 0002:00019b58       ??_C@_02FGJGFEAB@?$CG?$DN?$AA@ 66091b58     LIBCMT:undname.obj
 0002:00019b5c       ??_C@_03CDNPDDLA@?$DM?$DM?$DN?$AA@ 66091b5c     LIBCMT:undname.obj
 0002:00019b60       ??_C@_03IKFCCPFF@?$DO?$DO?$DN?$AA@ 66091b60     LIBCMT:undname.obj
 0002:00019b64       ??_C@_02FENAOKFI@?$CF?$DN?$AA@ 66091b64     LIBCMT:undname.obj
 0002:00019b68       ??_C@_02FJEHGPIO@?1?$DN?$AA@ 66091b68     LIBCMT:undname.obj
 0002:00019b6c       ??_C@_02FKMDLLOA@?9?$DN?$AA@ 66091b6c     LIBCMT:undname.obj
 0002:00019b70       ??_C@_02FOEOMHFC@?$CL?$DN?$AA@ 66091b70     LIBCMT:undname.obj
 0002:00019b74       ??_C@_02FPIMKNGF@?$CK?$DN?$AA@ 66091b74     LIBCMT:undname.obj
 0002:00019b78       ??_C@_02NONPIBCD@?$HM?$HM?$AA@ 66091b78     LIBCMT:undname.obj
 0002:00019b7c       ??_C@_02PPKAJPJL@?$CG?$CG?$AA@ 66091b7c     LIBCMT:undname.obj
 0002:00019b80       ??_C@_01DNKMNLPK@?$HM?$AA@ 66091b80     LIBCMT:undname.obj
 0002:00019b84       ??_C@_01JKBOJNNK@?$FO?$AA@ 66091b84     LIBCMT:undname.obj
 0002:00019b88       ??_C@_01PJKLJHI@?$HO?$AA@  66091b88     LIBCMT:undname.obj
 0002:00019b8c       ??_C@_02HCKGKOFO@?$CI?$CJ?$AA@ 66091b8c     LIBCMT:undname.obj
 0002:00019b90       ??_C@_01IHBHIGKO@?0?$AA@   66091b90     LIBCMT:undname.obj
 0002:00019b94       ??_C@_02EEKDKGMJ@?$DO?$DN?$AA@ 66091b94     LIBCMT:undname.obj
 0002:00019b98       ??_C@_01PPODPGHN@?$DO?$AA@ 66091b98     LIBCMT:undname.obj
 0002:00019b9c       ??_C@_02EHCHHCKH@?$DM?$DN?$AA@ 66091b9c     LIBCMT:undname.obj
 0002:00019ba0       ??_C@_01MNNFJEPP@?$DM?$AA@ 66091ba0     LIBCMT:undname.obj
 0002:00019ba4       ??_C@_01FGNFDNOH@?$CF?$AA@ 66091ba4     LIBCMT:undname.obj
 0002:00019ba8       ??_C@_01KMDKNFGN@?1?$AA@   66091ba8     LIBCMT:undname.obj
 0002:00019bac       ??_C@_03MNHNFDLC@?9?$DO?$CK?$AA@ 66091bac     LIBCMT:undname.obj
 0002:00019bb0       ??_C@_01HNPIGOCE@?$CG?$AA@ 66091bb0     LIBCMT:undname.obj
 0002:00019bb4       ??_C@_01MIFGBAGJ@?$CL?$AA@ 66091bb4     LIBCMT:undname.obj
 0002:00019bb8       ??_C@_01JOAMLHOP@?9?$AA@   66091bb8     LIBCMT:undname.obj
 0002:00019bbc       ??_C@_02BAABKJLB@?9?9?$AA@ 66091bbc     LIBCMT:undname.obj
 0002:00019bc0       ??_C@_02ECNGHCIF@?$CL?$CL?$AA@ 66091bc0     LIBCMT:undname.obj
 0002:00019bc4       ??_C@_01NBENCBCI@?$CK?$AA@ 66091bc4     LIBCMT:undname.obj
 0002:00019bc8       ??_C@_02HBOOOICD@?9?$DO?$AA@ 66091bc8     LIBCMT:undname.obj
 0002:00019bcc       ??_C@_08LHJFAFGD@operator?$AA@ 66091bcc     LIBCMT:undname.obj
 0002:00019bd8       ??_C@_02GPECMEKF@?$FL?$FN?$AA@ 66091bd8     LIBCMT:undname.obj
 0002:00019bdc       ??_C@_02FDNJECIE@?$CB?$DN?$AA@ 66091bdc     LIBCMT:undname.obj
 0002:00019be0       ??_C@_02EGOFBIJA@?$DN?$DN?$AA@ 66091be0     LIBCMT:undname.obj
 0002:00019be4       ??_C@_01DCLJPIOD@?$CB?$AA@ 66091be4     LIBCMT:undname.obj
 0002:00019be8       ??_C@_02FODMEDOG@?$DM?$DM?$AA@ 66091be8     LIBCMT:undname.obj
 0002:00019bec       ??_C@_02GPIOPFAK@?$DO?$DO?$AA@ 66091bec     LIBCMT:undname.obj
 0002:00019bf0       ??_C@_07FPCDHGMM@?5delete?$AA@ 66091bf0     LIBCMT:undname.obj
 0002:00019bf8       ??_C@_04NIHEBCM@?5new?$AA@ 66091bf8     LIBCMT:undname.obj
 0002:00019c00       ??_C@_0M@GFIIJFMG@__unaligned?$AA@ 66091c00     LIBCMT:undname.obj
 0002:00019c0c       ??_C@_0L@PILCLIHE@__restrict?$AA@ 66091c0c     LIBCMT:undname.obj
 0002:00019c18       ??_C@_07JOMMBBKO@__ptr64?$AA@ 66091c18     LIBCMT:undname.obj
 0002:00019c20       ??_C@_09HIJEGCPM@__clrcall?$AA@ 66091c20     LIBCMT:undname.obj
 0002:00019c2c       ??_C@_0L@JMKHOMEK@__fastcall?$AA@ 66091c2c     LIBCMT:undname.obj
 0002:00019c38       ??_C@_0L@NPHFGOKO@__thiscall?$AA@ 66091c38     LIBCMT:undname.obj
 0002:00019c44       ??_C@_09IFJBGAPI@__stdcall?$AA@ 66091c44     LIBCMT:undname.obj
 0002:00019c50       ??_C@_08GHMPAG@__pascal?$AA@ 66091c50     LIBCMT:undname.obj
 0002:00019c5c       ??_C@_07KOLFKCDI@__cdecl?$AA@ 66091c5c     LIBCMT:undname.obj
 0002:00019c64       ??_C@_08EHJDFFNH@__based?$CI?$AA@ 66091c64     LIBCMT:undname.obj
 0002:00019df0       ??_C@_0L@KDOEJCKC@_nextafter?$AA@ 66091df0     LIBCMT:_fpexcept_.obj
 0002:00019dfc       ??_C@_05JGDBENOH@_logb?$AA@ 66091dfc     LIBCMT:_fpexcept_.obj
 0002:00019e04       ??_C@_03ONILCKOB@_yn?$AA@  66091e04     LIBCMT:_fpexcept_.obj
 0002:00019e08       ??_C@_03NAKIGLHK@_y1?$AA@  66091e08     LIBCMT:_fpexcept_.obj
 0002:00019e0c       ??_C@_03MJLDFKDL@_y0?$AA@  66091e0c     LIBCMT:_fpexcept_.obj
 0002:00019e10       ??_C@_05GKKHEGJL@frexp?$AA@ 66091e10     LIBCMT:_fpexcept_.obj
 0002:00019e18       ??_C@_04KEPJIHGP@fmod?$AA@ 66091e18     LIBCMT:_fpexcept_.obj
 0002:00019e20       ??_C@_06MEIMCGCF@_hypot?$AA@ 66091e20     LIBCMT:_fpexcept_.obj
 0002:00019e28       ??_C@_05KBKMEMPO@_cabs?$AA@ 66091e28     LIBCMT:_fpexcept_.obj
 0002:00019e30       ??_C@_05CEJMAHNP@ldexp?$AA@ 66091e30     LIBCMT:_fpexcept_.obj
 0002:00019e38       ??_C@_04EHEDPDJG@modf?$AA@ 66091e38     LIBCMT:_fpexcept_.obj
 0002:00019e40       ??_C@_04ODHECPBC@fabs?$AA@ 66091e40     LIBCMT:_fpexcept_.obj
 0002:00019e48       ??_C@_05PBJFFIGL@floor?$AA@ 66091e48     LIBCMT:_fpexcept_.obj
 0002:00019e50       ??_C@_04GFPJNGEK@ceil?$AA@ 66091e50     LIBCMT:_fpexcept_.obj
 0002:00019e58       ??_C@_03IIINPABG@tan?$AA@  66091e58     LIBCMT:_fpexcept_.obj
 0002:00019e5c       ??_C@_03LALBNOCG@cos?$AA@  66091e5c     LIBCMT:_fpexcept_.obj
 0002:00019e60       ??_C@_03BLEJJJBH@sin?$AA@  66091e60     LIBCMT:_fpexcept_.obj
 0002:00019e64       ??_C@_04EIAKFFMI@sqrt?$AA@ 66091e64     LIBCMT:_fpexcept_.obj
 0002:00019e6c       ??_C@_05KNGEOGJB@atan2?$AA@ 66091e6c     LIBCMT:_fpexcept_.obj
 0002:00019e74       ??_C@_04MLLJIGOK@atan?$AA@ 66091e74     LIBCMT:_fpexcept_.obj
 0002:00019e7c       ??_C@_04PDIFKINK@acos?$AA@ 66091e7c     LIBCMT:_fpexcept_.obj
 0002:00019e84       ??_C@_04FIHNOPOL@asin?$AA@ 66091e84     LIBCMT:_fpexcept_.obj
 0002:00019e8c       ??_C@_04FJHINJAO@tanh?$AA@ 66091e8c     LIBCMT:_fpexcept_.obj
 0002:00019e94       ??_C@_04HPJJNFIM@cosh?$AA@ 66091e94     LIBCMT:_fpexcept_.obj
 0002:00019e9c       ??_C@_04COOMCNPB@sinh?$AA@ 66091e9c     LIBCMT:_fpexcept_.obj
 0002:00019ea4       ??_C@_05HGHHAHAP@log10?$AA@ 66091ea4     LIBCMT:_fpexcept_.obj
 0002:00019eac       ??_C@_03MGHMBJCF@log?$AA@  66091eac     LIBCMT:_fpexcept_.obj
 0002:00019eb0       ??_C@_03JGHBODFD@pow?$AA@  66091eb0     LIBCMT:_fpexcept_.obj
 0002:00019eb4       ??_C@_03KHJOGHMM@exp?$AA@  66091eb4     LIBCMT:_fpexcept_.obj
 0002:00019eb8       __load_config_used         66091eb8     LIBCMT:loadcfg.obj
 0002:00019f00       ??_R4bad_alloc@std@@6B@    66091f00     LIBCMT:new.obj
 0002:00019f14       ??_R3bad_alloc@std@@8      66091f14     LIBCMT:new.obj
 0002:00019f24       ??_R2bad_alloc@std@@8      66091f24     LIBCMT:new.obj
 0002:00019f30       ??_R1A@?0A@EA@bad_alloc@std@@8 66091f30     LIBCMT:new.obj
 0002:00019f4c       ??_R1A@?0A@EA@exception@std@@8 66091f4c     LIBCMT:new.obj
 0002:00019f68       ??_R3exception@std@@8      66091f68     LIBCMT:new.obj
 0002:00019f78       ??_R2exception@std@@8      66091f78     LIBCMT:new.obj
 0002:00019f80       ??_R4exception@std@@6B@    66091f80     LIBCMT:stdexcpt.obj
 0002:00019f94       ??_R4type_info@@6B@        66091f94     LIBCMT:typinfo.obj
 0002:00019fa8       ??_R3type_info@@8          66091fa8     LIBCMT:typinfo.obj
 0002:00019fb8       ??_R2type_info@@8          66091fb8     LIBCMT:typinfo.obj
 0002:00019fc0       ??_R1A@?0A@EA@type_info@@8 66091fc0     LIBCMT:typinfo.obj
 0002:00019fe0       ___safe_se_handler_table   66091fe0     <linker-defined>
 0002:00019fec       ___rtc_iaa                 66091fec     LIBCMT:_initsect_.obj
 0002:00019ff0       ___rtc_izz                 66091ff0     LIBCMT:_initsect_.obj
 0002:00019ff4       ___rtc_taa                 66091ff4     LIBCMT:_initsect_.obj
 0002:00019ff8       ___rtc_tzz                 66091ff8     LIBCMT:_initsect_.obj
 0002:0001a1ec       __TI2?AVbad_alloc@std@@    660921ec     LIBCMT:new.obj
 0002:0001a1fc       __CTA2?AVbad_alloc@std@@   660921fc     LIBCMT:new.obj
 0002:0001a208       __CT??_R0?AVbad_alloc@std@@@8??0bad_alloc@std@@QAE@ABV01@@Z12 66092208     LIBCMT:new.obj
 0002:0001a224       __CT??_R0?AVexception@std@@@8??0exception@std@@QAE@ABV01@@Z12 66092224     LIBCMT:new.obj
 0002:0001a734       __IMPORT_DESCRIPTOR_KERNEL32 66092734     kernel32:KERNEL32.dll
 0002:0001a748       __IMPORT_DESCRIPTOR_USER32 66092748     user32:USER32.dll
 0002:0001a75c       __IMPORT_DESCRIPTOR_PSAPI  6609275c     psapi:PSAPI.DLL
 0002:0001a770       __IMPORT_DESCRIPTOR_IMM32  66092770     imm32:IMM32.dll
 0002:0001a784       __NULL_IMPORT_DESCRIPTOR   66092784     kernel32:KERNEL32.dll
 0003:00000000       ?szRuntimePath@@3PADA      66094000     config.obj
 0003:00000100       ?fShowCheckInfo@@3HA       66094100     config.obj
 0003:00000104       ?fLoadItemColours@@3HA     66094104     config.obj
 0003:00000108       ?mainMenuMsgTimeout@@3HA   66094108     config.obj
 0003:00000790       ?dwGameWindowId@@3HA       66094790     DllMain.obj
 0003:00000798       ?dwGameLng@@3HA            66094798     install.obj
 0003:0000079c       ?fFixSocketError@@3HA      6609479c     install.obj
 0003:000007a0       ?tReloadDll@@3UToggleVar@@A 660947a0     install.obj
 0003:000007d0       ?tReloadConfig@@3UToggleVar@@A 660947d0     install.obj
 0003:00000800       ?tInstallPatches@@3UToggleVar@@A 66094800     install.obj
 0003:000009cc       ?dwPetListChangeCount@@3HA 660949cc     common.obj
 0003:000009d0       ?skillTypes@@3PAY0BO@HA    660949d0     common.obj
 0003:00000d18       ?tShowTestInfo@@3UToggleVar@@A 66094d18     dbg.obj
 0003:00000d50       ?fPlayerInTown@@3HA        66094d50     loop.obj
 0003:00000d54       ?actlvls@@3PAHA            66094d54     loop.obj
 0003:00000d6c       ?dwCurrentLevel@@3HA       66094d6c     loop.obj
 0003:00000d70       ?dwLeftSkill@@3HA          66094d70     loop.obj
 0003:00000d74       ?dwRightSkill@@3HA         66094d74     loop.obj
 0003:00000d78       ?fCanUseLeftSkill@@3HA     66094d78     loop.obj
 0003:00000d7c       ?fCanUseRightSkill@@3HA    66094d7c     loop.obj
 0003:00000d80       ?dwSlowMs@@3HA             66094d80     loop.obj
 0003:00000d84       ?dwSlowSkipMs@@3HA         66094d84     loop.obj
 0003:00000ecc       ?dwAutoRevealMode@@3HA     66094ecc     map.obj
 0003:00000ed0       ?tRevealAct@@3UToggleVar@@A 66094ed0     map.obj
 0003:00000f00       ?tRevealLevel@@3UToggleVar@@A 66094f00     map.obj
 0003:00000f30       ?tPrevMapTarget@@3UToggleVar@@A 66094f30     map.obj
 0003:00000f60       ?tNextMapTarget@@3UToggleVar@@A 66094f60     map.obj
 0003:00000f90       ?tAutomapLevelNames@@3UToggleVar@@A 66094f90     map.obj
 0003:00000fc0       ?tAutoMap@@3UToggleVar@@A  66094fc0     map.obj
 0003:00000ff0       ?tMiniShrine@@3UToggleVar@@A 66094ff0     map.obj
 0003:00001020       ?tAutomapActiveRect@@3UToggleVar@@A 66095020     map.obj
 0003:00001050       ?tAutomapReadyRect@@3UToggleVar@@A 66095050     map.obj
 0003:00001080       ?tAutomapScreenArea@@3UToggleVar@@A 66095080     map.obj
 0003:000010b0       ?nAutomapActiveRectColors@@3EA 660950b0     map.obj
 0003:000010b1       ?nAutomapReadyRectColors@@3EA 660950b1     map.obj
 0003:000010b2       ?nAutomapScreenColors@@3EA 660950b2     map.obj
 0003:000010b3       ?nMinimapSize@@3EA         660950b3     map.obj
 0003:000010b4       ?routeLineColor@@3EA       660950b4     map.obj
 0003:000010b5       ?fAutomapPartyDefault@@3EA 660950b5     map.obj
 0003:000010b6       ?fAutomapNamesDefault@@3EA 660950b6     map.obj
 0003:000010b7       ?nHostileMissileColor@@3EA 660950b7     map.obj
 0003:000010b8       ?tMinimapDirectLineToggle@@3UToggleVar@@A 660950b8     map.obj
 0003:000010e8       ?tMinimapDebugToggle@@3UToggleVar@@A 660950e8     map.obj
 0003:00001118       ?tAutomapCorpse@@3UToggleVar@@A 66095118     map.obj
 0003:00001148       ?tAutomapMonsters@@3UToggleVar@@A 66095148     map.obj
 0003:00001178       ?tAutomapChests@@3UToggleVar@@A 66095178     map.obj
 0003:000011a8       ?tAutomapMissiles@@3UToggleVar@@A 660951a8     map.obj
 0003:000011d8       ?tAutomapItems@@3UToggleVar@@A 660951d8     map.obj
 0003:00001208       ?nGuidedMissileColor@@3EA  66095208     map.obj
 0003:00001209       ?nTracerMissileColor@@3EA  66095209     map.obj
 0003:0000120a       ?nOtherMissileColor@@3EA   6609520a     map.obj
 0003:0000120b       ?nClosedChestColor@@3EA    6609520b     map.obj
 0003:0000120c       ?nLockedChestColor@@3EA    6609520c     map.obj
 0003:0000120d       ?nNormalCorpseColor@@3EA   6609520d     map.obj
 0003:0000120e       ?nBossCorpseColor@@3EA     6609520e     map.obj
 0003:0000120f       ?nMinionCorpseColor@@3EA   6609520f     map.obj
 0003:00001210       ?nChampionCorpseColor@@3EA 66095210     map.obj
 0003:00001211       ?nMonsterNormalColor@@3EA  66095211     map.obj
 0003:00001212       ?nMonsterBossColor@@3EA    66095212     map.obj
 0003:00001213       ?nMonsterMinionColor@@3EA  66095213     map.obj
 0003:00001214       ?nMonsterChampColor@@3EA   66095214     map.obj
 0003:00001215       ?nSuperUniqueColor@@3EA    66095215     map.obj
 0003:00001216       ?nNeutralPlayerColor@@3EA  66095216     map.obj
 0003:00001217       ?nHostilePlayerColor@@3EA  66095217     map.obj
 0003:00001218       ?nFriendMinionColor@@3EA   66095218     map.obj
 0003:00001219       ?nPlayerMinionColor@@3EA   66095219     map.obj
 0003:0000121a       ?nPartyTextColour@@3EA     6609521a     map.obj
 0003:0000121b       ?nNeutralTextColour@@3EA   6609521b     map.obj
 0003:0000121c       ?nHostileTextColour@@3EA   6609521c     map.obj
 0003:0000121d       ?nMonsterTextCol@@3EA      6609521d     map.obj
 0003:00001220       ?tBossNameToggle@@3UToggleVar@@A 66095220     map.obj
 0003:00001250       ?tScreenshake@@3UToggleVar@@A 66095250     map.obj
 0003:00001280       ?tCenterMap@@3UToggleVar@@A 66095280     map.obj
 0003:000012b0       ?nScrollMode@@3HA          660952b0     map.obj
 0003:000012b4       ?dwDuranceOfHateLevel3TeleportShift@@3PAHA 660952b4     map.obj
 0003:000012c0       ?dwDuranceOfHateLevel3TeleportShiftBugKM@@3PAHA 660952c0     map.obj
 0003:000026f0       ?dwSocketTimeOutSec@@3HA   660966f0     packet.obj
 0003:000026f4       ?dwSocketTimeOut@@3HA      660966f4     packet.obj
 0003:000026f8       ?dwAddStatMaxCount@@3HA    660966f8     packet.obj
 0003:000026fc       ?tPacketHandler@@3UToggleVar@@A 660966fc     packet.obj
 0003:0000272c       ?tDoTest@@3UToggleVar@@A   6609672c     packet.obj
 0003:0000275c       ?tNecTeleportAttract@@3UToggleVar@@A 6609675c     packet.obj
 0003:0000278c       ?tHardCoreSwapWeaponProtect@@3UToggleVar@@A 6609678c     packet.obj
 0003:00002920       ?tAutomapRouteInfo@@3UToggleVar@@A 66096920     route.obj
 0003:00002950       ?tScreenRouteGuide@@3UToggleVar@@A 66096950     route.obj
 0003:00002980       ?tReroute@@3UToggleVar@@A  66096980     route.obj
 0003:00002b40       ?fWinActive@@3HA           66096b40     winmsg.obj
 0003:00002b44       ?dwQuickSwapItemDelayMs@@3HA 66096b44     winmsg.obj
 0003:00002b48       ?dwAutoCallToArm@@3HA      66096b48     winmsg.obj
 0003:00002b4c       ?tLockMouseToggle@@3UToggleVar@@A 66096b4c     winmsg.obj
 0003:00002b7c       ?tHardCoreEscapeProtect@@3UToggleVar@@A 66096b7c     winmsg.obj
 0003:00002bac       ?tAutoHideMinimapToggle@@3UToggleVar@@A 66096bac     winmsg.obj
 0003:00002bdc       ?tAutoMinimapTeleportToggle@@3UToggleVar@@A 66096bdc     winmsg.obj
 0003:00002c0c       ?tFullScreen@@3UToggleVar@@A 66096c0c     winmsg.obj
 0003:00002c3c       ?tFullScreenNoCaption@@3UToggleVar@@A 66096c3c     winmsg.obj
 0003:00002c6c       ?tResizeWindowBar@@3UToggleVar@@A 66096c6c     winmsg.obj
 0003:00002c9c       ?tAttractNPC@@3UToggleVar@@A 66096c9c     winmsg.obj
 0003:00002ccc       ?tEnableScreenSaver@@3UToggleVar@@A 66096ccc     winmsg.obj
 0003:00002cfc       ?tEnableMenuScreenSaver@@3UToggleVar@@A 66096cfc     winmsg.obj
 0003:00002d2c       ?tNoHide@@3UToggleVar@@A   66096d2c     winmsg.obj
 0003:00002d5c       ?tSaveGame@@3UToggleVar@@A 66096d5c     winmsg.obj
 0003:00003390       ?newTextBoxData@@3PAKA     66097390     winmsg.obj
 0003:000033c0       ?tChangeVisualEffect@@3UToggleVar@@A 660973c0     env.obj
 0003:000033f0       ?tWeather@@3UToggleVar@@A  660973f0     env.obj
 0003:00003420       ?tHiddenCorpse@@3UToggleVar@@A 66097420     env.obj
 0003:00003450       ?tSkipDrawToggle@@3UToggleVar@@A 66097450     env.obj
 0003:00003480       ?tHide3BB@@3UToggleVar@@A  66097480     env.obj
 0003:00003640       ?simpleItemStackTxt@@3HA   66097640     GameMonitor.obj
 0003:00003644       ?simpleItemStackIdx@@3HA   66097644     GameMonitor.obj
 0003:00003648       ?simpleItemStackStatId@@3HA 66097648     GameMonitor.obj
 0003:0000364c       ?changeStashPageCmd@@3HA   6609764c     GameMonitor.obj
 0003:00003650       ?changeStashPageCmdOffset@@3HA 66097650     GameMonitor.obj
 0003:00003654       ?changeStashPageCmdValue@@3HA 66097654     GameMonitor.obj
 0003:00003658       ?changeStashPageValueOffset@@3HA 66097658     GameMonitor.obj
 0003:000036a4       ?tCountDown@@3UToggleVar@@A 660976a4     GameMonitor.obj
 0003:000036d4       ?tDrawMultiPageStashCount@@3UToggleVar@@A 660976d4     GameMonitor.obj
 0003:00003704       ?dwGameMonitorX@@3HA       66097704     GameMonitor.obj
 0003:00003708       ?dwGameMonitorY@@3HA       66097708     GameMonitor.obj
 0003:0000370c       ?dwCountDownFontSize@@3HA  6609770c     GameMonitor.obj
 0003:00003710       ?dwCountDownGap@@3HA       66097710     GameMonitor.obj
 0003:00003714       ?dwCountDownFlashSecond@@3HA 66097714     GameMonitor.obj
 0003:00003718       ?tKillCount@@3UToggleVar@@A 66097718     GameMonitor.obj
 0003:00003748       ?tGetHitCount@@3UToggleVar@@A 66097748     GameMonitor.obj
 0003:00003778       ?tNecAutomapCorpsesToggle@@3UToggleVar@@A 66097778     GameMonitor.obj
 0003:000037a8       ?tDrawBossHpToggle@@3UToggleVar@@A 660977a8     GameMonitor.obj
 0003:000037d8       ?bossLineColor@@3HA        660977d8     GameMonitor.obj
 0003:000037dc       ?tDrawPlayerNameToggle@@3UToggleVar@@A 660977dc     GameMonitor.obj
 0003:0000380c       ?tAnalyzeMonsterExp@@3UToggleVar@@A 6609780c     GameMonitor.obj
 0003:0000383c       ?tLogMonsterExp@@3UToggleVar@@A 6609783c     GameMonitor.obj
 0003:0000386c       ?dwDrawPlayerNameDy@@3HA   6609786c     GameMonitor.obj
 0003:00003870       ?HasCowKing@@3HA           66097870     GameMonitor.obj
 0003:00003874       ?tShowPlayerCastPath@@3UToggleVar@@A 66097874     GameMonitor.obj
 0003:00003fe4       ?countDowns@@3PAPAUCountDown@@A 66097fe4     GameMonitor.obj
 0003:00004118       ?tServerIp@@3UToggleVar@@A 66098118     info.obj
 0003:00004148       ?tGameTime@@3UToggleVar@@A 66098148     info.obj
 0003:00004178       ?tClock@@3UToggleVar@@A    66098178     info.obj
 0003:000041a8       ?tLayerLevelNo@@3UToggleVar@@A 660981a8     info.obj
 0003:000041d8       ?tAreaLevel@@3UToggleVar@@A 660981d8     info.obj
 0003:00004208       ?tPermShowOrb@@3UToggleVar@@A 66098208     info.obj
 0003:00004238       ?tShowExp@@3UToggleVar@@A  66098238     info.obj
 0003:00004268       ?tShowPing@@3UToggleVar@@A 66098268     info.obj
 0003:00004298       ?tShowPartyPosition@@3UToggleVar@@A 66098298     info.obj
 0003:000042c8       ?tShowPartyLevel@@3UToggleVar@@A 660982c8     info.obj
 0003:000042f8       ?tViewEquipmentKey@@3UToggleVar@@A 660982f8     info.obj
 0003:00004328       ?tViewPlayerStatsKey@@3UToggleVar@@A 66098328     info.obj
 0003:00004358       ?tShowBaseStat@@3UToggleVar@@A 66098358     info.obj
 0003:00004388       ?tFirstPlayerStat@@3UToggleVar@@A 66098388     info.obj
 0003:000043b8       ?tNextPlayerStat@@3UToggleVar@@A 660983b8     info.obj
 0003:000043e8       ?tPrevPlayerStat@@3UToggleVar@@A 660983e8     info.obj
 0003:000046d8       ?szOrbPattern@@3PADA       660986d8     info.obj
 0003:000046dc       ?viewStatUnit@@3UViewUnitInfo@@A 660986dc     info.obj
 0003:000046ec       ?viewEquUnit@@3UViewUnitInfo@@A 660986ec     info.obj
 0003:000047d0       ?tLogMessage@@3UToggleVar@@A 660987d0     MessageLog.obj
 0003:00004800       ?dwMessageFileSize@@3HA    66098800     MessageLog.obj
 0003:00004860       ?anGoldGoodCol@@3PADA      66098860     item.obj
 0003:00004864       ?anGoldPoorCol@@3PADA      66098864     item.obj
 0003:00004868       ?tSwitchItemMode@@3UToggleVar@@A 66098868     item.obj
 0003:00004898       ?dwItemShowMode@@3HA       66098898     item.obj
 0003:0000489c       ?nQuestItemColour@@3EA     6609889c     item.obj
 0003:0000489d       ?nDefaultExtInfoColour@@3EA 6609889d     item.obj
 0003:000048a0       ?tRuneNumbers@@3UToggleVar@@A 660988a0     item.obj
 0003:000048d0       ?tSocketNumbers@@3UToggleVar@@A 660988d0     item.obj
 0003:00004900       ?tItemLevel@@3UToggleVar@@A 66098900     item.obj
 0003:00004930       ?tItemValue@@3UToggleVar@@A 66098930     item.obj
 0003:00004960       ?tItemIndex@@3UToggleVar@@A 66098960     item.obj
 0003:00004990       ?tItemFileIndex@@3UToggleVar@@A 66098990     item.obj
 0003:000049c0       ?tUnitNumber@@3UToggleVar@@A 660989c0     item.obj
 0003:000049f0       ?tItemQLevel@@3UToggleVar@@A 660989f0     item.obj
 0003:00004a20       ?tItemMLevel@@3UToggleVar@@A 66098a20     item.obj
 0003:00004a50       ?tItemALevel@@3UToggleVar@@A 66098a50     item.obj
 0003:00004a80       ?tAfterCube@@3UToggleVar@@A 66098a80     item.obj
 0003:00004ab0       ?tLifePerLevel@@3UToggleVar@@A 66098ab0     item.obj
 0003:00004ae0       ?dwItemValueNpc@@3PAHA     66098ae0     item.obj
 0003:00004af4       ?tShowBaseED@@3UToggleVar@@A 66098af4     item.obj
 0003:00004b24       ?tShowIdentifiedItem@@3UToggleVar@@A 66098b24     item.obj
 0003:00004b54       ?tHiddenItems@@3UToggleVar@@A 66098b54     item.obj
 0003:00004b84       ?tPermShowItems@@3UToggleVar@@A 66098b84     item.obj
 0003:00004bb4       ?tLockAltToggle@@3UToggleVar@@A 66098bb4     item.obj
 0003:00004be4       ?tItemBasicStat@@3UToggleVar@@A 66098be4     item.obj
 0003:00004c14       ?tViewSocketable@@3UToggleVar@@A 66098c14     item.obj
 0003:00004c44       ?tViewSocketBase@@3UToggleVar@@A 66098c44     item.obj
 0003:00004c74       ?tShowItemVariableProp@@3UToggleVar@@A 66098c74     item.obj
 0003:00004ca4       ?tSocketProtect@@3UToggleVar@@A 66098ca4     item.obj
 0003:00004cd4       ?tRunewordProtect@@3UToggleVar@@A 66098cd4     item.obj
 0003:00004d04       ?tDrawInvItemInfo@@3UToggleVar@@A 66098d04     item.obj
 0003:00004d34       ?tItemExtInfo@@3UToggleVar@@A 66098d34     item.obj
 0003:00004d64       ?maxTownPortalCount@@3HA   66098d64     item.obj
 0003:00004d68       ?maxIdentifyPortalCount@@3HA 66098d68     item.obj
 0003:00004d6c       ?batchSimpleItemStackCount@@3HA 66098d6c     item.obj
 0003:00004d70       ?tDrawSimpleItemStackCount@@3UToggleVar@@A 66098d70     item.obj
 0003:0000571c       ?dwAutoPotionCheckMs@@3HA  6609971c     dangerous.obj
 0003:00005720       ?dwHirePotionDelayMs@@3HA  66099720     dangerous.obj
 0003:00005724       ?dwManaPotionDelayMs@@3HA  66099724     dangerous.obj
 0003:00005728       ?nChickenLifeAction@@3HA   66099728     dangerous.obj
 0003:0000572c       ?tHealingPotion@@3UToggleVar@@A 6609972c     dangerous.obj
 0003:0000575c       ?tManaPotion@@3UToggleVar@@A 6609975c     dangerous.obj
 0003:0000578c       ?tChickenLife@@3UToggleVar@@A 6609978c     dangerous.obj
 0003:000057bc       ?tChickenHostile@@3UToggleVar@@A 660997bc     dangerous.obj
 0003:000057ec       ?tChickenHostileNearby@@3UToggleVar@@A 660997ec     dangerous.obj
 0003:0000581c       ?tChickenDangerousMonster@@3UToggleVar@@A 6609981c     dangerous.obj
 0003:0000584c       ?tAutoPotion@@3UToggleVar@@A 6609984c     dangerous.obj
 0003:0000587c       ?tHardCoreAllBackTownIfProtect@@3UToggleVar@@A 6609987c     dangerous.obj
 0003:000058ac       ?tHardCoreLeaveTownDurability@@3UToggleVar@@A 660998ac     dangerous.obj
 0003:000058dc       ?dwHardCoreLeaveTownDurabilityPercent@@3HA 660998dc     dangerous.obj
 0003:000058e0       ?dwChickenLifeForcedClevel@@3HA 660998e0     dangerous.obj
 0003:000058e4       ?dwNoQuitIfDeadClevel@@3HA 660998e4     dangerous.obj
 0003:000058e8       ?dwChickenLifeEnterGame@@3HA 660998e8     dangerous.obj
 0003:000058ec       ?nDangerousMonsterAction@@3HA 660998ec     dangerous.obj
 0003:00006040       ?dwBarbrianLeft@@3HA       6609a040     quest.obj
 0003:00006044       ?dwBugAlertTimes@@3HA      6609a044     quest.obj
 0003:00006048       ?tBugKCountess@@3UToggleVar@@A 6609a048     quest.obj
 0003:00006078       ?tBugKM@@3UToggleVar@@A    6609a078     quest.obj
 0003:000060a8       ?tBugKD@@3UToggleVar@@A    6609a0a8     quest.obj
 0003:000060d8       ?tBugKB@@3UToggleVar@@A    6609a0d8     quest.obj
 0003:00006108       ?tBugAutoQuit@@3UToggleVar@@A 6609a108     quest.obj
 0003:00006138       ?tBugAutoQuitHell@@3UToggleVar@@A 6609a138     quest.obj
 0003:00006168       ?tBugAutoQuitHellAct1@@3UToggleVar@@A 6609a168     quest.obj
 0003:00006198       ?tBugAutoQuitHellAct3@@3UToggleVar@@A 6609a198     quest.obj
 0003:000061c8       ?tBugAutoQuitHellAct4@@3UToggleVar@@A 6609a1c8     quest.obj
 0003:000061f8       ?tBugAutoQuitHellAct5@@3UToggleVar@@A 6609a1f8     quest.obj
 0003:00006228       ?tBugAutoQuitAct5@@3UToggleVar@@A 6609a228     quest.obj
 0003:00006258       ?tBugAllHellAlert@@3UToggleVar@@A 6609a258     quest.obj
 0003:00006288       ?tAlertNoBug@@3UToggleVar@@A 6609a288     quest.obj
 0003:000062b8       ?t3BBProtect@@3UToggleVar@@A 6609a2b8     quest.obj
 0003:00006698       ?tMonsterLevel@@3UToggleVar@@A 6609a698     lifebar.obj
 0003:000066c8       ?tMonsterTC@@3UToggleVar@@A 6609a6c8     lifebar.obj
 0003:000066f8       ?tMonsterRuneTC@@3UToggleVar@@A 6609a6f8     lifebar.obj
 0003:00006728       ?tMonsterResists@@3UToggleVar@@A 6609a728     lifebar.obj
 0003:00006758       ?tMonsterHPPercent@@3UToggleVar@@A 6609a758     lifebar.obj
 0003:00006788       ?tMonsterDistance@@3UToggleVar@@A 6609a788     lifebar.obj
 0003:000067b8       ?tMonsterID@@3UToggleVar@@A 6609a7b8     lifebar.obj
 0003:000067e8       ?tSPMonsterHP@@3UToggleVar@@A 6609a7e8     lifebar.obj
 0003:00006818       ?tSPMonsterExp@@3UToggleVar@@A 6609a818     lifebar.obj
 0003:00006848       ?nLifeBarTrans@@3EA        6609a848     lifebar.obj
 0003:00006849       ?nLifeBarColour@@3EA       6609a849     lifebar.obj
 0003:0000684c       ?tPlayerLevel@@3UToggleVar@@A 6609a84c     lifebar.obj
 0003:0000687c       ?tPlayerDistance@@3UToggleVar@@A 6609a87c     lifebar.obj
 0003:000068ac       ?tPlayerHPPercent@@3UToggleVar@@A 6609a8ac     lifebar.obj
 0003:00006c28       ?tDropProtectionToggle@@3UToggleVar@@A 6609ac28     DropProtection.obj
 0003:00006c58       ?tResetProtectionToggle@@3UToggleVar@@A 6609ac58     DropProtection.obj
 0003:00006c88       ?protectCharLv@@3HA        6609ac88     DropProtection.obj
 0003:00006df0       ?tWisperNotice@@3UToggleVar@@A 6609adf0     chat.obj
 0003:00006e20       ?tInputLine@@3UToggleVar@@A 6609ae20     chat.obj
 0003:00006e50       ?tUseCustomFont@@3UToggleVar@@A 6609ae50     chat.obj
 0003:00006e80       ?tQuickMessagePasteOnly@@3UToggleVar@@A 6609ae80     chat.obj
 0003:00007100       ?tOutTownSelect@@3UToggleVar@@A 6609b100     misc.obj
 0003:00007130       ?tULCMask@@3UToggleVar@@A  6609b130     misc.obj
 0003:000071e8       ?tMultiClient@@3UToggleVar@@A 6609b1e8     multi.obj
 0003:00007218       ?tMultiClientToggleFollow@@3UToggleVar@@A 6609b218     multi.obj
 0003:00007248       ?tMultiClientStartFollow1@@3UToggleVar@@A 6609b248     multi.obj
 0003:00007278       ?tMultiClientStartFollow2@@3UToggleVar@@A 6609b278     multi.obj
 0003:000072a8       ?tMultiClientStopFollow@@3UToggleVar@@A 6609b2a8     multi.obj
 0003:000072d8       ?tMultiClientEnterDoor@@3UToggleVar@@A 6609b2d8     multi.obj
 0003:00007308       ?tMultiClientRetreat@@3UToggleVar@@A 6609b308     multi.obj
 0003:00007338       ?tMultiClientClick@@3UToggleVar@@A 6609b338     multi.obj
 0003:00007368       ?tMultiClientClick2@@3UToggleVar@@A 6609b368     multi.obj
 0003:00007398       ?tMultiClientTalkToNpc@@3UToggleVar@@A 6609b398     multi.obj
 0003:000073c8       ?tMultiClientTp@@3UToggleVar@@A 6609b3c8     multi.obj
 0003:000073f8       ?dwMultiClientGroupSize1@@3HA 6609b3f8     multi.obj
 0003:000073fc       ?dwMultiClientGroupSize2@@3HA 6609b3fc     multi.obj
 0003:00007400       ?dwAutoFollowDistance@@3HA 6609b400     multi.obj
 0003:00007404       ?dwAutoFollowMaxDistance@@3HA 6609b404     multi.obj
 0003:00007408       ?dwAutoFollowMoveDistance@@3HA 6609b408     multi.obj
 0003:0000740c       ?dwAutoFollowCheckInterval@@3HA 6609b40c     multi.obj
 0003:00007410       ?dwAutoFollowClickObjectDelayMs@@3HA 6609b410     multi.obj
 0003:00007414       ?dwWaitTeamEnterPortalMaxDelayMs@@3HA 6609b414     multi.obj
 0003:00007418       ?tNecNoAttackInHell@@3UToggleVar@@A 6609b418     multi.obj
 0003:00007810       ?tNpcTradeShowInfo@@3UToggleVar@@A 6609b810     NpcTrade.obj
 0003:00007890       ?mAutoPartyDelays@@3HA     6609b890     party.obj
 0003:00007894       ?tAutoParty@@3UToggleVar@@A 6609b894     party.obj
 0003:000078c4       ?tAutoInviteLocal@@3UToggleVar@@A 6609b8c4     party.obj
 0003:000078f4       ?tAutoInviteRogue@@3UToggleVar@@A 6609b8f4     party.obj
 0003:00007924       ?tAutoInviteRogueMF@@3UToggleVar@@A 6609b924     party.obj
 0003:00007954       ?tAutoInviteRogueHC@@3UToggleVar@@A 6609b954     party.obj
 0003:00007984       ?tAutoPermit@@3UToggleVar@@A 6609b984     party.obj
 0003:000079b4       ?tAutoLocalPermit@@3UToggleVar@@A 6609b9b4     party.obj
 0003:000079e4       ?tAutoPartyBugMF@@3UToggleVar@@A 6609b9e4     party.obj
 0003:00007a14       ?tHardCoreBackTownIfAnyoneDie@@3UToggleVar@@A 6609ba14     party.obj
 0003:00007a44       ?autoPartyLevelRange@@3PAY01DA 6609ba44     party.obj
 0003:00007c38       ?nTownportalAlertNums@@3HA 6609bc38     quick.obj
 0003:00007c40       ?tBackToTown@@3UToggleVar@@A 6609bc40     quick.obj
 0003:00007c70       ?tExitGame@@3UToggleVar@@A 6609bc70     quick.obj
 0003:00007ca0       ?tQuickNextGame@@3UToggleVar@@A 6609bca0     quick.obj
 0003:00007cd0       ?tQuickNextGame2@@3UToggleVar@@A 6609bcd0     quick.obj
 0003:00007d00       ?tAllNextGame@@3UToggleVar@@A 6609bd00     quick.obj
 0003:00007d30       ?tAutoJoinGame@@3UToggleVar@@A 6609bd30     quick.obj
 0003:00007d60       ?tCancelAutoJoinIfForeground@@3UToggleVar@@A 6609bd60     quick.obj
 0003:00008058       ?tRightClickSwap@@3UToggleVar@@A 6609c058     QuickSwapItem.obj
 0003:00008088       ?tQuickDropToggle@@3UToggleVar@@A 6609c088     QuickSwapItem.obj
 0003:000080b8       ?tEnableGemAutoMerge@@3UToggleVar@@A 6609c0b8     QuickSwapItem.obj
 0003:000080e8       ?tEnableAutoSimpleItemStack@@3UToggleVar@@A 6609c0e8     QuickSwapItem.obj
 0003:00008230       ?tHighResolution@@3UToggleVar@@A 6609c230     resolution.obj
 0003:00008290       ?tAutoPickupToggle@@3UToggleVar@@A 6609c290     skill.obj
 0003:000082c0       ?tAutoEnchant@@3UToggleVar@@A 6609c2c0     skill.obj
 0003:000082f0       ?dwRenewEnchantMs@@3HA     6609c2f0     skill.obj
 0003:000082f4       ?dwAutoEnchantMana@@3HA    6609c2f4     skill.obj
 0003:000082f8       ?dwRenewEnchantMana@@3HA   6609c2f8     skill.obj
 0003:000082fc       ?dwAutoEnchantPlayerLevel@@3HA 6609c2fc     skill.obj
 0003:00008300       ?tAutoWarCry@@3UToggleVar@@A 6609c300     skill.obj
 0003:00008330       ?tAutoBackgroundSkill@@3UToggleVar@@A 6609c330     skill.obj
 0003:00008360       ?tAutoForegroundSkillToggle@@3UToggleVar@@A 6609c360     skill.obj
 0003:00008390       ?tAutoForegroundSkill@@3UToggleVar@@A 6609c390     skill.obj
 0003:000083c0       ?dwAutoSkillCheckInterval@@3HA 6609c3c0     skill.obj
 0003:000083c4       ?dwAutoSkillIdleDelay@@3HA 6609c3c4     skill.obj
 0003:000083c8       ?dwAutoThrowMinQuantity@@3HA 6609c3c8     skill.obj
 0003:000083cc       ?dwAutoStaticFieldHPPercent@@3HA 6609c3cc     skill.obj
 0003:000083d0       ?tAutoSummon@@3UToggleVar@@A 6609c3d0     skill.obj
 0003:00008400       ?tAutoSummonRevive@@3UToggleVar@@A 6609c400     skill.obj
 0003:00008430       ?tShowSummonInfo@@3UToggleVar@@A 6609c430     skill.obj
 0003:00008460       ?dwAutoSummonMana@@3HA     6609c460     skill.obj
 0003:00008464       ?dwSwitchSkillMs@@3HA      6609c464     skill.obj
 0003:00008468       ?dwAutoSummonSkeletonLevelAdjust@@3HA 6609c468     skill.obj
 0003:0000846c       ?dwAutoSummonSkeletonMageLevelAdjust@@3HA 6609c46c     skill.obj
 0003:00008470       ?dwAutoSummonReviveLevelAdjust@@3HA 6609c470     skill.obj
 0003:00008474       ?tAutoForegroundSkill2@@3UToggleVar@@A 6609c474     skill.obj
 0003:00008a94       ?showStatNum@@3HA          6609ca94     Snapshot.obj
 0003:00008a98       ?szSnapshotPath@@3PADA     6609ca98     Snapshot.obj
 0003:00008b98       ?szSnapshotNamesPath@@3PADA 6609cb98     Snapshot.obj
 0003:00008c98       ?tDoSnapshot@@3UToggleVar@@A 6609cc98     Snapshot.obj
 0003:00008cc8       ?tSnapshot@@3UToggleVar@@A 6609ccc8     Snapshot.obj
 0003:00008cf8       ?tSnapshotNewGame@@3UToggleVar@@A 6609ccf8     Snapshot.obj
 0003:00008d28       ?tSnapshotEndGame@@3UToggleVar@@A 6609cd28     Snapshot.obj
 0003:00008d58       ?tSnapshotLog@@3UToggleVar@@A 6609cd58     Snapshot.obj
 0003:00008d88       ?tSnapshotSaveD2s@@3UToggleVar@@A 6609cd88     Snapshot.obj
 0003:000091b0       ?tAutoTeleportEvade@@3UToggleVar@@A 6609d1b0     teleport.obj
 0003:00009730       ?tServerTest@@3UToggleVar@@A 6609d730     server.obj
 0003:00009760       ?tRepeatAdminCmd@@3UToggleVar@@A 6609d760     server.obj
 0003:00009790       ?tEnable2025Patch@@3UToggleVar@@A 6609d790     server.obj
 0003:000097e8       ?fEnableAdminCmd@@3HA      6609d7e8     server.obj
 0003:000097f0       ?adminCmdPrefix@@3PADA     6609d7f0     server.obj
 0003:00009d1c       ?UberMephistoNbMinions@@3HA 6609dd1c     uber.obj
 0003:00009d20       ?UberMephistoMinions@@3PAHA 6609dd20     uber.obj
 0003:00009d38       ?UberMephistoSpawnPercent@@3HA 6609dd38     uber.obj
 0003:00009d3c       ?UberMephistoSpawnRadius@@3HA 6609dd3c     uber.obj
 0003:00009d40       ?UberBaalNbMinions@@3HA    6609dd40     uber.obj
 0003:00009d44       ?UberBaalMinions@@3PAHA    6609dd44     uber.obj
 0003:00009d4c       ?UberBaalSpawnPercent@@3HA 6609dd4c     uber.obj
 0003:00009d50       ?UberBaalSpawnRadius@@3HA  6609dd50     uber.obj
 0003:00009d54       ?UberDiabloNbMinions@@3HA  6609dd54     uber.obj
 0003:00009d58       ?UberDiabloMinions@@3PAHA  6609dd58     uber.obj
 0003:00009d5c       ?UberDiabloSpawnPercent@@3HA 6609dd5c     uber.obj
 0003:00009d60       ?UberDiabloSpawnRadius@@3HA 6609dd60     uber.obj
 0003:00009d64       ?uberBaalChillingArmorTimer@@3HA 6609dd64     uber.obj
 0003:00009e18       ?szVersion@@3PADA          6609de18     version.obj
 0003:00009e1c       ?compileTime@@3PADA        6609de1c     version.obj
 0003:00009e20       ___security_cookie         6609de20     LIBCMT:gs_cookie.obj
 0003:00009e24       ___security_cookie_complement 6609de24     LIBCMT:gs_cookie.obj
 0003:00009e30       __iob                      6609de30     LIBCMT:_file.obj
 0003:0000a0b0       __fltused                  6609e0b0     LIBCMT:_fpinit_.obj
 0003:0000a0b4       __ldused                   6609e0b4     LIBCMT:_fpinit_.obj
 0003:0000a0c4       ??_R0?AVbad_alloc@std@@@8  6609e0c4     LIBCMT:new.obj
 0003:0000a0e0       ??_R0?AVexception@std@@@8  6609e0e0     LIBCMT:new.obj
 0003:0000a128       ___initialmbcinfo          6609e128     LIBCMT:mbctype.obj
 0003:0000a348       __mbctype                  6609e348     LIBCMT:mbctype.obj
 0003:0000a450       __mbcasemap                6609e450     LIBCMT:mbctype.obj
 0003:0000a550       ___ptmbcinfo               6609e550     LIBCMT:mbctype.obj
 0003:0000a64c       ___globallocalestatus      6609e64c     LIBCMT:glstatus.obj
 0003:0000a650       ___clocalestr              6609e650     LIBCMT:nlsdata2.obj
 0003:0000a658       ___initiallocinfo          6609e658     LIBCMT:nlsdata2.obj
 0003:0000a730       ___ptlocinfo               6609e730     LIBCMT:nlsdata2.obj
 0003:0000a734       ___lc_clike                6609e734     LIBCMT:nlsdata2.obj
 0003:0000a738       ___initiallocalestructinfo 6609e738     LIBCMT:nlsdata2.obj
 0003:0000a740       ___flsindex                6609e740     LIBCMT:tidtable.obj
 0003:0000a744       ___getvalueindex           6609e744     LIBCMT:tidtable.obj
 0003:0000a9d8       ___nullstring              6609e9d8     LIBCMT:output.obj
 0003:0000a9dc       ___wnullstring             6609e9dc     LIBCMT:output.obj
 0003:0000a9e0       ___badioinfo               6609e9e0     LIBCMT:ioinit.obj
 0003:0000aa20       __amblksiz                 6609ea20     LIBCMT:heapinit.obj
 0003:0000aa24       __aexit_rtn                6609ea24     LIBCMT:crt0dat.obj
 0003:0000aa28       __cfltcvt_tab              6609ea28     LIBCMT:cmiscdat.obj
 0003:0000ab08       __lookuptrailbytes         6609eb08     LIBCMT:read.obj
 0003:0000ac18       ??_R0?AVtype_info@@@8      6609ec18     LIBCMT:typinfo.obj
 0003:0000ac30       __indefinite               6609ec30     LIBCMT:_87disp_.obj
 0003:0000ac3a       __piby2                    6609ec3a     LIBCMT:_87disp_.obj
 0003:0000ac60       __First_FPE_Indx           6609ec60     LIBCMT:winxfltr.obj
 0003:0000ac64       __Num_FPE                  6609ec64     LIBCMT:winxfltr.obj
 0003:0000ac68       __XcptActTabSize           6609ec68     LIBCMT:winxfltr.obj
 0003:0000ac6c       __XcptActTabCount          6609ec6c     LIBCMT:winxfltr.obj
 0003:0000ac70       __pctype                   6609ec70     LIBCMT:ctype.obj
 0003:0000ac74       __pwctype                  6609ec74     LIBCMT:ctype.obj
 0003:0000ac78       ___lc_time_c               6609ec78     LIBCMT:strftime.obj
 0003:0000ad30       ___lc_time_curr            6609ed30     LIBCMT:strftime.obj
 0003:0000ad34       ___lconv_static_decimal    6609ed34     LIBCMT:lconv.obj
 0003:0000ad38       ___lconv_c                 6609ed38     LIBCMT:lconv.obj
 0003:0000ad68       ___lconv                   6609ed68     LIBCMT:lconv.obj
 0003:0000ad6c       ___mb_cur_max              6609ed6c     LIBCMT:nlsdata1.obj
 0003:0000ad70       ___decimal_point           6609ed70     LIBCMT:nlsdata1.obj
 0003:0000ad74       ___decimal_point_length    6609ed74     LIBCMT:nlsdata1.obj
 0003:0000ad90       __NLG_Destination          6609ed90     LIBCMT:exsup.obj
 0003:0000adc0       __timezone                 6609edc0     LIBCMT:timeset.obj
 0003:0000adc4       __daylight                 6609edc4     LIBCMT:timeset.obj
 0003:0000adc8       __dstbias                  6609edc8     LIBCMT:timeset.obj
 0003:0000ae50       __tzname                   6609ee50     LIBCMT:timeset.obj
 0003:0000ae58       __lpdays                   6609ee58     LIBCMT:days.obj
 0003:0000ae8c       __days                     6609ee8c     LIBCMT:days.obj
 0003:0000aec0       __coninpfh                 6609eec0     LIBCMT:initcon.obj
 0003:0000aec4       __confh                    6609eec4     LIBCMT:initcon.obj
 0003:0000aec8       ___abort_behavior          6609eec8     LIBCMT:abort.obj
 0003:0000afe8       __matherr_flag             6609efe8     LIBCMT:_matherr_.obj
 0003:0000b010       __pow10pos                 6609f010     LIBCMT:_constpow_.obj
 0003:0000b170       __pow10neg                 6609f170     LIBCMT:_constpow_.obj
 0003:0000b2d0       __d_inf                    6609f2d0     LIBCMT:_util_.obj
 0003:0000b2d8       __d_ind                    6609f2d8     LIBCMT:_util_.obj
 0003:0000b2e0       __d_max                    6609f2e0     LIBCMT:_util_.obj
 0003:0000b2e8       __d_min                    6609f2e8     LIBCMT:_util_.obj
 0003:0000b2f0       __d_mzero                  6609f2f0     LIBCMT:_util_.obj
 0003:0000b300       ?tmpSymbols@@3PAUSymbol@@A 6609f300     config.obj
 0003:0000b704       ?logfp@@3PAU_iobuf@@A      6609f704     config.obj
 0003:0000b708       ?tKeyEventMap@@3PAPAUToggleVar@@A 6609f708     config.obj
 0003:0000d710       ?warningMsgs@@3PAUWarningMsg@@A 660a1710     config.obj
 0003:0000d718       ?pSymbols@@3PAUSymbol@@A   660a1718     config.obj
 0003:0000d71c       ?nSymbols@@3HA             660a171c     config.obj
 0003:0000d720       ?capSymbols@@3HA           660a1720     config.obj
 0003:0000d724       ?nTmpSymbols@@3HA          660a1724     config.obj
 0003:0000d728       ?fSymbolSorted@@3HA        660a1728     config.obj
 0003:0000d730       ?configVarCap@@3HA         660a1730     config.obj
 0003:0000d734       ?configVarCount@@3HA       660a1734     config.obj
 0003:0000d738       ?loadingConfigs@@3PAULoadingConfig@@A 660a1738     config.obj
 0003:0000d740       ?hInstDLL@@3PAUHINSTANCE__@@A 660a1740     DllMain.obj
 0003:0000d744       ?dllHeap@@3PAXA            660a1744     DllMain.obj
 0003:0000d748       ?confHeap@@3PAXA           660a1748     DllMain.obj
 0003:0000d74c       ?gameHeap@@3PAXA           660a174c     DllMain.obj
 0003:0000d750       ?fIsSinglePlayer@@3HA      660a1750     DllMain.obj
 0003:0000d754       ?fIsTcpIp@@3HA             660a1754     DllMain.obj
 0003:0000d758       ?fIsRealmServer@@3HA       660a1758     DllMain.obj
 0003:0000d75c       ?fIsRealmClient@@3HA       660a175c     DllMain.obj
 0003:0000d760       ?szDllPath@@3PADA          660a1760     DllMain.obj
 0003:0000d868       ?szPluginPath@@3PADA       660a1868     DllMain.obj
 0003:0000d970       ?reloadStorage@@3PADA      660a1970     DllMain.obj
 0003:0000d974       ?reloadStorageSize@@3HA    660a1974     DllMain.obj
 0003:0000d978       ?storm_pmpq_load_flag@@3PAHA 660a1978     install.obj
 0003:0000d97c       ?storm_pmpq_crypt_table@@3PAHA 660a197c     install.obj
 0003:0000d980       ?storm_regQueryValue@@3P6GHPAD0H0H@ZA 660a1980     install.obj
 0003:0000d984       ?storm_snprintf@@3P6AHPADHHZZA 660a1984     install.obj
 0003:0000d988       ?storm_processWinMessage372@@3P6GHHPAUHWND__@@HPAUD2MSG@@@ZA 660a1988     install.obj
 0003:0000d98c       ?storm_processWinMessage@@3P6GHPAUHWND__@@HHHPAX1@ZA 660a198c     install.obj
 0003:0000d990       ?storm_openMpq@@3P6GHPBDHHPAX@ZA 660a1990     install.obj
 0003:0000d994       ?storm_mpq_open_block@@3P6GHPADPAUmpq_block@@@ZA 660a1994     install.obj
 0003:0000d998       ?storm_mpq_open_block_from@@3P6GHPAXPADHPAUmpq_block@@@ZA 660a1998     install.obj
 0003:0000d99c       ?storm_mpq_read_block@@3P6GHPAUmpq_block@@HPADH@ZA 660a199c     install.obj
 0003:0000d9a0       ?storm_mk_abs_path@@3P6GPADPADPAX@ZA 660a19a0     install.obj
 0003:0000d9a4       ?storm_mpq_hashstring@@3P6GHH@ZA 660a19a4     install.obj
 0003:0000d9a8       ?storm_mpq_uncompress@@3P6GHPAXPAH0H@ZA 660a19a8     install.obj
 0003:0000d9ac       ?fog_Ord10218@@3P6IHXZA    660a19ac     install.obj
 0003:0000d9b0       ?fog_getMCPPacket@@3P6GHPAXPADH@ZA 660a19b0     install.obj
 0003:0000d9b4       ?fog_Ord10089@@3P6IHH@ZA   660a19b4     install.obj
 0003:0000d9b8       ?fog_uninit@@3P6GHXZA      660a19b8     install.obj
 0003:0000d9bc       ?fog_realloc@@3P6IPAXHPAXHPADHH@ZA 660a19bc     install.obj
 0003:0000d9c0       ?fog_allocMemory@@3P6IPAXHHPADHH@ZA 660a19c0     install.obj
 0003:0000d9c4       ?fog_getCriticalSection@@3P6IPAUCriticalSection@@HPADHH@ZA 660a19c4     install.obj
 0003:0000d9c8       ?fog_setCriticalSection@@3P6IHPAUCriticalSection@@PADHH@ZA 660a19c8     install.obj
 0003:0000d9cc       ?fog_freeMemory@@3P6IHHPAXPADHH@ZA 660a19cc     install.obj
 0003:0000d9d0       ?fog_Ord10101@@3P6IHHH@ZA  660a19d0     install.obj
 0003:0000d9d4       ?fog_mpq_open_block@@3P6IHPADPAUmpq_block@@@ZA 660a19d4     install.obj
 0003:0000d9d8       ?fog_initBitStream@@3P6GPAUFogBits@@PAU1@PADH@ZA 660a19d8     install.obj
 0003:0000d9dc       ?fog_writeBitStream@@3P6GXPAUFogBits@@HH@ZA 660a19dc     install.obj
 0003:0000d9e0       ?fog_setBit@@3P6GXPAXH@ZA  660a19e0     install.obj
 0003:0000d9e4       ?fog_clearBit@@3P6GXPAXH@ZA 660a19e4     install.obj
 0003:0000d9e8       ?fog_getBitStreamBytes@@3P6GHPAUFogBits@@@ZA 660a19e8     install.obj
 0003:0000d9ec       ?fog_alignBitStreamToByte@@3P6GHPAUFogBits@@@ZA 660a19ec     install.obj
 0003:0000d9f0       ?fog_binarySearchTxtNo@@3P6GHPAUItemCodeTxtNo@@HH@ZA 660a19f0     install.obj
 0003:0000d9f4       ?fog_Ord10019@@3P6IHPADPAX0H@ZA 660a19f4     install.obj
 0003:0000d9f8       ?fog_FogValidateCriticalSection@@3P6IHPAUCriticalSection@@H@ZA 660a19f8     install.obj
 0003:0000d9fc       ?fog_reportError@@3P6AXPAXHH@ZA 660a19fc     install.obj
 0003:0000da00       ?fog_setLogFilePrefix@@3P6IHPAD@ZA 660a1a00     install.obj
 0003:0000da04       ?fog_getEIP@@3P6GHXZA      660a1a04     install.obj
 0003:0000da08       ?fog_getClientID@@3P6GHPAUClientInfos@@H@ZA 660a1a08     install.obj
 0003:0000da0c       ?fog_getClientInfo@@3P6GPAUClientInfo@@PAUClientInfos@@H@ZA 660a1a0c     install.obj
 0003:0000da10       ?fog_enableNTFeature@@3P6GHPAH@ZA 660a1a10     install.obj
 0003:0000da14       ?fog_exit@@3P6GXH@ZA       660a1a14     install.obj
 0003:0000da18       ?d2win_pDrawHoverY@@3PAHA  660a1a18     install.obj
 0003:0000da1c       ?d2win_pmusic_volumn@@3PAHA 660a1a1c     install.obj
 0003:0000da20       ?d2win_pRunningFlag@@3PAHA 660a1a20     install.obj
 0003:0000da24       ?d2win_pclientProcessMessageFunc@@3PAPAXA 660a1a24     install.obj
 0003:0000da28       ?d2win_pFocusedControl@@3PAPAUD2EditBox@@A 660a1a28     install.obj
 0003:0000da2c       ?d2win_pvar_214A0@@3PAPAXA 660a1a2c     install.obj
 0003:0000da30       ?d2win_DrawMainMenu@@3P6IPAXXZA 660a1a30     install.obj
 0003:0000da34       ?d2win_CreateTextBox@@3P6GPAXPAK@ZA 660a1a34     install.obj
 0003:0000da38       ?d2win_DestroyListBox@@3P6GXPAUD2EditBox@@@ZA 660a1a38     install.obj
 0003:0000da3c       ?d2win_processMessage@@3P6GHPAUHWND__@@HHH@ZA 660a1a3c     install.obj
 0003:0000da40       ?d2win_CreateEditBox@@3P6IPAUD2EditBox@@HHHHHHPAUCellFile@@KKKPAX@ZA 660a1a40     install.obj
 0003:0000da44       ?d2win_DestroyEditBox@@3P6IHPAUD2EditBox@@@ZA 660a1a44     install.obj
 0003:0000da48       ?d2win_AddEditBoxChar@@3P6IKPAUD2EditBox@@E@ZA 660a1a48     install.obj
 0003:0000da4c       ?d2win_SetEditBoxText@@3P6IPAXPAUD2EditBox@@PA_W@ZA 660a1a4c     install.obj
 0003:0000da50       ?d2win_SetEditBoxProc@@3P6IXPAUD2EditBox@@P6GH0HPAD@Z@ZA 660a1a50     install.obj
 0003:0000da54       ?d2win_SelectEditBoxText@@3P6IXPAUD2EditBox@@@ZA 660a1a54     install.obj
 0003:0000da58       ?d2win_GetEditBoxText@@3P6IPA_WPAUD2EditBox@@@ZA 660a1a58     install.obj
 0003:0000da5c       ?d2win_DrawHover@@3P6IXXZA 660a1a5c     install.obj
 0003:0000da60       ?d2win_SetTextFont@@3P6IHH@ZA 660a1a60     install.obj
 0003:0000da64       ?d2win_DrawText@@3P6IXPA_WJJHH@ZA 660a1a64     install.obj
 0003:0000da68       ?d2win_GetTextPixelLen@@3P6IHPA_W@ZA 660a1a68     install.obj
 0003:0000da6c       ?d2win_DrawUnitLifeBar@@3P6IHPA_WJJHKK@ZA 660a1a6c     install.obj
 0003:0000da70       ?d2win_GetTextAreaSize@@3P6IHPA_WPAH1@ZA 660a1a70     install.obj
 0003:0000da74       ?d2win_DrawHoverText@@3P6IXPA_WJJHH@ZA 660a1a74     install.obj
 0003:0000da78       ?d2win_initMPQ@@3P6IHXZA   660a1a78     install.obj
 0003:0000da7c       ?d2win_uninit@@3P6GHXZA    660a1a7c     install.obj
 0003:0000da80       ?d2win_addLineToList@@3P6IXPAUD2EditBox@@PAD@ZA 660a1a80     install.obj
 0003:0000da84       ?d2win_PrintLineOnTextBox@@3P6IXPAXPADH@ZA 660a1a84     install.obj
 0003:0000da88       ?d2win_setLineEndText@@3P6IXPAUD2EditBox@@PADPAXH@ZA 660a1a88     install.obj
 0003:0000da8c       ?d2win_ToggleSound@@3P6GXXZA 660a1a8c     install.obj
 0003:0000da90       ?d2sound_pmusic_volumn@@3PAHA 660a1a90     install.obj
 0003:0000da94       ?d2sound_get_music_volumn@@3P6AHXZA 660a1a94     install.obj
 0003:0000da98       ?d2sound_set_music_volumn@@3P6IHH@ZA 660a1a98     install.obj
 0003:0000da9c       ?d2net_pclientInfos@@3PAPAUClientInfos@@A 660a1a9c     install.obj
 0003:0000daa0       ?d2net_pUnkNetFlag@@3PAKA  660a1aa0     install.obj
 0003:0000daa4       ?d2net_ppacketSizes@@3PAHA 660a1aa4     install.obj
 0003:0000daa8       ?d2net_SendPacket@@3P6GXHHPAE@ZA 660a1aa8     install.obj
 0003:0000daac       ?d2net_getPacketSize@@3P6IXPADHPAH@ZA 660a1aac     install.obj
 0003:0000dab0       ?d2net_initNetwork@@3P6GHHH@ZA 660a1ab0     install.obj
 0003:0000dab4       ?d2net_SendToClient@@3P6GHHHPAXH@ZA 660a1ab4     install.obj
 0003:0000dab8       ?d2net_uninit@@3P6GHXZA    660a1ab8     install.obj
 0003:0000dabc       ?d2net_getWorldId@@3P6GHH@ZA 660a1abc     install.obj
 0003:0000dac0       ?d2multi_plastRefreshMs2@@3PAHA 660a1ac0     install.obj
 0003:0000dac4       ?d2multi_plastRefreshMs1@@3PAHA 660a1ac4     install.obj
 0003:0000dac8       ?d2multi_pnGames@@3PAHA    660a1ac8     install.obj
 0003:0000dacc       ?d2multi_pGameDescription@@3PAPAUD2EditBox@@A 660a1acc     install.obj
 0003:0000dad0       ?d2multi_pGamePassword@@3PAPAUD2EditBox@@A 660a1ad0     install.obj
 0003:0000dad4       ?d2multi_pGameName@@3PAPAUD2EditBox@@A 660a1ad4     install.obj
 0003:0000dad8       ?d2multi_pGameListControl@@3PAPAUD2EditBox@@A 660a1ad8     install.obj
 0003:0000dadc       ?d2multi_pmcp05_games2@@3PAUMcp05Game@@A 660a1adc     install.obj
 0003:0000dae0       ?d2multi_pEditboxPreferences@@3PAPAXA 660a1ae0     install.obj
 0003:0000dae4       ?d2multi_pmcp05_games@@3PAUMcp05Game@@A 660a1ae4     install.obj
 0003:0000dae8       ?d2multi_reset_games@@3P6GHXZA 660a1ae8     install.obj
 0003:0000daec       ?d2multi_add_game@@3P6GHXZA 660a1aec     install.obj
 0003:0000daf0       ?d2multi_show_games@@3P6GHXZA 660a1af0     install.obj
 0003:0000daf4       ?d2multi_num2str@@3P6AHHPADH@ZA 660a1af4     install.obj
 0003:0000daf8       ?d2multi_num2str1058@@3P6GHHH@ZA 660a1af8     install.obj
 0003:0000dafc       ?d2mcpclient_pmcp05_type@@3PAHA 660a1afc     install.obj
 0003:0000db00       ?d2mcpclient_pmcp05_gameName2@@3PADA 660a1b00     install.obj
 0003:0000db04       ?d2mcpclient_pmcp05_gameName@@3PADA 660a1b04     install.obj
 0003:0000db08       ?d2mcpclient_pmcp05_off08@@3PAHA 660a1b08     install.obj
 0003:0000db0c       ?d2mcpclient_pmcp05_nPlayers@@3PAHA 660a1b0c     install.obj
 0003:0000db10       ?d2mcpclient_pmcp05_idx@@3PAHA 660a1b10     install.obj
 0003:0000db14       ?d2mcpclient_pmcp05_seqId@@3PAHA 660a1b14     install.obj
 0003:0000db18       ?d2mcpclient_pmcp05_buf@@3PAUMcp05Buf@@A 660a1b18     install.obj
 0003:0000db1c       ?d2mcpclient_pmcpSrc@@3PAPAXA 660a1b1c     install.obj
 0003:0000db20       ?d2mcpclient_pAccountInfo@@3PAUD2AccountInfo@@A 660a1b20     install.obj
 0003:0000db24       ?d2mcpclient_pmpc05_seqId@@3PAFA 660a1b24     install.obj
 0003:0000db28       ?d2mcpclient_processOnePacket@@3P6GHXZA 660a1b28     install.obj
 0003:0000db2c       ?d2mcpclient_getMcp05Buf@@3P6GPAUMcp05Buf@@XZA 660a1b2c     install.obj
 0003:0000db30       ?d2mcpclient_mcpPacket05@@3P6IHPAUMCPPacket05@@H@ZA 660a1b30     install.obj
 0003:0000db34       ?d2launch_pcharCount@@3PAHA 660a1b34     install.obj
 0003:0000db38       ?d2launch_pD2Characters@@3PAPAUD2Character@@A 660a1b38     install.obj
 0003:0000db3c       ?d2launch_plaunchNumChildren@@3PAHA 660a1b3c     install.obj
 0003:0000db40       ?d2launch_plaunchChildren@@3PAPAXA 660a1b40     install.obj
 0003:0000db44       ?d2launch_pSelectedCharIndex@@3PAHA 660a1b44     install.obj
 0003:0000db48       ?d2launch_pcreateTextBoxParam11F0@@3PAPAKA 660a1b48     install.obj
 0003:0000db4c       ?d2launch_DeleteCharacter@@3P6IXPAD@ZA 660a1b4c     install.obj
 0003:0000db50       ?d2launch_DeleteSelectedCharacter@@3P6GHH@ZA 660a1b50     install.obj
 0003:0000db54       ?d2launch_sprintf@@3P6AHPAD0ZZA 660a1b54     install.obj
 0003:0000db58       ?d2lang_plocaleTxtMap20000@@3PAPAUd2lang_map@@A 660a1b58     install.obj
 0003:0000db5c       ?d2lang_plocaleTxtMap10000@@3PAPAUd2lang_map@@A 660a1b5c     install.obj
 0003:0000db60       ?d2lang_plocaleTxt20000@@3PAPAPA_WA 660a1b60     install.obj
 0003:0000db64       ?d2lang_plocaleTxt10000@@3PAPAPA_WA 660a1b64     install.obj
 0003:0000db68       ?d2lang_plocaleTxt0@@3PAPAPA_WA 660a1b68     install.obj
 0003:0000db6c       ?d2lang_plocaleTxtMap0@@3PAPAUd2lang_map@@A 660a1b6c     install.obj
 0003:0000db70       ?d2lang_strcat@@3P6IPA_WPA_W0@ZA 660a1b70     install.obj
 0003:0000db74       ?d2lang_initLanguage@@3P6IHHPADH@ZA 660a1b74     install.obj
 0003:0000db78       ?d2lang_uninit@@3P6GHXZA   660a1b78     install.obj
 0003:0000db7c       ?d2lang_GetLocaleText@@3P6IPA_WH@ZA 660a1b7c     install.obj
 0003:0000db80       ?d2lang_getLocalText9050@@3P6GPA_WPAPA_W@ZA 660a1b80     install.obj
 0003:0000db84       ?d2gfx_pWinState@@3PAHA    660a1b84     install.obj
 0003:0000db88       ?d2gfx_pDrawGoundH1@@3PAHA 660a1b88     install.obj
 0003:0000db8c       ?d2gfx_pDrawGoundH2@@3PAHA 660a1b8c     install.obj
 0003:0000db90       ?d2gfx_pcallbackTable@@3PAPAXA 660a1b90     install.obj
 0003:0000db94       ?d2gfx_pResolutionMode@@3PAHA 660a1b94     install.obj
 0003:0000db98       ?d2gfx_DrawRectangle@@3P6GXJJJJHH@ZA 660a1b98     install.obj
 0003:0000db9c       ?d2gfx_DrawLine@@3P6GXHHHHHH@ZA 660a1b9c     install.obj
 0003:0000dba0       ?d2gfx_getResolutionMode@@3P6GHXZA 660a1ba0     install.obj
 0003:0000dba4       ?d2gfx_DrawCellFile@@3P6GHPAUCellContext@@HHKHPAE@ZA 660a1ba4     install.obj
 0003:0000dba8       ?d2gfx_drawSomething@@3P6GXPAXHHHHH@ZA 660a1ba8     install.obj
 0003:0000dbac       ?d2gfx_FillOrb@@3P6GXHHHHHH@ZA 660a1bac     install.obj
 0003:0000dbb0       ?d2gfx_DrawAutomapNode@@3P6GXPAUCellContext@@HHPAUtagRECT@@K@ZA 660a1bb0     install.obj
 0003:0000dbb4       ?d2gfx_drawShadow@@3P6GXPAXHH@ZA 660a1bb4     install.obj
 0003:0000dbb8       ?d2gfx_clearFramebuf@@3P6GXHHHH@ZA 660a1bb8     install.obj
 0003:0000dbbc       ?d2gfx_flushFramebuf@@3P6GXXZA 660a1bbc     install.obj
 0003:0000dbc0       ?d2gfx_Ordinal10043@@3P6GXXZA 660a1bc0     install.obj
 0003:0000dbc4       ?d2gfx_MinimizeWindows@@3P6GXK@ZA 660a1bc4     install.obj
 0003:0000dbc8       ?d2gfx_GetHwnd@@3P6GPAUHWND__@@XZA 660a1bc8     install.obj
 0003:0000dbcc       ?d2gfx_drawGroundPiece@@3P6GXPAX0HHHHHHH@ZA 660a1bcc     install.obj
 0003:0000dbd0       ?d2gdi_pcriticalSection@@3PAPAUCriticalSection@@A 660a1bd0     install.obj
 0003:0000dbd4       ?d2gdi_pFrameBuf@@3PAPAXA  660a1bd4     install.obj
 0003:0000dbd8       ?d2gdi_pDisplayRight@@3PAHA 660a1bd8     install.obj
 0003:0000dbdc       ?d2gdi_pFrameBufHeight@@3PAHA 660a1bdc     install.obj
 0003:0000dbe0       ?d2gdi_pgdiobj@@3PAPAXA    660a1be0     install.obj
 0003:0000dbe4       ?d2gdi_ppalette@@3PAPAUHPALETTE__@@A 660a1be4     install.obj
 0003:0000dbe8       ?d2gdi_pFrameBufWidth@@3PAHA 660a1be8     install.obj
 0003:0000dbec       ?d2gdi_phwnd@@3PAPAUHWND__@@A 660a1bec     install.obj
 0003:0000dbf0       ?d2gdi_pColorMap@@3PAHA    660a1bf0     install.obj
 0003:0000dbf4       ?d2gdi_initCriticalSection@@3P6IHPAX0@ZA 660a1bf4     install.obj
 0003:0000dbf8       ?d2game_pDropChioceProb@@3PAHA 660a1bf8     install.obj
 0003:0000dbfc       ?d2game_pDropChioces@@3PAHA 660a1bfc     install.obj
 0003:0000dc00       ?d2game_pworldHash@@3PAPAUWorldHash@@A 660a1c00     install.obj
 0003:0000dc04       ?d2game_pcriticalSection@@3PAUCriticalSection@@A 660a1c04     install.obj
 0003:0000dc08       ?d2game_pSPUnitOffsets@@3PAHA 660a1c08     install.obj
 0003:0000dc0c       ?d2game_psgptDataTables@@3PAPAUD2DataTables@@A 660a1c0c     install.obj
 0003:0000dc10       ?d2game_MonsterMove@@3P6IXPAUWorld@@PAUUnitAny@@1HHHHH@ZA 660a1c10     install.obj
 0003:0000dc14       ?d2game_MonsterUseSkill@@3P6IXPAUWorld@@PAUUnitAny@@HH1HH@ZA 660a1c14     install.obj
 0003:0000dc18       ?d2game_SpawnMonster@@3P6IPAUUnitAny@@HHPAUWorld@@PAUAreaRectData@@HHHH@ZA 660a1c18     install.obj
 0003:0000dc1c       ?d2game_SpawnMonsterEF10@@3P6IPAUUnitAny@@PAUSpawnMon@@@ZA 660a1c1c     install.obj
 0003:0000dc20       ?d2game_MakeD2S@@3P6IHPAUUnitAny@@PAUWorld@@PADPAHHHH@ZA 660a1c20     install.obj
 0003:0000dc24       ?d2game_playerUpgrade@@3P6GHPAUWorld@@@ZA 660a1c24     install.obj
 0003:0000dc28       ?d2game_CreateUnit@@3P6IPAUUnitAny@@HHHHPAUWorld@@PAUAreaRectData@@HHH@ZA 660a1c28     install.obj
 0003:0000dc2c       ?d2game_GetUnit@@3P6IHPAUWorld@@H@ZA 660a1c2c     install.obj
 0003:0000dc30       ?d2game_isUnitDead@@3P6GHXZA 660a1c30     install.obj
 0003:0000dc34       ?d2game_swapWeapon@@3P6GHPAUWorld@@PAH@ZA 660a1c34     install.obj
 0003:0000dc38       ?d2game_pickupItem@@3P6GHHPAH@ZA 660a1c38     install.obj
 0003:0000dc3c       ?d2game_putItemInSocketD4A70@@3P6GHPAUWorld@@PAUUnitAny@@HPAHHHHH@ZA 660a1c3c     install.obj
 0003:0000dc40       ?d2game_recv19_invToHand@@3P6IHPAUWorld@@PAUUnitAny@@PADH@ZA 660a1c40     install.obj
 0003:0000dc44       ?d2game_recv1F_swapItem@@3P6IHPAUWorld@@PAUUnitAny@@PADH@ZA 660a1c44     install.obj
 0003:0000dc48       ?d2game_recv16_pickup@@3P6IHPAUWorld@@PAUUnitAny@@PADH@ZA 660a1c48     install.obj
 0003:0000dc4c       ?d2game_pickup@@3P6IHPAUWorld@@HPAUUnitAny@@H@ZA 660a1c4c     install.obj
 0003:0000dc50       ?d2game_recv20_activeBufferItem@@3P6IHPAUWorld@@PAUUnitAny@@PADH@ZA 660a1c50     install.obj
 0003:0000dc54       ?d2game_recv60_swapWeapon@@3P6IHPAUWorld@@PAUUnitAny@@PADH@ZA 660a1c54     install.obj
 0003:0000dc58       ?d2game_recv1A_handToBody@@3P6IHPAUWorld@@PAUUnitAny@@PADH@ZA 660a1c58     install.obj
 0003:0000dc5c       ?d2game_recv28_socket@@3P6IHPAUWorld@@PAUUnitAny@@PADH@ZA 660a1c5c     install.obj
 0003:0000dc60       ?d2game_itemNotInInv@@3P6IHHHPAUUnitAny@@@ZA 660a1c60     install.obj
 0003:0000dc64       ?d2game_processPacket@@3P6GHPAUWorld@@H@ZA 660a1c64     install.obj
 0003:0000dc68       ?d2game_recv40_quest@@3P6IHPAUWorld@@PAUUnitAny@@PADH@ZA 660a1c68     install.obj
 0003:0000dc6c       ?d2game_send0D_unitXyHp@@3P6GHXZA 660a1c6c     install.obj
 0003:0000dc70       ?d2game_imbueItem@@3P6GHPAUWorld@@HHH@ZA 660a1c70     install.obj
 0003:0000dc74       ?d2game_passClassicB9F20@@3P6IHPAUWorld@@PAUUnitAny@@H@ZA 660a1c74     install.obj
 0003:0000dc78       ?d2game_passClassicB9A30@@3P6IHXZA 660a1c78     install.obj
 0003:0000dc7c       ?d2game_BaalAI@@3P6IXPAUWorld@@PAUUnitAny@@PAX@ZA 660a1c7c     install.obj
 0003:0000dc80       ?d2game_UberBaalAI@@3P6IXPAUWorld@@PAUUnitAny@@PAX@ZA 660a1c80     install.obj
 0003:0000dc84       ?d2game_setupMonster@@3P6IXPAUWorld@@PAUAreaRectData@@PAUUnitAny@@H@ZA 660a1c84     install.obj
 0003:0000dc88       ?d2game_setupMonsterStat@@3P6GXPAUWorld@@HH@ZA 660a1c88     install.obj
 0003:0000dc8c       ?d2game_DiabloAI@@3P6IXPAUWorld@@PAUUnitAny@@PAX@ZA 660a1c8c     install.obj
 0003:0000dc90       ?d2game_UberDiabloAI@@3P6IXPAUWorld@@PAUUnitAny@@PAX@ZA 660a1c90     install.obj
 0003:0000dc94       ?d2game_NecSummon@@3P6IPAUUnitAny@@XZA 660a1c94     install.obj
 0003:0000dc98       ?d2game_LinkPortal@@3P6GPAUUnitAny@@PAUWorld@@PAU1@HH@ZA 660a1c98     install.obj
 0003:0000dc9c       ?d2game_fun_8EBC0@@3P6GHPAUWorld@@PAX@ZA 660a1c9c     install.obj
 0003:0000dca0       ?d2game_sendItemToClient@@3P6GXH@ZA 660a1ca0     install.obj
 0003:0000dca4       ?d2game_SetSkillBaseLevelOnClient@@3P6IXPAXPAUUnitAny@@HHH@ZA 660a1ca4     install.obj
 0003:0000dca8       ?d2game_sendItemToClient8D3D0@@3P6GXHHH@ZA 660a1ca8     install.obj
 0003:0000dcac       ?d2game_sendBaseAttr@@3P6IHHH@ZA 660a1cac     install.obj
 0003:0000dcb0       ?d2game_sendPacket@@3P6GHPADH@ZA 660a1cb0     install.obj
 0003:0000dcb4       ?d2game_MephAI@@3P6IXPAUWorld@@PAUUnitAny@@PAX@ZA 660a1cb4     install.obj
 0003:0000dcb8       ?d2game_UberMephAI@@3P6IXPAUWorld@@PAUUnitAny@@PAX@ZA 660a1cb8     install.obj
 0003:0000dcbc       ?d2game_fun_769A0@@3P6GHPAUWorld@@HH@ZA 660a1cbc     install.obj
 0003:0000dcc0       ?d2game_OpenPandPortal@@3P6IXPAUWorld@@PAUUnitAny@@@ZA 660a1cc0     install.obj
 0003:0000dcc4       ?d2game_OpenPandFinalPortal@@3P6IXPAUWorld@@PAUUnitAny@@@ZA 660a1cc4     install.obj
 0003:0000dcc8       ?d2game_completeImbueQuest@@3P6GXXZA 660a1cc8     install.obj
 0003:0000dccc       ?d2game_passExpansion599E0@@3P6IXPAUWorld@@PAUUnitAny@@H@ZA 660a1ccc     install.obj
 0003:0000dcd0       ?d2game_passExpansion58BE0@@3P6IXPAUUnitAny@@@ZA 660a1cd0     install.obj
 0003:0000dcd4       ?d2game_fun_4E2A0@@3P6IXPAUWorld@@PAUUnitAny@@H@ZA 660a1cd4     install.obj
 0003:0000dcd8       ?d2game_sendHandshake@@3P6GHPAUNetClient@@@ZA 660a1cd8     install.obj
 0003:0000dcdc       ?d2game_getNetClient@@3P6IPAUNetClient@@H@ZA 660a1cdc     install.obj
 0003:0000dce0       ?d2game_processClientQuestReq@@3P6GHPAUWorld@@PAUUnitAny@@@ZA 660a1ce0     install.obj
 0003:0000dce4       ?d2game_sendQuestToClient@@3P6GHPAUWorld@@@ZA 660a1ce4     install.obj
 0003:0000dce8       ?d2game_processGame@@3P6GHXZA 660a1ce8     install.obj
 0003:0000dcec       ?d2game_isBusy@@3P6GHH@ZA  660a1cec     install.obj
 0003:0000dcf0       ?d2game_Ord10024@@3P6GHHH@ZA 660a1cf0     install.obj
 0003:0000dcf4       ?d2game_endAllGames@@3P6AHH@ZA 660a1cf4     install.obj
 0003:0000dcf8       ?d2game_Ord10038@@3P6GHXZA 660a1cf8     install.obj
 0003:0000dcfc       ?d2game_SendDatabaseCharacter@@3P6GHHPAXHHHHPAUPlayerInfo@@H@ZA 660a1cfc     install.obj
 0003:0000dd00       ?d2game_removeClientFromGame@@3P6GHH@ZA 660a1d00     install.obj
 0003:0000dd04       ?d2game_SaveGame@@3P6GXPAUWorld@@@ZA 660a1d04     install.obj
 0003:0000dd08       ?d2game_NewEmptyGame@@3P6GHPAD00HDDDPAF@ZA 660a1d08     install.obj
 0003:0000dd0c       ?d2game_getWorld@@3P6GPAUWorld@@XZA 660a1d0c     install.obj
 0003:0000dd10       ?d2game_getWorldByID@@3P6GPAUWorld@@H@ZA 660a1d10     install.obj
 0003:0000dd14       ?d2game_uninit@@3P6GHXZA   660a1d14     install.obj
 0003:0000dd18       ?d2game_setWorldHash@@3P6GHPAUWorldHash@@PAH@ZA 660a1d18     install.obj
 0003:0000dd1c       ?d2game_initCallbackTable@@3P6GHPAX@ZA 660a1d1c     install.obj
 0003:0000dd20       ?d2game_SpawnSuperUnique@@3P6IHPAUWorld@@PAUAreaRectData@@HHHHHH@ZA 660a1d20     install.obj
 0003:0000dd24       ?d2game_Game235C0@@3P6GXPAUWorld@@PAUAreaRectData@@@ZA 660a1d24     install.obj
 0003:0000dd28       ?d2game_DropItem1880@@3P6GXPAUWorld@@HHHH@ZA 660a1d28     install.obj
 0003:0000dd2c       ?d2game_DropItem1490@@3P6GPAUUnitAny@@PAUWorld@@PAUDropParam@@H@ZA 660a1d2c     install.obj
 0003:0000dd30       ?d2game_GetFreeXY@@3P6GPAUAreaRectData@@PAU1@PAUtagPOINT@@H@ZA 660a1d30     install.obj
 0003:0000dd34       ?d2game_GetUnitLevel@@3P6GHH@ZA 660a1d34     install.obj
 0003:0000dd38       ?d2game_hasDroppedUnique@@3P6IHH@ZA 660a1d38     install.obj
 0003:0000dd3c       ?d2game_exit@@3P6GHH@ZA    660a1d3c     install.obj
 0003:0000dd40       ?d2game_getWorld_2130@@3P6GPAUWorld@@XZA 660a1d40     install.obj
 0003:0000dd44       ?d2game_TestPosition@@3P6IPAUAreaRectData@@XZA 660a1d44     install.obj
 0003:0000dd48       ?d2game_random@@3P6IHPAUD2Seed@@@ZA 660a1d48     install.obj
 0003:0000dd4c       ?d2common_pnCubeMain@@3PAHA 660a1d4c     install.obj
 0003:0000dd50       ?d2common_ppCubeMainTxt@@3PAPAXA 660a1d50     install.obj
 0003:0000dd54       ?d2common_pnMapCache@@3PAHA 660a1d54     install.obj
 0003:0000dd58       ?d2common_ppMapCache@@3PAPAXA 660a1d58     install.obj
 0003:0000dd5c       ?d2common_ppLvlSubCache@@3PAPAXA 660a1d5c     install.obj
 0003:0000dd60       ?d2common_pnLvlSub@@3PAHA  660a1d60     install.obj
 0003:0000dd64       ?d2common_ppLvlSubTxt@@3PAPAXA 660a1d64     install.obj
 0003:0000dd68       ?d2common_pnLvlMaze@@3PAHA 660a1d68     install.obj
 0003:0000dd6c       ?d2common_ppLvlMazeTxt@@3PAPAXA 660a1d6c     install.obj
 0003:0000dd70       ?d2common_pnLvlWarp@@3PAHA 660a1d70     install.obj
 0003:0000dd74       ?d2common_ppLvlWarpTxt@@3PAPAXA 660a1d74     install.obj
 0003:0000dd78       ?d2common_pnLvlTypes@@3PAHA 660a1d78     install.obj
 0003:0000dd7c       ?d2common_pnWaypoints@@3PAHA 660a1d7c     install.obj
 0003:0000dd80       ?d2common_ppWaypoints@@3PAPAXA 660a1d80     install.obj
 0003:0000dd84       ?d2common_ppLvlTypesTxt@@3PAPAXA 660a1d84     install.obj
 0003:0000dd88       ?d2common_ppArenaTxt@@3PAPAXA 660a1d88     install.obj
 0003:0000dd8c       ?d2common_pnCharTemplate@@3PAHA 660a1d8c     install.obj
 0003:0000dd90       ?d2common_ppCharTemplateTxt@@3PAPAXA 660a1d90     install.obj
 0003:0000dd94       ?d2common_pnLvlSubExtraStuff@@3PAHA 660a1d94     install.obj
 0003:0000dd98       ?d2common_ppLvlSubExtraStuff@@3PAPAXA 660a1d98     install.obj
 0003:0000dd9c       ?d2common_pExpFieldRuntimeData@@3PAPAXA 660a1d9c     install.obj
 0003:0000dda0       ?d2common_ppExpFieldD2@@3PAPAXA 660a1da0     install.obj
 0003:0000dda4       ?d2common_pnDifficultyLevels@@3PAHA 660a1da4     install.obj
 0003:0000dda8       ?d2common_ppDifficultyLevelsTxt@@3PAPAXA 660a1da8     install.obj
 0003:0000ddac       ?d2common_ppExperienceTxt@@3PAPAXA 660a1dac     install.obj
 0003:0000ddb0       ?d2common_ppAnimTables@@3PAPAXA 660a1db0     install.obj
 0003:0000ddb4       ?d2common_pItemStatCostStuff@@3PAPAXA 660a1db4     install.obj
 0003:0000ddb8       ?d2common_pnLvlPrest@@3PAHA 660a1db8     install.obj
 0003:0000ddbc       ?d2common_ppLvlPrestTxt@@3PAPAXA 660a1dbc     install.obj
 0003:0000ddc0       ?d2common_ppLvlDefsBin@@3PAPAXA 660a1dc0     install.obj
 0003:0000ddc4       ?d2common_pnLevels@@3PAHA  660a1dc4     install.obj
 0003:0000ddc8       ?d2common_ppLevelTxt@@3PAPAULevelTxt@@A 660a1dc8     install.obj
 0003:0000ddcc       ?d2common_pnMonUMod@@3PAHA 660a1dcc     install.obj
 0003:0000ddd0       ?d2common_ppMonUModTxt@@3PAPAXA 660a1dd0     install.obj
 0003:0000ddd4       ?d2common_ppMonUModLink@@3PAPAXA 660a1dd4     install.obj
 0003:0000ddd8       ?d2common_pnMonTypeNesting@@3PAHA 660a1dd8     install.obj
 0003:0000dddc       ?d2common_ppMonTypeNesting@@3PAPAXA 660a1ddc     install.obj
 0003:0000dde0       ?d2common_pnMonType@@3PAHA 660a1de0     install.obj
 0003:0000dde4       ?d2common_ppMonTypeTxt@@3PAPAXA 660a1de4     install.obj
 0003:0000dde8       ?d2common_ppMonTypeLink@@3PAPAXA 660a1de8     install.obj
 0003:0000ddec       ?d2common_pnMonProp@@3PAHA 660a1dec     install.obj
 0003:0000ddf0       ?d2common_ppMonPropTxt@@3PAPAXA 660a1df0     install.obj
 0003:0000ddf4       ?d2common_ppMonPropLink@@3PAPAXA 660a1df4     install.obj
 0003:0000ddf8       ?d2common_pnUniqueItems@@3PAHA 660a1df8     install.obj
 0003:0000ddfc       ?d2common_ppUniqueItemsTxt@@3PAPAXA 660a1dfc     install.obj
 0003:0000de00       ?d2common_ppUniqueItemsLink@@3PAPAXA 660a1e00     install.obj
 0003:0000de04       ?d2common_pnSetItems@@3PAHA 660a1e04     install.obj
 0003:0000de08       ?d2common_ppSetItemsTxt@@3PAPAXA 660a1e08     install.obj
 0003:0000de0c       ?d2common_ppSetItemsLink@@3PAPAXA 660a1e0c     install.obj
 0003:0000de10       ?d2common_pnSets@@3PAHA    660a1e10     install.obj
 0003:0000de14       ?d2common_ppSetsTxt@@3PAPAXA 660a1e14     install.obj
 0003:0000de18       ?d2common_ppSetsLink@@3PAPAXA 660a1e18     install.obj
 0003:0000de1c       ?d2common_ppItemTypeNesting@@3PAPAXA 660a1e1c     install.obj
 0003:0000de20       ?d2common_pnItemTypeNesting@@3PAHA 660a1e20     install.obj
 0003:0000de24       ?d2common_pnItemTypes@@3PAHA 660a1e24     install.obj
 0003:0000de28       ?d2common_ppItemTypesTxt@@3PAPAUItemTypeTxt@@A 660a1e28     install.obj
 0003:0000de2c       ?d2common_ppItemTypesLink@@3PAPAXA 660a1e2c     install.obj
 0003:0000de30       ?d2common_pnPetTypes@@3PAHA 660a1e30     install.obj
 0003:0000de34       ?d2common_ppPetTypesLink@@3PAPAXA 660a1e34     install.obj
 0003:0000de38       ?d2common_ppPetTypesTxt@@3PAPAXA 660a1e38     install.obj
 0003:0000de3c       ?d2common_pnMonEquip@@3PAHA 660a1e3c     install.obj
 0003:0000de40       ?d2common_ppMonEquipTxt@@3PAPAXA 660a1e40     install.obj
 0003:0000de44       ?d2common_pnOpStatNesting@@3PAHA 660a1e44     install.obj
 0003:0000de48       ?d2common_ppOpStatNesting@@3PAPAXA 660a1e48     install.obj
 0003:0000de4c       ?d2common_pnItemStatCost@@3PAHA 660a1e4c     install.obj
 0003:0000de50       ?d2common_ppItemStatCostLink@@3PAPAXA 660a1e50     install.obj
 0003:0000de54       ?d2common_ppItemStatCostTxt@@3PAPAUItemStatCostTxt@@A 660a1e54     install.obj
 0003:0000de58       ?d2common_pnCharStats@@3PAHA 660a1e58     install.obj
 0003:0000de5c       ?d2common_ppCharStatsTxt@@3PAPAXA 660a1e5c     install.obj
 0003:0000de60       ?d2common_pnOverlay@@3PAHA 660a1e60     install.obj
 0003:0000de64       ?d2common_ppOverlayLink@@3PAPAXA 660a1e64     install.obj
 0003:0000de68       ?d2common_ppOverlayTxt@@3PAPAXA 660a1e68     install.obj
 0003:0000de6c       ?d2common_ppPassiveSkillList@@3PAPAXA 660a1e6c     install.obj
 0003:0000de70       ?d2common_pnPassiveSkillCount@@3PAHA 660a1e70     install.obj
 0003:0000de74       ?d2common_ppPlayerSkillList@@3PAPAXA 660a1e74     install.obj
 0003:0000de78       ?d2common_pnPlayerSkillCount@@3PAHA 660a1e78     install.obj
 0003:0000de7c       ?d2common_ppPlayerSkillCount@@3PAPAXA 660a1e7c     install.obj
 0003:0000de80       ?d2common_pnSkills@@3PAHA  660a1e80     install.obj
 0003:0000de84       ?d2common_ppSkillsLink@@3PAPAXA 660a1e84     install.obj
 0003:0000de88       ?d2common_ppSkillsTxt@@3PAPAXA 660a1e88     install.obj
 0003:0000de8c       ?d2common_pnSkillDesc@@3PAHA 660a1e8c     install.obj
 0003:0000de90       ?d2common_ppSkillDescLink@@3PAPAXA 660a1e90     install.obj
 0003:0000de94       ?d2common_ppSkillDescTxt@@3PAPAXA 660a1e94     install.obj
 0003:0000de98       ?d2common_pnMonSequences@@3PAHA 660a1e98     install.obj
 0003:0000de9c       ?d2common_ppMonSequences@@3PAPAXA 660a1e9c     install.obj
 0003:0000dea0       ?d2common_pnMonSeq@@3PAHA  660a1ea0     install.obj
 0003:0000dea4       ?d2common_ppMonSeqLink@@3PAPAXA 660a1ea4     install.obj
 0003:0000dea8       ?d2common_ppMonSeqTxt@@3PAPAXA 660a1ea8     install.obj
 0003:0000deac       ?d2common_pnMonLvl@@3PAHA  660a1eac     install.obj
 0003:0000deb0       ?d2common_ppMonLvlTxt@@3PAPAXA 660a1eb0     install.obj
 0003:0000deb4       ?d2common_pnMissiles@@3PAHA 660a1eb4     install.obj
 0003:0000deb8       ?d2common_ppMissilesLink@@3PAPAXA 660a1eb8     install.obj
 0003:0000debc       ?d2common_ppMissilesTxt@@3PAPAXA 660a1ebc     install.obj
 0003:0000dec0       ?d2common_pSuperUniqueHcIdxList@@3PAPAXA 660a1ec0     install.obj
 0003:0000dec4       ?d2common_pnSuperUniques@@3PAHA 660a1ec4     install.obj
 0003:0000dec8       ?d2common_ppSuperUniquesLink@@3PAPAXA 660a1ec8     install.obj
 0003:0000decc       ?d2common_ppSuperUniquesTxt@@3PAPAXA 660a1ecc     install.obj
 0003:0000ded0       ?d2common_pnMonPresetEachAct@@3PAHA 660a1ed0     install.obj
 0003:0000ded4       ?d2common_ppMonPresetActList@@3PAPAXA 660a1ed4     install.obj
 0003:0000ded8       ?d2common_ppMonPresetTxt@@3PAPAXA 660a1ed8     install.obj
 0003:0000dedc       ?d2common_pnMonPlace@@3PAHA 660a1edc     install.obj
 0003:0000dee0       ?d2common_ppMonPlaceLink@@3PAPAXA 660a1ee0     install.obj
 0003:0000dee4       ?d2common_ppMonPlaceTxt@@3PAPAXA 660a1ee4     install.obj
 0003:0000dee8       ?d2common_pnMonStats2@@3PAHA 660a1ee8     install.obj
 0003:0000deec       ?d2common_ppMonStats2Link@@3PAPAXA 660a1eec     install.obj
 0003:0000def0       ?d2common_ppMonStats2Txt@@3PAPAXA 660a1ef0     install.obj
 0003:0000def4       ?d2common_pnMonSounds@@3PAHA 660a1ef4     install.obj
 0003:0000def8       ?d2common_ppMonSoundsLink@@3PAPAXA 660a1ef8     install.obj
 0003:0000defc       ?d2common_ppMonSoundsTxt@@3PAPAXA 660a1efc     install.obj
 0003:0000df00       ?d2common_pnMonStats@@3PAHA 660a1f00     install.obj
 0003:0000df04       ?d2common_ppMonStatsLink@@3PAPAXA 660a1f04     install.obj
 0003:0000df08       ?d2common_ppMonStatsTxt@@3PAPAXA 660a1f08     install.obj
 0003:0000df0c       ?d2common_ppChestTreasureClassList@@3PAPAXA 660a1f0c     install.obj
 0003:0000df10       ?d2common_pnTreasureClassEx@@3PAHA 660a1f10     install.obj
 0003:0000df14       ?d2common_ppTreasureClassExTxt@@3PAPAUTreasureClass@@A 660a1f14     install.obj
 0003:0000df18       ?d2common_ppTreasureClassExLink@@3PAPAXA 660a1f18     install.obj
 0003:0000df1c       ?d2common_ppColorsLink@@3PAPAXA 660a1f1c     install.obj
 0003:0000df20       ?d2common_ppColorsTxt@@3PAPAXA 660a1f20     install.obj
 0003:0000df24       ?d2common_pnNpcs@@3PAHA    660a1f24     install.obj
 0003:0000df28       ?d2common_ppNpcsTxt@@3PAPAXA 660a1f28     install.obj
 0003:0000df2c       ?d2common_pHireNameListEnd@@3PAPAXA 660a1f2c     install.obj
 0003:0000df30       ?d2common_pHireNameListStart@@3PAPAXA 660a1f30     install.obj
 0003:0000df34       ?d2common_pnHirelings@@3PAHA 660a1f34     install.obj
 0003:0000df38       ?d2common_ppHirelingsTxt@@3PAPAXA 660a1f38     install.obj
 0003:0000df3c       ?d2common_pnSoundCodes@@3PAHA 660a1f3c     install.obj
 0003:0000df40       ?d2common_ppSoundCodesLink@@3PAPAXA 660a1f40     install.obj
 0003:0000df44       ?d2common_ppSoundCodesBin@@3PAPAXA 660a1f44     install.obj
 0003:0000df48       ?d2common_pnColorStates@@3PAHA 660a1f48     install.obj
 0003:0000df4c       ?d2common_ppColorStates@@3PAPAXA 660a1f4c     install.obj
 0003:0000df50       ?d2common_pnActionStates@@3PAHA 660a1f50     install.obj
 0003:0000df54       ?d2common_ppActionStates@@3PAPAXA 660a1f54     install.obj
 0003:0000df58       ?d2common_pnTransformStates@@3PAHA 660a1f58     install.obj
 0003:0000df5c       ?d2common_ppTransformStates@@3PAPAXA 660a1f5c     install.obj
 0003:0000df60       ?d2common_pnCurseStates@@3PAHA 660a1f60     install.obj
 0003:0000df64       ?d2common_ppCurseStates@@3PAPAXA 660a1f64     install.obj
 0003:0000df68       ?d2common_pnProgressiveStates@@3PAHA 660a1f68     install.obj
 0003:0000df6c       ?d2common_ppProgressiveStates@@3PAPAXA 660a1f6c     install.obj
 0003:0000df70       ?d2common_ppStateMaskArray@@3PAPAXA 660a1f70     install.obj
 0003:0000df74       ?d2common_ppStateMaskFirst@@3PAPAXA 660a1f74     install.obj
 0003:0000df78       ?d2common_pnStates@@3PAHA  660a1f78     install.obj
 0003:0000df7c       ?d2common_ppStatesLink@@3PAPAXA 660a1f7c     install.obj
 0003:0000df80       ?d2common_ppStatesTxt@@3PAPAXA 660a1f80     install.obj
 0003:0000df84       ?d2common_ppHireDescLink@@3PAPAXA 660a1f84     install.obj
 0003:0000df88       ?d2common_ppHireDescTxt@@3PAPAXA 660a1f88     install.obj
 0003:0000df8c       ?d2common_ppRunesLink@@3PAPAXA 660a1f8c     install.obj
 0003:0000df90       ?d2common_pnProperties@@3PAHA 660a1f90     install.obj
 0003:0000df94       ?d2common_ppPropertiesLink@@3PAPAXA 660a1f94     install.obj
 0003:0000df98       ?d2common_ppPropertiesTxt@@3PAPAXA 660a1f98     install.obj
 0003:0000df9c       ?d2common_pnItemCalcCacheDelta@@3PAHA 660a1f9c     install.obj
 0003:0000dfa0       ?d2common_pnItemCalcCache@@3PAHA 660a1fa0     install.obj
 0003:0000dfa4       ?d2common_ppItemCalcCache@@3PAPAXA 660a1fa4     install.obj
 0003:0000dfa8       ?d2common_ppItemLink@@3PAPAUItemCodeTxtNo@@A 660a1fa8     install.obj
 0003:0000dfac       ?d2common_pnMonAi@@3PAHA   660a1fac     install.obj
 0003:0000dfb0       ?d2common_ppMonAiLink@@3PAPAXA 660a1fb0     install.obj
 0003:0000dfb4       ?d2common_ppMonAiTxt@@3PAPAXA 660a1fb4     install.obj
 0003:0000dfb8       ?d2common_pnCompCodes@@3PAHA 660a1fb8     install.obj
 0003:0000dfbc       ?d2common_ppCompCodesLink@@3PAPAXA 660a1fbc     install.obj
 0003:0000dfc0       ?d2common_ppCompCodesTxt@@3PAPAXA 660a1fc0     install.obj
 0003:0000dfc4       ?d2common_ppEventsLink@@3PAPAXA 660a1fc4     install.obj
 0003:0000dfc8       ?d2common_ppEventsTxt@@3PAPAXA 660a1fc8     install.obj
 0003:0000dfcc       ?d2common_ppSkillCodesLink@@3PAPAXA 660a1fcc     install.obj
 0003:0000dfd0       ?d2common_ppSkillCodesBin@@3PAPAXA 660a1fd0     install.obj
 0003:0000dfd4       ?d2common_pnMissCalcCacheDelta@@3PAHA 660a1fd4     install.obj
 0003:0000dfd8       ?d2common_pnMissCalcCache@@3PAHA 660a1fd8     install.obj
 0003:0000dfdc       ?d2common_ppMissCalcCache@@3PAPAXA 660a1fdc     install.obj
 0003:0000dfe0       ?d2common_ppMissCalcLink@@3PAPAXA 660a1fe0     install.obj
 0003:0000dfe4       ?d2common_ppMissCalcTxt@@3PAPAXA 660a1fe4     install.obj
 0003:0000dfe8       ?d2common_pnSkillDescCalcCacheDelta@@3PAHA 660a1fe8     install.obj
 0003:0000dfec       ?d2common_pnSkillDescCalcCache@@3PAHA 660a1fec     install.obj
 0003:0000dff0       ?d2common_ppSkillDescCalcCache@@3PAPAXA 660a1ff0     install.obj
 0003:0000dff4       ?d2common_pnSkillCalcCacheDelta@@3PAHA 660a1ff4     install.obj
 0003:0000dff8       ?d2common_pnSkillCalcCache@@3PAHA 660a1ff8     install.obj
 0003:0000dffc       ?d2common_ppSkillCalcCache@@3PAPAXA 660a1ffc     install.obj
 0003:0000e000       ?d2common_ppSkillCalcLink@@3PAPAXA 660a2000     install.obj
 0003:0000e004       ?d2common_ppSkillCalcTxt@@3PAPAXA 660a2004     install.obj
 0003:0000e008       ?d2common_ppPlrModeLink@@3PAPAXA 660a2008     install.obj
 0003:0000e00c       ?d2common_ppPlrModeTxt@@3PAPAXA 660a200c     install.obj
 0003:0000e010       ?d2common_ppMonModeLink@@3PAPAXA 660a2010     install.obj
 0003:0000e014       ?d2common_ppMonModeTxt@@3PAPAXA 660a2014     install.obj
 0003:0000e018       ?d2common_ppHitClassLink@@3PAPAXA 660a2018     install.obj
 0003:0000e01c       ?d2common_ppHitClassTxt@@3PAPAXA 660a201c     install.obj
 0003:0000e020       ?d2common_ppElemTypesLink@@3PAPAXA 660a2020     install.obj
 0003:0000e024       ?d2common_ppElemTypesTxt@@3PAPAXA 660a2024     install.obj
 0003:0000e028       ?d2common_ppStorePageLink@@3PAPAXA 660a2028     install.obj
 0003:0000e02c       ?d2common_ppStorePageTxt@@3PAPAXA 660a202c     install.obj
 0003:0000e030       ?d2common_ppBodyLocsLink@@3PAPAXA 660a2030     install.obj
 0003:0000e034       ?d2common_ppBodyLocsTxt@@3PAPAXA 660a2034     install.obj
 0003:0000e038       ?d2common_ppPlayerClassLink@@3PAPAXA 660a2038     install.obj
 0003:0000e03c       ?d2common_ppPlayerClassTxt@@3PAPAXA 660a203c     install.obj
 0003:0000e040       ?d2common_pRuneWordTxt@@3PAPAURuneWordTxt@@A 660a2040     install.obj
 0003:0000e044       ?d2common_pRuneWords@@3PAHA 660a2044     install.obj
 0003:0000e048       ?d2common_pArmorTxts@@3PAHA 660a2048     install.obj
 0003:0000e04c       ?d2common_pWeaponsTxts@@3PAHA 660a204c     install.obj
 0003:0000e050       ?d2common_pItemTxts@@3PAPAUItemTxt@@A 660a2050     install.obj
 0003:0000e054       ?d2common_pItemTxtCount@@3PAHA 660a2054     install.obj
 0003:0000e058       ?d2common_pInventoryTxt@@3PAPAUInventoryBIN@@A 660a2058     install.obj
 0003:0000e05c       ?d2common_pInventoryTxtCount@@3PAHA 660a205c     install.obj
 0003:0000e060       ?d2common_pDataTables@@3PAPAUD2DataTables@@A 660a2060     install.obj
 0003:0000e064       ?d2common_compileInventoryTxt@@3P6GPAUInventoryBIN@@H@ZA 660a2064     install.obj
 0003:0000e068       ?d2common_getInventoryPos16@@3P6GXHHPAUEquipmentLayout16@@@ZA 660a2068     install.obj
 0003:0000e06c       ?d2common_getInventoryLayout@@3P6GXHHPAUInvLayout@@@ZA 660a206c     install.obj
 0003:0000e070       ?d2common_getEquipmentPos@@3P6GXHHPAUEquipmentLayout20@@H@ZA 660a2070     install.obj
 0003:0000e074       ?d2common_revealRect7C300@@3P6IHHPAUDrlgAct@@HH@ZA 660a2074     install.obj
 0003:0000e078       ?d2common_compileItemStatCostTxt@@3P6GPAXH@ZA 660a2078     install.obj
 0003:0000e07c       ?d2common_compileItemTypeTxt@@3P6GPAXH@ZA 660a207c     install.obj
 0003:0000e080       ?d2common_GetItemTxt@@3P6GPAUItemTxt@@H@ZA 660a2080     install.obj
 0003:0000e084       ?d2common_getTxtNoByCode@@3P6GHH@ZA 660a2084     install.obj
 0003:0000e088       ?d2common_getAreaLevel@@3P6GHHHH@ZA 660a2088     install.obj
 0003:0000e08c       ?d2common_GetLevelTxt@@3P6GPAULevelTxt@@H@ZA 660a208c     install.obj
 0003:0000e090       ?d2common_GetLevelWeather@@3P6GDH@ZA 660a2090     install.obj
 0003:0000e094       ?d2common_GetLevelTxt07@@3P6GDH@ZA 660a2094     install.obj
 0003:0000e098       ?d2common_GetLevelTxt06@@3P6GDH@ZA 660a2098     install.obj
 0003:0000e09c       ?d2common_GetLevelDefTxt@@3P6IPAULevelDefTxt@@H@ZA 660a209c     install.obj
 0003:0000e0a0       ?d2common_addToRectData1C@@3P6GHPAUUnitAny@@@ZA 660a20a0     install.obj
 0003:0000e0a4       ?d2common_initGameDataTable@@3P6GHHHH@ZA 660a20a4     install.obj
 0003:0000e0a8       ?d2common_getLvlOfExp@@3P6GHHH@ZA 660a20a8     install.obj
 0003:0000e0ac       ?d2common_CompileTxtFile@@3P6GPAXHPADPAUTxtField@@PAHH@ZA 660a20ac     install.obj
 0003:0000e0b0       ?d2common_uninit@@3P6GHXZA 660a20b0     install.obj
 0003:0000e0b4       ?d2common_GetMinExpToLevel@@3P6GHHH@ZA 660a20b4     install.obj
 0003:0000e0b8       ?d2common_getPlayerMaxLvl@@3P6GHH@ZA 660a20b8     install.obj
 0003:0000e0bc       ?d2common_compileMonTypeTxt@@3P6GPAXH@ZA 660a20bc     install.obj
 0003:0000e0c0       ?d2common_GetTreasureClasses@@3P6GPAUTreasureClass@@GH@ZA 660a20c0     install.obj
 0003:0000e0c4       ?d2common_GetSuperUniqueTxt@@3P6GPAUSuperUniqueTxt@@H@ZA 660a20c4     install.obj
 0003:0000e0c8       ?d2common_SetSkillBaseLevel@@3P6GXPAUUnitAny@@HHHPADH@ZA 660a20c8     install.obj
 0003:0000e0cc       ?d2common_getSkillStatus@@3P6GHPAUUnitAny@@PAUSkill@@@ZA 660a20cc     install.obj
 0003:0000e0d0       ?d2common_getMaxSkeletons@@3P6GHPAUUnitAny@@HHH@ZA 660a20d0     install.obj
 0003:0000e0d4       ?d2common_GetSkillCost@@3P6GHPAUUnitAny@@HHH@ZA 660a20d4     install.obj
 0003:0000e0d8       ?d2common_GetSkillLevel@@3P6GHPAUUnitAny@@PAUSkill@@H@ZA 660a20d8     install.obj
 0003:0000e0dc       ?d2common_CheckCorpseCanUse@@3P6GHPAUUnitAny@@K@ZA 660a20dc     install.obj
 0003:0000e0e0       ?d2common_getSkillBonus@@3P6IHXZA 660a20e0     install.obj
 0003:0000e0e4       ?d2common_getSkillId@@3P6GHHH@ZA 660a20e4     install.obj
 0003:0000e0e8       ?d2common_getPlayerSkillCount@@3P6GHH@ZA 660a20e8     install.obj
 0003:0000e0ec       ?d2common_setSkillCount@@3P6GXPAUSkill@@H@ZA 660a20ec     install.obj
 0003:0000e0f0       ?d2common_GetDropPos@@3P6GPAUAreaRectData@@PAU1@PAUtagPOINT@@1HHHH@ZA 660a20f0     install.obj
 0003:0000e0f4       ?d2common_IsLineBlocked@@3P6GHPAUAreaRectData@@PAUtagPOINT@@1H@ZA 660a20f4     install.obj
 0003:0000e0f8       ?d2common_setItemEthereal@@3P6GHPAUUnitAny@@@ZA 660a20f8     install.obj
 0003:0000e0fc       ?d2common_GetObjectTxt@@3P6GPAUObjectTxt@@H@ZA 660a20fc     install.obj
 0003:0000e100       ?d2common_revealRect@@3P6GHPAUDrlgAct@@HHHPAUAreaRectData@@@ZA 660a2100     install.obj
 0003:0000e104       ?d2common_isInTown@@3P6GHPAUAreaRectData@@@ZA 660a2104     install.obj
 0003:0000e108       ?d2common_GetLevelIdFromRectData@@3P6GHPAUAreaRectData@@@ZA 660a2108     install.obj
 0003:0000e10c       ?d2common_Common11084@@3P6GHPAUAreaRectData@@H@ZA 660a210c     install.obj
 0003:0000e110       ?d2common_createStatListEx@@3P6GHPAUUnitAny@@HPAXH1@ZA 660a2110     install.obj
 0003:0000e114       ?d2common_Ord10196@@3P6GHPAUUnitAny@@@ZA 660a2114     install.obj
 0003:0000e118       ?d2common_stat_10807@@3P6GHPAUUnitAny@@PAUStatList@@H@ZA 660a2118     install.obj
 0003:0000e11c       ?d2common_changeUnitStat@@3P6GHPAUUnitAny@@HHH@ZA 660a211c     install.obj
 0003:0000e120       ?d2common_AddPlayerStat@@3P6GXPAUUnitAny@@HHH@ZA 660a2120     install.obj
 0003:0000e124       ?d2common_addStatList@@3P6GHPAUStatList@@HHH@ZA 660a2124     install.obj
 0003:0000e128       ?d2common_changeStatList@@3P6GHPAUStatList@@HHH@ZA 660a2128     install.obj
 0003:0000e12c       ?d2common_fun39F70@@3P6GHHPAUUnitAny@@@ZA 660a212c     install.obj
 0003:0000e130       ?d2common_getStatValue39380@@3P6GHH@ZA 660a2130     install.obj
 0003:0000e134       ?d2common_getUnitMaxHP@@3P6GHPAUUnitAny@@@ZA 660a2134     install.obj
 0003:0000e138       ?d2common_getUnitMaxMana@@3P6GHPAUUnitAny@@@ZA 660a2138     install.obj
 0003:0000e13c       ?d2common_getUnitMaxStamina@@3P6GHPAUUnitAny@@@ZA 660a213c     install.obj
 0003:0000e140       ?d2common_GetUnitBaseStat@@3P6GHPAUUnitAny@@HG@ZA 660a2140     install.obj
 0003:0000e144       ?d2common_GetUnitStat@@3P6GHPAUUnitAny@@HG@ZA 660a2144     install.obj
 0003:0000e148       ?d2common_getUnitStatValueB00@@3P6GHPAUItemStatCostTxt@@@ZA 660a2148     install.obj
 0003:0000e14c       ?d2common_getStatValueWithMinChecked@@3P6GHPAUItemStatCostTxt@@@ZA 660a214c     install.obj
 0003:0000e150       ?d2common_sendStat10984@@3P6GHPAUUnitAny@@0PAX@ZA 660a2150     install.obj
 0003:0000e154       ?d2common_GetStatFromStatList@@3P6GHPAUStatList@@KPAUStatEx@@K@ZA 660a2154     install.obj
 0003:0000e158       ?d2common_bsearchStat@@3P6GHXZA 660a2158     install.obj
 0003:0000e15c       ?d2common_removeStat@@3P6GHH@ZA 660a215c     install.obj
 0003:0000e160       ?d2common_GetStatListWithFlag@@3P6GPAUStatList@@PAUUnitAny@@HK@ZA 660a2160     install.obj
 0003:0000e164       ?d2common_GetUnitPosX@@3P6GHPAUDynamicPath@@@ZA 660a2164     install.obj
 0003:0000e168       ?d2common_GetUnitPosY@@3P6GHPAUDynamicPath@@@ZA 660a2168     install.obj
 0003:0000e16c       ?d2common_CheckUnitState@@3P6GHPAUUnitAny@@H@ZA 660a216c     install.obj
 0003:0000e170       ?d2common_setUnitMode@@3P6GHPAUUnitAny@@H@ZA 660a2170     install.obj
 0003:0000e174       ?d2common_GetMonsterHpPercent@@3P6GHPAUUnitAny@@@ZA 660a2174     install.obj
 0003:0000e178       ?d2common_IsUnitBlocked@@3P6GHPAUUnitAny@@0H@ZA 660a2178     install.obj
 0003:0000e17c       ?d2common_getUnitSize@@3P6GHPAUUnitAny@@@ZA 660a217c     install.obj
 0003:0000e180       ?d2common_getLeftSkill@@3P6GPAUSkill@@PAUUnitAny@@@ZA 660a2180     install.obj
 0003:0000e184       ?d2common_getCurrentSkill@@3P6GPAUSkill@@PAUUnitAny@@@ZA 660a2184     install.obj
 0003:0000e188       ?d2common_getUnitPos@@3P6GXPAUUnitAny@@PAUtagPOINT@@@ZA 660a2188     install.obj
 0003:0000e18c       ?d2common_getRectData@@3P6GPAUAreaRectData@@PAUUnitAny@@@ZA 660a218c     install.obj
 0003:0000e190       ?d2common_GetBoxType@@3P6GHPAUUnitAny@@EH@ZA 660a2190     install.obj
 0003:0000e194       ?d2common_allocUnit@@3P6GPAUUnitAny@@HH@ZA 660a2194     install.obj
 0003:0000e198       ?d2common_setStaticUnitX@@3P6GXPAUUnitAny@@H@ZA 660a2198     install.obj
 0003:0000e19c       ?d2common_setStaticUnitY@@3P6GXPAUUnitAny@@H@ZA 660a219c     install.obj
 0003:0000e1a0       ?d2common_GetPlayerData@@3P6GPAUPlayerData@@PAUUnitAny@@@ZA 660a21a0     install.obj
 0003:0000e1a4       ?d2common_getObjectFlags@@3P6GHPAUUnitAny@@@ZA 660a21a4     install.obj
 0003:0000e1a8       ?d2common_setObjectFlags@@3P6GHPAUUnitAny@@H@ZA 660a21a8     install.obj
 0003:0000e1ac       ?d2common_revealRect2E5C0@@3P6GHHHPAUDrlgMisc@@PAUDrlgLevel@@@ZA 660a21ac     install.obj
 0003:0000e1b0       ?d2common_InitDrlgLevel@@3P6GXPAUDrlgLevel@@@ZA 660a21b0     install.obj
 0003:0000e1b4       ?d2common_GetDrlgLevel@@3P6IPAUDrlgLevel@@PAUDrlgMisc@@H@ZA 660a21b4     install.obj
 0003:0000e1b8       ?d2common_CheckQuestFlag@@3P6GHPAUQuestInfo@@HH@ZA 660a21b8     install.obj
 0003:0000e1bc       ?d2common_setQuestFlag@@3P6GXPAUQuestInfo@@HH@ZA 660a21bc     install.obj
 0003:0000e1c0       ?d2common_clearQuestFlag@@3P6GXPAUQuestInfo@@HH@ZA 660a21c0     install.obj
 0003:0000e1c4       ?d2common_copyQuestData@@3P6GPAUQuestInfo@@PAU1@PAFHH@ZA 660a21c4     install.obj
 0003:0000e1c8       ?d2common_GetMercInfo@@3P6GHHHHPAX@ZA 660a21c8     install.obj
 0003:0000e1cc       ?d2common_setItemSocket@@3P6GHPAUUnitAny@@H@ZA 660a21cc     install.obj
 0003:0000e1d0       ?d2common_GetItemPrice@@3P6GHPAUUnitAny@@0HPAUQuestInfo@@HK@ZA 660a21d0     install.obj
 0003:0000e1d4       ?d2common_EncodeItem@@3P6GHPAUUnitAny@@PADHHHH@ZA 660a21d4     install.obj
 0003:0000e1d8       ?d2common_EncodeItemBits@@3P6IHPAUUnitAny@@PAUFogBits@@HHH@ZA 660a21d8     install.obj
 0003:0000e1dc       ?d2common_EncodeComplexItem@@3P6GHPAUUnitAny@@PAUFogBits@@HH@ZA 660a21dc     install.obj
 0003:0000e1e0       ?d2common_searchRunewordTxt@@3P6GPAURuneWordTxt@@PAUUnitAny@@@ZA 660a21e0     install.obj
 0003:0000e1e4       ?d2common_getSocketCount@@3P6GHPAUUnitAny@@@ZA 660a21e4     install.obj
 0003:0000e1e8       ?d2common_EncodeCompactItem@@3P6GHPAUUnitAny@@H@ZA 660a21e8     install.obj
 0003:0000e1ec       ?d2common_countUsedSocketed@@3P6GHXZA 660a21ec     install.obj
 0003:0000e1f0       ?d2common_getItemMaxSocket@@3P6GHPAUUnitAny@@@ZA 660a21f0     install.obj
 0003:0000e1f4       ?d2common_checkItemTypeFlags@@3P6GHPAUUnitAny@@H@ZA 660a21f4     install.obj
 0003:0000e1f8       ?d2common_isMagicItem@@3P6GHPAUUnitAny@@@ZA 660a21f8     install.obj
 0003:0000e1fc       ?d2common_writeBitStream@@3P6GXPAUFogBits@@@ZA 660a21fc     install.obj
 0003:0000e200       ?d2common_getItemSeed@@3P6GPAUD2Seed@@PAUUnitAny@@@ZA 660a2200     install.obj
 0003:0000e204       ?d2common_getItemFingerPrint@@3P6GHPAUUnitAny@@@ZA 660a2204     install.obj
 0003:0000e208       ?d2common_setItemFingerPrint@@3P6GXPAUUnitAny@@H@ZA 660a2208     install.obj
 0003:0000e20c       ?d2common_getItemQuality@@3P6GHPAUUnitAny@@@ZA 660a220c     install.obj
 0003:0000e210       ?d2common_setItemQuality@@3P6GXPAUUnitAny@@H@ZA 660a2210     install.obj
 0003:0000e214       ?d2common_getItemMagicPrefix@@3P6GHPAUUnitAny@@H@ZA 660a2214     install.obj
 0003:0000e218       ?d2common_getItemMagicSuffix@@3P6GHPAUUnitAny@@H@ZA 660a2218     install.obj
 0003:0000e21c       ?d2common_getRarePrefix@@3P6GFPAUUnitAny@@@ZA 660a221c     install.obj
 0003:0000e220       ?d2common_getRareSuffix@@3P6GFPAUUnitAny@@@ZA 660a2220     install.obj
 0003:0000e224       ?d2common_CheckItemFlag@@3P6GHPAUUnitAny@@KHPAD@ZA 660a2224     install.obj
 0003:0000e228       ?d2common_setItemFlag@@3P6GXPAUUnitAny@@HH@ZA 660a2228     install.obj
 0003:0000e22c       ?d2common_getItemFlag@@3P6GXPAUUnitAny@@@ZA 660a222c     install.obj
 0003:0000e230       ?d2common_setItemLevel@@3P6GHPAUUnitAny@@H@ZA 660a2230     install.obj
 0003:0000e234       ?d2common_setItemLocation@@3P6GHPAUUnitAny@@D@ZA 660a2234     install.obj
 0003:0000e238       ?d2common_getItemTypeB14@@3P6GHPAUUnitAny@@@ZA 660a2238     install.obj
 0003:0000e23c       ?d2common_getItemCode@@3P6GPADPAUUnitAny@@@ZA 660a223c     install.obj
 0003:0000e240       ?d2common_getItemWidthHeight@@3P6GHPAUUnitAny@@PAD1@ZA 660a2240     install.obj
 0003:0000e244       ?d2common_getItemType@@3P6GHPAUUnitAny@@@ZA 660a2244     install.obj
 0003:0000e248       ?d2common_getItemTypeByTxt@@3P6GHH@ZA 660a2248     install.obj
 0003:0000e24c       ?d2common_getItemCode1@@3P6GPADPAUUnitAny@@@ZA 660a224c     install.obj
 0003:0000e250       ?d2common_getItemTypeTxt10@@3P6GDH@ZA 660a2250     install.obj
 0003:0000e254       ?d2common_isQuestItem@@3P6GHPAUUnitAny@@@ZA 660a2254     install.obj
 0003:0000e258       ?d2common_GetItemFileIndex@@3P6GHPAUUnitAny@@@ZA 660a2258     install.obj
 0003:0000e25c       ?d2common_setItemFileIndex@@3P6GHPAUUnitAny@@H@ZA 660a225c     install.obj
 0003:0000e260       ?d2common_getItemData1C_20@@3P6GXPAUUnitAny@@PAX1@ZA 660a2260     install.obj
 0003:0000e264       ?d2common_setOwnerId@@3P6GXPAUUnitAny@@H@ZA 660a2264     install.obj
 0003:0000e268       ?d2common_isCompactItem@@3P6IDXZA 660a2268     install.obj
 0003:0000e26c       ?d2common_getItemFormat@@3P6GHPAUUnitAny@@@ZA 660a226c     install.obj
 0003:0000e270       ?d2common_setItemFormat@@3P6GXPAUUnitAny@@F@ZA 660a2270     install.obj
 0003:0000e274       ?d2common_isBitSet@@3P6GHHH@ZA 660a2274     install.obj
 0003:0000e278       ?d2common_putItemIntoSocket10405@@3P6GHPAUUnitInventory@@PAUUnitAny@@H@ZA 660a2278     install.obj
 0003:0000e27c       ?d2common_setCursorItem@@3P6GHPAUUnitInventory@@PAUUnitAny@@@ZA 660a227c     install.obj
 0003:0000e280       ?d2common_isItemInside@@3P6GHPAUUnitInventory@@PAUUnitAny@@@ZA 660a2280     install.obj
 0003:0000e284       ?d2common_CheckInvLocation@@3P6GHPAUUnitInventory@@PAUUnitAny@@HHHPAH2E@ZA 660a2284     install.obj
 0003:0000e288       ?d2common_GetNextItemInInv@@3P6GPAUUnitAny@@PAU1@@ZA 660a2288     install.obj
 0003:0000e28c       ?d2common_getOwnerInventory@@3P6GPAUUnitInventory@@XZA 660a228c     install.obj
 0003:0000e290       ?d2common_createInventory@@3P6GPAUUnitInventory@@PAXPAUUnitAny@@@ZA 660a2290     install.obj
 0003:0000e294       ?d2common_getEquippedItemInfo@@3P6GHPAUUnitInventory@@H@ZA 660a2294     install.obj
 0003:0000e298       ?d2common_createEquippedItem@@3P6GPAUEquippedGears@@XZA 660a2298     install.obj
 0003:0000e29c       ?d2common_GetFirstItemInInv@@3P6GPAUUnitAny@@PAUUnitInventory@@@ZA 660a229c     install.obj
 0003:0000e2a0       ?d2common_GetCursorItem@@3P6GPAUUnitAny@@PAUUnitInventory@@@ZA 660a22a0     install.obj
 0003:0000e2a4       ?d2common_getFilledSockets@@3P6GHPAUUnitInventory@@@ZA 660a22a4     install.obj
 0003:0000e2a8       ?d2common_subEsp@@3P6GHXZA 660a22a8     install.obj
 0003:0000e2ac       ?d2common_exit@@3P6GHH@ZA  660a22ac     install.obj
 0003:0000e2b0       ?d2common_GetMonStats2@@3P6IPAXXZA 660a22b0     install.obj
 0003:0000e2b4       ?d2common_GetNearRectDataWithPos@@3P6IPAUAreaRectData@@XZA 660a22b4     install.obj
 0003:0000e2b8       ?d2common_GetCharStatsTxt@@3P6GPAXXZA 660a22b8     install.obj
 0003:0000e2bc       ?d2cmp_mpq_path_3010@@3P6IHPAD@ZA 660a22bc     install.obj
 0003:0000e2c0       ?d2cmp_InitCellFile@@3P6GXPAXPAPAUCellFile@@PADHH2@ZA 660a22c0     install.obj
 0003:0000e2c4       ?d2cmp_DeleteCellFile@@3P6GXPAUCellFile@@@ZA 660a22c4     install.obj
 0003:0000e2c8       ?d2client_pIsEquipment800x600@@3PAHA 660a22c8     install.obj
 0003:0000e2cc       ?d2client_pQuestPage@@3PAHA 660a22cc     install.obj
 0003:0000e2d0       ?d2client_plpCritialSection@@3PAPAUCriticalSection@@A 660a22d0     install.obj
 0003:0000e2d4       ?d2client_pworldHash@@3PAPAUWorldHash@@A 660a22d4     install.obj
 0003:0000e2d8       ?d2client_pLastChatMessage@@3PA_WA 660a22d8     install.obj
 0003:0000e2dc       ?d2client_pPetUnitList@@3PAPAUPetUnit@@A 660a22dc     install.obj
 0003:0000e2e0       ?d2client_pShowManaStr@@3PAHA 660a22e0     install.obj
 0003:0000e2e4       ?d2client_pShowLifeStr@@3PAHA 660a22e4     install.obj
 0003:0000e2e8       ?d2client_pBeltNotEmpty@@3PADA 660a22e8     install.obj
 0003:0000e2ec       ?d2client_pscreenDrawXsub@@3PAHA 660a22ec     install.obj
 0003:0000e2f0       ?d2client_pScreenBlocked@@3PAHA 660a22f0     install.obj
 0003:0000e2f4       ?d2client_pStandStill@@3PAHA 660a22f4     install.obj
 0003:0000e2f8       ?d2client_pNpcConvData@@3PAPAXA 660a22f8     install.obj
 0003:0000e2fc       ?d2client_pDrlgAct@@3PAPAUDrlgAct@@A 660a22fc     install.obj
 0003:0000e300       ?d2client_pnotAcceptKeys@@3PAHA 660a2300     install.obj
 0003:0000e304       ?d2client_pMButton@@3PAHA  660a2304     install.obj
 0003:0000e308       ?d2client_pInGame@@3PAHA   660a2308     install.obj
 0003:0000e30c       ?d2client_pDifficulty@@3PAEA 660a230c     install.obj
 0003:0000e310       ?d2client_pMercData32@@3PAHA 660a2310     install.obj
 0003:0000e314       ?d2client_pFlagUnknownC2F8@@3PAHA 660a2314     install.obj
 0003:0000e318       ?d2client_pHasSelectedObject@@3PAHA 660a2318     install.obj
 0003:0000e31c       ?d2client_pFps@@3PAHA      660a231c     install.obj
 0003:0000e320       ?d2client_pAutoMapSize@@3PAUtagPOINT@@A 660a2320     install.obj
 0003:0000e324       ?d2client_pMinimapOffset@@3PAUtagPOINT@@A 660a2324     install.obj
 0003:0000e328       ?d2client_pInfoPositionY@@3PAHA 660a2328     install.obj
 0003:0000e32c       ?d2client_pScreenMinimapY@@3PAHA 660a232c     install.obj
 0003:0000e330       ?d2client_pScreenMinimapX@@3PAHA 660a2330     install.obj
 0003:0000e334       ?d2client_pAutomapPos@@3PAUtagPOINT@@A 660a2334     install.obj
 0003:0000e338       ?d2client_pMinimapCellFile@@3PAPAUCellFile@@A 660a2338     install.obj
 0003:0000e33c       ?d2client_pAutomapLayer@@3PAPAUAutomapLayer@@A 660a233c     install.obj
 0003:0000e340       ?d2client_pAutomapLayerList@@3PAPAUAutomapLayer@@A 660a2340     install.obj
 0003:0000e344       ?d2client_pMinimapType@@3PAHA 660a2344     install.obj
 0003:0000e348       ?d2client_pChatTextLength@@3PAHA 660a2348     install.obj
 0003:0000e34c       ?d2client_pMapShakeX@@3PAJA 660a234c     install.obj
 0003:0000e350       ?d2client_pIsMapShakeOn@@3PAHA 660a2350     install.obj
 0003:0000e354       ?d2client_pActiveWeapon@@3PAHA 660a2354     install.obj
 0003:0000e358       ?d2client_pStachImage@@3PAPAUCellFile@@A 660a2358     install.obj
 0003:0000e35c       ?d2client_pPanelTradeStash@@3PAPAUCellFile@@A 660a235c     install.obj
 0003:0000e360       ?d2client_pPanelCube@@3PAPAUCellFile@@A 660a2360     install.obj
 0003:0000e364       ?d2client_pPanelBank@@3PAPAUCellFile@@A 660a2364     install.obj
 0003:0000e368       ?d2client_pNpcTradeCurrentTab@@3PAHA 660a2368     install.obj
 0003:0000e36c       ?d2client_pCurrentViewItem@@3PAPAUUnitAny@@A 660a236c     install.obj
 0003:0000e370       ?d2client_pRosterUnitList@@3PAPAURosterUnit@@A 660a2370     install.obj
 0003:0000e374       ?d2client_pnpcInteract@@3PAPAXA 660a2374     install.obj
 0003:0000e378       ?d2client_pPlayerUnit@@3PAPAUUnitAny@@A 660a2378     install.obj
 0003:0000e37c       ?d2client_pGoldInTranBox@@3PAHA 660a237c     install.obj
 0003:0000e380       ?d2client_pDrawOffsetY@@3PAHA 660a2380     install.obj
 0003:0000e384       ?d2client_pDrawOffsetX@@3PAHA 660a2384     install.obj
 0003:0000e388       ?d2client_pDrawOffset@@3PAUtagPOINT@@A 660a2388     install.obj
 0003:0000e38c       ?d2client_pIs800x600@@3PAHA 660a238c     install.obj
 0003:0000e390       ?d2client_pGameInfo@@3PAPAUGameStructInfo@@A 660a2390     install.obj
 0003:0000e394       ?d2client_pMouseX@@3PAHA   660a2394     install.obj
 0003:0000e398       ?d2client_pMouseY@@3PAHA   660a2398     install.obj
 0003:0000e39c       ?d2client_pPanelBtn@@3PAPAUCellFile@@A 660a239c     install.obj
 0003:0000e3a0       ?d2client_pPanelInvChar@@3PAPAUCellFile@@A 660a23a0     install.obj
 0003:0000e3a4       ?d2client_pXButton1@@3PAHA 660a23a4     install.obj
 0003:0000e3a8       ?d2client_pXButton2@@3PAHA 660a23a8     install.obj
 0003:0000e3ac       ?d2client_pKeyboardSettingEnd@@3PAUKeyboardSetting@@A 660a23ac     install.obj
 0003:0000e3b0       ?d2client_pKeyboardSettingStart@@3PAUKeyboardSetting@@A 660a23b0     install.obj
 0003:0000e3b4       ?d2client_pSkillHotKeyLeft@@3PAHA 660a23b4     install.obj
 0003:0000e3b8       ?d2client_pSkillHotKeys@@3PAHA 660a23b8     install.obj
 0003:0000e3bc       ?d2client_pscreenDrawX@@3PAHA 660a23bc     install.obj
 0003:0000e3c0       ?d2client_pscreenDrawY@@3PAHA 660a23c0     install.obj
 0003:0000e3c4       ?d2client_pCastingDelayEndFrame@@3PAHA 660a23c4     install.obj
 0003:0000e3c8       ?d2client_pExpansion@@3PAHA 660a23c8     install.obj
 0003:0000e3cc       ?d2client_pPing@@3PAHA     660a23cc     install.obj
 0003:0000e3d0       ?d2client_pCurFrame@@3PAHA 660a23d0     install.obj
 0003:0000e3d4       ?d2client_pTradeRelated@@3PAPAHA 660a23d4     install.obj
 0003:0000e3d8       ?d2client_pGameQuestData@@3PAPAUQuestInfo@@A 660a23d8     install.obj
 0003:0000e3dc       ?d2client_pQuestData@@3PAPAUQuestInfo@@A 660a23dc     install.obj
 0003:0000e3e0       ?d2client_pAutomapNodeListBaseAddr@@3PAPAXA 660a23e0     install.obj
 0003:0000e3e4       ?d2client_pMapShakeY@@3PAJA 660a23e4     install.obj
 0003:0000e3e8       ?d2client_pUnitTable@@3PAPAUUnitAny@@A 660a23e8     install.obj
 0003:0000e3ec       ?d2client_pWaypointMenuCount@@3PAHA 660a23ec     install.obj
 0003:0000e3f0       ?d2client_pWaypointMenuCurTab@@3PAHA 660a23f0     install.obj
 0003:0000e3f4       ?d2client_pWaypointMenuItems@@3PAUWaypointMenuItem@@A 660a23f4     install.obj
 0003:0000e3f8       ?d2client_pUiHelpOn@@3PAHA 660a23f8     install.obj
 0003:0000e3fc       ?d2client_pUiBeltOn@@3PAHA 660a23fc     install.obj
 0003:0000e400       ?d2client_pUiCubeOn@@3PAHA 660a2400     install.obj
 0003:0000e404       ?d2client_pUiStashOn@@3PAHA 660a2404     install.obj
 0003:0000e408       ?d2client_pUiMessageLogOn@@3PAHA 660a2408     install.obj
 0003:0000e40c       ?d2client_pUiPPLTradeOn@@3PAHA 660a240c     install.obj
 0003:0000e410       ?d2client_pUiPartyOn@@3PAHA 660a2410     install.obj
 0003:0000e414       ?d2client_pUiWaypointOn@@3PAHA 660a2414     install.obj
 0003:0000e418       ?d2client_pUiNewQuestOn@@3PAHA 660a2418     install.obj
 0003:0000e41c       ?d2client_pUiQuestOn@@3PAHA 660a241c     install.obj
 0003:0000e420       ?d2client_pUiModItemOn@@3PAHA 660a2420     install.obj
 0003:0000e424       ?d2client_pUiShowItemsOn@@3PAHA 660a2424     install.obj
 0003:0000e428       ?d2client_pUiNpcTradeOn@@3PAHA 660a2428     install.obj
 0003:0000e42c       ?d2client_pAutomapOn@@3PAHA 660a242c     install.obj
 0003:0000e430       ?d2client_pUiGameMenuOn@@3PAHA 660a2430     install.obj
 0003:0000e434       ?d2client_pUiInteractOn@@3PAHA 660a2434     install.obj
 0003:0000e438       ?d2client_pUiNewSkillOn@@3PAHA 660a2438     install.obj
 0003:0000e43c       ?d2client_pUiNewStatOn@@3PAHA 660a243c     install.obj
 0003:0000e440       ?d2client_pUiChatOn@@3PAHA 660a2440     install.obj
 0003:0000e444       ?d2client_pUiSkillTreeOn@@3PAHA 660a2444     install.obj
 0003:0000e448       ?d2client_pUiSelectSkillOn@@3PAHA 660a2448     install.obj
 0003:0000e44c       ?d2client_pUiCharacterOn@@3PAHA 660a244c     install.obj
 0003:0000e450       ?d2client_pUiInventoryOn@@3PAHA 660a2450     install.obj
 0003:0000e454       ?d2client_pUiDropGoldWindow@@3PAPAXA 660a2454     install.obj
 0003:0000e458       ?d2client_pInfoPositionX@@3PAHA 660a2458     install.obj
 0003:0000e45c       ?d2client_pExitAppFlag@@3PAHA 660a245c     install.obj
 0003:0000e460       ?d2client_pGameControlEnd@@3PAHA 660a2460     install.obj
 0003:0000e464       ?d2client_pGameControlStart@@3PAHA 660a2464     install.obj
 0003:0000e468       ?d2client_pMercData16@@3PAHA 660a2468     install.obj
 0003:0000e46c       ?d2client_pMinimapZoom@@3PAHA 660a246c     install.obj
 0003:0000e470       ?d2client_pCurSkillClass@@3PAHA 660a2470     install.obj
 0003:0000e474       ?d2client_pCursorInvGridY@@3PAHA 660a2474     install.obj
 0003:0000e478       ?d2client_pCursorInvGridX@@3PAHA 660a2478     install.obj
 0003:0000e47c       ?d2client_pLastMousePos@@3PAUtagPOINT@@A 660a247c     install.obj
 0003:0000e480       ?d2client_pScreenHeight@@3PAHA 660a2480     install.obj
 0003:0000e484       ?d2client_pScreenSize@@3PAUtagPOINT@@A 660a2484     install.obj
 0003:0000e488       ?d2client_pScreenWidth@@3PAHA 660a2488     install.obj
 0003:0000e48c       ?d2client_psgptDataTables@@3PAPAUD2DataTables@@A 660a248c     install.obj
 0003:0000e490       ?d2client_DrawControls@@3P6GHH@ZA 660a2490     install.obj
 0003:0000e494       ?d2client_SetUiStatus@@3P6IHHHK@ZA 660a2494     install.obj
 0003:0000e498       ?d2client_LoadUiImageSubpath@@3P6IPAUCellFile@@XZA 660a2498     install.obj
 0003:0000e49c       ?d2client_CheckUiStatusStub@@3P6IHH@ZA 660a249c     install.obj
 0003:0000e4a0       ?d2client_RecvPacket3F@@3P6IXPAD@ZA 660a24a0     install.obj
 0003:0000e4a4       ?d2client_RecvPacket0E@@3P6IXHPAD@ZA 660a24a4     install.obj
 0003:0000e4a8       ?d2client_RecvPacket9D@@3P6IXPAD@ZA 660a24a8     install.obj
 0003:0000e4ac       ?d2client_RecvPacket9C@@3P6IXPAD@ZA 660a24ac     install.obj
 0003:0000e4b0       ?d2client_PacketHandler@@3P6GXH@ZA 660a24b0     install.obj
 0003:0000e4b4       ?d2client_RecvCommand07@@3P6IXPAE@ZA 660a24b4     install.obj
 0003:0000e4b8       ?d2client_RecvCommand08@@3P6IXPAE@ZA 660a24b8     install.obj
 0003:0000e4bc       ?d2client_removeUnitFromHash@@3P6IHPAPAUUnitAny@@HHH@ZA 660a24bc     install.obj
 0003:0000e4c0       ?d2client_addUnitToHash@@3P6GHXZA 660a24c0     install.obj
 0003:0000e4c4       ?d2client_GetUnitFromId@@3P6IPAUUnitAny@@HH@ZA 660a24c4     install.obj
 0003:0000e4c8       ?d2client_CanUseSkillNow@@3P6GHH@ZA 660a24c8     install.obj
 0003:0000e4cc       ?d2client_processMessageA3C10@@3P6GHPAUD2MSG@@@ZA 660a24cc     install.obj
 0003:0000e4d0       ?d2client_drawFloatingWindow@@3P6GHXZA 660a24d0     install.obj
 0003:0000e4d4       ?d2client_drawUnits9EE90@@3P6GHPAX@ZA 660a24d4     install.obj
 0003:0000e4d8       ?d2client_drawInventory@@3P6GHXZA 660a24d8     install.obj
 0003:0000e4dc       ?d2client_func_958A0@@3P6GHPAUUnitAny@@@ZA 660a24dc     install.obj
 0003:0000e4e0       ?d2client_DrawAllUnits@@3P6GHXZA 660a24e0     install.obj
 0003:0000e4e4       ?d2client_CalcShake@@3P6GXPAH0@ZA 660a24e4     install.obj
 0003:0000e4e8       ?d2client_useStackableItem@@3P6GXPAD@ZA 660a24e8     install.obj
 0003:0000e4ec       ?d2client_packet9C_4@@3P6IXXZA 660a24ec     install.obj
 0003:0000e4f0       ?d2client_drawEnvironment@@3P6GXPAX0@ZA 660a24f0     install.obj
 0003:0000e4f4       ?d2client_drawNpcConversition@@3P6IHXZA 660a24f4     install.obj
 0003:0000e4f8       ?d2client_isNpcConversitionEnd@@3P6IHPAX@ZA 660a24f8     install.obj
 0003:0000e4fc       ?d2client_ShowGameMessage@@3P6GXPA_WH@ZA 660a24fc     install.obj
 0003:0000e500       ?d2client_ShowPartyMessage@@3P6GXPA_WH@ZA 660a2500     install.obj
 0003:0000e504       ?d2client_getSkillTreeButtonY@@3P6IHXZA 660a2504     install.obj
 0003:0000e508       ?d2client_getSkillTreeButtonX@@3P6IHXZA 660a2508     install.obj
 0003:0000e50c       ?d2client_ChatInputStub@@3P6GXPAUD2MSG@@@ZA 660a250c     install.obj
 0003:0000e510       ?d2client_drawInvItem@@3P6GHHH@ZA 660a2510     install.obj
 0003:0000e514       ?d2client_drawUnit@@3P6GHPAX@ZA 660a2514     install.obj
 0003:0000e518       ?d2client_shouldDrawUnit@@3P6GHXZA 660a2518     install.obj
 0003:0000e51c       ?d2client_InitAutomapLayerStub@@3P6IPAUAutomapLayer@@K@ZA 660a251c     install.obj
 0003:0000e520       ?d2client_AddAreaRectToMinimap@@3P6GXPAUAreaRectData@@KPAUAutomapLayer@@@ZA 660a2520     install.obj
 0003:0000e524       ?d2client_AddAutomapNode@@3P6IXPAUAutomapNode@@PAPAU1@@ZA 660a2524     install.obj
 0003:0000e528       ?d2client_SetAutomapPartyStub@@3P6IXK@ZA 660a2528     install.obj
 0003:0000e52c       ?d2client_SetAutomapNamesStub@@3P6IXK@ZA 660a252c     install.obj
 0003:0000e530       ?d2client_NewAutomapNode@@3P6IPAUAutomapNode@@XZA 660a2530     install.obj
 0003:0000e534       ?d2client_drawAllHeads@@3P6GHXZA 660a2534     install.obj
 0003:0000e538       ?d2client_recvCmd77ButtonAction@@3P6GXXZA 660a2538     install.obj
 0003:0000e53c       ?d2client_clickAcceptTradeMenuItem@@3P6GHXZA 660a253c     install.obj
 0003:0000e540       ?d2client_GetSelectedUnit@@3P6GPAUUnitAny@@XZA 660a2540     install.obj
 0003:0000e544       ?d2client_fun_4B8A0@@3P6GHHPAFD@ZA 660a2544     install.obj
 0003:0000e548       ?d2client_clickHireMercMenu@@3P6GHXZA 660a2548     install.obj
 0003:0000e54c       ?d2client_clickGotoAct2MenuItem@@3P6GHXZA 660a254c     install.obj
 0003:0000e550       ?d2client_clickGotoAct3MenuItem@@3P6GHXZA 660a2550     install.obj
 0003:0000e554       ?d2client_drawNpcInteractMenu@@3P6GHXZA 660a2554     install.obj
 0003:0000e558       ?d2client_Unknown6150@@3P6GHXZA 660a2558     install.obj
 0003:0000e55c       ?d2client_GetScreenDrawY@@3P6GJXZA 660a255c     install.obj
 0003:0000e560       ?d2client_GetScreenDrawX@@3P6GJXZA 660a2560     install.obj
 0003:0000e564       ?d2client_DrawSkillButtonE5E0@@3P6GXHHHHHH@ZA 660a2564     install.obj
 0003:0000e568       ?d2client_SkillUnusable@@3P6IXXZA 660a2568     install.obj
 0003:0000e56c       ?d2client_processWinMessage@@3P6GHPAUHWND__@@HHH@ZA 660a256c     install.obj
 0003:0000e570       ?d2client_processMessages@@3P6IXXZA 660a2570     install.obj
 0003:0000e574       ?d2client_ShowMap@@3P6IXXZA 660a2574     install.obj
 0003:0000e578       ?d2client_LoadUiImageFunc@@3P6GPAUCellFile@@H@ZA 660a2578     install.obj
 0003:0000e57c       ?d2client_setState_2A750@@3P6IXHHHH@ZA 660a257c     install.obj
 0003:0000e580       ?d2client_UseBelt@@3P6IXPAUUnitInventory@@PAUUnitAny@@H@ZA 660a2580     install.obj
 0003:0000e584       ?d2client_DrawClient@@3P6IXXZA 660a2584     install.obj
 0003:0000e588       ?d2client_DrawSkillButton@@3P6GXPAUSkill@@HHH@ZA 660a2588     install.obj
 0003:0000e58c       ?d2client_fillLeftOrb@@3P6GHXZA 660a258c     install.obj
 0003:0000e590       ?d2client_drawHpManaText@@3P6GHXZA 660a2590     install.obj
 0003:0000e594       ?d2client_PlaySound@@3P6IHHHH@ZA 660a2594     install.obj
 0003:0000e598       ?d2client_ItemProtect@@3P6GXPAUUnitAny@@K@ZA 660a2598     install.obj
 0003:0000e59c       ?d2client_GetMonsterOwner@@3P6IHH@ZA 660a259c     install.obj
 0003:0000e5a0       ?d2client_LeftClickBDE0@@3P6GHXZA 660a25a0     install.obj
 0003:0000e5a4       ?d2client_RightClickBC40@@3P6GHXZA 660a25a4     install.obj
 0003:0000e5a8       ?d2client_ShouldClick85E0@@3P6GHXZA 660a25a8     install.obj
 0003:0000e5ac       ?d2client_SendPacket3@@3P6IXF@ZA 660a25ac     install.obj
 0003:0000e5b0       ?d2client_sendPacketLen13@@3P6IXHHH@ZA 660a25b0     install.obj
 0003:0000e5b4       ?d2client_SendPacket43E0@@3P6GXPAD@ZA 660a25b4     install.obj
 0003:0000e5b8       ?d2client_drawGround@@3P6GHPAX@ZA 660a25b8     install.obj
 0003:0000e5bc       ?d2client_drawGroundPiece@@3P6GXHHHHHH@ZA 660a25bc     install.obj
 0003:0000e5c0       ?d2client_SetResolutionMode@@3P6GXXZA 660a25c0     install.obj
 0003:0000e5c4       ?d2client_getNearbyRectData@@3P6GXPAUAreaRectData@@PAPAPAU1@PAH@ZA 660a25c4     install.obj
 0003:0000e5c8       ?d2client_Storm511@@3P6GXPAUD2MSG@@@ZA 660a25c8     install.obj
 0003:0000e5cc       ?d2client_subEsp@@3P6GHXZA 660a25cc     install.obj
 0003:0000e5d0       ?d2client_getSkillDescTxt@@3P6IPAXXZA 660a25d0     install.obj
 0003:0000e5d4       ?bnclient_pBnChatMessage@@3PAPAKA 660a25d4     install.obj
 0003:0000e5dc       ?bnetIp@@3PADA             660a25dc     install.obj
 0003:0000e5e4       ?load_dll_error@@3HA       660a25e4     install.obj
 0003:0000e5e8       ?fLocalizationSupport@@3HA 660a25e8     install.obj
 0003:0000e5ec       ?addr_storm@@3PAUHINSTANCE__@@A 660a25ec     install.obj
 0003:0000e5f0       ?addr_d2client@@3PAUHINSTANCE__@@A 660a25f0     install.obj
 0003:0000e5f4       ?addr_d2common@@3PAUHINSTANCE__@@A 660a25f4     install.obj
 0003:0000e5f8       ?addr_d2gfx@@3PAUHINSTANCE__@@A 660a25f8     install.obj
 0003:0000e5fc       ?addr_d2win@@3PAUHINSTANCE__@@A 660a25fc     install.obj
 0003:0000e600       ?addr_d2lang@@3PAUHINSTANCE__@@A 660a2600     install.obj
 0003:0000e604       ?addr_d2cmp@@3PAUHINSTANCE__@@A 660a2604     install.obj
 0003:0000e608       ?addr_bnclient@@3PAUHINSTANCE__@@A 660a2608     install.obj
 0003:0000e60c       ?addr_d2net@@3PAUHINSTANCE__@@A 660a260c     install.obj
 0003:0000e610       ?addr_fog@@3PAUHINSTANCE__@@A 660a2610     install.obj
 0003:0000e614       ?addr_d2game@@3PAUHINSTANCE__@@A 660a2614     install.obj
 0003:0000e618       ?addr_d2launch@@3PAUHINSTANCE__@@A 660a2618     install.obj
 0003:0000e61c       ?addr_d2gdi@@3PAUHINSTANCE__@@A 660a261c     install.obj
 0003:0000e620       ?addr_d2sound@@3PAUHINSTANCE__@@A 660a2620     install.obj
 0003:0000e624       ?addr_d2multi@@3PAUHINSTANCE__@@A 660a2624     install.obj
 0003:0000e628       ?addr_d2mcpclient@@3PAUHINSTANCE__@@A 660a2628     install.obj
 0003:0000e62c       ?fGameFilter@@3HA          660a262c     install.obj
 0003:0000e630       ?hasPlugY@@3HA             660a2630     install.obj
 0003:0000e634       ?pPatchList@@3PAPAUInstalledPatch@@A 660a2634     install.obj
 0003:0000e644       ?networkPatch@@3PAUInstalledPatch@@A 660a2644     install.obj
 0003:0000fa58       ?dwDumpMpqPath@@3HA        660a3a58     mpq.obj
 0003:0000faf0       ?singlePlayerWorld@@3PAUWorld@@A 660a3af0     common.obj
 0003:0000faf4       ?forceStandStill@@3HA      660a3af4     common.obj
 0003:000113e0       ?nPet@@3HA                 660a53e0     common.obj
 0003:000113e4       ?petCap@@3HA               660a53e4     common.obj
 0003:000113e8       ?dwPetListChangeVerify@@3HA 660a53e8     common.obj
 0003:000113f0       ?fPartyListValid@@3HA      660a53f0     common.obj
 0003:0001142c       ?autoTerminateNpcInteractMs@@3HA 660a542c     loop.obj
 0003:00011430       ?screenDrawY@@3HA          660a5430     loop.obj
 0003:00011434       ?screenDrawX@@3HA          660a5434     loop.obj
 0003:00011438       ?exitGameMs@@3HA           660a5438     loop.obj
 0003:0001143c       ?dwChangeLeftSkill@@3HA    660a543c     loop.obj
 0003:00011440       ?dwLoopCount@@3HA          660a5440     loop.obj
 0003:00011444       ?fDebugMs@@3HA             660a5444     loop.obj
 0003:00011448       ?dwLevelChangeMs@@3HA      660a5448     loop.obj
 0003:0001144c       ?dwCpuUser@@3HA            660a544c     loop.obj
 0003:00011450       ?dwCpuKernel@@3HA          660a5450     loop.obj
 0003:00011454       ?dwLoopFPS@@3HA            660a5454     loop.obj
 0003:00011458       ?dwDrawFPS@@3HA            660a5458     loop.obj
 0003:0001145c       ?dwCurMs@@3HC              660a545c     loop.obj
 0003:00011460       ?dwEnterGameMs@@3HA        660a5460     loop.obj
 0003:00011464       ?fStartingGame@@3HA        660a5464     loop.obj
 0003:00011468       ?fInGame@@3HA              660a5468     loop.obj
 0003:0001146c       ?dwEnterGameShowDifficultyMs@@3HA 660a546c     loop.obj
 0003:00011470       ?dwCurrentAct@@3HA         660a5470     loop.obj
 0003:00011474       ?dwPlayerX@@3HA            660a5474     loop.obj
 0003:00011478       ?dwPlayerY@@3HA            660a5478     loop.obj
 0003:0001147c       ?dwPlayerId@@3HA           660a547c     loop.obj
 0003:00011480       ?dwPlayerPartyId@@3HA      660a5480     loop.obj
 0003:00011484       ?dwPlayerClass@@3HA        660a5484     loop.obj
 0003:00011488       ?pLeftSkill@@3PAUSkill@@A  660a5488     loop.obj
 0003:0001148c       ?pRightSkill@@3PAUSkill@@A 660a548c     loop.obj
 0003:00011490       ?dwLeftSkillStatus@@3HA    660a5490     loop.obj
 0003:00011494       ?dwRightSkillStatus@@3HA   660a5494     loop.obj
 0003:00011498       ?dwPlayerLevel@@3HA        660a5498     loop.obj
 0003:0001149c       ?dwPlayerHP@@3HA           660a549c     loop.obj
 0003:000114a0       ?dwPlayerMaxHP@@3HA        660a54a0     loop.obj
 0003:000114a4       ?dwPlayerMana@@3HA         660a54a4     loop.obj
 0003:000114a8       ?dwPlayerMaxMana@@3HA      660a54a8     loop.obj
 0003:000114ac       ?dwPlayerFcrFrame@@3HA     660a54ac     loop.obj
 0003:000114b0       ?dwPlayerFcrMs@@3HA        660a54b0     loop.obj
 0003:000114b4       ?dwSlowRestoreMs@@3HA      660a54b4     loop.obj
 0003:000114c8       ?dwBugFlag@@3HA            660a54c8     loop.obj
 0003:000114cc       ?fIsHardCoreSafe@@3HA      660a54cc     loop.obj
 0003:000114d0       ?fUsingHardCoreConfig@@3HA 660a54d0     loop.obj
 0003:000114d4       ?fIsHardCoreGame@@3HA      660a54d4     loop.obj
 0003:000114d8       ?fHasHardCoreConfig@@3HA   660a54d8     loop.obj
 0003:000114dc       ?needReloadConfig@@3HA     660a54dc     loop.obj
 0003:00011508       ?wcsLevelTargetName@@3PA_WA 660a5508     map.obj
 0003:00011624       ?sealOpened@@3PAHA         660a5624     map.obj
 0003:0001164c       ?pCurMapLevel@@3PAUMinimapLevel@@A 660a564c     map.obj
 0003:00011650       ?minimapLevels@@3PAUMinimapLevel@@A 660a5650     map.obj
 0003:00013f38       ?pMinimapObjectCell@@3PAUCellFile@@A 660a7f38     map.obj
 0003:00013f3c       ?dwRevealMapMs@@3HA        660a7f3c     map.obj
 0003:00013f40       ?dwAutoRevealCLevel@@3HA   660a7f40     map.obj
 0003:00013f44       ?nCaveNameTextCol@@3EA     660a7f44     map.obj
 0003:00013f45       ?nSuperUniqueDescFont@@3EA 660a7f45     map.obj
 0003:00013f48       ?anMonsterColours@@3PAEA   660a7f48     map.obj
 0003:00014330       ?wszStaffTombLvlDesc@@3PA_WA 660a8330     map.obj
 0003:00014394       ?dwScreenScrollCount@@3HA  660a8394     map.obj
 0003:00014398       ?aszUnitBlobFiles@@3PAY0DC@DA 660a8398     map.obj
 0003:000145c0       ?awszEnchantDescs@@3PAY0BE@_WA 660a85c0     map.obj
 0003:00014d90       ?awszAuraDescs@@3PAY0BE@_WA 660a8d90     map.obj
 0003:00014ea8       ?awszImmuneDescs@@3PAY0BE@_WA 660a8ea8     map.obj
 0003:00014f98       ?anMonsterCorpseColors@@3PAEA 660a8f98     map.obj
 0003:00015380       ?anMissileColours@@3PAEA   660a9380     map.obj
 0003:00015768       ?dwMinimapScrollCount@@3HA 660a9768     map.obj
 0003:00015770       ?tScreenScrollKeys@@3PAUToggleVar@@A 660a9770     map.obj
 0003:00015a70       ?dwScreenScrollOffset@@3PAY01HA 660a9a70     map.obj
 0003:00015af0       ?tMiniMapScrollKeys@@3PAUToggleVar@@A 660a9af0     map.obj
 0003:00015df0       ?dwMiniMapScrollOffset@@3PAY01HA 660a9df0     map.obj
 0003:0001607c       ?npcChatTxt@@3HA           660aa07c     packet.obj
 0003:00016080       ?dwSendPacketCount@@3HA    660aa080     packet.obj
 0003:00016084       ?dwInteractEntityCount@@3HA 660aa084     packet.obj
 0003:00016088       ?fMonitorSendCmd@@3PADA    660aa088     packet.obj
 0003:00016188       ?fMonitorRecvCmd@@3PADA    660aa188     packet.obj
 0003:00016390       ?dwTargetDistanceMs@@3HA   660aa390     route.obj
 0003:00016394       ?dwTargetDistance@@3HA     660aa394     route.obj
 0003:000163c0       ?pSrcRect@@3PAURouteRect@@A 660aa3c0     route.obj
 0003:000163c8       ?dwTakeWaypointToLevel@@3HA 660aa3c8     waypoint.obj
 0003:000163cc       ?waypointBits@@3PADA       660aa3cc     waypoint.obj
 0003:000163d8       ?waypointMap@@3PAHA        660aa3d8     waypoint.obj
 0003:00016608       ?mainMenuLoopCount@@3HA    660aa608     winmsg.obj
 0003:0001660c       ?mouseL@@3HA               660aa60c     winmsg.obj
 0003:00016610       ?mouseW@@3HA               660aa610     winmsg.obj
 0003:00018a18       ?fSkipPainting@@3HA        660aca18     winmsg.obj
 0003:00018a1c       ?fSkipPaintingMenu@@3HA    660aca1c     winmsg.obj
 0003:00018a20       ?dwQuickSwapItemMs@@3HA    660aca20     winmsg.obj
 0003:00018a24       ?dwScreenBlockMask@@3HA    660aca24     winmsg.obj
 0003:00018a28       ?dwDrawCount@@3HA          660aca28     winmsg.obj
 0003:00018a2c       ?fInMainMenu@@3HA          660aca2c     winmsg.obj
 0003:00018a30       ?fLeftBtnDown@@3HA         660aca30     winmsg.obj
 0003:00018a34       ?fRightBtnDown@@3HA        660aca34     winmsg.obj
 0003:00018a38       ?dwBtnReleaseMs@@3HA       660aca38     winmsg.obj
 0003:00018a3c       ?fUserOperating@@3HA       660aca3c     winmsg.obj
 0003:00018a40       ?need_paint@@3HA           660aca40     winmsg.obj
 0003:00018a44       ?altDown@@3HA              660aca44     winmsg.obj
 0003:00018a48       ?ctrlDown@@3HA             660aca48     winmsg.obj
 0003:00018a4c       ?shiftDown@@3HA            660aca4c     winmsg.obj
 0003:00018a68       ?fNoBackgroundImage@@3HA   660aca68     winmsg.obj
 0003:00018a6c       ?dwAutoHideMinimapKey@@3HA 660aca6c     winmsg.obj
 0003:00018a70       ?dwGameControlKeys@@3PAY03HA 660aca70     winmsg.obj
 0003:00018e70       ?dwGameSoundKeys@@3PAHA    660ace70     winmsg.obj
 0003:00019070       ?tSwitchWindowKeys@@3PAY01UToggleVar@@A 660ad070     winmsg.obj
 0003:00019670       ?dwSwitchSkillKeyCount@@3HA 660ad670     winmsg.obj
 0003:00019674       ?fFullWindows@@3HA         660ad674     winmsg.obj
 0003:00019678       ?dwSwitchSkillKeys@@3PAHA  660ad678     winmsg.obj
 0003:000196f8       ?dwSwitchSkillLeft@@3PAY173HA 660ad6f8     winmsg.obj
 0003:0001a6f8       ?dwSwitchSkillRight@@3PAY173HA 660ae6f8     winmsg.obj
 0003:0001b6f8       ?dwSwitchSkillLeftUp@@3PAY07HA 660af6f8     winmsg.obj
 0003:0001baf8       ?dwSwitchSkillRightUp@@3PAY07HA 660afaf8     winmsg.obj
 0003:0001bef8       ?dwSwitchSkillStandStill@@3PAHA 660afef8     winmsg.obj
 0003:0001bf78       ?dwSwitchSkillLeftOrg@@3PAHA 660aff78     winmsg.obj
 0003:0001bff8       ?dwSwitchSkillRightOrg@@3PAHA 660afff8     winmsg.obj
 0003:0001c078       ?dwTpSwitchBackground@@3PAHA 660b0078     winmsg.obj
 0003:0001c098       ?dwEnterDoorInBackgroundSkill@@3PAY0MI@HA 660b0098     winmsg.obj
 0003:0001d678       ?dwDrawUnitCount@@3HA      660b1678     winmsg.obj
 0003:0001d6b0       ?skipMonsters@@3PADA       660b16b0     env.obj
 0003:0001dab0       ?dwVisualEffectMode@@3HA   660b1ab0     env.obj
 0003:0001dab8       ?afMonsterCorpses@@3PAEA   660b1ab8     env.obj
 0003:0001dea0       ?afMissileCorpses@@3PAEA   660b1ea0     env.obj
 0003:0001e548       ?dwNextStackLoc@@3HA       660b2548     GameMonitor.obj
 0003:0001e54c       ?dwNextStackY@@3HA         660b254c     GameMonitor.obj
 0003:0001e550       ?dwNextStackX@@3HA         660b2550     GameMonitor.obj
 0003:0001e554       ?dwNextStackingId@@3HA     660b2554     GameMonitor.obj
 0003:0001e558       ?dwThrowWeaponId@@3HA      660b2558     GameMonitor.obj
 0003:0001e568       ?dwNextMPotionId@@3HA      660b2568     GameMonitor.obj
 0003:0001e56c       ?dwNextHPotionId@@3HA      660b256c     GameMonitor.obj
 0003:0001e570       ?beltLayers@@3HA           660b2570     GameMonitor.obj
 0003:0001e574       ?dwNeedPotionType@@3HA     660b2574     GameMonitor.obj
 0003:0001e578       ?beltType@@3PAEA           660b2578     GameMonitor.obj
 0003:0001e57c       ?beltCount@@3PAEA          660b257c     GameMonitor.obj
 0003:0001e580       ?fWerebear@@3HA            660b2580     GameMonitor.obj
 0003:0001e584       ?fWerewolf@@3HA            660b2584     GameMonitor.obj
 0003:0001e588       ?dwOakSageLvl@@3HA         660b2588     GameMonitor.obj
 0003:0001e5ac       ?bossHps@@3PAHA            660b25ac     GameMonitor.obj
 0003:0001e5b8       ?dwRecheckSelfItemMs@@3HA  660b25b8     GameMonitor.obj
 0003:0001e5bc       ?leftWeapon@@3PAUUnitAny@@A 660b25bc     GameMonitor.obj
 0003:0001e5c0       ?rightWeapon@@3PAUUnitAny@@A 660b25c0     GameMonitor.obj
 0003:0001e5c4       ?dwTownPortalCount@@3HA    660b25c4     GameMonitor.obj
 0003:0001e5c8       ?dwIdentifyPortalCount@@3HA 660b25c8     GameMonitor.obj
 0003:0001e5cc       ?fUsingBow@@3HA            660b25cc     GameMonitor.obj
 0003:0001e5d0       ?fUsingCrossBow@@3HA       660b25d0     GameMonitor.obj
 0003:0001e5d4       ?fUsingThrow@@3HA          660b25d4     GameMonitor.obj
 0003:0001e5d8       ?dwHPotionCount@@3HA       660b25d8     GameMonitor.obj
 0003:0001e5dc       ?dwMPotionCount@@3HA       660b25dc     GameMonitor.obj
 0003:0001e5e0       ?dwRPotionCount@@3HA       660b25e0     GameMonitor.obj
 0003:0001e5e4       ?dwArrowCount@@3HA         660b25e4     GameMonitor.obj
 0003:0001e5e8       ?dwCArrowCount@@3HA        660b25e8     GameMonitor.obj
 0003:0001e5ec       ?dwThrowCount@@3HA         660b25ec     GameMonitor.obj
 0003:0001e5f0       ?curStashPage@@3HA         660b25f0     GameMonitor.obj
 0003:0001e5f4       ?nStashPages@@3HA          660b25f4     GameMonitor.obj
 0003:0001e5f8       ?stashPages@@3PAPAUStashPage@@A 660b25f8     GameMonitor.obj
 0003:0001e7f8       ?bossX@@3HA                660b27f8     GameMonitor.obj
 0003:0001e7fc       ?bossY@@3HA                660b27fc     GameMonitor.obj
 0003:0001e800       ?bossId@@3HA               660b2800     GameMonitor.obj
 0003:0001e804       ?nBoss@@3HA                660b2804     GameMonitor.obj
 0003:0001e810       ?fMonitorQuantity@@3HA     660b2810     GameMonitor.obj
 0003:0001e814       ?fMonitorDurability@@3HA   660b2814     GameMonitor.obj
 0003:0001e818       ?dwKillSum@@3HA            660b2818     GameMonitor.obj
 0003:0001e81c       ?dwGameKills@@3HA          660b281c     GameMonitor.obj
 0003:0001e820       ?dwLastKills@@3HA          660b2820     GameMonitor.obj
 0003:0001e824       ?dwGetHitSum@@3HA          660b2824     GameMonitor.obj
 0003:0001e828       ?dwGetHits@@3HA            660b2828     GameMonitor.obj
 0003:0001e82c       ?dwOrgMode@@3HA            660b282c     GameMonitor.obj
 0003:0001e830       ?targetNameColor@@3DA      660b2830     GameMonitor.obj
 0003:0001e834       ?fState100HP@@3HA          660b2834     GameMonitor.obj
 0003:0001e838       ?fState106ManaMs@@3HA      660b2838     GameMonitor.obj
 0003:0001e840       ?dwGuessBOMs@@3HA          660b2840     GameMonitor.obj
 0003:0001e844       ?dwGuessEnchantMs@@3HA     660b2844     GameMonitor.obj
 0003:0001e84c       ?nPlayerCast@@3HA          660b284c     GameMonitor.obj
 0003:00021178       ?fViewingTargetUnit@@3HA   660b5178     info.obj
 0003:0002117c       ?currentgameexp@@3HA       660b517c     info.obj
 0003:000964d8       ?dwGoldGoodNum@@3HA        6612a4d8     item.obj
 0003:000964dc       ?fSimplifiedPotionName@@3HA 6612a4dc     item.obj
 0003:000964e0       ?anRuneColours@@3PAY03DA   6612a4e0     item.obj
 0003:00096670       ?anItemColours@@3PAY37163DA 6612a670     item.obj
 0003:001ea3f0       ?anItemShowCLevel@@3PAY01DA 6627e3f0     item.obj
 0003:001ebb60       ?wszEtherealItemPrefix@@3PA_WA 6627fb60     item.obj
 0003:001ebb9c       ?wszEtherealItemPostfix@@3PA_WA 6627fb9c     item.obj
 0003:001ebbd8       ?dwShowValuableItem@@3HA   6627fbd8     item.obj
 0003:001ebbe0       ?szItemExtInfoCfgName@@3PAY0BAA@DA 6627fbe0     item.obj
 0003:001ebde0       ?fViewSockFlag@@3HA        6627fde0     item.obj
 0003:001ebde4       ?fViewSocketableOn@@3HA    6627fde4     item.obj
 0003:001ebde8       ?wszDescText@@3PA_WA       6627fde8     item.obj
 0003:001ec5e8       ?pViewingItem@@3PAUUnitAny@@A 662805e8     item.obj
 0003:001ec5f0       ?marketItemCount@@3HA      662805f0     item.obj
 0003:001ec5f4       ?marketItemCount1@@3HA     662805f4     item.obj
 0003:001fbf18       ?dwCheckMercMs@@3HA        6628ff18     dangerous.obj
 0003:001fbf34       ?dwIronGolemLifeAlertPercent@@3HA 6628ff34     dangerous.obj
 0003:001fbf38       ?dwIronGolemLifeTownPercent@@3HA 6628ff38     dangerous.obj
 0003:001fbf3c       ?dwIronGolemLifeExitPercent@@3HA 6628ff3c     dangerous.obj
 0003:001fbf40       ?dwIronGolemTownLifePercent@@3HA 6628ff40     dangerous.obj
 0003:001fbf44       ?dwHirePotionMinCLevel@@3HA 6628ff44     dangerous.obj
 0003:001fbf48       ?dwHirePotionLifePercent@@3HA 6628ff48     dangerous.obj
 0003:001fbf4c       ?dwHirePotionColumn@@3HA   6628ff4c     dangerous.obj
 0003:001fbf50       ?dwHealingPotionLifePercent@@3HA 6628ff50     dangerous.obj
 0003:001fbf54       ?dwHealingPotionDelayMs@@3HA 6628ff54     dangerous.obj
 0003:001fbf58       ?dwManaPotionMax@@3HA      6628ff58     dangerous.obj
 0003:001fbf5c       ?dwManaPotionValue@@3HA    6628ff5c     dangerous.obj
 0003:001fbf60       ?dwManaPotionNTValue@@3HA  6628ff60     dangerous.obj
 0003:001fbf64       ?dwChickenLife@@3HA        6628ff64     dangerous.obj
 0003:001fbf68       ?dwChickenLifeCondition@@3HA 6628ff68     dangerous.obj
 0003:001fbf6c       ?dwChickenHostileLife@@3HA 6628ff6c     dangerous.obj
 0003:001fbf70       ?dwChickenHostileNearbyLife@@3HA 6628ff70     dangerous.obj
 0003:001fbf74       ?dwChickenLifePercent@@3HA 6628ff74     dangerous.obj
 0003:001fbf78       ?dwHCChickenLifePercent@@3HA 6628ff78     dangerous.obj
 0003:001fbf7c       ?dwChickenHostileLifePercent@@3HA 6628ff7c     dangerous.obj
 0003:001fbf80       ?dwChickenHostileNearbyLifePercent@@3HA 6628ff80     dangerous.obj
 0003:001fbf84       ?dwChickenLifeMinClevel@@3HA 6628ff84     dangerous.obj
 0003:001fbf88       ?fLifeProtectOn@@3HA       6628ff88     dangerous.obj
 0003:001fbf8c       ?fDangerousMonsterActive@@3HA 6628ff8c     dangerous.obj
 0003:001fbf90       ?anDangerousMonster@@3PAY01DA 6628ff90     dangerous.obj
 0003:001fc760       ?dwHardCoreFEHpProtect@@3HA 66290760     dangerous.obj
 0003:001fc7f0       ?dwUpdateQuestMs@@3HA      662907f0     quest.obj
 0003:001fc7f4       ?dwQuestAlertMs@@3HA       662907f4     quest.obj
 0003:001fc7f8       ?hasRune789@@3HA           662907f8     quest.obj
 0003:001fc800       ?wszBugKBAlertMessage@@3PA_WA 66290800     quest.obj
 0003:001fca00       ?dwKBSkillSwitch@@3PAY05HA 66290a00     quest.obj
 0003:00200a10       ?afMonsterDeathAnims@@3PAEA 66294a10     lifebar.obj
 0003:00200e30       ?aDropProtectRune@@3PADA   66294e30     DropProtection.obj
 0003:00200e58       ?aDropProtectRuneword@@3PADA 66294e58     DropProtection.obj
 0003:00200f58       ?aDropProtectUnique@@3PADA 66294f58     DropProtection.obj
 0003:00201158       ?aDropProtectSet@@3PADA    66295158     DropProtection.obj
 0003:00201258       ?dwSimpleItemProtectionCount@@3HA 66295258     DropProtection.obj
 0003:00205678       ?fAutoEnchantCheckUnit@@3HA 66299678     enchant.obj
 0003:00205680       ?pD2WinEditBox@@3PAUD2EditBox@@A 66299680     chat.obj
 0003:00205688       ?chatPasteMs@@3HA          66299688     chat.obj
 0003:00205690       ?fMyChatOn@@3HA            66299690     chat.obj
 0003:00205758       ?dwAutoLoginMs@@3HA        66299758     login.obj
 0003:00205760       ?dwAutoSelectCharMs@@3HA   66299760     login.obj
 0003:00205770       ?nCurCharTags@@3HA         66299770     login.obj
 0003:00205788       ?mSkipQuestMessage@@3HA    66299788     misc.obj
 0003:0020579c       ?dwWaitTeamEnterPortalId@@3HA 6629979c     multi.obj
 0003:002057a0       ?dwWaitTeamEnterPortalMs@@3HA 662997a0     multi.obj
 0003:002057ec       ?hydraY@@3HA               662997ec     multi.obj
 0003:002057f0       ?hydraX@@3HA               662997f0     multi.obj
 0003:002057f4       ?clickAcceptTradeMs@@3HA   662997f4     multi.obj
 0003:002057f8       ?autoNpcTxt@@3HA           662997f8     multi.obj
 0003:002057fc       ?dwMultiClientMaxWindowId@@3HA 662997fc     multi.obj
 0003:00205800       ?d2winLastId@@3HA          66299800     multi.obj
 0003:00205804       ?fAutoFollowMoving@@3HA    66299804     multi.obj
 0003:00205808       ?wszTransferClick@@3PA_WA  66299808     multi.obj
 0003:00205888       ?acceptTradeFromGid@@3HA   66299888     multi.obj
 0003:0020588c       ?acceptTradeFromUid@@3HA   6629988c     multi.obj
 0003:00205890       ?acceptTradeMs@@3HA        66299890     multi.obj
 0003:002058ac       ?hydraLock@@3HA            662998ac     multi.obj
 0003:002058b0       ?hydraUid@@3HA             662998b0     multi.obj
 0003:002058b4       ?tpMs@@3HA                 662998b4     multi.obj
 0003:002058b8       ?tMCFormationKeys@@3PAUToggleVar@@A 662998b8     multi.obj
 0003:00205eb8       ?aMCFormation@@3PAY0BA@CA  66299eb8     multi.obj
 0003:002060b8       ?fTransferClick@@3HA       6629a0b8     multi.obj
 0003:002060bc       ?dwTeamMemberCount@@3HA    6629a0bc     multi.obj
 0003:002060c0       ?aAutoFollowClickObject@@3PADA 6629a0c0     multi.obj
 0003:002064c0       ?dwLeaderId@@3HA           6629a4c0     multi.obj
 0003:002064c8       ?d2wins@@3PAUD2Window@@A   6629a4c8     multi.obj
 0003:00208660       ?wszNpcTradeInfo@@3PA_WA   6629c660     NpcTrade.obj
 0003:002091c4       ?dwNpcTradeCheckMs@@3HA    6629d1c4     NpcTrade.obj
 0003:002091c8       ?dwPartyInvideMs@@3HA      6629d1c8     party.obj
 0003:002091cc       ?dwCheckRelationMs@@3HA    6629d1cc     party.obj
 0003:002091d0       ?hasHostilePlayer@@3HA     6629d1d0     party.obj
 0003:002091d4       ?fCanInvite@@3HA           6629d1d4     party.obj
 0003:002091d8       ?dwPartyResponseMs@@3HA    6629d1d8     party.obj
 0003:002091f0       ?fCanExitGame@@3HA         6629d1f0     quick.obj
 0003:002091f4       ?dwBackToTownTimeout@@3HA  6629d1f4     quick.obj
 0003:00209200       ?fAutoNextGameName@@3HA    6629d200     quick.obj
 0003:00209204       ?fAutoNextGamePassword@@3HA 6629d204     quick.obj
 0003:00209208       ?fAutoNextGameDescription@@3HA 6629d208     quick.obj
 0003:00209210       ?wszGameName@@3PA_WA       6629d210     quick.obj
 0003:00209250       ?wszGamePassword@@3PA_WA   6629d250     quick.obj
 0003:00209290       ?wszGameDescription@@3PA_WA 6629d290     quick.obj
 0003:002092d4       ?autoJoinGameMs@@3HA       6629d2d4     quick.obj
 0003:00209860       ?fHighRes@@3HA             6629d860     resolution.obj
 0003:0020d934       ?dwAutoSkillReloading@@3HA 662a1934     skill.obj
 0003:0020d938       ?dwRescueBarSafeDistance@@3HA 662a1938     skill.obj
 0003:0020d93c       ?fAutoEnchant@@3HA         662a193c     skill.obj
 0003:0020d940       ?aAutoPickupItem@@3PADA    662a1940     skill.obj
 0003:0020e4f8       ?fAutoEnchantUseLeftSkill@@3HA 662a24f8     skill.obj
 0003:0020e4fc       ?fAutoWarCry@@3HA          662a24fc     skill.obj
 0003:0020e500       ?dwAutoEnchantMonster@@3PADA 662a2500     skill.obj
 0003:0020e900       ?fAutoWarCryUseLeftSkill@@3HA 662a2900     skill.obj
 0003:0020e904       ?dwAutoWarCryRenewPercent@@3HA 662a2904     skill.obj
 0003:0020e908       ?dwUseLeftSkillFirst@@3HA  662a2908     skill.obj
 0003:0020e90c       ?dwAutoReloadThrowing@@3HA 662a290c     skill.obj
 0003:0020e910       ?dwAutoSkillCheckMs@@3HA   662a2910     skill.obj
 0003:0020e914       ?dwAutoSkillMode@@3HA      662a2914     skill.obj
 0003:0020e918       ?fAutoSkillNow@@3HA        662a2918     skill.obj
 0003:0020e91c       ?fAutoSkill@@3HA           662a291c     skill.obj
 0003:0020e920       ?aAutoDimVisionMonster@@3PADA 662a2920     skill.obj
 0003:0020ed20       ?aAutoSkillMonsterType@@3PADA 662a2d20     skill.obj
 0003:0020f120       ?aAutoSkillDistance@@3PAY01DA 662a3120     skill.obj
 0003:0020f520       ?fAutoSummon@@3HA          662a3520     skill.obj
 0003:0020f524       ?fAutoSummonUseLeftSkill@@3HA 662a3524     skill.obj
 0003:0020f528       ?dwAutoSummonStartMs@@3HA  662a3528     skill.obj
 0003:0020f52c       ?dwAutoSummonCheckEnchantMs@@3HA 662a352c     skill.obj
 0003:0020f530       ?aAutoReviveMonster@@3PADA 662a3530     skill.obj
 0003:0020f930       ?dwSkeletonCount@@3HA      662a3930     skill.obj
 0003:0020f934       ?dwEnchantSkeletonCount@@3HA 662a3934     skill.obj
 0003:0020f938       ?dwSkeletonMaxCount@@3HA   662a3938     skill.obj
 0003:0020f93c       ?dwSkeletonMageCount@@3HA  662a393c     skill.obj
 0003:0020f940       ?dwSkeletonMageMaxCount@@3HA 662a3940     skill.obj
 0003:0020f944       ?dwReviveCount@@3HA        662a3944     skill.obj
 0003:0020f948       ?dwReviveMaxCount@@3HA     662a3948     skill.obj
 0003:0020f94c       ?dwSkeletonHPPercent@@3HA  662a394c     skill.obj
 0003:0020f950       ?dwSkeletonMageHPPercent@@3HA 662a3950     skill.obj
 0003:00212320       ?questNames@@3PAPADA       662a6320     Snapshot.obj
 0003:002123e0       ?dwMercNameId@@3HA         662a63e0     Snapshot.obj
 0003:002123ec       ?dwMercSeed@@3HA           662a63ec     Snapshot.obj
 0003:00212560       ?dwCheckSkeletonCountMs@@3HA 662a6560     summon.obj
 0003:00216588       ?fAutoSummonSwitchSkillTmp@@3HA 662aa588     summon.obj
 0003:0021658c       ?fAutoSummonSwitchSkill@@3HA 662aa58c     summon.obj
 0003:00216590       ?fAutoSummonNeedCorpse@@3HA 662aa590     summon.obj
 0003:00216594       ?dwNecInfoExpireMs@@3HA    662aa594     summon.obj
 0003:00216598       ?dwNecMana@@3HA            662aa598     summon.obj
 0003:0021659c       ?dwTotalMonsterCount@@3HA  662aa59c     summon.obj
 0003:002165a0       ?dwSkillChangeCount@@3HA   662aa5a0     summon.obj
 0003:00216a58       ?maxTpDisRaw@@3HA          662aaa58     teleport.obj
 0003:00216a94       ?dwTpDoneMs@@3HA           662aaa94     teleport.obj
 0003:00216a98       ?dwTpMs@@3HA               662aaa98     teleport.obj
 0003:00216a9c       ?TPfailedRect@@3PAUAreaRectData@@A 662aaa9c     teleport.obj
 0003:00216aa0       ?TPtargetRect@@3PAUAreaRectData@@A 662aaaa0     teleport.obj
 0003:00216aa4       ?TPtarget@@3UtagPOINT@@A   662aaaa4     teleport.obj
 0003:00216adc       ?isAutoTeleporting@@3HA    662aaadc     teleport.obj
 0003:00216ae0       ?fAutoTeleporting@@3HA     662aaae0     teleport.obj
 0003:00216ae4       ?unexpectedMonCount@@3HA   662aaae4     teleport.obj
 0003:00216ae8       ?unexpectedMonTotalMs@@3HA 662aaae8     teleport.obj
 0003:00216b04       ?fEnableHighResolutionPatch@@3HA 662aab04     panel.obj
 0003:00216b08       ?serverCubeType@@3HA       662aab08     panel.obj
 0003:00216b0c       ?clientCubeType@@3HA       662aab0c     panel.obj
 0003:00216b10       ?serverStashType@@3HA      662aab10     panel.obj
 0003:00216b14       ?clientStashType@@3HA      662aab14     panel.obj
 0003:00216b18       ?serverInvType@@3HA        662aab18     panel.obj
 0003:00216b1c       ?clientInvType@@3HA        662aab1c     panel.obj
 0003:00216b28       ?fEnableBigStash@@3HA      662aab28     panel.obj
 0003:00216b2c       ?dwInvType@@3HA            662aab2c     panel.obj
 0003:00216b30       ?dwStashType@@3HA          662aab30     panel.obj
 0003:00216b34       ?dwCubeType@@3HA           662aab34     panel.obj
 0003:00216dcc       ?active_UberDiabloRushTweekAI@@3_NA 662aadcc     uber.obj
 0003:00216dcd       ?active_UberBaalTeleportTweekAI@@3_NA 662aadcd     uber.obj
 0003:00216dce       ?active_UberBaalChillingArmorTweekAI@@3_NA 662aadce     uber.obj
 0003:00216dd0       ?uberBaalChillingArmorLastFrame@@3HA 662aadd0     uber.obj
 0003:00216dd4       __cflush                   662aadd4     LIBCMT:_file.obj
 0003:00216dd8       ___fastflag                662aadd8     LIBCMT:_fpinit_.obj
 0003:00216ddc       __adjust_fdiv              662aaddc     LIBCMT:_fpinit_.obj
 0003:00216df8       __aenvptr                  662aadf8     LIBCMT:dllcrt0.obj
 0003:00216dfc       __wenvptr                  662aadfc     LIBCMT:dllcrt0.obj
 0003:00216e00       ___error_mode              662aae00     LIBCMT:dllcrt0.obj
 0003:00216e04       ___app_type                662aae04     LIBCMT:dllcrt0.obj
 0003:00216e0c       ___mbulinfo                662aae0c     LIBCMT:mbctype.obj
 0003:00216e18       ___mbcodepage              662aae18     LIBCMT:mbctype.obj
 0003:00216e1c       ___ismbcodepage            662aae1c     LIBCMT:mbctype.obj
 0003:00216e20       ___mblcid                  662aae20     LIBCMT:mbctype.obj
 0003:00216e24       ___locale_changed          662aae24     LIBCMT:setlocal.obj
 0003:00216e28       ___lc_handle               662aae28     LIBCMT:nlsdata2.obj
 0003:00216e40       ___lc_codepage             662aae40     LIBCMT:nlsdata2.obj
 0003:00216e44       ___lc_collate_cp           662aae44     LIBCMT:nlsdata2.obj
 0003:00216e48       _gpFlsAlloc                662aae48     LIBCMT:tidtable.obj
 0003:00216e4c       _gpFlsGetValue             662aae4c     LIBCMT:tidtable.obj
 0003:00216e50       _gpFlsSetValue             662aae50     LIBCMT:tidtable.obj
 0003:00216e54       _gpFlsFree                 662aae54     LIBCMT:tidtable.obj
 0003:00216e58       ___pInvalidArgHandler      662aae58     LIBCMT:invarg.obj
 0003:00216fb0       __stdbuf                   662aafb0     LIBCMT:_sftbuf.obj
 0003:002172dc       ?_pnhHeap@@3P6AHI@ZA       662ab2dc     LIBCMT:handler.obj
 0003:002172e0       __newmode                  662ab2e0     LIBCMT:_newmode.obj
 0003:002172e4       __crtheap                  662ab2e4     LIBCMT:heapinit.obj
 0003:002172e8       ___sbh_pHeaderDefer        662ab2e8     LIBCMT:sbheap.obj
 0003:002172f0       __maxwait                  662ab2f0     LIBCMT:crtheap.obj
 0003:002172f4       __umaskval                 662ab2f4     LIBCMT:crt0dat.obj
 0003:002172f8       ___argc                    662ab2f8     LIBCMT:crt0dat.obj
 0003:002172fc       ___argv                    662ab2fc     LIBCMT:crt0dat.obj
 0003:00217300       ___wargv                   662ab300     LIBCMT:crt0dat.obj
 0003:00217304       __environ                  662ab304     LIBCMT:crt0dat.obj
 0003:00217308       ___initenv                 662ab308     LIBCMT:crt0dat.obj
 0003:0021730c       __wenviron                 662ab30c     LIBCMT:crt0dat.obj
 0003:00217310       ___winitenv                662ab310     LIBCMT:crt0dat.obj
 0003:00217314       __pgmptr                   662ab314     LIBCMT:crt0dat.obj
 0003:00217318       __wpgmptr                  662ab318     LIBCMT:crt0dat.obj
 0003:0021731c       __exitflag                 662ab31c     LIBCMT:crt0dat.obj
 0003:00217320       __C_Termination_Done       662ab320     LIBCMT:crt0dat.obj
 0003:00217324       __C_Exit_Done              662ab324     LIBCMT:crt0dat.obj
 0003:00217750       ___lconv_static_null       662ab750     LIBCMT:lconv.obj
 0003:00217758       ?__pInconsistency@@3P6AXXZA 662ab758     LIBCMT:hooks.obj
 0003:0021777c       ___pPurecall               662ab77c     LIBCMT:inithelp.obj
 0003:00217780       __outputformat             662ab780     LIBCMT:outputformat.obj
 0003:00217858       __commode                  662ab858     LIBCMT:ncommode.obj
 0003:00217870       ?pArgList@UnDecorator@@0PAVReplicator@@A 662ab870     LIBCMT:undname.obj
 0003:00217874       ?pZNameList@UnDecorator@@0PAVReplicator@@A 662ab874     LIBCMT:undname.obj
 0003:00217878       ?pTemplateArgList@UnDecorator@@0PAVReplicator@@A 662ab878     LIBCMT:undname.obj
 0003:0021787c       ?gName@UnDecorator@@0PBDB  662ab87c     LIBCMT:undname.obj
 0003:00217880       ?name@UnDecorator@@0PBDB   662ab880     LIBCMT:undname.obj
 0003:00217884       ?outputString@UnDecorator@@0PADA 662ab884     LIBCMT:undname.obj
 0003:00217888       ?maxStringLength@UnDecorator@@0HA 662ab888     LIBCMT:undname.obj
 0003:0021788c       ?disableFlags@UnDecorator@@0KA 662ab88c     LIBCMT:undname.obj
 0003:00217890       ?m_pGetParameter@UnDecorator@@0P6APADJ@ZA 662ab890     LIBCMT:undname.obj
 0003:00217894       ?fExplicitTemplateParams@UnDecorator@@0_NA 662ab894     LIBCMT:undname.obj
 0003:00217895       ?fGetTemplateArgumentList@UnDecorator@@0_NA 662ab895     LIBCMT:undname.obj
 0003:00217898       __fmode                    662ab898     LIBCMT:txtmode.obj
 0003:002178a0       __debugger_hook_dummy      662ab8a0     <common>
 0003:002178a4       ___use_sse2_mathfcns       662ab8a4     <common>
 0003:002178a8       ___env_initialized         662ab8a8     <common>
 0003:002178ac       ___onexitend               662ab8ac     <common>
 0003:002178b0       ___onexitbegin             662ab8b0     <common>
 0003:002178b4       ___mbctype_initialized     662ab8b4     <common>
 0003:002178b8       ___dyn_tls_init_callback   662ab8b8     <common>
 0003:002178bc       ___sbh_cntHeaderList       662ab8bc     <common>
 0003:002178c0       ___sbh_pHeaderList         662ab8c0     <common>
 0003:002178c4       ___sbh_threshold           662ab8c4     <common>
 0003:002178c8       ___sbh_pHeaderScan         662ab8c8     <common>
 0003:002178cc       ___sbh_sizeHeaderList      662ab8cc     <common>
 0003:002178d0       ___sbh_indGroupDefer       662ab8d0     <common>
 0003:002178d4       ___active_heap             662ab8d4     <common>
 0003:002178d8       ___sse2_available          662ab8d8     <common>
 0003:002178dc       __nhandle                  662ab8dc     <common>
 0003:002178e0       ___pioinfo                 662ab8e0     <common>
 0003:002179e0       __acmdln                   662ab9e0     <common>
 0003:002179e4       __pDestructExceptionObject 662ab9e4     <common>
 0003:002179e8       ___piob                    662ab9e8     <common>
 0003:00217a00       __bufin                    662aba00     <common>
 0003:00218a00       __nstream                  662aca00     <common>

 entry point at        0001:00067034

 Static symbols

 0001:00000a40       ?initKeyArray@@YAXPAUConfigVar@@HH@Z 66001a40 f   config.obj
 0001:00002090       ?InitValues@@YAXXZ         66003090 f   config.obj
 0001:00002380       ?changeLogPath@@YAHPAD@Z   66003380 f   config.obj
 0001:00002520       ?loadConfig@@YAXPAD@Z      66003520 f   config.obj
 0001:00002c30       ?StoreConfig@@YAHPAUConfigVar@@PAD1@Z 66003c30 f   config.obj
 0001:000041d0       ?parseInt@@YAHPADPAPAD@Z   660051d0 f   config.obj
 0001:00004270       ?parseValues8@@YAXPAD0H@Z  66005270 f   config.obj
 0001:00004340       ?parseValues32@@YAXPAHPADH@Z 66005340 f   config.obj
 0001:00004410       ?parseStringConfig@@YAHPAUConfigVar@@PAD1@Z 66005410 f   config.obj
 0001:00004590       ?loadTagFile@@YAXPAD@Z     66005590 f   config.obj
 0001:00004830       ?loadSymbolFile@@YAXPAD@Z  66005830 f   config.obj
 0001:00004a30       ?isNumber@@YAHPAD@Z        66005a30 f   config.obj
 0001:00005960       ?doPatchCALL@@YAXHHH@Z     66006960 f   install.obj
 0001:000059b0       ?doPatchJMP@@YAXHHH@Z      660069b0 f   install.obj
 0001:00005a00       ?doPatchFILL@@YAXHHH@Z     66006a00 f   install.obj
 0001:00005a50       ?doPatchVALUE@@YAXHHH@Z    66006a50 f   install.obj
 0001:00005c70       ?parseOriginalCode@@YAHPADH0HPAH@Z 66006c70 f   install.obj
 0001:00009ab0       ?InstallPatchAfterLoad@@YAXXZ 6600aab0 f   install.obj
 0001:00009ae0       ?installD2PatchesAfterLoad@@YAHXZ 6600aae0 f   install.obj
 0001:00009e40       ?installNetworkRecvPatch@@YAHXZ 6600ae40 f   install.obj
 0001:00009ec0       ?installPatchToggle@@YAHXZ 6600aec0 f   install.obj
 0001:00009f80       ?installD2Patches@@YAHXZ   6600af80 f   install.obj
 0001:00014070       ?dumpPtr@@YAXPAU_iobuf@@PADHH1H@Z 66015070 f   install.obj
 0001:000142f0       ?dump@@YAXXZ               660152f0 f   install.obj
 0001:00014830       ?ReloadDll@@YAHXZ          66015830 f   install.obj
 0001:000149f0       _stat                      660159f0 f   install.obj
 0001:000149f0       _stat                      660159f0 f   install.obj
 0001:00015680       ?d2msg@@YAXHPA_WH@Z        66016680 f   common.obj
 0001:00017a00       ?comparePet@@YAHPBX0@Z     66018a00 f   common.obj
 0001:00017a00       ?comparePvp@@YAHPBX0@Z     66018a00 f   common.obj
 0001:00017a00       ?compareItem@@YAHPBX0@Z    66018a00 f   common.obj
 0001:00018c40       ?formatDllName@@YAXPAD@Z   66019c40 f   dbg.obj
 0001:000190b0       ?sendPacket43E0Patch_ASM@@YAXXZ 6601a0b0 f   dbg.obj
 0001:000190d0       ?sendPacket43E0@@YIXPADHH@Z 6601a0d0 f   dbg.obj
 0001:00019120       ?sendPacket3Patch_ASM@@YAXXZ 6601a120 f   dbg.obj
 0001:00019140       ?sendPacket3@@YIXDFH@Z     6601a140 f   dbg.obj
 0001:00019190       ?clickMenuItemPatch_ASM@@YAXXZ 6601a190 f   dbg.obj
 0001:000191b0       ?clickMenuItem@@YIXH@Z     6601a1b0 f   dbg.obj
 0001:00019e00       ?gameStart@@YAXXZ          6601ae00 f   loop.obj
 0001:0001a2d0       ?checkTag@@YAXPAD@Z        6601b2d0 f   loop.obj
 0001:0001adc0       ?updateTargetName@@YAXXZ   6601bdc0 f   map.obj
 0001:0001b250       ?selectWaypointTarget@@YAXXZ 6601c250 f   map.obj
 0001:0001b820       ?LoadBmpCellFile@@YAPAUCellFile@@PAD@Z 6601c820 f   map.obj
 0001:0001b8d0       ?InitCellFile@@YAPAUCellFile@@PAU1@@Z 6601c8d0 f   map.obj
 0001:0001b9e0       ?DeleteCellFile@@YAXPAUCellFile@@@Z 6601c9e0 f   map.obj
 0001:0001bc40       ?addCorner@@YAXPAUSC@@HH@Z 6601cc40 f   map.obj
 0001:0001bf80       ?modifyRescueBarTarget@@YAXXZ 6601cf80 f   map.obj
 0001:0001c110       ?target_sort@@YAXPAPAUMinimapLevelTarget@@@Z 6601d110 f   map.obj
 0001:0001c1e0       ?modifySealTarget@@YAXXZ   6601d1e0 f   map.obj
 0001:0001c670       ?modifyTempleTarget@@YAXXZ 6601d670 f   map.obj
 0001:0001c720       ?modifyTeleportTarget@@YAXXZ 6601d720 f   map.obj
 0001:0001ca90       ?ResetAutomapNodeCellNo@@YAXPAUAutomapNode@@@Z 6601da90 f   map.obj
 0001:0001e8b0       ?isConnected@@YAHPAUAreaRectInfo@@0PAUtagPOINT@@@Z 6601f8b0 f   map.obj
 0001:0001ebb0       ?addBlocks@@YAXPAUAreaRectData@@@Z 6601fbb0 f   map.obj
 0001:0001edd0       ?drawAreaRectOnMap@@YAXPAUAreaRectInfo@@H@Z 6601fdd0 f   map.obj
 0001:0001ef60       ?drawAreaRectOnScreen@@YAXPAUAreaRectInfo@@H@Z 6601ff60 f   map.obj
 0001:0001f2e0       ?DrawMinimapPoint@@YAXXZ   660202e0 f   map.obj
 0001:00020550       ?hex@@YAXPAU_iobuf@@HPAXH@Z 66021550 f   packet.obj
 0001:000226c0       ?drawAARect@@YAXPAURouteRect@@@Z 660236c0 f   route.obj
 0001:00022a70       ?initRectRoute@@YAHPAUMinimapLevelTarget@@@Z 66023a70 f   route.obj
 0001:00022f00       ?canTeleport@@YAHPAUAreaRectData@@PAURouteRect@@@Z 66023f00 f   route.obj
 0001:00023060       ?recycleRouteInfo@@YAXPAUMinimapLevelTarget@@@Z 66024060 f   route.obj
 0001:000231c0       ?performRectRoute@@YAXPAUMinimapLevelTarget@@@Z 660241c0 f   route.obj
 0001:00023ce0       ?recvWaypointMenu@@YIHPADH@Z 66024ce0 f   waypoint.obj
 0001:00024bb0       ?setWinTitle@@YAXPAUHWND__@@H@Z 66025bb0 f   winmsg.obj
 0001:00025e90       ?keyDown@@YIHHH@Z          66026e90 f   winmsg.obj
 0001:000261d0       ?shouldProcessKey@@YAHHH@Z 660271d0 f   winmsg.obj
 0001:000262d0       ?keyUp@@YIHHH@Z            660272d0 f   winmsg.obj
 0001:00026500       ?createVersionTextBox@@YAXXZ 66027500 f   winmsg.obj
 0001:00026610       ?debugMsDrawUnitStart@@YAXXZ 66027610 f   winmsg.obj
 0001:00026690       ?beforeDrawControl@@YAXXZ  66027690 f   winmsg.obj
 0001:000266d0       ?debugMsDrawControlStart@@YAXXZ 660276d0 f   winmsg.obj
 0001:00026710       ?debugMsDrawControlEnd@@YAXXZ 66027710 f   winmsg.obj
 0001:00026770       ?shouldSkipDrawUnitAndControl@@YAHXZ 66027770 f   winmsg.obj
 0001:00026810       ?shouldSkipAllDrawing@@YAHXZ 66027810 f   winmsg.obj
 0001:000268c0       ?skipDrawMenu2@@YAHXZ      660278c0 f   winmsg.obj
 0001:00026950       ?mainMenuSkip@@YAHXZ       66027950 f   winmsg.obj
 0001:00027230       ?drawGroundRect@@YAXPAUAreaRectData@@@Z 66028230 f   env.obj
 0001:000279d0       ?checkWeapon@@YAXPAUUnitAny@@@Z 660289d0 f   GameMonitor.obj
 0001:00027ad0       ?checkItem@@YAXPAUUnitAny@@H@Z 66028ad0 f   GameMonitor.obj
 0001:0002a790       ?recvState@@YIXPAE@Z       6602b790 f   GameMonitor.obj
 0001:0002b000       ?drawUnitsInfoInRect@@YAXPAUAreaRectData@@@Z 6602c000 f   GameMonitor.obj
 0001:0002b660       ?drawPlayerName@@YAXPAUUnitAny@@@Z 6602c660 f   GameMonitor.obj
 0001:0002be30       ?drawCircle@@YAXPAUUnitAny@@HH@Z 6602ce30 f   GameMonitor.obj
 0001:0002bfc0       ?drawBossHp@@YAXPAUUnitAny@@HHH@Z 6602cfc0 f   GameMonitor.obj
 0001:0002ccc0       ?drawEmit@@YAXPAUUnitAny@@HH@Z 6602dcc0 f   GameMonitor.obj
 0001:0002cec0       ?playerSkillOnTarget@@YIXPAD@Z 6602dec0 f   GameMonitor.obj
 0001:0002ee80       ?LogMessage@@YIXPA_W@Z     6602fe80 f   MessageLog.obj
 0001:00030a20       ?wscolorcpy@@YAPA_WPA_W0E@Z 66031a20 f   item.obj
 0001:00030a20       ?wscolorcpy@@YAPA_WPA_W0E@Z 66031a20 f   item.obj
 0001:000357f0       ?rescanMercPointers@@YAXXZ 660367f0 f   dangerous.obj
 0001:00037240       ?checkQuest@@YAXHHHPAD@Z   66038240 f   quest.obj
 0001:00037670       ?questAlert@@YAXXZ         66038670 f   quest.obj
 0001:000389b0       ?drawQuestState@@YAXPAG0HHH@Z 660399b0 f   quest.obj
 0001:00038d10       ?recv28_quest@@YIXPAD@Z    66039d10 f   quest.obj
 0001:0003aef0       ?switchTo@@YAXH@Z          6603bef0 f   bo.obj
 0001:0003b000       ?useSkill@@YAHH@Z          6603c000 f   bo.obj
 0001:0003b370       _time                      6603c370 f   d2s.obj
 0001:0003c520       ?hasProp@@YAHPAUUnitAny@@HH@Z 6603d520 f   DropProtection.obj
 0001:0003c9a0       ?deleteCharacterCallback@@YIXPAD0@Z 6603d9a0 f   DropProtection.obj
 0001:0003ca30       ?canDeleteCharacter@@YIHPAUD2Character@@@Z 6603da30 f   DropProtection.obj
 0001:0003d280       ?skipMenuItem@@YIHPAUMenuItem@@@Z 6603e280 f   DropProtection.obj
 0001:0003dc80       ?findTargetItem@@YAPAUUnitAny@@H@Z 6603ec80 f   DropProtection.obj
 0001:0003e330       ?doEnchant@@YAHPAUUnitAny@@@Z 6603f330 f   enchant.obj
 0001:0003f7f0       ?sortGameList@@YAXXZ       660407f0 f   mcp.obj
 0001:0003f830       ?compareMcp05Game@@YAHPBX0@Z 66040830 f   mcp.obj
 0001:0003f880       ?showGameListDifficulty@@YIXPAXPAD@Z 66040880 f   mcp.obj
 0001:0003fb10       ?compareCharTag@@YAHPBX0@Z 66040b10 f   login.obj
 0001:000401b0       ?c2w@@YAXPADPA_W@Z         660411b0 f   login.obj
 0001:00040330       ?selectChar@@YIXH@Z        66041330 f   login.obj
 0001:000432f0       ?teamMemberInArea@@YAHH@Z  660442f0 f   multi.obj
 0001:00043390       ?interactObject@@YAXXZ     66044390 f   multi.obj
 0001:000439d0       ?sendStartFollowCmd@@YAHPAUD2Window@@@Z 660449d0 f   multi.obj
 0001:00043a00       ?sendStopFollowCmd@@YAHPAUD2Window@@@Z 66044a00 f   multi.obj
 0001:00044c70       ?doTransferClick@@YAHHPAUUnitAny@@HH@Z 66045c70 f   multi.obj
 0001:00045280       ?protect3BB@@YAHXZ         66046280 f   multi.obj
 0001:00045550       ?recvCommand77@@YIXPAD@Z   66046550 f   multi.obj
 0001:00045760       ?recvCommand78@@YIXPAD@Z   66046760 f   multi.obj
 0001:00045a10       ?checkItems@@YAXHH@Z       66046a10 f   NpcTrade.obj
 0001:00045b50       ?checkItem@@YAXPAUUnitAny@@H@Z 66046b50 f   NpcTrade.obj
 0001:000466f0       ?CheckInvite@@YAHXZ        660476f0 f   party.obj
 0001:00046740       ?invitePlayerLater@@YAXHPADH@Z 66047740 f   party.obj
 0001:00046a40       ?autoPartyBugMF@@YAHXZ     66047a40 f   party.obj
 0001:00046b30       ?recv5A@@YGXPAD@Z          66047b30 f   party.obj
 0001:000470c0       ?setLootPermit@@YAXHPAD@Z  660480c0 f   party.obj
 0001:00047250       ?recvCommand5B@@YIXPAE@Z   66048250 f   party.obj
 0001:00047320       ?assignPlayer@@YIXPAD@Z    66048320 f   party.obj
 0001:00047460       ?recv8C@@YIXPAD@Z          66048460 f   party.obj
 0001:00048840       ?canPutIn@@YAHPADHHHH@Z    66049840 f   QuickSwapItem.obj
 0001:000490b0       ?updateCubeInvMap@@YAXXZ   6604a0b0 f   QuickSwapItem.obj
 0001:00049640       ?dropItemToGound@@YAHXZ    6604a640 f   QuickSwapItem.obj
 0001:000496b0       ?updateInv@@YAXPAUInventoryType@@H@Z 6604a6b0 f   QuickSwapItem.obj
 0001:00049760       ?putIntoSimpleItemStack@@YAHXZ 6604a760 f   QuickSwapItem.obj
 0001:00049820       ?findSimpleItemStack@@YAPAUUnitAny@@H@Z 6604a820 f   QuickSwapItem.obj
 0001:00049e00       ?pickupItem@@YAHPAUUnitAny@@@Z 6604ae00 f   QuickSwapItem.obj
 0001:00049e90       ?findGemInv@@YAPAUUnitAny@@HH@Z 6604ae90 f   QuickSwapItem.obj
 0001:0004a9e0       ?getGlobalBeltSlotPosition@@YIXPAH0@Z 6604b9e0 f   resolution.obj
 0001:0004aa90       ?getGlobalBeltRecord@@YIXPAH@Z 6604ba90 f   resolution.obj
 0001:0004ab50       ?adjWinRectEx@@YGHHPAUtagRECT@@HHH@Z 6604bb50 f   resolution.obj
 0001:0004b600       ?isAutoSkill@@YAHPAUSkill@@@Z 6604c600 f   skill.obj
 0001:0004b760       ?checkAutoSkill1@@YAXHH@Z  6604c760 f   skill.obj
 0001:0004c030       ?updateSkill@@YAXPAUAutoSkillInfo@@H@Z 6604d030 f   skill.obj
 0001:0004c6b0       ?processStacking@@YAXXZ    6604d6b0 f   skill.obj
 0001:0004c7f0       ?canUse@@YAHPAUAutoSkillInfo@@@Z 6604d7f0 f   skill.obj
 0001:0004c8d0       ?checkUnit@@YAXPAUUnitAny@@@Z 6604d8d0 f   skill.obj
 0001:0004e370       ?getLvPercent@@YAHPAUUnitAny@@@Z 6604f370 f   Snapshot.obj
 0001:0004ee70       ?countGemRunes@@YAXPAUUnitAny@@@Z 6604fe70 f   Snapshot.obj
 0001:0004f260       ?isStartEq@@YAHPAUUnitAny@@@Z 66050260 f   Snapshot.obj
 0001:0004f550       ?dumpStats@@YAHPAU_iobuf@@PAUStat@@@Z 66050550 f   Snapshot.obj
 0001:0004f940       ?dumpInventory@@YAXXZ      66050940 f   Snapshot.obj
 0001:00050040       ?dumpUnit@@YAXPAU_iobuf@@PAUUnitAny@@@Z 66051040 f   Snapshot.obj
 0001:00050ac0       ?outputGemRune@@YAXPAU_iobuf@@@Z 66051ac0 f   Snapshot.obj
 0001:00050d50       ?dumpItem@@YAXPAU_iobuf@@PAUUnitAny@@HH@Z 66051d50 f   Snapshot.obj
 0001:00051df0       ?addItem@@YAXPAUUnitAny@@H@Z 66052df0 f   Snapshot.obj
 0001:00052180       ?dumpItems@@YAXPAU_iobuf@@PAUUnitAny@@H@Z 66053180 f   Snapshot.obj
 0001:00052250       ?dumpQuests@@YAXPAU_iobuf@@@Z 66053250 f   Snapshot.obj
 0001:000529c0       ?dumpTodo@@YAXPAU_iobuf@@HPADPAUQ@@@Z 660539c0 f   Snapshot.obj
 0001:00052ae0       ?loadQuests@@YAXXZ         66053ae0 f   Snapshot.obj
 0001:00052bb0       ?dumpWaypoints@@YAXPAU_iobuf@@@Z 66053bb0 f   Snapshot.obj
 0001:00052d50       ?dumpSkills@@YAXPAU_iobuf@@PAUUnitAny@@@Z 66053d50 f   Snapshot.obj
 0001:00052e60       ?dumpSkill@@YAXPAU_iobuf@@PAUSkill@@@Z 66053e60 f   Snapshot.obj
 0001:00052f70       ?dumpObject@@YAXPAU_iobuf@@PAUUnitAny@@@Z 66053f70 f   Snapshot.obj
 0001:000530d0       ?dumpAreatile@@YAXPAU_iobuf@@PAUUnitAny@@@Z 660540d0 f   Snapshot.obj
 0001:00053660       ?doDeleteSnapshotFile@@YAXPAD@Z 66054660 f   Snapshot.obj
 0001:00054210       ?saveItem@@YAXPAU_iobuf@@PAUUnitAny@@@Z 66055210 f   snap.obj
 0001:00054660       ?formatItems2@@YAHPAU_iobuf@@0H@Z 66055660 f   snap.obj
 0001:00054850       ?formatItem@@YAXPAU_iobuf@@0HH@Z 66055850 f   snap.obj
 0001:00055550       ?isAllAttr@@YAHPAUStatEx@@@Z 66056550 f   snap.obj
 0001:000555c0       ?isAllResist@@YAHPAUStatEx@@@Z 660565c0 f   snap.obj
 0001:00055630       ?isSocketable@@YAHH@Z      66056630 f   snap.obj
 0001:000560c0       ?checkSummonSkillLevel@@YAXXZ 660570c0 f   summon.obj
 0001:00056220       ?getSummonCount@@YAHH@Z    66057220 f   summon.obj
 0001:00056250       ?needSummon@@YAHXZ         66057250 f   summon.obj
 0001:00056460       ?switchSummonSkill@@YAXH@Z 66057460 f   summon.obj
 0001:00056490       ?checkUnit@@YAXPAUUnitAny@@@Z 66057490 f   summon.obj
 0001:000567b0       ?dumpMonsterInfo@@YIXH@Z   660577b0 f   summon.obj
 0001:00056ff0       ?isMonster@@YAHPAUUnitAny@@@Z 66057ff0 f   teleport.obj
 0001:00057070       ?findMonsters@@YAXH@Z      66058070 f   teleport.obj
 0001:00057440       ?addMonMap@@YAXHH@Z        66058440 f   teleport.obj
 0001:000574a0       ?resetMonsters@@YAXXZ      660584a0 f   teleport.obj
 0001:00057520       ?calBoundingBox@@YAXXZ     66058520 f   teleport.obj
 0001:00057660       ?addPossiblePostions@@YAXPAUAreaRectData@@0PAUtagPOINT@@H@Z 66058660 f   teleport.obj
 0001:00057a80       ?disM256@@YAHPAUtagPOINT@@0@Z 66058a80 f   teleport.obj
 0001:00057ab0       ?hasMon@@YAHHH@Z           66058ab0 f   teleport.obj
 0001:00057b10       ?findValidPosition@@YAHXZ  66058b10 f   teleport.obj
 0001:00057bf0       ?comparePos@@YAHPBX0@Z     66058bf0 f   teleport.obj
 0001:00057c10       ?dis@@YAHPAUtagPOINT@@0@Z  66058c10 f   teleport.obj
 0001:000583c0       ?findBoss@@YAHHH@Z         660593c0 f   teleport.obj
 0001:00058490       ?getMonDis@@YAHPAUtagPOINT@@@Z 66059490 f   teleport.obj
 0001:000584f0       ?interact@@YAXPAUtagPOINT@@HH@Z 660594f0 f   teleport.obj
 0001:000585d0       ?interactObj@@YAXPAUUnitAny@@@Z 660595d0 f   teleport.obj
 0001:00058790       ?teleportForward@@YAHXZ    66059790 f   teleport.obj
 0001:00058bc0       ?teleportToSafety@@YAHXZ   66059bc0 f   teleport.obj
 0001:00058e80       ?savePrevMonsters@@YAXXZ   66059e80 f   teleport.obj
 0001:00058f50       ?findSafestPosition@@YAHXZ 66059f50 f   teleport.obj
 0001:00058fe0       ?tpToBoss@@YAHXZ           66059fe0 f   teleport.obj
 0001:000591a0       ?autoTarget@@YAHXZ         6605a1a0 f   teleport.obj
 0001:000594f0       ?telekinesisTarget@@YAHPAUUnitAny@@@Z 6605a4f0 f   teleport.obj
 0001:00059800       ?findTelekinesisPosition@@YAHXZ 6605a800 f   teleport.obj
 0001:000598c0       ?autoDuranceofHateLevel3@@YAHXZ 6605a8c0 f   teleport.obj
 0001:00059930       ?talRashaChamberTp@@YAHXZ  6605a930 f   teleport.obj
 0001:00059e30       ?dumpProp@@YAXPAU_iobuf@@PAUItemProp@@@Z 6605ae30 f   txt.obj
 0001:00059fe0       ?dumpItemTxt@@YAXXZ        6605afe0 f   txt.obj
 0001:0005a160       ?dumpItemTypeTxt@@YAXXZ    6605b160 f   txt.obj
 0001:0005a220       ?dumpUniqueTxt@@YAXXZ      6605b220 f   txt.obj
 0001:0005a430       ?dumpSetTxt@@YAXXZ         6605b430 f   txt.obj
 0001:0005a660       ?dumpLevels@@YAXXZ         6605b660 f   txt.obj
 0001:0005a7c0       ?dumpTreasureClassTxt@@YAXXZ 6605b7c0 f   txt.obj
 0001:0005ad00       ?setStash@@YAXHH@Z         6605bd00 f   panel.obj
 0001:0005ae60       ?setCube@@YAXH@Z           6605be60 f   panel.obj
 0001:0005afe0       ?setCharInv@@YAXHH@Z       6605bfe0 f   panel.obj
 0001:0005b200       ?loadInvChar8x10@@YAXXZ    6605c200 f   panel.obj
 0001:0005b260       ?calDrawOffset@@YAXXZ      6605c260 f   panel.obj
 0001:0005b2f0       ?getEquipmentSlotLayout@@YIXPAH0@Z 6605c2f0 f   panel.obj
 0001:0005b390       ?getEquipInvDrawOffset@@YAXPAH0PAX@Z 6605c390 f   panel.obj
 0001:0005b490       ?getInventoryGridLayout@@YIXPAH0@Z 6605c490 f   panel.obj
 0001:0005b540       ?getInventoryPosition@@YIXPAH0@Z 6605c540 f   panel.obj
 0001:0005b5f0       ?addSkillPatch@@YIXH@Z     6605c5f0 f   panel.obj
 0001:0005b670       ?recvCommand26@@YIXPAD@Z   6605c670 f   panel.obj
 0001:0005b9f0       ?guessInvType@@YAHHH@Z     6605c9f0 f   panel.obj
 0001:0005ba10       ?guessStashType@@YAHHH@Z   6605ca10 f   panel.obj
 0001:0005ba30       ?guessCubeType@@YAHHH@Z    6605ca30 f   panel.obj
 0001:0005ca50       ?SetSkillBaseLevelOnClient@@YAXPAXPAUUnitAny@@HHH@Z 6605da50 f   server.obj
 0001:0005cfc0       ?resetQuest@@YAXPAUWorld@@PAUUnitAny@@H@Z 6605dfc0 f   server.obj
 0001:0005d220       ?gameStart@@YIXPAUNetClient@@@Z 6605e220 f   server.obj
 0001:0005d2a0       ?createHackmapMsg@@YAXXZ   6605e2a0 f   server.obj
 0001:0005d400       ?serverSendHandshake@@YIXPAUNetClient@@PAUUnitAny@@@Z 6605e400 f   server.obj
 0001:0005d4b0       ?serverLoadComplete@@YIXPAUNetClient@@@Z 6605e4b0 f   server.obj
 0001:0005d4e0       ?serverSendPacket@@YIXPAH@Z 6605e4e0 f   server.obj
 0001:0005d5c0       ?serverActiveBufferItem@@YIXPAUWorld@@PAUUnitAny@@H@Z 6605e5c0 f   server.obj
 0001:0005d7d0       ?skipSwapItem@@YIHPAUWorld@@PAUUnitAny@@PAD@Z 6605e7d0 f   server.obj
 0001:0005d900       ?skipServerChangeHp@@YIHPAUUnitAny@@H@Z 6605e900 f   server.obj
 0001:0005db20       ?checkSpawnedMonster@@YIXPAUUnitAny@@@Z 6605eb20 f   server.obj
 0001:0005dd10       ?serverRecvTest@@YAXPAUWorld@@PAUUnitAny@@H@Z 6605ed10 f   server.obj
 0001:0005ddd0       ?necSummon@@YAPAUUnitAny@@PAUNecSummon@@@Z 6605edd0 f   server.obj
 0001:0005e6f0       ?clientChat@@YIXPAD@Z      6605f6f0 f   admin.obj
 0001:0005eda0       ?getFreePos@@YAPAUAreaRectData@@PAU1@PAUtagPOINT@@1H@Z 6605fda0 f   admin.obj
 0001:0005ede0       ?selectUnique@@YIHHH@Z     6605fde0 f   admin.obj
 0001:0005eec0       ?selectSet@@YIHPAHH@Z      6605fec0 f   admin.obj
 0001:000601d0       ?gold@@YAXPAUWorld@@PAUUnitAny@@@Z 660611d0 f   admin.obj
 0001:00060260       ?dropItemIdx@@YAPAUUnitAny@@PAUWorld@@PAU1@HHHH@Z 66061260 f   admin.obj
 0001:000602d0       ?dropRuneword@@YAPAUUnitAny@@PAUWorld@@PAU1@HHH@Z 660612d0 f   admin.obj
 0001:00060510       ?dropUnique@@YAPAUUnitAny@@PAUWorld@@PAU1@HHH@Z 66061510 f   admin.obj
 0001:000605e0       ?dropSet@@YAPAUUnitAny@@PAUWorld@@PAU1@HHH@Z 660615e0 f   admin.obj
 0001:000606a0       ?setItemStats@@YAXPAUUnitAny@@PAUd2stats@@@Z 660616a0 f   admin.obj
 0001:000607b0       ?parseStats@@YAPADPADPAUd2stats@@@Z 660617b0 f   admin.obj
 0001:00061fc0       ?setStat@@YAHPAUd2stats@@HHH@Z 66062fc0 f   admin.obj
 0001:00062050       ?pickupItemTo@@YAXPAUWorld@@PAUUnitAny@@1H@Z 66063050 f   admin.obj
 0001:0006300f       _flsall                    6606400f f   LIBCMT:fflush.obj
 0001:000637e0       _swap                      660647e0 f   LIBCMT:qsort.obj
 0001:00063810       _shortsort                 66064810 f   LIBCMT:qsort.obj
 0001:0006427f       ?strtoxl@@YAKPAUlocaleinfo_struct@@PBDPAPBDHH@Z 6606527f f   LIBCMT:strtol.obj
 0001:00065603       _IsRootUNCName             66066603 f   LIBCMT:stati32.obj
 0001:0006567d       __fullpath_helper          6606667d f   LIBCMT:stati32.obj
 0001:0006673a       ?_strupr_s_l_stat@@YAHPADIPAUlocaleinfo_struct@@@Z 6606773a f   LIBCMT:strupr.obj
 0001:00066952       ?wcstoxl@@YAKPAUlocaleinfo_struct@@PB_WPAPB_WHH@Z 66067952 f   LIBCMT:wcstol.obj
 0001:00066f3e       ___DllMainCRTStartup       66067f3e f   LIBCMT:dllcrt0.obj
 0001:00067057       ?CPtoLCID@@YAHH@Z          66068057 f   LIBCMT:mbctype.obj
 0001:00067086       ?setSBCS@@YAXPAUthreadmbcinfostruct@@@Z 66068086 f   LIBCMT:mbctype.obj
 0001:000670ea       ?setSBUpLow@@YAXPAUthreadmbcinfostruct@@@Z 660680ea f   LIBCMT:mbctype.obj
 0001:00067321       ?getSystemCP@@YAHH@Z       66068321 f   LIBCMT:mbctype.obj
 0001:000679ab       __updatetlocinfoEx_nolock  660689ab f   LIBCMT:setlocal.obj
 0001:00068f8d       _write_char                66069f8d f   LIBCMT:output.obj
 0001:00068fc0       _write_multi_char          66069fc0 f   LIBCMT:output.obj
 0001:00068fe6       _write_string              66069fe6 f   LIBCMT:output.obj
 0001:0006a0d7       _fastzero_I                6606b0d7 f   LIBCMT:p4_memset.obj
 0001:0006a1bd       _has_osfxsr_set            6606b1bd f   LIBCMT:cpu_disp.obj
 0001:0006b04a       _fastcopy_I                6606c04a f   LIBCMT:p4_memcpy.obj
 0001:0006b26c       ?__crtLCMapStringA_stat@@YAHPAUlocaleinfo_struct@@KKPBDHPADHHH@Z 6606c26c f   LIBCMT:a_map.obj
 0001:0006b8d4       __initterm                 6606c8d4 f   LIBCMT:crt0dat.obj
 0001:0006b99a       _doexit                    6606c99a f   LIBCMT:crt0dat.obj
 0001:0006bca6       __shift                    6606cca6 f   LIBCMT:cvt.obj
 0001:0006bceb       __cftoe2_l                 6606cceb f   LIBCMT:cvt.obj
 0001:0006c2bd       __cftof2_l                 6606d2bd f   LIBCMT:cvt.obj
 0001:0006c758       __unwind_handler4          6606d758 f   LIBCMT:exsup4.obj
 0001:0006d658       __onexit_nolock            6606e658 f   LIBCMT:onexit.obj
 0001:0006eeba       _parse_cmdline             6606feba f   LIBCMT:stdargv.obj
 0001:0006f4a8       ?__crtGetStringTypeA_stat@@YAHPAUlocaleinfo_struct@@KPBDHPAGHHH@Z 660704a8 f   LIBCMT:a_str.obj
 0001:00070afc       _siglookup                 66071afc f   LIBCMT:winsig.obj
 0001:00071204       __unwind_handler           66072204 f   LIBCMT:exsup.obj
 0001:00071b1e       __tzset_nolock             66072b1e f   LIBCMT:tzset.obj
 0001:00071e64       _cvtdate                   66072e64 f   LIBCMT:tzset.obj
 0001:0007205b       __isindst_nolock           6607305b f   LIBCMT:tzset.obj
 0001:000723c4       __tsopen_nolock            660733c4 f   LIBCMT:open.obj
 0001:00073115       ?x_ismbbtype_l@@YAHPAUlocaleinfo_struct@@IHH@Z 66074115 f   LIBCMT:ismbbyte.obj
 0001:00074eed       __hw_cw                    66075eed f   LIBCMT:_ieee87_.obj
 0001:00074f7b       ___hw_cw_sse2              66075f7b f   LIBCMT:_ieee87_.obj
 0001:00076143       ?strncnt@@YAHPBDH@Z        66077143 f   LIBCMT:a_cmp.obj
 0001:00076161       ?__crtCompareStringA_stat@@YAHPAUlocaleinfo_struct@@KKPBDH1HH@Z 66077161 f   LIBCMT:a_cmp.obj
 0001:0007660d       _findenv                   6607760d f   LIBCMT:setenv.obj
 0001:0007665f       _copy_environ              6607765f f   LIBCMT:setenv.obj
 0001:000769e4       ??__Fnomem@?5???2@YAPAXI@Z@YAXXZ 660779e4 f   LIBCMT:new.obj
