 d2hackmap

 Timestamp is 6854d109 (Fri Jun 20 11:10:01 2025)

 Preferred load address is 66000000

 Start         Length     Name                   Class
 0001:00000000 0006f784H .text                   CODE
 0001:0006f784 00000014H .text$yd                CODE
 0002:00000000 0000021cH .idata$5                DATA
 0002:0000021c 00000004H .CRT$XCA                DATA
 0002:00000220 00000004H .CRT$XCZ                DATA
 0002:00000224 00000004H .CRT$XIA                DATA
 0002:00000228 00000014H .CRT$XIC                DATA
 0002:0000023c 00000004H .CRT$XIZ                DATA
 0002:00000240 00000004H .CRT$XPA                DATA
 0002:00000244 00000004H .CRT$XPX                DATA
 0002:00000248 00000004H .CRT$XPXA               DATA
 0002:0000024c 00000004H .CRT$XPZ                DATA
 0002:00000250 00000004H .CRT$XTA                DATA
 0002:00000254 00000004H .CRT$XTZ                DATA
 0002:00000260 00017d60H .rdata                  DATA
 0002:00017fc0 000000dcH .rdata$r                DATA
 0002:000180a0 0000000cH .rdata$sxdata           DATA
 0002:000180ac 00000004H .rtc$IAA                DATA
 0002:000180b0 00000004H .rtc$IZZ                DATA
 0002:000180b4 00000004H .rtc$TAA                DATA
 0002:000180b8 00000004H .rtc$TZZ                DATA
 0002:000180c0 00000754H .xdata$x                DATA
 0002:00018814 0000003cH .idata$2                DATA
 0002:00018850 00000014H .idata$3                DATA
 0002:00018864 0000021cH .idata$4                DATA
 0002:00018a80 0000096eH .idata$6                DATA
 0002:000193f0 000000c7H .edata                  DATA
 0003:00000000 0000a688H .data                   DATA
 0003:0000a6a0 00204e04H .bss                    DATA

  Address         Publics by Value              Rva+Base       Lib:Object

 0000:00000000       __except_list              00000000     <absolute>
 0000:00000003       ___safe_se_handler_count   00000003     <absolute>
 0000:00000000       ___ImageBase               66000000     <linker-defined>
 0001:00000000       ?bitstream_init@@YAXPAUbitstream@@PAX1@Z 66001000 f   bitstream.obj
 0001:00000040       ?bitstream_seek@@YAXPAUbitstream@@H@Z 66001040 f   bitstream.obj
 0001:00000080       ?bitstream_rbit@@YAHPAUbitstream@@H@Z 66001080 f   bitstream.obj
 0001:00000170       ?bitstream_wbit@@YAHPAUbitstream@@IH@Z 66001170 f   bitstream.obj
 0001:00000250       ?bitstream_wbit_done@@YAXPAUbitstream@@@Z 66001250 f   bitstream.obj
 0001:000002d0       ?compareConfigVar@@YAHPBX0@Z 660012d0 f   config.obj
 0001:000002f0       ?compareSymbol@@YAHPBX0@Z  660012f0 f   config.obj
 0001:00000310       ?findConfigVar@@YAPAUConfigVar@@PAD@Z 66001310 f   config.obj
 0001:00000400       ?addConfigVar@@YAXPAUConfigVar@@@Z 66001400 f   config.obj
 0001:00000470       ?FixValues@@YAXXZ          66001470 f   config.obj
 0001:000004b0       ?formatKey@@YAXPADH@Z      660014b0 f   config.obj
 0001:00000550       ?formatKeyW@@YAXPA_WH@Z    66001550 f   config.obj
 0001:00000680       ?setupKey@@YAXPAUToggleVar@@@Z 66001680 f   config.obj
 0001:000006d0       ?addExtraKey@@YAPAUToggleVar@@H@Z 660016d0 f   config.obj
 0001:00000730       ?InitKeyEvent@@YAXXZ       66001730 f   config.obj
 0001:00000ae0       ?AddWarningMessage@@YAXPADH@Z 66001ae0 f   config.obj
 0001:00000c20       ?ShowWarningMessage@@YAXXZ 66001c20 f   config.obj
 0001:00000c80       ?isquote@@YADD@Z           66001c80 f   config.obj
 0001:00000cb0       ?filterSpace@@YAXPAD@Z     66001cb0 f   config.obj
 0001:00000d70       ?splitLine@@YAXPADPAPAD1@Z 66001d70 f   config.obj
 0001:00000e40       ?strchr@@YAPADPADH@Z       66001e40 f i config.obj
 0001:00000e60       ?strrchr@@YAPADPADH@Z      66001e60 f i config.obj
 0001:00000e80       ?findSymbol@@YAPAUSymbol@@PAD@Z 66001e80 f   config.obj
 0001:00000f40       ?doneNameValues@@YAXXZ     66001f40 f   config.obj
 0001:00000ff0       ?addNameValue@@YAXPAD0@Z   66001ff0 f   config.obj
 0001:00001080       ?replaceSymbols@@YAPADPAD@Z 66002080 f   config.obj
 0001:00001420       ?ConvertToWString@@YAHPA_WPADH@Z 66002420 f   config.obj
 0001:00001450       ?ConvertToD2String@@YAXPA_WPADH@Z 66002450 f   config.obj
 0001:000015a0       ?StoreArrayConfig@@YAHPAUConfigVar@@HHPAD1HH@Z 660025a0 f   config.obj
 0001:00001ac0       ?StoreConfig@@YAXPAUConfigVar@@PAD1@Z 66002ac0 f   config.obj
 0001:00003010       ?LoadConfigFile@@YAHPADH@Z 66004010 f   config.obj
 0001:000038a0       ?strstr@@YAPADPADPBD@Z     660048a0 f i config.obj
 0001:000047f0       ?ReleaseMem@@YAXXZ         660057f0 f   DllMain.obj
 0001:00004810       _DllMain@12                66005810 f   DllMain.obj
 0001:000049e0       _QueryInterface@0          660059e0 f   DllMain.obj
 0001:00004a00       _PatchClient               66005a00 f   DllMain.obj
 0001:00004a50       _MainMenuFlushFramebuf@0   66005a50 f   DllMain.obj
 0001:00004a70       _PatchServer@4             66005a70 f   DllMain.obj
 0001:00004ab0       ?guessEnchantLevel@@YAHXZ  66005ab0 f   guess.obj
 0001:00004b60       ?guessBOLevel@@YAHH@Z      66005b60 f   guess.obj
 0001:00005390       ?Install_AddConfigVars@@YAXXZ 66006390 f   install.obj
 0001:000053d0       ?Install_FixValues@@YAXXZ  660063d0 f   install.obj
 0001:000053f0       ?get_dll_addr@@YAPAUHINSTANCE__@@PAD@Z 660063f0 f   install.obj
 0001:00005480       ?VirtualProtect@@YAKKKK@Z  66006480 f   install.obj
 0001:000054b0       ?WriteLocalBYTES@@YAXKPAXH@Z 660064b0 f   install.obj
 0001:00005500       ?FillLocalBYTES@@YAXKEH@Z  66006500 f   install.obj
 0001:00005560       ?InterceptLocalCode2@@YAXEKKH@Z 66006560 f   install.obj
 0001:000055e0       ?InterceptLocalCode@@YAXEKKH@Z 660065e0 f   install.obj
 0001:00005610       ?patchCall@@YAHPAD0HHHH0@Z 66006610 f   install.obj
 0001:00005660       ?patchJmp@@YAHPAD0HHHH0@Z  66006660 f   install.obj
 0001:000056b0       ?patchFill@@YAHPAD0HHHH0@Z 660066b0 f   install.obj
 0001:00005700       ?patchValue@@YAHPAD0HHHH0@Z 66006700 f   install.obj
 0001:00005750       ?installPatch@@YAHP6AXHHH@ZPAD1HHHH1@Z 66006750 f   install.obj
 0001:00005ae0       ?removePatches@@YAHPAPAUInstalledPatch@@@Z 66006ae0 f   install.obj
 0001:00005b50       ?init_d2_ptrs@@YAHH@Z      66006b50 f   install.obj
 0001:00009590       ?init_d2_ptrs2@@YAHXZ      6600a590 f   install.obj
 0001:00009600       ?InstallPatchAfterLoad_ASM@@YAXXZ 6600a600 f   install.obj
 0001:000098f0       ?setResolutionPatch@@YAXH@Z 6600a8f0 f   install.obj
 0001:00009940       ?MonitorPacket@@YAXXZ      6600a940 f   install.obj
 0001:0000bc50       ?check_d2ptrs@@YAXXZ       6600cc50 f   install.obj
 0001:00013870       ?Install@@YAHXZ            66014870 f   install.obj
 0001:00013e20       ?patchServer@@YAXXZ        66014e20 f   install.obj
 0001:00013e80       @SetReloadFlag@8           66014e80 f   install.obj
 0001:00013eb0       @SetBnetIp@4               66014eb0 f   install.obj
 0001:00013ed0       ?unpatchServer@@YAXXZ      66014ed0 f   install.obj
 0001:00013f20       ?Uninstall@@YAXXZ          66014f20 f   install.obj
 0001:00014160       ?init_crypt_table@@YAXXZ   66015160 f   mpq.obj
 0001:00014200       ?mpq_hashstring@@YAIPBDI@Z 66015200 f   mpq.obj
 0001:00014280       ?saveMpqTable@@YAXXZ       66015280 f   mpq.obj
 0001:00014330       ?add_mpq_path@@YIHPAD@Z    66015330 f   mpq.obj
 0001:00014460       ?dump_mpq_path@@YIXH@Z     66015460 f   mpq.obj
 0001:00014600       ?storm268_patch_ASM@@YAXXZ 66015600 f   mpq.obj
 0001:00014630       ?common_addConfigVars@@YAXXZ 66015630 f   common.obj
 0001:00014670       ?UnicodeFix2@@YAXPA_W@Z    66015670 f   common.obj
 0001:00014700       ?MyMultiByteToWideChar@@YAHIKPBDHPA_WH@Z 66015700 f   common.obj
 0001:00014740       ?GB2GBK@@YAXPAD@Z          66015740 f   common.obj
 0001:000148c0       ?readFully@@YAHPAU_iobuf@@PADH@Z 660158c0 f   common.obj
 0001:00014920       ?getFileSize@@YAHPBD@Z     66015920 f   common.obj
 0001:00014950       ?fileExist@@YAHPBD@Z       66015950 f   common.obj
 0001:00014970       ?openFile@@YAPAU_iobuf@@PAD0@Z 66015970 f   common.obj
 0001:00014a80       ?heap_strdup@@YAPADPAXPAD@Z 66015a80 f   common.obj
 0001:00014b00       ?loadFile@@YAPADPAXPAU_iobuf@@PAH@Z 66015b00 f   common.obj
 0001:00014c50       ?gameMessage@@YAXPADZZ     66015c50 f   common.obj
 0001:00014e10       ?partyMessage@@YAXPADZZ    66015e10 f   common.obj
 0001:00014ed0       ?gameMessageW@@YAXPA_WZZ   66015ed0 f   common.obj
 0001:00014f20       ?gameMessageWColor@@YAXHPA_WZZ 66015f20 f   common.obj
 0001:00014f80       ?partyMessageW@@YAXPA_WZZ  66015f80 f   common.obj
 0001:00014fd0       ?partyMessageWcolor@@YAXHPA_WZZ 66015fd0 f   common.obj
 0001:00015030       ?get_cpu_usage@@YAHPAH0@Z  66016030 f   common.obj
 0001:00015110       ?getSkillClass@@YAHH@Z     66016110 f   common.obj
 0001:00015160       ?getSkillType@@YAHHH@Z     66016160 f   common.obj
 0001:000151b0       ?getSkillLevel@@YAHPAUUnitAny@@H@Z 660161b0 f   common.obj
 0001:00015310       ?getUnitRawDistance2@@YAHPAUUnitAny@@0@Z 66016310 f   common.obj
 0001:00015420       ?getUnitYardDistance2@@YAMPAUUnitAny@@0@Z 66016420 f   common.obj
 0001:00015460       ?saveDistanceMap@@YAXXZ    66016460 f   common.obj
 0001:000154c0       ?getDistanceM256@@YAHHH@Z  660164c0 f   common.obj
 0001:000155f0       ?getPlayerDistanceM256@@YAHPAUUnitAny@@@Z 660165f0 f   common.obj
 0001:00015680       ?getPlayerDistanceRaw@@YAMPAUUnitAny@@@Z 66016680 f   common.obj
 0001:00015720       ?getPlayerDistanceYard@@YAMPAUUnitAny@@@Z 66016720 f   common.obj
 0001:00015750       ?getRosterUnit@@YAPAURosterUnit@@H@Z 66016750 f   common.obj
 0001:00015790       ?getAreatileByTxt@@YAPAUUnitAny@@H@Z 66016790 f   common.obj
 0001:000157f0       ?findObjectByTxt@@YAPAUUnitAny@@HHH@Z 660167f0 f   common.obj
 0001:000158a0       ?getPortalToArea@@YAPAUUnitAny@@HPAD@Z 660168a0 f   common.obj
 0001:000159e0       ?getAreatileTxtToLevel@@YAHH@Z 660169e0 f   common.obj
 0001:00015a40       ?getSinglePlayerWorld@@YAPAUWorld@@XZ 66016a40 f   common.obj
 0001:00015a70       ?encodeItem@@YAHPAUUnitAny@@PADH@Z 66016a70 f   common.obj
 0001:00015ab0       ?hasSkill@@YAHH@Z          66016ab0 f   common.obj
 0001:00015b30       ?selectSkill@@YAXHH@Z      66016b30 f   common.obj
 0001:00015b80       ?switchLeftSkill@@YAXH@Z   66016b80 f   common.obj
 0001:00015ba0       ?switchRightSkill@@YAXH@Z  66016ba0 f   common.obj
 0001:00015bc0       ?getSinglePlayerUnit@@YAPAUUnitAny@@HH@Z 66016bc0 f   common.obj
 0001:00015c90       ?SendPacket@@YAXPAEH@Z     66016c90 f   common.obj
 0001:00015d20       ?LeftClickType@@YAHHPAUUnitAny@@HH@Z 66016d20 f   common.obj
 0001:00015e00       ?LeftClickPos@@YAHHH@Z     66016e00 f   common.obj
 0001:00015e20       ?LeftClickUnit@@YAHPAUUnitAny@@@Z 66016e20 f   common.obj
 0001:00015e40       ?ShiftLeftClickUnit@@YAHPAUUnitAny@@@Z 66016e40 f   common.obj
 0001:00015e90       ?ShiftLeftClickPos@@YAHHH@Z 66016e90 f   common.obj
 0001:00015ee0       ?RightSkill@@YAHPAUUnitAny@@HH@Z 66016ee0 f   common.obj
 0001:00015f30       ?RightSkillPos@@YAHHH@Z    66016f30 f   common.obj
 0001:00015f50       ?RightSkillUnit@@YAHPAUUnitAny@@@Z 66016f50 f   common.obj
 0001:00015f80       ?canUseSkillNow@@YAHPAUUnitAny@@H@Z 66016f80 f   common.obj
 0001:00015fa0       ?skillUnusableAsm@@YAHPAUUnitAny@@PAUSkill@@@Z 66016fa0 f   common.obj
 0001:00015fc0       ?skillUnusable@@YAHPAUUnitAny@@PAUSkill@@@Z 66016fc0 f   common.obj
 0001:00016000       ?useBelt@@YAXHH@Z          66017000 f   common.obj
 0001:00016080       ?GameControlStart@@YAHH@Z  66017080 f   common.obj
 0001:00016110       ?GameControlEnd@@YAHH@Z    66017110 f   common.obj
 0001:00016190       ?GameControl@@YAXH@Z       66017190 f   common.obj
 0001:000161b0       ?getGameControlKey@@YAHH@Z 660171b0 f   common.obj
 0001:00016200       ?sqrt@@YAMM@Z              66017200 f i common.obj
 0001:00016220       _sqrtf                     66017220 f i common.obj
 0001:00016240       ?StandStillPatch_ASM@@YAXXZ 66017240 f   common.obj
 0001:00016260       ?SetBottomAlertMsg1@@YAXPA_WHHH@Z 66017260 f   common.obj
 0001:00016300       ?SetBottomAlertMsg2@@YAXPA_WHHH@Z 66017300 f   common.obj
 0001:000163a0       ?SetBottomAlertMsg3@@YAXPA_WHHH@Z 660173a0 f   common.obj
 0001:00016440       ?DrawCenterAlertMsg@@YAXXZ 66017440 f   common.obj
 0001:00016650       ?GetAreaLevel@@YAHXZ       66017650 f   common.obj
 0001:000166b0       ?GetPetByType@@YAPAUPetUnit@@PAUUnitAny@@H@Z 660176b0 f   common.obj
 0001:00016700       ?GetUnitFromIdSafe@@YAPAUUnitAny@@KK@Z 66017700 f   common.obj
 0001:00016770       ?GetUnitPet@@YAPAUUnitAny@@PAU1@@Z 66017770 f   common.obj
 0001:000167b0       ?getPlayerClass@@YAHH@Z    660177b0 f   common.obj
 0001:000167f0       ?GetUnitMagicStat@@YAKPAUUnitAny@@K@Z 660177f0 f   common.obj
 0001:00016840       ?GetUnitResist@@YAHPAUUnitAny@@K@Z 66017840 f   common.obj
 0001:00016890       ?CheckUnitSelect@@YAHPAUUnitAny@@@Z 66017890 f   common.obj
 0001:000169c0       ?GetItemILvlAfterCube@@YAHHHH@Z 660179c0 f   common.obj
 0001:00016a70       ?GetItemAlvl@@YAHHHH@Z     66017a70 f   common.obj
 0001:00016af0       ?GetTextWidth@@YAKPA_W@Z   66017af0 f   common.obj
 0001:00016b10       ?DrawD2Text@@YAXKPA_WHHKK@Z 66017b10 f   common.obj
 0001:00016b50       ?DrawCenterText@@YAXKPA_WHHKHK@Z 66017b50 f   common.obj
 0001:00016ba0       ?drawBgText@@YAHPA_WHHHH@Z 66017ba0 f   common.obj
 0001:00016c20       ?drawBgTextMiddle@@YAHPA_WHHHH@Z 66017c20 f   common.obj
 0001:00016c90       ?drawBgTextLeft@@YAHPA_WHHHH@Z 66017c90 f   common.obj
 0001:00016cf0       ?ExitGame@@YAXXZ           66017cf0 f   common.obj
 0001:00016d30       ?GetGameLanguage@@YAHXZ    66017d30 f   common.obj
 0001:00016df0       ?getFcrFrame@@YAHHPAUUnitAny@@@Z 66017df0 f   common.obj
 0001:000170b0       ?IsFullWindow@@YAHXZ       660180b0 f   common.obj
 0001:00017170       ?getUnitOwnerId@@YAHPAUUnitAny@@@Z 66018170 f   common.obj
 0001:00017340       ?testPvpFlag@@YAHH@Z       66018340 f   common.obj
 0001:00017550       ?sameParty@@YAHH@Z         66018550 f   common.obj
 0001:00017570       ?isInRect@@YA_NPAUAreaRectData@@HH@Z 66018570 f   common.obj
 0001:000175e0       ?testPosition@@YAPAUAreaRectData@@PAU1@HH@Z 660185e0 f   common.obj
 0001:00017600       ?portalToLevel@@YAHPAUWorld@@PAUUnitAny@@H@Z 66018600 f   common.obj
 0001:000177b0       ?hasPortalInRect@@YAHPAUAreaRectData@@H@Z 660187b0 f   common.obj
 0001:00017820       ?hasPortalNearby@@YAHPAUAreaRectData@@H@Z 66018820 f   common.obj
 0001:00017890       ?hasPortalInLevel@@YAHPAUDrlgLevel@@H@Z 66018890 f   common.obj
 0001:000178f0       ?unitHasItem@@YAHPAUUnitAny@@H@Z 660188f0 f   common.obj
 0001:00017960       ?sendPacketToClient@@YAXPAUNetClient@@PADH@Z 66018960 f   common.obj
 0001:00017980       ?sendChatMessageToServer@@YAXPADZZ 66018980 f   common.obj
 0001:00017a40       ?sendMessageToClient@@YAXPAUNetClient@@HHPAD1@Z 66018a40 f   common.obj
 0001:00017be0       ?getCharStatsTxt@@YAPAUCharStatsTxt@@H@Z 66018be0 f   common.obj
 0001:00017bf0       ?getStatMaxValue@@YAHH@Z   66018bf0 f   common.obj
 0001:00017c50       ?cpLocaleName@@YAHPA_W0H@Z 66018c50 f   common.obj
 0001:00017cf0       ?acpLocaleName@@YAHPADPA_WH@Z 66018cf0 f   common.obj
 0001:00017de0       ?getSimpleItemStackContent@@YAHPAUUnitAny@@PAH@Z 66018de0 f   common.obj
 0001:00017ec0       ?d2client_SetAutomapParty@@YIXK@Z 66018ec0 f   d2callstub.obj
 0001:00017ed0       ?d2client_SetAutomapNames@@YIXK@Z 66018ed0 f   d2callstub.obj
 0001:00017ee0       ?d2client_ChatInput@@YIKPAUD2MSG@@@Z 66018ee0 f   d2callstub.obj
 0001:00017ef0       ?d2client_CheckUiStatus@@YIHH@Z 66018ef0 f   d2callstub.obj
 0001:00017f00       ?d2client_InitAutomapLayer@@YIPAUAutomapLayer@@H@Z 66018f00 f   d2callstub.obj
 0001:00017f10       ?d2common_GetUniqueItemTxt@@YIPAUUniqueItemTxt@@H@Z 66018f10 f   d2callstub.obj
 0001:00017f40       ?d2common_GetItemStatCostTxt@@YIPAUItemStatCostTxt@@H@Z 66018f40 f   d2callstub.obj
 0001:00017f70       ?d2common_GetPropertiesTxt@@YIPAUPropertiesTxt@@H@Z 66018f70 f   d2callstub.obj
 0001:00017fa0       ?d2common_GetSetItemTxt@@YIPAUSetItemTxt@@H@Z 66018fa0 f   d2callstub.obj
 0001:00017fd0       ?d2common_GetItemTypeTxt@@YIPAUItemTypeTxt@@H@Z 66018fd0 f   d2callstub.obj
 0001:00018000       ?d2common_GetRuneWordTxt@@YIPAURuneWordTxt@@H@Z 66019000 f   d2callstub.obj
 0001:00018030       ?d2common_GetRuneWordTxtIndex@@YIHH@Z 66019030 f   d2callstub.obj
 0001:00018070       ?d2client_LoadUiImage@@YIPAUCellFile@@PAD@Z 66019070 f   d2callstub.obj
 0001:00018080       ?SaveGame@@YAHXZ           66019080 f   dbg.obj
 0001:000180d0       ?DoTest@@YAHXZ             660190d0 f   dbg.obj
 0001:000180f0       ?installAlwaysDebugPatches@@YAHXZ 660190f0 f   dbg.obj
 0001:00018100       ?installDebugPatches@@YAHXZ 66019100 f   dbg.obj
 0001:000182f0       ?loop_addConfigVars@@YAXXZ 660192f0 f   loop.obj
 0001:00018330       ?ToggleIMEInput@@YAXH@Z    66019330 f   loop.obj
 0001:00018380       ?GameLoopPatch@@YAXXZ      66019380 f   loop.obj
 0001:000190b0       ?GameEndPatch@@YAXXZ       6601a0b0 f   loop.obj
 0001:000192b0       ?GameLoopPatch_ASM@@YAXXZ  6601a2b0 f   loop.obj
 0001:000192c0       ?GameEndPatch_ASM@@YAXXZ   6601a2c0 f   loop.obj
 0001:000192d0       ?automap_addConfigVars@@YAXXZ 6601a2d0 f   map.obj
 0001:00019310       ?automap_initConfigVars@@YAXXZ 6601a310 f   map.obj
 0001:00019620       ?automap_initKeyEvent@@YAXXZ 6601a620 f   map.obj
 0001:000196a0       ?draw2map@@YAXPAUtagPOINT@@HH@Z 6601a6a0 f   map.obj
 0001:00019710       ?tile2map@@YAXPAUtagPOINT@@HH@Z 6601a710 f   map.obj
 0001:00019760       ?addMapTarget@@YAXHHHPA_W0@Z 6601a760 f   map.obj
 0001:00019840       ?automap_fixValues@@YAXXZ  6601a840 f   map.obj
 0001:000198a0       ?AutoMapNewGame@@YAXXZ     6601a8a0 f   map.obj
 0001:00019990       ?PrevMapTarget@@YAHXZ      6601a990 f   map.obj
 0001:00019bd0       ?NextMapTarget@@YAHXZ      6601abd0 f   map.obj
 0001:00019c70       ?incMapTargetIf@@YAXH@Z    6601ac70 f   map.obj
 0001:00019ca0       ?AutoMapNewLevel@@YAXXZ    6601aca0 f   map.obj
 0001:00019e80       ?addMinimapTarget@@YAXPAUAreaRectInfo@@HHHHHH@Z 6601ae80 f   map.obj
 0001:00019f80       ?bitmap2dc6@@YAPAUCellFile@@PAEHH@Z 6601af80 f   map.obj
 0001:0001a1b0       ?InitCellFiles@@YAXXZ      6601b1b0 f   map.obj
 0001:0001a4b0       ?DeleteCellFiles@@YAXXZ    6601b4b0 f   map.obj
 0001:0001a5c0       ?InitAutomapLayer@@YAXH@Z  6601b5c0 f   map.obj
 0001:0001a5e0       ?mapReveal@@YAXPAUAreaRectInfo@@@Z 6601b5e0 f   map.obj
 0001:0001a630       ?mapHide@@YAXPAUAreaRectInfo@@@Z 6601b630 f   map.obj
 0001:0001a680       ?addSecretCowLevelCorners@@YAXPAUDrlgLevel@@@Z 6601b680 f   map.obj
 0001:0001a830       ?RevealAutomapLevel@@YAXPAUDrlgLevel@@H@Z 6601b830 f   map.obj
 0001:0001b3a0       ?RevealLevelPlayerIn@@YAHXZ 6601c3a0 f   map.obj
 0001:0001b3e0       ?RevealCurAct@@YAHXZ       6601c3e0 f   map.obj
 0001:0001b590       ?RemoveMyAutomapNodes@@YAXXZ 6601c590 f   map.obj
 0001:0001b660       ?DrawAutomapNodePatch@@YGXPAUCellContext@@HHPAUtagRECT@@H@Z 6601c660 f   map.obj
 0001:0001b9e0       ?AddShrinePatch_ASM@@YAXXZ 6601c9e0 f   map.obj
 0001:0001ba10       ?OverrideShrinePatch@@YIXPAUAutomapNode@@0@Z 6601ca10 f   map.obj
 0001:0001ba70       ?OverrideShrinePatch_ASM@@YAXXZ 6601ca70 f   map.obj
 0001:0001ba90       ?DrawAutomapNode@@YAXPAUCellFile@@HHD@Z 6601ca90 f   map.obj
 0001:0001bc10       ?DrawAutomapBlob@@YIXHHHPAUUnitAny@@@Z 6601cc10 f   map.obj
 0001:0001bd90       ?ForceDrawBlob_ASM@@YAXXZ  6601cd90 f   map.obj
 0001:0001bda0       ?DrawBlobPath_ASM@@YAXXZ   6601cda0 f   map.obj
 0001:0001bdb0       ?DrawPartyPlayerBlobPatch_ASM@@YAXXZ 6601cdb0 f   map.obj
 0001:0001bdc0       ?HostilePlayerPatch@@YIEPAUUnitAny@@@Z 6601cdc0 f   map.obj
 0001:0001be00       ?HostilePlayerColor_ASM@@YAXXZ 6601ce00 f   map.obj
 0001:0001be10       ?DrawPlayerTextPatch@@YIEPAUUnitAny@@@Z 6601ce10 f   map.obj
 0001:0001be70       ?DrawPlayerTextPatch_ASM@@YAXXZ 6601ce70 f   map.obj
 0001:0001bea0       ?MonsterBlobDesc@@YIXPAUUnitAny@@@Z 6601cea0 f   map.obj
 0001:0001c390       ?MonsterBlobDescPatch_ASM@@YAXXZ 6601d390 f   map.obj
 0001:0001c3b0       ?MonsterBlobCol@@YIEPAUUnitAny@@@Z 6601d3b0 f   map.obj
 0001:0001c4e0       ?CorpseBlobCol@@YIEPAUUnitAny@@@Z 6601d4e0 f   map.obj
 0001:0001c590       ?ObjectBlobCol@@YIEPAUUnitAny@@@Z 6601d590 f   map.obj
 0001:0001c750       ?MissileBlobCol@@YIEPAUUnitAny@@@Z 6601d750 f   map.obj
 0001:0001c850       ?MixedBlobColPatch@@YIEPAUUnitAny@@@Z 6601d850 f   map.obj
 0001:0001c900       ?MixedBlobColPatch_ASM@@YAXXZ 6601d900 f   map.obj
 0001:0001c920       ?AddRectToMinimap@@YAHPAUAreaRectInfo@@H@Z 6601d920 f   map.obj
 0001:0001d570       ?drawActiveRectAreaOnMinimap@@YAXXZ 6601e570 f   map.obj
 0001:0001d6d0       ?drawScreenAreaOnMinimap@@YAXXZ 6601e6d0 f   map.obj
 0001:0001d7f0       ?MinimapPatch@@YAXXZ       6601e7f0 f   map.obj
 0001:0001dad0       ?MinimapPatch_ASM@@YAXXZ   6601ead0 f   map.obj
 0001:0001dae0       ?InitScrollLock@@YAXH@Z    6601eae0 f   map.obj
 0001:0001db10       ?SetScrollMapPos@@YAXHH@Z  6601eb10 f   map.obj
 0001:0001db70       ?MiniMapScroll@@YAHH@Z     6601eb70 f   map.obj
 0001:0001dba0       ?CenterMap@@YAHXZ          6601eba0 f   map.obj
 0001:0001dbc0       ?ShakeScreenPatch@@YGXPAH0@Z 6601ebc0 f   map.obj
 0001:0001dc60       ?ScrollScreenEnd@@YAHH@Z   6601ec60 f   map.obj
 0001:0001dca0       ?ScrollScreenStart@@YAHH@Z 6601eca0 f   map.obj
 0001:0001dd70       ?DrawScrollOffset@@YAXPA_WH@Z 6601ed70 f   map.obj
 0001:0001ddc0       ?recvObjectState@@YIXPAD@Z 6601edc0 f   map.obj
 0001:0001de50       ?RecvPacket0EPatch_ASM@@YAXXZ 6601ee50 f   map.obj
 0001:0001de60       ?packet_addConfigVars@@YAXXZ 6601ee60 f   packet.obj
 0001:0001dea0       ?packet_initConfigVars@@YAXXZ 6601eea0 f   packet.obj
 0001:0001ded0       ?packet_FixValues@@YAXXZ   6601eed0 f   packet.obj
 0001:0001df10       ?ResetPacketHandlerTimer@@YAXXZ 6601ef10 f   packet.obj
 0001:0001df20       ?PacketNewGame@@YAXXZ      6601ef20 f   packet.obj
 0001:0001df40       ?FixSocketTimeOut_ASM@@YAXXZ 6601ef40 f   packet.obj
 0001:0001df50       ?FixSocketErrRet_ASM@@YAXXZ 6601ef50 f   packet.obj
 0001:0001df70       ?dump9c@@YAXPAEH@Z         6601ef70 f   packet.obj
 0001:0001e0d0       ?GamePacketReceivedInterceptPatch_ASM@@YAXXZ 6601f0d0 f   packet.obj
 0001:0001e100       ?dumpRecvPacket@@YIXPAEH@Z 6601f100 f   packet.obj
 0001:0001ecd0       ?GamePacketSendInterceptPatch_ASM@@YAXXZ 6601fcd0 f   packet.obj
 0001:0001ed30       ?dumpSendPacket@@YIXPAH@Z  6601fd30 f   packet.obj
 0001:0001f3e0       ?showResetProtectMsg@@YAXXZ 660203e0 f   packet.obj
 0001:0001f450       ?activeBufferItem@@YAHHHH@Z 66020450 f   packet.obj
 0001:0001f4c0       ?ResetSkillPatch_ASM@@YAXXZ 660204c0 f   packet.obj
 0001:0001f4e0       ?packetDebug@@YAXXZ        660204e0 f   packet.obj
 0001:0001f4f0       ?blockSendPacket@@YIHPAH@Z 660204f0 f   packet.obj
 0001:0001fd80       ?initSendPacketCheckTable@@YAXXZ 66020d80 f   packet.obj
 0001:0001fe20       ?autoroute_addConfigVars@@YAXXZ 66020e20 f   route.obj
 0001:0001fe60       ?autoroute_fixValues@@YAXXZ 66020e60 f   route.obj
 0001:0001fe80       ?AutoRouteNewGame@@YAXXZ   66020e80 f   route.obj
 0001:0001feb0       ?AutoRouteLocateSource@@YAHH@Z 66020eb0 f   route.obj
 0001:00020050       ?minimapDebug@@YAXXZ       66021050 f   route.obj
 0001:000201a0       ?AutoRouteDrawScreenPath@@YAXXZ 660211a0 f   route.obj
 0001:00020460       ?AutoRouteDrawMinimapPath@@YAXXZ 66021460 f   route.obj
 0001:00020b00       ?markNextPathInvalid@@YAXH@Z 66021b00 f   route.obj
 0001:00020b70       ?AutoTeleportGetTarget@@YAHPAUtagPOINT@@PAH11@Z 66021b70 f   route.obj
 0001:00020cd0       ?RerouteRectPath@@YAHXZ    66021cd0 f   route.obj
 0001:00021880       ?AutoMapRoute@@YAXXZ       66022880 f   route.obj
 0001:00021970       ?waypoint_initConfigVars@@YAXXZ 66022970 f   waypoint.obj
 0001:000219f0       ?waypointExist@@YAHH@Z     660229f0 f   waypoint.obj
 0001:00021a30       ?hasWaypoint@@YAHH@Z       66022a30 f   waypoint.obj
 0001:00021a90       ?WaypointNewGame@@YAXXZ    66022a90 f   waypoint.obj
 0001:00021ab0       ?isWaypointTxt@@YAHH@Z     66022ab0 f   waypoint.obj
 0001:00021c70       ?findWaypoint@@YAPAUUnitAny@@H@Z 66022c70 f   waypoint.obj
 0001:00021eb0       ?takeWaypointToLevel@@YAHPAUUnitAny@@H@Z 66022eb0 f   waypoint.obj
 0001:00021f20       ?takeWaypointToLvl@@YAHHH@Z 66022f20 f   waypoint.obj
 0001:00021f60       ?RecvCommand_63_Patch_ASM@@YAXXZ 66022f60 f   waypoint.obj
 0001:00022060       ?winmsg_addConfigVars@@YAXXZ 66023060 f   winmsg.obj
 0001:000220a0       ?winmsg_initConfigVars@@YAXXZ 660230a0 f   winmsg.obj
 0001:000221b0       ?WinMessageFixValues@@YAXXZ 660231b0 f   winmsg.obj
 0001:00022240       ?WinMessage_initKeyEvent@@YAXXZ 66023240 f   winmsg.obj
 0001:00022680       ?IsKeyDown@@YAHH@Z         66023680 f   winmsg.obj
 0001:000226a0       ?LockMouse@@YAHXZ          660236a0 f   winmsg.obj
 0001:00022860       ?switchSkillStart@@YAHH@Z  66023860 f   winmsg.obj
 0001:000229e0       ?switchSkillEnd@@YAHH@Z    660239e0 f   winmsg.obj
 0001:00022b60       ?GameSound@@YAHH@Z         66023b60 f   winmsg.obj
 0001:00022ba0       ?FullScreen@@YAHXZ         66023ba0 f   winmsg.obj
 0001:00022c90       ?AttractNPC@@YAHXZ         66023c90 f   winmsg.obj
 0001:00022d30       ?SwitchWindow@@YAHH@Z      66023d30 f   winmsg.obj
 0001:00022d90       ?WinMessageNewGame@@YAXXZ  66023d90 f   winmsg.obj
 0001:00022fd0       ?WinMessageEndGame@@YAXXZ  66023fd0 f   winmsg.obj
 0001:00023000       ?refreshScreenSaver@@YAXXZ 66024000 f   winmsg.obj
 0001:00023040       ?refreshMenuScreenSaver@@YAXXZ 66024040 f   winmsg.obj
 0001:00023080       ?winActiveMsg@@YAXH@Z      66024080 f   winmsg.obj
 0001:000231b0       ?hasCTA@@YAHXZ             660241b0 f   winmsg.obj
 0001:00023250       ?WinMessageRunLoop@@YAXXZ  66024250 f   winmsg.obj
 0001:00023520       ?WinMessage@@YAHHHPAUHWND__@@HHH@Z 66024520 f   winmsg.obj
 0001:000243c0       ?WinMessagePatch_ASM@@YAXXZ 660253c0 f   winmsg.obj
 0001:000243d0       ?KeydownPatch_ASM@@YAXXZ   660253d0 f   winmsg.obj
 0001:000243f0       ?KeyupPatch_ASM@@YAXXZ     660253f0 f   winmsg.obj
 0001:00024410       ?ReceiveSwapWeapon_ASM@@YAXXZ 66025410 f   winmsg.obj
 0001:00024450       ?ShowVersion_Patch_ASM@@YAXXZ 66025450 f   winmsg.obj
 0001:000244f0       ?SetCursorPosPatch_ASM@@YAXXZ 660254f0 f   winmsg.obj
 0001:00024510       ?DrawLeftBackImagePatch_ASM@@YAXXZ 66025510 f   winmsg.obj
 0001:00024530       ?DrawRightBackImagePatch_ASM@@YAXXZ 66025530 f   winmsg.obj
 0001:00024550       ?DrawGroundAndUnitPatch_ASM@@YAXXZ 66025550 f   winmsg.obj
 0001:000245b0       ?DrawControlsPatch_ASM@@YAXXZ 660255b0 f   winmsg.obj
 0001:000246a0       ?SkipDrawUnitAndControlPatch_ASM@@YAXXZ 660256a0 f   winmsg.obj
 0001:00024730       ?SkipAllDrawingPatch_ASM@@YAXXZ 66025730 f   winmsg.obj
 0001:000247e0       ?SkipDrawMenuPatch2_ASM@@YAXXZ 660257e0 f   winmsg.obj
 0001:00024870       ?SkipDrawMenuPatch_ASM@@YAXXZ 66025870 f   winmsg.obj
 0001:00024960       ?NoHidePatch_ASM@@YAXXZ    66025960 f   winmsg.obj
 0001:00024990       ?env_addConfigVars@@YAXXZ  66025990 f   env.obj
 0001:000249d0       ?env_initConfigVars@@YAXXZ 660259d0 f   env.obj
 0001:00024a20       ?ChangeVisualEffect@@YAHXZ 66025a20 f   env.obj
 0001:00024aa0       ?WeatherPatch_ASM@@YAXXZ   66025aa0 f   env.obj
 0001:00024ab0       ?LightingPatch_ASM@@YAXXZ  66025ab0 f   env.obj
 0001:00024ae0       ?InfravisionPatch@@YIKPAUUnitAny@@@Z 66025ae0 f   env.obj
 0001:00024f60       ?InfravisionPatch_ASM@@YAXXZ 66025f60 f   env.obj
 0001:00024f80       ?drawMyGround@@YAXXZ       66025f80 f   env.obj
 0001:00025120       ?SkipDrawGroundPatch_ASM@@YAXXZ 66026120 f   env.obj
 0001:00025140       ?gamemonitor_addConfigVars@@YAXXZ 66026140 f   GameMonitor.obj
 0001:00025180       ?gamemonitor_initConfigVars@@YAXXZ 66026180 f   GameMonitor.obj
 0001:000251c0       ?usePotion@@YAXH@Z         660261c0 f   GameMonitor.obj
 0001:000252a0       ?updateCurStashPage@@YAXXZ 660262a0 f   GameMonitor.obj
 0001:00025460       ?recheckSelfItems@@YAXXZ   66026460 f   GameMonitor.obj
 0001:00025b80       ?setKDCountDown@@YAXH@Z    66026b80 f   GameMonitor.obj
 0001:00025ba0       ?setKBCountDown@@YAXHH@Z   66026ba0 f   GameMonitor.obj
 0001:00025bd0       ?setCountDownEndTime@@YAXPAUCountDown@@@Z 66026bd0 f   GameMonitor.obj
 0001:00025cb0       ?setupCountdown@@YAXPAUCountDown@@@Z 66026cb0 f   GameMonitor.obj
 0001:00025d00       ?onRightSkillMap@@YAXHH@Z  66026d00 f   GameMonitor.obj
 0001:00025eb0       ?onRightSkillUnit@@YAXHH@Z 66026eb0 f   GameMonitor.obj
 0001:00026010       ?GameMonitorNewGame@@YAXXZ 66027010 f   GameMonitor.obj
 0001:000260c0       ?GameMonitorEndGame@@YAXXZ 660270c0 f   GameMonitor.obj
 0001:000260e0       ?ShowGameCount@@YAXXZ      660270e0 f   GameMonitor.obj
 0001:00026370       ?SetKills@@YIXK@Z          66027370 f   GameMonitor.obj
 0001:000263c0       ?KillCountPatch_ASM@@YAXXZ 660273c0 f   GameMonitor.obj
 0001:000263e0       ?UnitModeChangePatch_ASM@@YAXXZ 660273e0 f   GameMonitor.obj
 0001:00026420       ?drawSimpleItemStackInfo@@YAXPAUUnitAny@@HH@Z 66027420 f   GameMonitor.obj
 0001:00026670       ?DrawMonitorInfo@@YAXXZ    66027670 f   GameMonitor.obj
 0001:00027da0       ?SetState@@YGXKH@Z         66028da0 f   GameMonitor.obj
 0001:000280d0       ?RecvCommand_A7_Patch_ASM@@YAXXZ 660290d0 f   GameMonitor.obj
 0001:00028250       ?RecvCommand_A8_Patch_ASM@@YAXXZ 66029250 f   GameMonitor.obj
 0001:000282a0       ?RecvCommand_A9_Patch_ASM@@YAXXZ 660292a0 f   GameMonitor.obj
 0001:000282f0       ?itemAction@@YAXPAUbitstream@@PAD@Z 660292f0 f   GameMonitor.obj
 0001:00028460       ?changeStashPage@@YAXH@Z   66029460 f   GameMonitor.obj
 0001:00028570       ?itemAction9C@@YIXPAD@Z    66029570 f   GameMonitor.obj
 0001:000285f0       ?itemAction9D@@YIXPAD@Z    660295f0 f   GameMonitor.obj
 0001:00028670       ?updateItemSkill@@YIXPAD@Z 66029670 f   GameMonitor.obj
 0001:00028700       ?RecvCommand_9C_Patch_ASM@@YAXXZ 66029700 f   GameMonitor.obj
 0001:00028710       ?RecvCommand_9D_Patch_ASM@@YAXXZ 66029710 f   GameMonitor.obj
 0001:00028720       ?RecvCommand_22_Patch_ASM@@YAXXZ 66029720 f   GameMonitor.obj
 0001:00028730       ?drawUnitsInfo@@YAXXZ      66029730 f   GameMonitor.obj
 0001:000294e0       ?info_AddConfigVars@@YAXXZ 6602a4e0 f   info.obj
 0001:00029520       ?infoNewGame@@YAXXZ        6602a520 f   info.obj
 0001:00029540       ?wsprintfW2@@YAPA_WPA_WPADZZ 6602a540 f   info.obj
 0001:000295a0       ?DrawGameInfoPatch@@YIXH@Z 6602a5a0 f   info.obj
 0001:00029860       ?DrawPetHeadPatch@@YIXHPAUUnitAny@@@Z 6602a860 f   info.obj
 0001:000298e0       ?DrawPetHeadPatch_ASM@@YAXXZ 6602a8e0 f   info.obj
 0001:000298f0       ?getGameWinId@@YAHH@Z      6602a8f0 f   info.obj
 0001:00029950       ?DrawPartyHeadPatch@@YIXHPAURosterUnit@@@Z 6602a950 f   info.obj
 0001:00029e50       ?StartDrawPartyHeadPatch_ASM@@YAXXZ 6602ae50 f   info.obj
 0001:00029e70       ?DrawPartyHeadPatch_ASM@@YAXXZ 6602ae70 f   info.obj
 0001:00029e90       ?DrawSkeletonHeadPatch@@YIXHH@Z 6602ae90 f   info.obj
 0001:00029fb0       ?DrawSkeletonHeadPatch_ASM@@YAXXZ 6602afb0 f   info.obj
 0001:00029fc0       ?UpdateExp@@YAXXZ          6602afc0 f   info.obj
 0001:0002a1e0       ?InitExp@@YAXXZ            6602b1e0 f   info.obj
 0001:0002a210       ?UpdateExp_ASM@@YAXXZ      6602b210 f   info.obj
 0001:0002a230       ?info_FixValues@@YAXXZ     6602b230 f   info.obj
 0001:0002a310       ?DrawClientPatch@@YAXXZ    6602b310 f   info.obj
 0001:0002a490       ?DrawClientPatch_ASM@@YAXXZ 6602b490 f   info.obj
 0001:0002a4b0       ?ShowLifeWithMyPattern@@YGKKHH@Z 6602b4b0 f   info.obj
 0001:0002a530       ?ShowManaWithMyPattern@@YGKKHH@Z 6602b530 f   info.obj
 0001:0002a5b0       ?ShowLifePatch_ASM@@YAXXZ  6602b5b0 f   info.obj
 0001:0002a5d0       ?ShowManaPatch_ASM@@YAXXZ  6602b5d0 f   info.obj
 0001:0002a5f0       ?SetLifeManaShow@@YAHXZ    6602b5f0 f   info.obj
 0001:0002a630       ?GetViewEquUnit@@YAPAUUnitAny@@XZ 6602b630 f   info.obj
 0001:0002a660       ?GetViewStatUnit@@YAPAUUnitAny@@XZ 6602b660 f   info.obj
 0001:0002a690       ?SetViewUnit@@YAXXZ        6602b690 f   info.obj
 0001:0002a780       ?ViewUnit@@YAHH@Z          6602b780 f   info.obj
 0001:0002a820       ?GetViewingStatsPlayerPatch1_ASM@@YAXXZ 6602b820 f   info.obj
 0001:0002a830       ?GetViewingStatsPlayerPatch2_ASM@@YAXXZ 6602b830 f   info.obj
 0001:0002a840       ?GetUnitDrawEquipItemPatch_ASM@@YAXXZ 6602b840 f   info.obj
 0001:0002a850       ?GetUnitDrawItemDescPath_ASM@@YAXXZ 6602b850 f   info.obj
 0001:0002a860       ?GetUnitTestHasItem_ASM@@YAXXZ 6602b860 f   info.obj
 0001:0002a880       ?GetUnitText@@YIPA_WPA_WPAUUnitAny@@@Z 6602b880 f   info.obj
 0001:0002a920       ?ViewDrawInvItemPatch@@YAPAUUnitAny@@XZ 6602b920 f   info.obj
 0001:0002a9a0       ?GetUnitDrawInvItemPatch_ASM@@YAXXZ 6602b9a0 f   info.obj
 0001:0002a9b0       ?GetUnitProtectClickEquipPatch_ASM@@YAXXZ 6602b9b0 f   info.obj
 0001:0002a9f0       ?GetUnitProtectClickInvPatch_ASM@@YAXXZ 6602b9f0 f   info.obj
 0001:0002aa20       ?DrawDefaultFontText@@YAXPA_WHHKHK@Z 6602ba20 f   info.obj
 0001:0002aa50       ?SwitchStatPage@@YAHH@Z    6602ba50 f   info.obj
 0001:0002aaa0       ?DrawUnitStat@@YAXHHHHPAD00KHH@Z 6602baa0 f   info.obj
 0001:0002ab80       ?ViewUnitStatPatch@@YIXPAUUnitAny@@@Z 6602bb80 f   info.obj
 0001:0002af80       ?ViewUnitStatPatch_ASM@@YAXXZ 6602bf80 f   info.obj
 0001:0002afa0       ?ViewPetStatPatch@@YIXPAUUnitAny@@@Z 6602bfa0 f   info.obj
 0001:0002b210       ?ViewPetStatPatch_ASM@@YAXXZ 6602c210 f   info.obj
 0001:0002b230       ?messagelog_AddConfigVars@@YAXXZ 6602c230 f   MessageLog.obj
 0001:0002b270       ?OpenFileNew@@YAPAXPAD@Z   6602c270 f   MessageLog.obj
 0001:0002b2a0       ?OpenFileWrite@@YAPAXPAD@Z 6602c2a0 f   MessageLog.obj
 0001:0002b2d0       ?WriteFile@@YAKPAX0K@Z     6602c2d0 f   MessageLog.obj
 0001:0002b300       ?LogMessage@@YIXPA_W@Z     6602c300 f   MessageLog.obj
 0001:0002b7a0       ?MessageLogPatch1_ASM@@YAXXZ 6602c7a0 f   MessageLog.obj
 0001:0002b7c0       ?MessageLogPatch2_ASM@@YAXXZ 6602c7c0 f   MessageLog.obj
 0001:0002b7e0       ?MessageLogExitGame@@YAXXZ 6602c7e0 f   MessageLog.obj
 0001:0002bad0       ?item_addConfigVars@@YAXXZ 6602cad0 f   item.obj
 0001:0002bb10       ?item_initConfigVars@@YAXXZ 6602cb10 f   item.obj
 0001:0002bba0       ?item_NewGame@@YAXXZ       6602cba0 f   item.obj
 0001:0002bbc0       ?wcs_insert@@YAPA_WPA_W0@Z 6602cbc0 f   item.obj
 0001:0002bc90       ?GetItemIndex@@YAHH@Z      6602cc90 f   item.obj
 0001:0002bce0       ?CheckItemVisible@@YAHPAUUnitAny@@@Z 6602cce0 f   item.obj
 0001:0002bdf0       ?GetItemColour@@YAEPAUUnitAny@@H@Z 6602cdf0 f   item.obj
 0001:0002c090       ?SwitchItemMode@@YAHXZ     6602d090 f   item.obj
 0001:0002c140       ?trimspaces@@YAXPA_W@Z     6602d140 f   item.obj
 0001:0002c200       ?ColourD2String@@YIPA_WPA_WK@Z 6602d200 f   item.obj
 0001:0002c290       ?ItemHaveLevel@@YAHE@Z     6602d290 f   item.obj
 0001:0002c2f0       ?ItemNamePatch@@YIXPA_WPAUUnitAny@@PAUItemTxt@@@Z 6602d2f0 f   item.obj
 0001:0002cf40       ?ItemNamePatch_ASM@@YAXXZ  6602df40 f   item.obj
 0001:0002cf60       ?OpenCubeStringPatch@@YIPA_WPA_WK@Z 6602df60 f   item.obj
 0001:0002cfc0       ?OpenCubeStringPatch_ASM@@YAXXZ 6602dfc0 f   item.obj
 0001:0002cfd0       ?PermShowItemsPatch1@@YAHXZ 6602dfd0 f   item.obj
 0001:0002d000       ?PermShowItemsPatch2@@YAHXZ 6602e000 f   item.obj
 0001:0002d050       ?PermShowItemsPatch3@@YAHXZ 6602e050 f   item.obj
 0001:0002d0c0       ?PermShowItemsPatch1_ASM@@YAXXZ 6602e0c0 f   item.obj
 0001:0002d0d0       ?PermShowItemsPatch2_ASM@@YAXXZ 6602e0d0 f   item.obj
 0001:0002d0f0       ?PermShowItemsPatch3_ASM@@YAXXZ 6602e0f0 f   item.obj
 0001:0002d110       ?PermShowItemsPatch4_ASM@@YAXXZ 6602e110 f   item.obj
 0001:0002d120       ?ItemDescPath@@YIXPA_WHHHH@Z 6602e120 f   item.obj
 0001:0002d220       ?SocketViewCallRoutine@@YIXPAUUnitAny@@KP6GX0K@Z@Z 6602e220 f   item.obj
 0001:0002d230       ?ItemSocketViewPatch@@YGXP6GXPAUUnitAny@@K@Z0K@Z 6602e230 f   item.obj
 0001:0002d300       ?ItemSocketViewPatch_ASM@@YAXXZ 6602e300 f   item.obj
 0001:0002d310       ?SocketItemStatViewPatch_ASM@@YAXXZ 6602e310 f   item.obj
 0001:0002d330       ?GetItemExtStatListPatch@@YGPAUStatList@@PAUUnitAny@@KK@Z 6602e330 f   item.obj
 0001:0002d360       ?ItemBasicStatPatch_ASM@@YAXXZ 6602e360 f   item.obj
 0001:0002d390       ?SetPropInfo@@YAXHHHPAUItemProp@@@Z 6602e390 f   item.obj
 0001:0002d810       ?GetStatRange@@YAPA_WPA_WKK@Z 6602e810 f   item.obj
 0001:0002dc00       ?GetItemPropStringPatch@@YIKPA_WPAUStatEx@@K@Z 6602ec00 f   item.obj
 0001:0002dcd0       ?GetItemPropStringPatch_ASM@@YAXXZ 6602ecd0 f   item.obj
 0001:0002dcf0       ?StrcatItemPropStringPatch@@YIXPA_W0K@Z 6602ecf0 f   item.obj
 0001:0002de10       ?StrcatItemPropStringPatch_ASM@@YAXXZ 6602ee10 f   item.obj
 0001:0002de20       ?StrcatSocketStringPatch@@YIPA_WPA_W@Z 6602ee20 f   item.obj
 0001:0002de50       ?StrcatSocketStringPatch_ASM@@YAXXZ 6602ee50 f   item.obj
 0001:0002de60       ?StrcatDefenseStringPatch@@YIPA_WPA_W@Z 6602ee60 f   item.obj
 0001:0002e100       ?StrcatDefenseStringPatch_ASM@@YAXXZ 6602f100 f   item.obj
 0001:0002e110       ?StrcatDamageStringPatch@@YIPA_WPA_W@Z 6602f110 f   item.obj
 0001:0002e330       ?StrcatDamageStringPatch_ASM1@@YAXXZ 6602f330 f   item.obj
 0001:0002e340       ?StrcatDamageStringPatch_ASM2@@YAXXZ 6602f340 f   item.obj
 0001:0002e360       ?ShowSocketProtectInfo@@YAXXZ 6602f360 f   item.obj
 0001:0002e3d0       ?SocketProtectPatch_ASM@@YAXXZ 6602f3d0 f   item.obj
 0001:0002e3f0       ?SocketProtectPatch1_ASM@@YAXXZ 6602f3f0 f   item.obj
 0001:0002e430       ?SocketProtectPatch2_ASM@@YAXXZ 6602f430 f   item.obj
 0001:0002e470       ?searchStat@@YAHPAUUnitAny@@HPAH@Z 6602f470 f   item.obj
 0001:0002e540       ?drawInvItemInfo@@YAXPAUUnitAny@@HH@Z 6602f540 f   item.obj
 0001:0002fba0       ?drawInvItemPatch@@YIHPAUDrawCellFileArgs@@PAUUnitAny@@@Z 66030ba0 f   item.obj
 0001:0002fc00       ?DrawInvItemPatch_ASM@@YAXXZ 66030c00 f   item.obj
 0001:0002fc20       ?activeBufferItem@@YIXHHH@Z 66030c20 f   item.obj
 0001:0002fd30       ?ActiveBufferItemPatch_ASM@@YAXXZ 66030d30 f   item.obj
 0001:0002fd50       ?ItemExtInfoNewGame@@YAXXZ 66030d50 f   ItemExtInfo.obj
 0001:0002fd60       ?ConvertToColorString@@YAXPAEPADH@Z 66030d60 f   ItemExtInfo.obj
 0001:0002ff00       ?LoadExtInfo@@YAHXZ        66030f00 f   ItemExtInfo.obj
 0001:00030f00       ?UnLoadExtInfo@@YAXXZ      66031f00 f   ItemExtInfo.obj
 0001:000310e0       ?SetExtInfoPos@@YAXHHHH@Z  660320e0 f   ItemExtInfo.obj
 0001:000311d0       ?ShowItemExtInfo@@YAXXZ    660321d0 f   ItemExtInfo.obj
 0001:000314f0       ?DrawHoverPatch_ASM@@YAXXZ 660324f0 f   ItemExtInfo.obj
 0001:00031500       ?dangerous_addConfigVars@@YAXXZ 66032500 f   dangerous.obj
 0001:00031540       ?dangerous_initConfigVars@@YAXXZ 66032540 f   dangerous.obj
 0001:00031560       ?ProtectAction@@YAHPA_WHE@Z 66032560 f   dangerous.obj
 0001:00031780       ?ChickenLifeNewGame@@YAXXZ 66032780 f   dangerous.obj
 0001:00031aa0       ?ChickenLifeLoop@@YAXXZ    66032aa0 f   dangerous.obj
 0001:000321d0       ?isCowKing@@YAHPAUMonsterData@@@Z 660331d0 f   dangerous.obj
 0001:00032290       ?checkBossMonster@@YAXPAUUnitAny@@@Z 66033290 f   dangerous.obj
 0001:00032350       ?CheckDangerousPlayer@@YAXPAUUnitAny@@@Z 66033350 f   dangerous.obj
 0001:00032400       ?TestMonsterOnScreen@@YAHPAUUnitAny@@0@Z 66033400 f   dangerous.obj
 0001:00032480       ?CheckDangerousMonster@@YAXPAUUnitAny@@@Z 66033480 f   dangerous.obj
 0001:00032570       ?quest_addConfigVars@@YAXXZ 66033570 f   quest.obj
 0001:000325b0       ?ReSetTimer@@YAHXZ         660335b0 f   quest.obj
 0001:000325d0       ?QuestNewAct@@YAXXZ        660335d0 f   quest.obj
 0001:000325e0       ?QuestNewLevel@@YAXXZ      660335e0 f   quest.obj
 0001:00032d90       ?quest_FixValues@@YAXXZ    66033d90 f   quest.obj
 0001:00032e60       ?QuestNewGame@@YAXXZ       66033e60 f   quest.obj
 0001:00032fc0       ?QuestRunLoop@@YAXXZ       66033fc0 f   quest.obj
 0001:00033320       ?BugKDProtect@@YIXK@Z      66034320 f   quest.obj
 0001:00033580       ?BugKBProtect@@YIXPAE@Z    66034580 f   quest.obj
 0001:00033dd0       ?RecvCommand_89_Patch_ASM@@YAXXZ 66034dd0 f   quest.obj
 0001:00033df0       ?RecvCommand_5D_Patch_ASM@@YAXXZ 66034df0 f   quest.obj
 0001:00033e00       ?CheckUnitKM@@YAXXZ        66034e00 f   quest.obj
 0001:00033ed0       ?getMouseQuestId@@YAHHH@Z  66034ed0 f   quest.obj
 0001:00033fb0       ?DrawQuestPagePatch@@YIXHH@Z 66034fb0 f   quest.obj
 0001:00034490       ?DrawQuestPagePatch_ASM@@YAXXZ 66035490 f   quest.obj
 0001:000344a0       ?PacketA4@@YIXPAD@Z        660354a0 f   quest.obj
 0001:00034620       ?Packet4D@@YIXPAD@Z        66035620 f   quest.obj
 0001:00034660       ?RecvCommand_A4_Patch_ASM@@YAXXZ 66035660 f   quest.obj
 0001:00034670       ?RecvCommand_4D_Patch_ASM@@YAXXZ 66035670 f   quest.obj
 0001:00034680       ?RecvCommand_28_Patch_ASM@@YAXXZ 66035680 f   quest.obj
 0001:000347b0       ?UnicodeFix@@YAXPA_WPAK@Z  660357b0 f   unicode.obj
 0001:000349a0       ?D2Lang_Unicode2WinPatch@@YIPBDPADPA_WH@Z 660359a0 f   unicode.obj
 0001:000349e0       ?D2Lang_Win2UnicodePatch@@YIPA_WPA_WPBDH@Z 660359e0 f   unicode.obj
 0001:00034a10       ?EditDeleteSelect@@YAXPAUD2EditBox@@@Z 66035a10 f   unicode.obj
 0001:00034b40       ?ChannelEnterCharPatch@@YIKPAUD2EditBox@@E@Z 66035b40 f   unicode.obj
 0001:00034e70       ?UnicodeToUTF_8@@YAXPADPA_W@Z 66035e70 f   unicode.obj
 0001:00034ee0       ?MultiByteFix@@YGXPAD@Z    66035ee0 f   unicode.obj
 0001:000350d0       ?MultiByteFixPatch_ASM@@YAXXZ 660360d0 f   unicode.obj
 0001:000350e0       ?IsPritableCharacterPatch_ASM@@YAXXZ 660360e0 f   unicode.obj
 0001:00035100       ?lifebar_addConfigVars@@YAXXZ 66036100 f   lifebar.obj
 0001:00035140       ?lifebar_initConfigVars@@YAXXZ 66036140 f   lifebar.obj
 0001:00035160       ?lifebarNewGame@@YAXXZ     66036160 f   lifebar.obj
 0001:00035170       ?MonsterNamePatch@@YIJPA_WJPAUUnitAny@@JJ@Z 66036170 f   lifebar.obj
 0001:00035c80       ?MonsterNamePatch_ASM@@YAXXZ 66036c80 f   lifebar.obj
 0001:00035ca0       ?MonsterDescCommaPatch1_ASM@@YAXXZ 66036ca0 f   lifebar.obj
 0001:00035cb0       ?MonsterDescCommaPatch2_ASM@@YAXXZ 66036cb0 f   lifebar.obj
 0001:00035cc0       ?MonsterDescCommaPatch3@@YIXPA_WPAUMonsterTxt@@@Z 66036cc0 f   lifebar.obj
 0001:00035d50       ?MonsterDescCommaPatch3_ASM@@YAXXZ 66036d50 f   lifebar.obj
 0001:00035d60       ?LifeBarPatch_ASM@@YAXXZ   66036d60 f   lifebar.obj
 0001:00035d80       ?MonsterDeathPatch_ASM@@YAXXZ 66036d80 f   lifebar.obj
 0001:00035da0       ?CalculateHighestTC@@YAXHG@Z 66036da0 f   lifebar.obj
 0001:00035fe0       ?InitTCList@@YAXXZ         66036fe0 f   lifebar.obj
 0001:00036060       ?GetTcLevel@@YAPAUMonTC@@GH@Z 66037060 f   lifebar.obj
 0001:000360f0       ?GetPlayerHpPercent@@YAHPAUUnitAny@@@Z 660370f0 f   lifebar.obj
 0001:00036130       ?PlayerNamePatch@@YIXPA_WPAUUnitAny@@@Z 66037130 f   lifebar.obj
 0001:000362a0       ?PlayerNamePatch_ASM@@YAXXZ 660372a0 f   lifebar.obj
 0001:000362c0       ?AutoWarCryNewGame@@YAXXZ  660372c0 f   bo.obj
 0001:00036330       ?AutoWarCryRunLoop@@YAXXZ  66037330 f   bo.obj
 0001:00036a90       ?d2s_init@@YAXPAUd2s_file@@@Z 66037a90 f   d2s.obj
 0001:00036cf0       ?d2s_write@@YAHPAUd2s_file@@PADH@Z 66037cf0 f   d2s.obj
 0001:00036e10       ?d2s_checksum@@YAXPADH@Z   66037e10 f   d2s.obj
 0001:00036e90       ?d2s_generate@@YAHPAU_iobuf@@PAUUnitAny@@1PAGPAD1@Z 66037e90 f   d2s.obj
 0001:00037ab0       ?DropProtection_addConfigVars@@YAXXZ 66038ab0 f   DropProtection.obj
 0001:00037af0       ?DropProtection_initConfigVars@@YAXXZ 66038af0 f   DropProtection.obj
 0001:00037b70       ?DropProtection@@YAHPAUUnitAny@@@Z 66038b70 f   DropProtection.obj
 0001:00037f80       ?canHireMerc@@YAHXZ        66038f80 f   DropProtection.obj
 0001:000380e0       ?DropProtectionPacketBlock@@YAHPAEH@Z 660390e0 f   DropProtection.obj
 0001:00038240       ?ClickHireMercMenuItemPatch_ASM@@YAXXZ 66039240 f   DropProtection.obj
 0001:00038260       ?unicode2win@@YAXPADPA_WH@Z 66039260 f   DropProtection.obj
 0001:000382c0       ?DeleteCharacter_Patch_ASM@@YAXXZ 660392c0 f   DropProtection.obj
 0001:00038350       ?DeleteSelectedCharacter_Patch_ASM@@YAXXZ 66039350 f   DropProtection.obj
 0001:00038ba0       ?ClickMenuItem_Patch_ASM@@YAXXZ 66039ba0 f   DropProtection.obj
 0001:00038cc0       ?playerHasRune@@YAHH@Z     66039cc0 f   DropProtection.obj
 0001:00038d10       ?isValidRuneword@@YIHPAUUnitAny@@@Z 66039d10 f   DropProtection.obj
 0001:000396b0       ?AutoEnchantNewGame@@YAXXZ 6603a6b0 f   enchant.obj
 0001:00039710       ?checkUnit@@YAHPAUUnitAny@@@Z 6603a710 f   enchant.obj
 0001:00039a20       ?AutoEnchantRunLoop@@YAXXZ 6603aa20 f   enchant.obj
 0001:00039d90       ?AutoEnchantPlayerNeedHelp@@YAXH@Z 6603ad90 f   enchant.obj
 0001:00039dd0       ?check3bb@@YAXXZ           6603add0 f   enchant.obj
 0001:0003a090       ?GamePacketPlaySound@@YIXPAE@Z 6603b090 f   enchant.obj
 0001:0003a0f0       ?RecvCommand_2C_Patch_ASM@@YAXXZ 6603b0f0 f   enchant.obj
 0001:0003a100       ?GameChat_addConfigVars@@YAXXZ 6603b100 f   chat.obj
 0001:0003a140       ?chat_initConfigVars@@YAXXZ 6603b140 f   chat.obj
 0001:0003a150       ?setClipboard@@YAHPAUHWND__@@PA_WH@Z 6603b150 f   chat.obj
 0001:0003a220       ?processChatPaste@@YAXXZ   6603b220 f   chat.obj
 0001:0003a350       ?sendQuickMessage@@YAHPAUMessageKey@@@Z 6603b350 f   chat.obj
 0001:0003a400       ?addQuickMessage@@YAXHPA_WH@Z 6603b400 f   chat.obj
 0001:0003a510       ?SendChatMessageW@@YAXPA_W@Z 6603b510 f   chat.obj
 0001:0003a5d0       ?SendChatMessage@@YAXPAD@Z 6603b5d0 f   chat.obj
 0001:0003a680       ?WisperPatch@@YAXXZ        6603b680 f   chat.obj
 0001:0003a6a0       ?WisperPatch_ASM@@YAXXZ    6603b6a0 f   chat.obj
 0001:0003a6b0       ?CheckD2WinEditBox@@YAXXZ  6603b6b0 f   chat.obj
 0001:0003a710       ?InputLinePatch@@YAHE@Z    6603b710 f   chat.obj
 0001:0003a7b0       ?InputLinePatch1_ASM@@YAXXZ 6603b7b0 f   chat.obj
 0001:0003a7d0       ?InitD2EditBox@@YAHXZ      6603b7d0 f   chat.obj
 0001:0003a8a0       ?InputLinePatch2_ASM@@YAXXZ 6603b8a0 f   chat.obj
 0001:0003a8c0       ?SelectTextPatch1@@YGHPAD@Z 6603b8c0 f   chat.obj
 0001:0003a9a0       ?SelectTextPatch1_ASM@@YAXXZ 6603b9a0 f   chat.obj
 0001:0003a9c0       ?SelectTextPatch2@@YGHPAD@Z 6603b9c0 f   chat.obj
 0001:0003aa70       ?SelectTextPatch2_ASM@@YAXXZ 6603ba70 f   chat.obj
 0001:0003aa90       ?ResetGameList@@YAXXZ      6603ba90 f   mcp.obj
 0001:0003aab0       ?gameFilter_addConfigVars@@YAXXZ 6603bab0 f   mcp.obj
 0001:0003aaf0       ?D2MCPPacketHandler_05_Patch@@YIHPAEH@Z 6603baf0 f   mcp.obj
 0001:0003ad80       ?D2MCPPacketHandler_05_Patch_ASM@@YAXXZ 6603bd80 f   mcp.obj
 0001:0003ada0       ?Filterbox_ReturnHandler@@YGHPA_W@Z 6603bda0 f   mcp.obj
 0001:0003ae10       ?EditBoxCallBack@@YGHPAUD2EditBox@@HPAD@Z 6603be10 f   chat.obj
 0001:0003ae10       ?Filterbox_InputHandler@@YGHPAUD2EditBox@@HPAD@Z 6603be10 f   mcp.obj
 0001:0003ae20       ?CreateFilterBox@@YAXXZ    6603be20 f   mcp.obj
 0001:0003aea0       ?CreateGameBoxPatch_ASM@@YAXXZ 6603bea0 f   mcp.obj
 0001:0003aeb0       ?DestroyGamelistPatch@@YGXPAUD2EditBox@@@Z 6603beb0 f   mcp.obj
 0001:0003aef0       ?GameListRefreshTimePatch_ASM@@YAXXZ 6603bef0 f   mcp.obj
 0001:0003af30       ?DrawGameListPatch@@YAXXZ  6603bf30 f   mcp.obj
 0001:0003b0c0       ?DrawGameListPatch_ASM@@YAXXZ 6603c0c0 f   mcp.obj
 0001:0003b0d0       ?SortGameList_Patch_ASM@@YAXXZ 6603c0d0 f   mcp.obj
 0001:0003b160       ?ShowGameListDifficulty_Patch_ASM@@YAXXZ 6603c160 f   mcp.obj
 0001:0003b210       ?clearCharacterTag@@YAXXZ  6603c210 f   login.obj
 0001:0003b240       ?addCharacterTag@@YAXPAD0@Z 6603c240 f   login.obj
 0001:0003b390       ?getCharTag@@YAPADPAD@Z    6603c390 f   login.obj
 0001:0003b450       ?doneCharacterTag@@YAXXZ   6603c450 f   login.obj
 0001:0003b480       ?drawCharTags@@YAXXZ       6603c480 f   login.obj
 0001:0003b5b0       ?login_initConfigVars@@YAXXZ 6603c5b0 f   login.obj
 0001:0003b5c0       ?addAccount@@YAXHPAD0@Z    6603c5c0 f   login.obj
 0001:0003b710       ?isLoginScreen@@YAPAUD2EditBox@@XZ 6603c710 f   login.obj
 0001:0003b7c0       ?getLastUser@@YAPADXZ      6603c7c0 f   login.obj
 0001:0003b830       ?inputUserPassword@@YAHPAULoginInfo@@@Z 6603c830 f   login.obj
 0001:0003ba00       ?autoLogin@@YAXXZ          6603ca00 f   login.obj
 0001:0003bad0       ?LastBNet_Patch@@YGHPAD0H0H@Z 6603cad0 f   login.obj
 0001:0003bb20       ?SelectCharPatch_ASM@@YAXXZ 6603cb20 f   login.obj
 0001:0003bc40       ?autoSelectChar@@YAXXZ     6603cc40 f   login.obj
 0001:0003bd70       ?saveCharMenu@@YAXXZ       6603cd70 f   login.obj
 0001:0003c140       ?OpenCharMenuPatch_ASM@@YAXXZ 6603d140 f   login.obj
 0001:0003c150       ?misc_addConfigVars@@YAXXZ 6603d150 f   misc.obj
 0001:0003c190       ?ULCPatch_ASM@@YAXXZ       6603d190 f   misc.obj
 0001:0003c1b0       ?OutTownSelectPatch@@YIHPAUUnitAny@@@Z 6603d1b0 f   misc.obj
 0001:0003c1f0       ?OutTownSelectPatch_ASM1@@YAXXZ 6603d1f0 f   misc.obj
 0001:0003c220       ?CheckOutTownSelected@@YGHPAUUnitAny@@@Z 6603d220 f   misc.obj
 0001:0003c280       ?OutTownSelectPatch_ASM2@@YAXXZ 6603d280 f   misc.obj
 0001:0003c2a0       ?NPCMessageLoopPatch_ASM@@YAXXZ 6603d2a0 f   misc.obj
 0001:0003c2e0       ?NPCQuestMessageStartPatch_ASM@@YAXXZ 6603d2e0 f   misc.obj
 0001:0003c300       ?NPCQuestMessageEndPatch1_ASM@@YAXXZ 6603d300 f   misc.obj
 0001:0003c320       ?NPCQuestMessageEndPatch2_ASM@@YAXXZ 6603d320 f   misc.obj
 0001:0003c330       ?NsPassingActBugFixPatch_ASM@@YAXXZ 6603d330 f   misc.obj
 0001:0003c340       ?SetGoldPatch@@YIHH@Z      6603d340 f   misc.obj
 0001:0003c3c0       ?SetGoldPatch_ASM@@YAXXZ   6603d3c0 f   misc.obj
 0001:0003c3d0       ?SetDefaultGoldPatch_ASM@@YAXXZ 6603d3d0 f   misc.obj
 0001:0003c3e0       ?multiclient_addConfigVars@@YAXXZ 6603d3e0 f   multi.obj
 0001:0003c420       ?multiclient_initConfigVars@@YAXXZ 6603d420 f   multi.obj
 0001:0003c450       ?multiclient_FixValues@@YAXXZ 6603d450 f   multi.obj
 0001:0003c480       ?MultiClientNewGame@@YAXXZ 6603d480 f   multi.obj
 0001:0003c580       ?MultiClientEndGame@@YAXXZ 6603d580 f   multi.obj
 0001:0003c5a0       ?makeRuntimeInfoPath@@YAHPADH@Z 6603d5a0 f   multi.obj
 0001:0003c670       ?saveRuntimeInfo1@@YAHPAUHWND__@@H@Z 6603d670 f   multi.obj
 0001:0003c880       ?saveRuntimeInfo@@YAHPAUHWND__@@@Z 6603d880 f   multi.obj
 0001:0003c8a0       ?loadRuntimeInfo@@YAHPAUD2Window@@H@Z 6603d8a0 f   multi.obj
 0001:0003d0e0       ?getLocalPlayer@@YAPAUD2Window@@H@Z 6603e0e0 f   multi.obj
 0001:0003d140       ?isLocalPlayerName@@YAHPAD@Z 6603e140 f   multi.obj
 0001:0003d210       ?isLocalPlayer@@YAHH@Z     6603e210 f   multi.obj
 0001:0003d280       ?refresh_clients@@YAXXZ    6603e280 f   multi.obj
 0001:0003d450       ?multiclient_load_config@@YAXXZ 6603e450 f   multi.obj
 0001:0003d4d0       ?multiclient_winactive@@YAXXZ 6603e4d0 f   multi.obj
 0001:0003d610       ?getGameWindowHwnd@@YAPAUHWND__@@H@Z 6603e610 f   multi.obj
 0001:0003d650       ?pressESC@@YAXXZ           6603e650 f   multi.obj
 0001:0003d6b0       ?canRemoteControl@@YAHXZ   6603e6b0 f   multi.obj
 0001:0003d760       ?leader_click_object@@YAXHH@Z 6603e760 f   multi.obj
 0001:0003d820       ?send_multi_quest_info@@YAXH@Z 6603e820 f   multi.obj
 0001:0003d850       ?recv_multi_quest_info@@YAXPAUD2Window@@H@Z 6603e850 f   multi.obj
 0001:0003d930       ?send_multi_reply@@YAXH@Z  6603e930 f   multi.obj
 0001:0003d960       ?recv_multi_quest_reply@@YAXPAUD2Window@@H@Z 6603e960 f   multi.obj
 0001:0003d9d0       ?multiclient_recv_info@@YAXH@Z 6603e9d0 f   multi.obj
 0001:0003dda0       ?multiclient_send_info@@YAXH@Z 6603eda0 f   multi.obj
 0001:0003ddf0       ?follower_click_object@@YAXHH@Z 6603edf0 f   multi.obj
 0001:0003df50       ?MultiClientLoop@@YAXXZ    6603ef50 f   multi.obj
 0001:0003ea00       ?follower_left_click_xy@@YAXHH@Z 6603fa00 f   multi.obj
 0001:0003ea40       ?follower_right_click_xy@@YAXHH@Z 6603fa40 f   multi.obj
 0001:0003ea80       ?follower_left_click_unit@@YAXHH@Z 6603fa80 f   multi.obj
 0001:0003eac0       ?follower_right_client_unit@@YAXHH@Z 6603fac0 f   multi.obj
 0001:0003eb00       ?refresh_followers@@YAXH@Z 6603fb00 f   multi.obj
 0001:0003ec20       ?toggle_follower@@YAXH@Z   6603fc20 f   multi.obj
 0001:0003ed30       ?follower_stop_follow@@YAXXZ 6603fd30 f   multi.obj
 0001:0003edd0       ?findClosetPortal@@YAPAUUnitAny@@XZ 6603fdd0 f   multi.obj
 0001:0003ef50       ?talkToNpc@@YAXXZ          6603ff50 f   multi.obj
 0001:0003f1f0       ?follower_cmd@@YAXH@Z      660401f0 f   multi.obj
 0001:0003f690       ?MultiClientStartFollow@@YAHH@Z 66040690 f   multi.obj
 0001:0003f770       ?MultiClientStopFollow@@YAHXZ 66040770 f   multi.obj
 0001:0003f810       ?MultiClientStartFollow1@@YAHXZ 66040810 f   multi.obj
 0001:0003f830       ?MultiClientStartFollow2@@YAHXZ 66040830 f   multi.obj
 0001:0003f850       ?MultiClientToggleFollow@@YAHXZ 66040850 f   multi.obj
 0001:0003f880       ?MultiClientTalkToNpc@@YAHXZ 66040880 f   multi.obj
 0001:0003f950       ?MultiClientAllNextGame@@YAHXZ 66040950 f   multi.obj
 0001:0003fa00       ?MultiClientJoinGame@@YAHXZ 66040a00 f   multi.obj
 0001:0003faa0       ?leader_back_to_town@@YAHXZ 66040aa0 f   multi.obj
 0001:0003fb50       ?MultiClientEnterDoor@@YAHXZ 66040b50 f   multi.obj
 0001:0003fd10       ?MultiClientStartClick@@YAHH@Z 66040d10 f   multi.obj
 0001:0003fd30       ?MultiClientStopClick@@YAHH@Z 66040d30 f   multi.obj
 0001:0003fd50       ?MultiClientInitClick@@YAHXZ 66040d50 f   multi.obj
 0001:0003fdb0       ?transferClick@@YAHHPAUUnitAny@@HH@Z 66040db0 f   multi.obj
 0001:0003fff0       ?canTranferClick@@YAHXZ    66040ff0 f   multi.obj
 0001:00040050       ?shouldLeftClick@@YIHPAH@Z 66041050 f   multi.obj
 0001:000403e0       ?shouldRightClick@@YIHPAH@Z 660413e0 f   multi.obj
 0001:00040520       ?LeftClick_Patch_ASM@@YAXXZ 66041520 f   multi.obj
 0001:00040540       ?RightClick_Patch_ASM@@YAXXZ 66041540 f   multi.obj
 0001:00040560       ?RecvCommand_77_Patch_ASM@@YAXXZ 66041560 f   multi.obj
 0001:00040780       ?RecvCommand_78_Patch_ASM@@YAXXZ 66041780 f   multi.obj
 0001:00040810       ?NpcTrade_AddConfigVars@@YAXXZ 66041810 f   NpcTrade.obj
 0001:00040850       ?NpcTradeNewGame@@YAXXZ    66041850 f   NpcTrade.obj
 0001:00040860       ?drawNpcTradeInfo@@YAXH@Z  66041860 f   NpcTrade.obj
 0001:00041390       ?NpcTradeLoop@@YAXXZ       66042390 f   NpcTrade.obj
 0001:000415f0       ?NpcTradePatch_ASM@@YAXXZ  660425f0 f   NpcTrade.obj
 0001:00041620       ?PartyHelp_addConfigVars@@YAXXZ 66042620 f   party.obj
 0001:00041660       ?PartyHelpNewGame@@YAXXZ   66042660 f   party.obj
 0001:00041850       ?PartyHelpEndGame@@YAXXZ   66042850 f   party.obj
 0001:00041860       ?ResponseInvite@@YAXXZ     66042860 f   party.obj
 0001:00041a80       ?CheckInvite@@YAHXZ        66042a80 f   party.obj
 0001:00041ad0       ?AutoParty@@YGXPAE@Z       66042ad0 f   party.obj
 0001:00041bd0       ?RecvCommand_5A_Patch_ASM@@YAXXZ 66042bd0 f   party.obj
 0001:00041be0       ?AutoInviteLocalPlayer@@YAXXZ 66042be0 f   party.obj
 0001:00041d90       ?RecvCommand_5B_Patch_ASM@@YAXXZ 66042d90 f   party.obj
 0001:00041f30       ?RecvCommand_59_Patch_ASM@@YAXXZ 66042f30 f   party.obj
 0001:00042020       ?quick_addConfigVars@@YAXXZ 66043020 f   quick.obj
 0001:00042060       ?quick_NewGame@@YAXXZ      66043060 f   quick.obj
 0001:00042080       ?quick_EndGame@@YAXXZ      66043080 f   quick.obj
 0001:00042090       ?skillCount@@YAHH@Z        66043090 f   quick.obj
 0001:000420f0       ?BackToTown@@YAHXZ         660430f0 f   quick.obj
 0001:000421d0       ?QuickToLevel@@YAHPAUstQuickToLevel@@@Z 660431d0 f   quick.obj
 0001:00042220       ?addQuickToLevel@@YAXHHH@Z 66043220 f   quick.obj
 0001:00042330       ?quickLoop@@YAXXZ          66043330 f   quick.obj
 0001:00042410       ?AutoBackToTown@@YIXPAE@Z  66043410 f   quick.obj
 0001:00042540       ?RecvCommand_60_Patch_ASM@@YAXXZ 66043540 f   quick.obj
 0001:00042550       ?setGameNamePassword@@YAXPAD0@Z 66043550 f   quick.obj
 0001:000425b0       ?autoJoinGame@@YAXXZ       660435b0 f   quick.obj
 0001:00042950       ?joinGame@@YAXPAD0@Z       66043950 f   quick.obj
 0001:000429a0       ?SaveGameName@@YAXXZ       660439a0 f   quick.obj
 0001:00042a40       ?QuickExitGame@@YAHXZ      66043a40 f   quick.obj
 0001:00042a70       ?QuickNextGame@@YAHH@Z     66043a70 f   quick.obj
 0001:00042cd0       ?NextGameNamePatch@@YIXPAUD2EditBox@@P6GH0HPAD@Z@Z 66043cd0 f   quick.obj
 0001:00042d10       ?NextGamePasswordPatch@@YIXPAUD2EditBox@@P6GH0HPAD@Z@Z 66043d10 f   quick.obj
 0001:00042d50       ?NextGameDecriptionPatch@@YIXPAUD2EditBox@@P6GH0HPAD@Z@Z 66043d50 f   quick.obj
 0001:00042d90       ?SelectGamePatch@@YIPAXPAUD2EditBox@@PA_W@Z 66043d90 f   quick.obj
 0001:00042e30       ?quickswap_addConfigVars@@YAXXZ 66043e30 f   QuickSwapItem.obj
 0001:00042e70       ?getInvTxt@@YAPAUInventoryBIN@@XZ 66043e70 f   QuickSwapItem.obj
 0001:00042ef0       ?putIntoCubeIndirect@@YAHXZ 66043ef0 f   QuickSwapItem.obj
 0001:00042fd0       ?putItem@@YAHPAUInventoryBIN@@PADH@Z 66043fd0 f   QuickSwapItem.obj
 0001:000431c0       ?putIntoInv@@YAHXZ         660441c0 f   QuickSwapItem.obj
 0001:000431e0       ?putIntoStash@@YAHXZ       660441e0 f   QuickSwapItem.obj
 0001:00043240       ?MoveItem@@YAXPAUD2MSG@@@Z 66044240 f   QuickSwapItem.obj
 0001:000441d0       ?RButtonUpHandlerPatch@@YGXPAUD2MSG@@@Z 660451d0 f   QuickSwapItem.obj
 0001:00044210       ?RButtonUpHandlerPatch_ASM@@YAXXZ 66045210 f   QuickSwapItem.obj
 0001:00044230       ?RButtonInTradePatch_ASM@@YAXXZ 66045230 f   QuickSwapItem.obj
 0001:00044240       ?CtrlClickHandlerPatch_ASM@@YAXXZ 66045240 f   QuickSwapItem.obj
 0001:00044270       ?clickCubeTransformButton@@YAXXZ 66045270 f   QuickSwapItem.obj
 0001:000442c0       ?autoCubeTransform@@YAHXZ  660452c0 f   QuickSwapItem.obj
 0001:000447e0       ?quickswap_NewGame@@YAXXZ  660457e0 f   QuickSwapItem.obj
 0001:00044810       ?RecvPacket3FPatch_ASM@@YAXXZ 66045810 f   QuickSwapItem.obj
 0001:00044830       ?activeItemStack@@YAXH@Z   66045830 f   QuickSwapItem.obj
 0001:000448a0       ?autoIdentify@@YAHXZ       660458a0 f   QuickSwapItem.obj
 0001:000449d0       ?autoSimpleItemStack@@YAHXZ 660459d0 f   QuickSwapItem.obj
 0001:00044b80       ?dropRune789@@YAXXZ        66045b80 f   QuickSwapItem.obj
 0001:00044ca0       ?Resolution_AddConfigVars@@YAXXZ 66045ca0 f   resolution.obj
 0001:00044ce0       ?changeResolution@@YAXH@Z  66045ce0 f   resolution.obj
 0001:00044cf0       ?resolution_init@@YAXXZ    66045cf0 f   resolution.obj
 0001:00044d40       ?resolution_uninit@@YAXXZ  66045d40 f   resolution.obj
 0001:00044d90       ?fitWindowToResolution@@YAXXZ 66045d90 f   resolution.obj
 0001:00044ed0       ?fitResolution@@YAXXZ      66045ed0 f   resolution.obj
 0001:000451b0       ?SetBitBlockWidthAndHeightPatch_ASM@@YAXXZ 660461b0 f   resolution.obj
 0001:000451c0       ?SetCelDisplayLeftAndRightPatch_ASM@@YAXXZ 660461c0 f   resolution.obj
 0001:000451e0       ?IsNeedResizeWindowPatchH_ASM@@YAXXZ 660461e0 f   resolution.obj
 0001:000451e0       ?IsNeedRestoreDownWindowPatchH_ASM@@YAXXZ 660461e0 f   resolution.obj
 0001:000451f0       ?IsNeedRestoreDownWindowPatchW_ASM@@YAXXZ 660461f0 f   resolution.obj
 0001:000451f0       ?IsNeedResizeWindowPatchW_ASM@@YAXXZ 660461f0 f   resolution.obj
 0001:00045200       ?SetDisplayWidthAndHeightPatch_ASM@@YAXXZ 66046200 f   resolution.obj
 0001:00045220       ?SetGeneralDisplayWidthAndHeightPatch_ASM@@YAXXZ 66046220 f   resolution.obj
 0001:00045240       ?GetGlobalBeltSlotPositionPatch_ASM@@YAXXZ 66046240 f   resolution.obj
 0001:000452f0       ?GetGlobalBeltRecordPatch_ASM@@YAXXZ 660462f0 f   resolution.obj
 0001:000453c0       ?AdjustWindowRectExPatch_ASM@@YAXXZ 660463c0 f   resolution.obj
 0001:00045510       ?ClearFramebufPatch_ASM@@YAXXZ 66046510 f   resolution.obj
 0001:00045530       ?DrawLeftOrbImagePatch_ASM@@YAXXZ 66046530 f   resolution.obj
 0001:00045560       ?DrawLeftOrbPatch_ASM@@YAXXZ 66046560 f   resolution.obj
 0001:00045580       ?DrawRightOrbImagePatch_ASM@@YAXXZ 66046580 f   resolution.obj
 0001:000455b0       ?DrawRightOrbPatch_ASM@@YAXXZ 660465b0 f   resolution.obj
 0001:000455d0       ?FillLeftOrbPatch_ASM@@YAXXZ 660465d0 f   resolution.obj
 0001:000455f0       ?FillRightOrbPatch_ASM@@YAXXZ 660465f0 f   resolution.obj
 0001:00045610       ?DrawLeftSkillButtonPatch_ASM@@YAXXZ 66046610 f   resolution.obj
 0001:00045630       ?DrawRightSkillButtonPatch_ASM@@YAXXZ 66046630 f   resolution.obj
 0001:00045650       ?DisplayHPTextPatch_ASM@@YAXXZ 66046650 f   resolution.obj
 0001:00045670       ?DisplayManaTextPatch_ASM@@YAXXZ 66046670 f   resolution.obj
 0001:00045690       ?DrawGroundHeightPatch_ASM@@YAXXZ 66046690 f   resolution.obj
 0001:000456c0       ?BottomBoundPatch_ASM@@YAXXZ 660466c0 f   resolution.obj
 0001:000456e0       ?installResolutionPatches@@YAHXZ 660466e0 f   resolution.obj
 0001:00045b90       ?autoskill_addConfigVars@@YAXXZ 66046b90 f   skill.obj
 0001:00045bd0       ?autoskill_initConfigVars@@YAXXZ 66046bd0 f   skill.obj
 0001:00045d30       ?AutoSkillNewGame@@YAXXZ   66046d30 f   skill.obj
 0001:00045da0       ?checkAutoSkill@@YAXXZ     66046da0 f   skill.obj
 0001:000460f0       ?checkAutoSkillStatus@@YAXXZ 660470f0 f   skill.obj
 0001:000461d0       ?stackThrowing@@YAXXZ      660471d0 f   skill.obj
 0001:00046290       ?AutoSkillNow@@YAHXZ       66047290 f   skill.obj
 0001:000462c0       ?AutoSkillRunLoop@@YAXXZ   660472c0 f   skill.obj
 0001:00047770       ?autoSkillDimVision@@YIXPAD@Z 66048770 f   skill.obj
 0001:000477c0       ?autoTelekinesis@@YAHXZ    660487c0 f   skill.obj
 0001:000478e0       ?Snapshot_AddConfigVars@@YAXXZ 660488e0 f   Snapshot.obj
 0001:00047920       ?hex@@YAXPAU_iobuf@@HPAXH@Z 66048920 f   Snapshot.obj
 0001:00047ab0       ?LoadLogNames@@YAXPAU_iobuf@@@Z 66048ab0 f   Snapshot.obj
 0001:000480a0       ?getSnapshotPath1@@YAXPAD00000D@Z 660490a0 f   Snapshot.obj
 0001:00048580       ?getSnapshotPath@@YAXPAD00000D@Z 66049580 f   Snapshot.obj
 0001:000485e0       ?openSnapshotFile@@YAPAU_iobuf@@PAD00D0H@Z 660495e0 f   Snapshot.obj
 0001:00048700       ?openDbgFile@@YAPAU_iobuf@@PAD@Z 66049700 f   Snapshot.obj
 0001:00048930       ?SnapshotNewGame@@YAXXZ    66049930 f   Snapshot.obj
 0001:00048b40       ?SnapshotEndGame@@YAXXZ    66049b40 f   Snapshot.obj
 0001:00048de0       ?dumpStat@@YAXPAU_iobuf@@HHPAH@Z 66049de0 f   Snapshot.obj
 0001:00049320       ?countAllGemRunes@@YAXXZ   6604a320 f   Snapshot.obj
 0001:00049920       ?dumpStatList@@YAHPAU_iobuf@@PAUStatList@@H@Z 6604a920 f   Snapshot.obj
 0001:00049e50       ?loadWaypoints@@YAXPADH@Z  6604ae50 f   Snapshot.obj
 0001:00049f00       ?saveWaypoints@@YAXPADH@Z  6604af00 f   Snapshot.obj
 0001:0004d750       ?dumpUnit2@@YAXPAU_iobuf@@PAUUnitAny@@@Z 6604e750 f   Snapshot.obj
 0001:0004d930       ?dumpMap@@YAXXZ            6604e930 f   Snapshot.obj
 0001:0004dea0       ?saveMercInfo@@YIXPAD@Z    6604eea0 f   Snapshot.obj
 0001:0004dfe0       ?RecvCommand_81_Patch_ASM@@YAXXZ 6604efe0 f   Snapshot.obj
 0001:0004dff0       ?removeSnapshot@@YAXPAD00@Z 6604eff0 f   Snapshot.obj
 0001:0004e230       ?dumpServerQuest@@YAXPAU_iobuf@@@Z 6604f230 f   Snapshot.obj
 0001:0004e4b0       ?DoSnapshot@@YAHXZ         6604f4b0 f   Snapshot.obj
 0001:0004ea80       ?saveItems@@YAXXZ          6604fa80 f   snap.obj
 0001:0004eef0       ?formatItems@@YAXPAD00@Z   6604fef0 f   snap.obj
 0001:00050000       ?scan_realm@@YAXPAD@Z      66051000 f   snap.obj
 0001:00050440       ?rebuild_snap@@YAXXZ       66051440 f   snap.obj
 0001:00050640       ?AutoSummonNewGame@@YAXXZ  66051640 f   summon.obj
 0001:00050730       ?checkSkeletonCount@@YAXXZ 66051730 f   summon.obj
 0001:00050900       ?AutoSummonRunLoop@@YAXXZ  66051900 f   summon.obj
 0001:00051120       ?addUnit@@YIXPAUUnitAny@@@Z 66052120 f   summon.obj
 0001:000511a0       ?AddUnitPatch_ASM@@YAXXZ   660521a0 f   summon.obj
 0001:000511c0       ?RemoveUnitPatch1_ASM@@YAXXZ 660521c0 f   summon.obj
 0001:000511e0       ?RemoveUnitPatch2_ASM@@YAXXZ 660521e0 f   summon.obj
 0001:00051200       ?RecvCommand_69_Patch_ASM@@YAXXZ 66052200 f   summon.obj
 0001:00051230       ?RecvCommand_7A_Patch_ASM@@YAXXZ 66052230 f   summon.obj
 0001:00051260       ?RecvCommand_21_Patch_ASM@@YAXXZ 66052260 f   summon.obj
 0001:00051280       ?autoteleport_addConfigVars@@YAXXZ 66052280 f   teleport.obj
 0001:000512c0       ?autoteleport_initConfigVars@@YAXXZ 660522c0 f   teleport.obj
 0001:000512e0       ?autoteleport_fixValues@@YAXXZ 660522e0 f   teleport.obj
 0001:00051300       ?AutoTeleportStart@@YAHXZ  66052300 f   teleport.obj
 0001:000513a0       ?AutoTeleportEnd@@YAHXZ    660523a0 f   teleport.obj
 0001:00051420       ?AutoTeleport@@YAHXZ       66052420 f   teleport.obj
 0001:00053330       ?abs@@YAJJ@Z               66054330 f i teleport.obj
 0001:000539a0       ?dumpRunewordTxt@@YAXXZ    660549a0 f   txt.obj
 0001:00053d10       ?dumpTxt@@YAXXZ            66054d10 f   txt.obj
 0001:000542e0       ?panel_addConfigVars@@YAXXZ 660552e0 f   panel.obj
 0001:00054320       ?printPanelConf@@YAPADHPAD0@Z 66055320 f   panel.obj
 0001:00054450       ?panelNewGame@@YAXXZ       66055450 f   panel.obj
 0001:000545e0       ?panelEndGame@@YAXXZ       660555e0 f   panel.obj
 0001:00054610       ?modifyStashGrid@@YAXXZ    66055610 f   panel.obj
 0001:00054b10       ?MpqLoadPatch@@YIXPAD0@Z   66055b10 f   panel.obj
 0001:00054bf0       ?MqpLoadPathPatch_ASM@@YAXXZ 66055bf0 f   panel.obj
 0001:00054c10       ?ModifyStashImagePatch_ASM@@YAXXZ 66055c10 f   panel.obj
 0001:00054c20       ?ModifyCubeImagePatch_ASM@@YAXXZ 66055c20 f   panel.obj
 0001:00054c50       ?ModifyInvCharImagePatch_ASM@@YAXXZ 66055c50 f   panel.obj
 0001:00054c90       ?ChooseInvCharImagePatch_ASM@@YAXXZ 66055c90 f   panel.obj
 0001:00054cc0       ?CalDrawOffsetPatch_ASM@@YAXXZ 66055cc0 f   panel.obj
 0001:00054d50       ?GetEquipmentSlotLayoutPatch_ASM@@YAXXZ 66055d50 f   panel.obj
 0001:00054ef0       ?GetInventoryGridLayoutPatch_ASM@@YAXXZ 66055ef0 f   panel.obj
 0001:00054fa0       ?GetInventoryPositionPatch_ASM@@YAXXZ 66055fa0 f   panel.obj
 0001:00055050       ?AddSkillPatch_ASM@@YAXXZ  66056050 f   panel.obj
 0001:000550d0       ?RecvCommand_26_Patch_ASM@@YAXXZ 660560d0 f   panel.obj
 0001:000554d0       ?installPanelPatches@@YAHXZ 660564d0 f   panel.obj
 0001:00055670       ?uninstallBigstashPatches@@YAHXZ 66056670 f   panel.obj
 0001:00055690       ?installBigstashPatches@@YAHXZ 66056690 f   panel.obj
 0001:00055b50       ?server_addConfigVars@@YAXXZ 66056b50 f   server.obj
 0001:00055b90       ?client_unassign_stat@@YAHHH@Z 66056b90 f   server.obj
 0001:00055c70       ?client_mouse_stat@@YAHHH@Z 66056c70 f   server.obj
 0001:00055d40       ?getSkillDescTxt@@YAPAXH@Z 66056d40 f   server.obj
 0001:00055d50       ?getSkillTreeButtonY@@YAHH@Z 66056d50 f   server.obj
 0001:00055d60       ?getSkillTreeButtonX@@YAHH@Z 66056d60 f   server.obj
 0001:00055d70       ?client_mouse_skillBtn@@YAHHH@Z 66056d70 f   server.obj
 0001:00055e70       ?client_unassign_skill@@YAHHH@Z 66056e70 f   server.obj
 0001:00055f50       ?client_reset_quest@@YAHH@Z 66056f50 f   server.obj
 0001:00055f80       ?UndoStr@@YAXPAUUnitAny@@H@Z 66056f80 f   server.obj
 0001:00056020       ?UndoDex@@YAXPAUUnitAny@@H@Z 66057020 f   server.obj
 0001:000560c0       ?UndoVit@@YAXPAUUnitAny@@H@Z 660570c0 f   server.obj
 0001:000561c0       ?UndoEne@@YAXPAUUnitAny@@H@Z 660571c0 f   server.obj
 0001:00056290       ?getClient@@YAPAXPAUUnitAny@@@Z 66057290 f   server.obj
 0001:000562c0       ?UndoSkill@@YAXPAUUnitAny@@HH@Z 660572c0 f   server.obj
 0001:000564a0       ?getQuest@@YAPAGPAUWorld@@PAUUnitAny@@@Z 660574a0 f   server.obj
 0001:000564e0       ?serverUndo@@YAHPAUWorld@@PAUUnitAny@@PAD2@Z 660574e0 f   server.obj
 0001:00056bd0       ?ModifyStashGridPatch_ASM@@YAXXZ 66057bd0 f   server.obj
 0001:00056be0       ?compileRunesTxt@@YGPAXHPADPAUTxtField@@PAHH@Z 66057be0 f   server.obj
 0001:00056c40       ?GameStartPatch_ASM@@YAXXZ 66057c40 f   server.obj
 0001:00056de0       ?DoServerTest@@YAHXZ       66057de0 f   server.obj
 0001:00056ec0       ?installServerPatches@@YAHXZ 66057ec0 f   server.obj
 0001:00057340       ?RepeatAdminCmd@@YAHXZ     66058340 f   admin.obj
 0001:000573b0       ?ClientChatPatch_ASM@@YAXXZ 660583b0 f   admin.obj
 0001:00057450       ?setCharLv@@YAXPAUWorld@@PAUUnitAny@@H@Z 66058450 f   admin.obj
 0001:000574f0       ?maxCharStat@@YAXPAUWorld@@PAUUnitAny@@@Z 660584f0 f   admin.obj
 0001:000575c0       ?enableAllWaypoints@@YAXPAUUnitAny@@@Z 660585c0 f   admin.obj
 0001:00057640       ?passGame@@YAHPAUWorld@@PAUUnitAny@@H@Z 66058640 f   admin.obj
 0001:00057860       ?itemIndex2txt@@YAHH@Z     66058860 f   admin.obj
 0001:000578f0       ?SelectUniquePatch_ASM@@YAXXZ 660588f0 f   admin.obj
 0001:000579c0       ?SelectSetPatch_ASM@@YAXXZ 660589c0 f   admin.obj
 0001:00057a50       ?getItemTxtByCode@@YAHH@Z  66058a50 f   admin.obj
 0001:00057b00       ?getRunewordTxt@@YAPAURuneWordTxt@@H@Z 66058b00 f   admin.obj
 0001:00057b40       ?pickupItem@@YAXPAUWorld@@PAUUnitAny@@1H@Z 66058b40 f   admin.obj
 0001:00057ba0       ?invToHand@@YAXPAUWorld@@PAUUnitAny@@1@Z 66058ba0 f   admin.obj
 0001:00057be0       ?handToBody@@YAXPAUWorld@@PAUUnitAny@@1H@Z 66058be0 f   admin.obj
 0001:00057c70       ?putItemIntoSocket@@YAXPAUWorld@@PAUUnitAny@@11@Z 66058c70 f   admin.obj
 0001:00057cb0       ?autoPortal@@YAHPAUWorld@@PAUUnitAny@@@Z 66058cb0 f   admin.obj
 0001:000580e0       ?MonsterSleepPatch_ASM@@YAXXZ 660590e0 f   admin.obj
 0001:00058100       ?skipServerPacket15@@YIHPAUWorld@@PAUUnitAny@@PADH@Z 66059100 f   admin.obj
 0001:0005add0       ?ServerRecvPacket15Patch_ASM@@YAXXZ 6605bdd0 f   admin.obj
 0001:0005ae00       ?uber_addConfigVars@@YAXXZ 6605be00 f   uber.obj
 0001:0005ae40       ?resetUberQuest@@YAXXZ     6605be40 f   uber.obj
 0001:0005aeb0       ?openPandPortal@@YIHPAUWorld@@PAUUnitAny@@@Z 6605beb0 f   uber.obj
 0001:0005af70       ?openPandFinalPortal@@YIHPAUWorld@@PAUUnitAny@@@Z 6605bf70 f   uber.obj
 0001:0005afb0       ?spawnSuperUnique@@YAHPAUWorld@@PAUAreaRectData@@HHHHHH@Z 6605bfb0 f   uber.obj
 0001:0005aff0       ?monsterUseSkill@@YAXPAUWorld@@PAUUnitAny@@HH1HH@Z 6605bff0 f   uber.obj
 0001:0005b030       ?spawnUber@@YGXPAUWorld@@PAUAreaRectData@@@Z 6605c030 f   uber.obj
 0001:0005b280       ?GetNbMonsters@@YAHPAUDrlgLevel@@@Z 6605c280 f   uber.obj
 0001:0005b310       ?GetNbMonstersRadius@@YAHPAUDrlgLevel@@UtagPOINT@@H@Z 6605c310 f   uber.obj
 0001:0005b3d0       ?CastSummonMonster@@YAHPAUWorld@@PAUUnitAny@@HHPAHHH@Z 6605c3d0 f   uber.obj
 0001:0005b500       ?randf@@YANXZ              6605c500 f   uber.obj
 0001:0005b520       ?RandInCircle@@YAXPAUtagPOINT@@H@Z 6605c520 f   uber.obj
 0001:0005b580       ?uberMephAI@@YIXPAUWorld@@PAUUnitAny@@PAUAIParam@@@Z 6605c580 f   uber.obj
 0001:0005b610       ?uberDiabloAI@@YIXPAUWorld@@PAUUnitAny@@PAUAIParam@@@Z 6605c610 f   uber.obj
 0001:0005b760       ?uberBaalAI@@YIXPAUWorld@@PAUUnitAny@@PAUAIParam@@@Z 6605c760 f   uber.obj
 0001:0005b930       ?installUberQuestPatches@@YAHXZ 6605c930 f   uber.obj
 0001:0005ba56       ??0_LocaleUpdate@@QAE@PAUlocaleinfo_struct@@@Z 6605ca56 f i LIBCMT:stricmp.obj
 0001:0005badd       ___ascii_stricmp           6605cadd f   LIBCMT:stricmp.obj
 0001:0005bb16       __stricmp_l                6605cb16 f   LIBCMT:stricmp.obj
 0001:0005bbeb       __stricmp                  6605cbeb f   LIBCMT:stricmp.obj
 0001:0005bc3d       __flush                    6605cc3d f   LIBCMT:fflush.obj
 0001:0005bca5       __fflush_nolock            6605cca5 f   LIBCMT:fflush.obj
 0001:0005bdc7       _fflush                    6605cdc7 f   LIBCMT:fflush.obj
 0001:0005be1a       __flushall                 6605ce1a f   LIBCMT:fflush.obj
 0001:0005be23       _fprintf                   6605ce23 f   LIBCMT:fprintf.obj
 0001:0005bf3f       _bsearch                   6605cf3f f   LIBCMT:bsearch.obj
 0001:0005c001       @__security_check_cookie@4 6605d001 f   LIBCMT:secchk.obj
 0001:0005c010       _sprintf                   6605d010 f   LIBCMT:sprintf.obj
 0001:0005c090       _memset                    6605d090 f   LIBCMT:memset.obj
 0001:0005c10a       __fclose_nolock            6605d10a f   LIBCMT:fclose.obj
 0001:0005c181       _fclose                    6605d181 f   LIBCMT:fclose.obj
 0001:0005c1fd       _fputs                     6605d1fd f   LIBCMT:fputs.obj
 0001:0005c310       _strncpy                   6605d310 f   LIBCMT:strncpy.obj
 0001:0005c450       _strchr                    6605d450 f   LIBCMT:strchr.obj
 0001:0005c456       ___from_strstr_to_strchr   6605d456     LIBCMT:strchr.obj
 0001:0005c510       _strrchr                   6605d510 f   LIBCMT:strrchr.obj
 0001:0005c600       _qsort                     6605d600 f   LIBCMT:qsort.obj
 0001:0005c84d       _realloc                   6605d84d f   LIBCMT:realloc.obj
 0001:0005ca70       _memcpy                    6605da70 f   LIBCMT:memcpy.obj
 0001:0005cdd5       __isalpha_l                6605ddd5 f i LIBCMT:_ctype.obj
 0001:0005ce2b       _isalpha                   6605de2b f i LIBCMT:_ctype.obj
 0001:0005ce5b       __isdigit_l                6605de5b f i LIBCMT:_ctype.obj
 0001:0005ceac       _isdigit                   6605deac f i LIBCMT:_ctype.obj
 0001:0005ceda       __isspace_l                6605deda f i LIBCMT:_ctype.obj
 0001:0005cf2b       _isspace                   6605df2b f i LIBCMT:_ctype.obj
 0001:0005cf59       __isalnum_l                6605df59 f i LIBCMT:_ctype.obj
 0001:0005cfaf       _isalnum                   6605dfaf f i LIBCMT:_ctype.obj
 0001:0005d20e       _strtol                    6605e20e f   LIBCMT:strtol.obj
 0001:0005d239       _strtoul                   6605e239 f   LIBCMT:strtol.obj
 0001:0005d265       __toupper_l                6605e265 f   LIBCMT:toupper.obj
 0001:0005d37b       _toupper                   6605e37b f   LIBCMT:toupper.obj
 0001:0005d3a7       __memicmp_l                6605e3a7 f   LIBCMT:memicmp.obj
 0001:0005d47c       __memicmp                  6605e47c f   LIBCMT:memicmp.obj
 0001:0005d4db       ___iob_func                6605e4db f   LIBCMT:_file.obj
 0001:0005d4e1       ___initstdio               6605e4e1 f   LIBCMT:_file.obj
 0001:0005d592       ___endstdio                6605e592 f   LIBCMT:_file.obj
 0001:0005d5b2       __lock_file                6605e5b2 f   LIBCMT:_file.obj
 0001:0005d5f3       __lock_file2               6605e5f3 f   LIBCMT:_file.obj
 0001:0005d625       __unlock_file              6605e625 f   LIBCMT:_file.obj
 0001:0005d661       __unlock_file2             6605e661 f   LIBCMT:_file.obj
 0001:0005d690       __fpclear                  6605e690 f   LIBCMT:_fpinit_.obj
 0001:0005d690       __initp_misc_winxfltr      6605e690 f   LIBCMT:winxfltr.obj
 0001:0005d691       __cfltcvt_init             6605e691 f   LIBCMT:_fpinit_.obj
 0001:0005d6f1       __fpmath                   6605e6f1 f   LIBCMT:_fpinit_.obj
 0001:0005d720       __except_handler4          6605e720 f   LIBCMT:chandler4.obj
 0001:0005d8ac       _V6_HeapAlloc              6605e8ac f   LIBCMT:malloc.obj
 0001:0005d8fb       _malloc                    6605e8fb f   LIBCMT:malloc.obj
 0001:0005d9d0       _strstr                    6605e9d0 f   LIBCMT:strstr.obj
 0001:0005da56       _fgets                     6605ea56 f   LIBCMT:fgets.obj
 0001:0005db9e       __fseek_nolock             6605eb9e f   LIBCMT:fseek.obj
 0001:0005dc28       _fseek                     6605ec28 f   LIBCMT:fseek.obj
 0001:0005dcad       __fread_nolock_s           6605ecad f   LIBCMT:fread.obj
 0001:0005deb7       _fread_s                   6605eeb7 f   LIBCMT:fread.obj
 0001:0005df4d       _fread                     6605ef4d f   LIBCMT:fread.obj
 0001:0005df6a       _strtok                    6605ef6a f   LIBCMT:strtok.obj
 0001:0005e030       __ftol2_sse                6605f030 f   LIBCMT:ftol2.obj
 0001:0005e039       __ftol2_pentium4           6605f039 f   LIBCMT:ftol2.obj
 0001:0005e04c       __ftol2_sse_excpt          6605f04c f   LIBCMT:ftol2.obj
 0001:0005e066       __ftol2                    6605f066 f   LIBCMT:ftol2.obj
 0001:0005e0db       ??3@YAXPAX@Z               6605f0db f   LIBCMT:delete.obj
 0001:0005e0e6       ??0bad_alloc@std@@QAE@XZ   6605f0e6 f i LIBCMT:new.obj
 0001:0005e101       ??1bad_alloc@std@@UAE@XZ   6605f101 f i LIBCMT:new.obj
 0001:0005e10c       ??_Ebad_alloc@std@@UAEPAXI@Z 6605f10c f i LIBCMT:new.obj
 0001:0005e10c       ??_Gbad_alloc@std@@UAEPAXI@Z 6605f10c f i LIBCMT:new.obj
 0001:0005e133       ??0bad_alloc@std@@QAE@ABV01@@Z 6605f133 f i LIBCMT:new.obj
 0001:0005e150       ??2@YAPAXI@Z               6605f150 f   LIBCMT:new.obj
 0001:0005e1b5       _free                      6605f1b5 f   LIBCMT:free.obj
 0001:0005e31d       __stat64i32                6605f31d f   LIBCMT:stati32.obj
 0001:0005e6f1       __fwrite_nolock            6605f6f1 f   LIBCMT:fwrite.obj
 0001:0005e853       _fwrite                    6605f853 f   LIBCMT:fwrite.obj
 0001:0005e8d5       __fsopen                   6605f8d5 f   LIBCMT:fopen.obj
 0001:0005e999       _fopen                     6605f999 f   LIBCMT:fopen.obj
 0001:0005e9b0       __snprintf                 6605f9b0 f   LIBCMT:snprintf.obj
 0001:0005ea5f       __ftell_nolock             6605fa5f f   LIBCMT:ftell.obj
 0001:0005ebfc       _ftell                     6605fbfc f   LIBCMT:ftell.obj
 0001:0005ec70       __chkstk                   6605fc70 f   LIBCMT:chkstk.obj
 0001:0005ec70       __alloca_probe             6605fc70     LIBCMT:chkstk.obj
 0001:0005eca0       __CIsqrt                   6605fca0 f   LIBCMT:_sqrt_.obj
 0001:0005ecb4       _sqrt                      6605fcb4     LIBCMT:_sqrt_.obj
 0001:0005ed5a       __vsnprintf_l              6605fd5a f   LIBCMT:vsnprint.obj
 0001:0005ee0d       __vsnprintf                6605fe0d f   LIBCMT:vsnprint.obj
 0001:0005ee2a       __strdup                   6605fe2a f   LIBCMT:strdup.obj
 0001:0005ee7f       _fputc                     6605fe7f f   LIBCMT:fputc.obj
 0001:0005ef8b       _rand                      6605ff8b f   LIBCMT:rand.obj
 0001:0005efad       _rename                    6605ffad f   LIBCMT:rename.obj
 0001:0005efe0       _memmove                   6605ffe0 f   LIBCMT:memmove.obj
 0001:0005f345       __isleadbyte_l             66060345 f i LIBCMT:_wctype.obj
 0001:0005f37d       _isleadbyte                6606037d f i LIBCMT:_wctype.obj
 0001:0005f390       _iswspace                  66060390 f i LIBCMT:_wctype.obj
 0001:0005f3a3       _printf                    660603a3 f   LIBCMT:printf.obj
 0001:0005f452       __get_printf_count_output  66060452 f   LIBCMT:printf.obj
 0001:0005f468       __time64                   66060468 f   LIBCMT:time64.obj
 0001:0005f4b9       __freea                    660604b9 f i LIBCMT:strupr.obj
 0001:0005f657       __strupr_s_l               66060657 f   LIBCMT:strupr.obj
 0001:0005f68c       __strupr                   6606068c f   LIBCMT:strupr.obj
 0001:0005f8eb       _wcstol                    660608eb f   LIBCMT:wcstol.obj
 0001:0005f920       __allshr                   66060920 f   LIBCMT:llshr.obj
 0001:0005f950       _sin                       66060950 f   LIBCMT:_sin_.obj
 0001:0005f990       __CIsin                    66060990 f   LIBCMT:_sin_.obj
 0001:0005f9cb       __CIsin_default            660609cb f   LIBCMT:_sin_.obj
 0001:0005f9df       __sin_default              660609df     LIBCMT:_sin_.obj
 0001:0005fa80       _cos                       66060a80 f   LIBCMT:_cos_.obj
 0001:0005fac0       __CIcos                    66060ac0 f   LIBCMT:_cos_.obj
 0001:0005fafb       __CIcos_default            66060afb f   LIBCMT:_cos_.obj
 0001:0005fb0f       __cos_default              66060b0f     LIBCMT:_cos_.obj
 0001:0005fba9       __CRT_INIT@12              66060ba9 f   LIBCMT:dllcrt0.obj
 0001:0005fdd4       __DllMainCRTStartup@12     66060dd4 f   LIBCMT:dllcrt0.obj
 0001:0006001d       ___updatetmbcinfo          6606101d f   LIBCMT:mbctype.obj
 0001:0006013d       __setmbcp_nolock           6606113d f   LIBCMT:mbctype.obj
 0001:00060322       __setmbcp                  66061322 f   LIBCMT:mbctype.obj
 0001:000604bc       ___initmbctable            660614bc f   LIBCMT:mbctype.obj
 0001:000604da       ___freetlocinfo            660614da f   LIBCMT:setlocal.obj
 0001:00060623       ___addlocaleref            66061623 f   LIBCMT:setlocal.obj
 0001:000606b2       ___removelocaleref         660616b2 f   LIBCMT:setlocal.obj
 0001:00060789       ___updatetlocinfo          66061789 f   LIBCMT:setlocal.obj
 0001:000607ff       __encode_pointer           660617ff f   LIBCMT:tidtable.obj
 0001:00060871       __encoded_null             66061871 f   LIBCMT:tidtable.obj
 0001:0006087a       __decode_pointer           6606187a f   LIBCMT:tidtable.obj
 0001:000608ec       ___crtTlsAlloc@4           660618ec f   LIBCMT:tidtable.obj
 0001:000608f5       ___set_flsgetvalue         660618f5 f   LIBCMT:tidtable.obj
 0001:00060929       __mtterm                   66061929 f   LIBCMT:tidtable.obj
 0001:00060966       __initptd                  66061966 f   LIBCMT:tidtable.obj
 0001:00060a4d       __getptd_noexit            66061a4d f   LIBCMT:tidtable.obj
 0001:00060ac6       __getptd                   66061ac6 f   LIBCMT:tidtable.obj
 0001:00060ae0       __freefls@4                66061ae0 f   LIBCMT:tidtable.obj
 0001:00060c0f       __freeptd                  66061c0f f   LIBCMT:tidtable.obj
 0001:00060c7d       __mtinit                   66061c7d f   LIBCMT:tidtable.obj
 0001:00060e0a       __tolower_l                66061e0a f   LIBCMT:tolower.obj
 0001:00060f1f       _tolower                   66061f1f f   LIBCMT:tolower.obj
 0001:00060f4b       __initp_misc_invarg        66061f4b f   LIBCMT:invarg.obj
 0001:00060f5a       __invoke_watson            66061f5a f   LIBCMT:invarg.obj
 0001:00061082       __invalid_parameter        66062082 f   LIBCMT:invarg.obj
 0001:000610a8       __get_errno_from_oserr     660620a8 f   LIBCMT:dosmap.obj
 0001:000610ea       __errno                    660620ea f   LIBCMT:dosmap.obj
 0001:000610fd       ___doserrno                660620fd f   LIBCMT:dosmap.obj
 0001:00061110       __dosmaperr                66062110 f   LIBCMT:dosmap.obj
 0001:00061133       __write_nolock             66062133 f   LIBCMT:write.obj
 0001:00061866       __write                    66062866 f   LIBCMT:write.obj
 0001:00061942       __fileno                   66062942 f   LIBCMT:fileno.obj
 0001:00061974       __commit                   66062974 f   LIBCMT:commit.obj
 0001:00061a55       __mtinitlocks              66062a55 f   LIBCMT:mlock.obj
 0001:00061aa0       __mtdeletelocks            66062aa0 f   LIBCMT:mlock.obj
 0001:00061af7       __unlock                   66062af7 f   LIBCMT:mlock.obj
 0001:00061b0e       __mtinitlocknum            66062b0e f   LIBCMT:mlock.obj
 0001:00061bd1       __lock                     66062bd1 f   LIBCMT:mlock.obj
 0001:00061c04       __SEH_prolog4              66062c04 f   LIBCMT:sehprolg4.obj
 0001:00061c49       __SEH_epilog4              66062c49 f   LIBCMT:sehprolg4.obj
 0001:00061c5d       __stbuf                    66062c5d f   LIBCMT:_sftbuf.obj
 0001:00061cf9       __ftbuf                    66062cf9 f   LIBCMT:_sftbuf.obj
 0001:00061dd3       __output_l                 66062dd3 f   LIBCMT:output.obj
 0001:0006296b       __ioinit                   6606396b f   LIBCMT:ioinit.obj
 0001:00062bbf       __ioterm                   66063bbf f   LIBCMT:ioinit.obj
 0001:00062c0d       ___report_gsfailure        66063c0d f   LIBCMT:gs_report.obj
 0001:00062d13       __flsbuf                   66063d13 f   LIBCMT:_flsbuf.obj
 0001:00062ece       __VEC_memzero              66063ece f   LIBCMT:p4_memset.obj
 0001:00062fad       __get_sse2_info            66063fad f   LIBCMT:cpu_disp.obj
 0001:0006300f       ___sse2_available_init     6606400f f   LIBCMT:cpu_disp.obj
 0001:0006301c       __close_nolock             6606401c f   LIBCMT:close.obj
 0001:000630b8       __close                    660640b8 f   LIBCMT:close.obj
 0001:00063185       __freebuf                  66064185 f   LIBCMT:_freebuf.obj
 0001:000631c0       _strlen                    660641c0 f   LIBCMT:strlen.obj
 0001:0006324b       __initp_heap_handler       6606424b f   LIBCMT:handler.obj
 0001:0006325a       __callnewh                 6606425a f   LIBCMT:handler.obj
 0001:00063282       __heap_init                66064282 f   LIBCMT:heapinit.obj
 0001:000632b2       __heap_term                660642b2 f   LIBCMT:heapinit.obj
 0001:00063326       ___sbh_find_block          66064326 f   LIBCMT:sbheap.obj
 0001:00063356       ___sbh_free_block          66064356 f   LIBCMT:sbheap.obj
 0001:0006366c       ___sbh_alloc_new_region    6606466c f   LIBCMT:sbheap.obj
 0001:0006371c       ___sbh_alloc_new_group     6606471c f   LIBCMT:sbheap.obj
 0001:00063824       ___sbh_resize_block        66064824 f   LIBCMT:sbheap.obj
 0001:00063b05       ___sbh_alloc_block         66064b05 f   LIBCMT:sbheap.obj
 0001:00063e71       __VEC_memcpy               66064e71 f   LIBCMT:p4_memcpy.obj
 0001:00063f54       __isctype_l                66064f54 f   LIBCMT:isctype.obj
 0001:000643b1       ___crtLCMapStringA         660653b1 f   LIBCMT:a_map.obj
 0001:00064400       ___ascii_memicmp           66065400 f   LIBCMT:_memicmp.obj
 0001:00064459       __malloc_crt               66065459 f   LIBCMT:crtheap.obj
 0001:0006449e       __calloc_crt               6606549e f   LIBCMT:crtheap.obj
 0001:000644ea       __realloc_crt              660654ea f   LIBCMT:crtheap.obj
 0001:00064538       __recalloc_crt             66065538 f   LIBCMT:crtheap.obj
 0001:0006458a       __fcloseall                6606558a f   LIBCMT:closeall.obj
 0001:00064629       __crt_waiting_on_module_handle 66065629 f   LIBCMT:crt0dat.obj
 0001:00064659       __amsg_exit                66065659 f   LIBCMT:crt0dat.obj
 0001:00064682       ___crtCorExitProcess       66065682 f   LIBCMT:crt0dat.obj
 0001:000646ad       ___crtExitProcess          660656ad f   LIBCMT:crt0dat.obj
 0001:000646c5       __lockexit                 660656c5 f   LIBCMT:crt0dat.obj
 0001:000646ce       __unlockexit               660656ce f   LIBCMT:crt0dat.obj
 0001:000646f4       __initterm_e               660656f4 f   LIBCMT:crt0dat.obj
 0001:00064718       __cinit                    66065718 f   LIBCMT:crt0dat.obj
 0001:000648c9       __exit                     660658c9 f   LIBCMT:crt0dat.obj
 0001:000648df       __cexit                    660658df f   LIBCMT:crt0dat.obj
 0001:000648ee       __init_pointers            660658ee f   LIBCMT:crt0dat.obj
 0001:0006493c       __forcdecpt_l              6606593c f   LIBCMT:cvt.obj
 0001:000649af       __cropzeros_l              660659af f   LIBCMT:cvt.obj
 0001:00064a31       __positive                 66065a31 f   LIBCMT:cvt.obj
 0001:00064a4d       __fassign_l                66065a4d f   LIBCMT:cvt.obj
 0001:00064a8f       __fassign                  66065a8f f   LIBCMT:cvt.obj
 0001:00064ac8       __forcdecpt                66065ac8 f   LIBCMT:cvt.obj
 0001:00064adb       __cropzeros                66065adb f   LIBCMT:cvt.obj
 0001:00064c5d       __cftoe_l                  66065c5d f   LIBCMT:cvt.obj
 0001:00064d2d       __cftoe                    66065d2d f   LIBCMT:cvt.obj
 0001:00064d4d       __cftoa_l                  66065d4d f   LIBCMT:cvt.obj
 0001:000651b7       __cftof_l                  660661b7 f   LIBCMT:cvt.obj
 0001:00065272       __cftog_l                  66066272 f   LIBCMT:cvt.obj
 0001:0006536c       __cfltcvt_l                6606636c f   LIBCMT:cvt.obj
 0001:000653f4       __cfltcvt                  660663f4 f   LIBCMT:cvt.obj
 0001:00065417       __initp_misc_cfltcvt_tab   66066417 f   LIBCMT:cmiscdat.obj
 0001:00065438       __setdefaultprecision      66066438 f   LIBCMT:fp8.obj
 0001:00065463       __ms_p5_test_fdiv          66066463 f   LIBCMT:_testfdiv_.obj
 0001:000654a1       __ms_p5_mp_test_fdiv       660664a1 f   LIBCMT:_testfdiv_.obj
 0001:000654cc       __local_unwind4            660664cc f   LIBCMT:exsup4.obj
 0001:000655a2       __seh_longjmp_unwind4@4    660665a2 f   LIBCMT:exsup4.obj
 0001:000655be       @_EH4_CallFilterFunc@8     660665be f   LIBCMT:exsup4.obj
 0001:000655d5       @_EH4_TransferToHandler@8  660665d5 f   LIBCMT:exsup4.obj
 0001:000655ee       @_EH4_GlobalUnwind@4       660665ee f   LIBCMT:exsup4.obj
 0001:00065608       @_EH4_LocalUnwind@16       66066608 f   LIBCMT:exsup4.obj
 0001:00065620       __ValidateImageBase        66066620 f   LIBCMT:pesect.obj
 0001:00065660       __FindPESection            66066660 f   LIBCMT:pesect.obj
 0001:000656b0       __IsNonwritableInCurrentImage 660666b0 f   LIBCMT:pesect.obj
 0001:0006576d       __NMSG_WRITE               6606676d f   LIBCMT:crt0msg.obj
 0001:00065918       __FF_MSGBANNER             66066918 f   LIBCMT:crt0msg.obj
 0001:00065951       __filbuf                   66066951 f   LIBCMT:_filbuf.obj
 0001:00065a7c       __lseek_nolock             66066a7c f   LIBCMT:lseek.obj
 0001:00065af1       __lseek                    66066af1 f   LIBCMT:lseek.obj
 0001:00065bcd       __read_nolock              66066bcd f   LIBCMT:read.obj
 0001:0006618f       __read                     6606718f f   LIBCMT:read.obj
 0001:0006628c       _memcpy_s                  6606728c f   LIBCMT:memcpy_s.obj
 0001:00066309       ??0exception@std@@QAE@ABQBDH@Z 66067309 f   LIBCMT:stdexcpt.obj
 0001:00066326       ??0exception@std@@QAE@ABV01@@Z 66067326 f   LIBCMT:stdexcpt.obj
 0001:00066383       ??1exception@std@@UAE@XZ   66067383 f   LIBCMT:stdexcpt.obj
 0001:00066399       ?what@exception@std@@UBEPBDXZ 66067399 f   LIBCMT:stdexcpt.obj
 0001:000663a6       ??_Eexception@std@@UAEPAXI@Z 660673a6 f i LIBCMT:stdexcpt.obj
 0001:000663a6       ??_Gexception@std@@UAEPAXI@Z 660673a6 f i LIBCMT:stdexcpt.obj
 0001:000663c7       ??1type_info@@UAE@XZ       660673c7 f   LIBCMT:typinfo.obj
 0001:000663d7       ??_Gtype_info@@UAEPAXI@Z   660673d7 f i LIBCMT:typinfo.obj
 0001:000663d7       ??_Etype_info@@UAEPAXI@Z   660673d7 f i LIBCMT:typinfo.obj
 0001:000664b2       ___onexitinit              660674b2 f   LIBCMT:onexit.obj
 0001:000664e3       __onexit                   660674e3 f   LIBCMT:onexit.obj
 0001:0006651f       _atexit                    6606751f f   LIBCMT:onexit.obj
 0001:00066536       __CxxThrowException@8      66067536 f   LIBCMT:throw.obj
 0001:00066582       __fullpath                 66067582 f   LIBCMT:fullpath.obj
 0001:0006668c       ___dtoxmode                6606768c f   LIBCMT:stat.obj
 0001:00066749       ___loctotime64_t           66067749 f   LIBCMT:dtoxtm64.obj
 0001:000669b4       __getdrive                 660679b4 f   LIBCMT:drive.obj
 0001:00066a7d       __mbctolower_l             66067a7d f   LIBCMT:mbtolwr.obj
 0001:00066b23       __mbctolower               66067b23 f   LIBCMT:mbtolwr.obj
 0001:00066b36       __mbspbrk_l                66067b36 f   LIBCMT:mbspbrk.obj
 0001:00066c03       __mbspbrk                  66067c03 f   LIBCMT:mbspbrk.obj
 0001:00066c1a       __openfile                 66067c1a f   LIBCMT:_open.obj
 0001:00066ee3       __getstream                66067ee3 f   LIBCMT:stream.obj
 0001:00067020       __trandisp1                66068020 f   LIBCMT:_87disp_.obj
 0001:00067087       __trandisp2                66068087 f   LIBCMT:_87disp_.obj
 0001:00067113       __rttospopde               66068113     LIBCMT:_87disp_.obj
 0001:00067118       __rttospop                 66068118     LIBCMT:_87disp_.obj
 0001:0006711a       __rtnospop                 6606811a     LIBCMT:_87disp_.obj
 0001:0006711c       __rttosnpop                6606811c     LIBCMT:_87disp_.obj
 0001:0006711d       __rtnospopde               6606811d     LIBCMT:_87disp_.obj
 0001:00067124       __rtzeropop                66068124     LIBCMT:_87disp_.obj
 0001:00067126       __rtzeronpop               66068126     LIBCMT:_87disp_.obj
 0001:0006712b       __rtonepop                 6606812b     LIBCMT:_87disp_.obj
 0001:0006712d       __rtonenpop                6606812d     LIBCMT:_87disp_.obj
 0001:00067132       __tosnan1                  66068132     LIBCMT:_87disp_.obj
 0001:0006715d       __nosnan2                  6606815d     LIBCMT:_87disp_.obj
 0001:0006715f       __tosnan2                  6606815f     LIBCMT:_87disp_.obj
 0001:00067187       __nan2                     66068187     LIBCMT:_87disp_.obj
 0001:000671c6       __rtindfpop                660681c6     LIBCMT:_87disp_.obj
 0001:000671c8       __rtindfnpop               660681c8     LIBCMT:_87disp_.obj
 0001:000671d9       __rttosnpopde              660681d9     LIBCMT:_87disp_.obj
 0001:000671e3       __rtchsifneg               660681e3     LIBCMT:_87disp_.obj
 0001:000671f0       __startTwoArgErrorHandling 660681f0 f   LIBCMT:_genexcep_.obj
 0001:00067207       __startOneArgErrorHandling 66068207 f   LIBCMT:_genexcep_.obj
 0001:00067250       __twoToTOS                 66068250 f   LIBCMT:_common_.obj
 0001:00067265       __load_CW                  66068265 f   LIBCMT:_common_.obj
 0001:0006727c       __convertTOStoQNaN         6606827c f   LIBCMT:_common_.obj
 0001:00067295       __fload_withFB             66068295 f   LIBCMT:_common_.obj
 0001:000672d8       __checkTOS_withFB          660682d8 f   LIBCMT:_common_.obj
 0001:000672ee       __fast_exit                660682ee f   LIBCMT:_common_.obj
 0001:000672fb       __math_exit                660682fb f   LIBCMT:_common_.obj
 0001:00067325       __check_overflow_exit      66068325 f   LIBCMT:_common_.obj
 0001:00067339       __check_range_exit         66068339 f   LIBCMT:_common_.obj
 0001:000673dc       _strcpy_s                  660683dc f   LIBCMT:strcpy_s.obj
 0001:00067444       __iswctype_l               66068444 f   LIBCMT:iswctype.obj
 0001:000674ce       _iswctype                  660684ce f   LIBCMT:iswctype.obj
 0001:00067550       __aulldiv                  66068550 f   LIBCMT:ulldiv.obj
 0001:000675b8       _strnlen                   660685b8 f   LIBCMT:strlen_s.obj
 0001:000675e0       __alloca_probe_16          660685e0 f   LIBCMT:alloca16.obj
 0001:000675f6       __alloca_probe_8           660685f6     LIBCMT:alloca16.obj
 0001:0006760c       __wchartodigit             6606860c f   LIBCMT:wchtodig.obj
 0001:000677e7       __sse2_mathfcns_init       660687e7 f   LIBCMT:_mathfcns_.obj
 0001:00067800       __CIsin_pentium4           66068800 f   LIBCMT:_sin_pentium4_.obj
 0001:00067818       __sin_pentium4             66068818     LIBCMT:_sin_pentium4_.obj
 0001:000679d0       __CIcos_pentium4           660689d0 f   LIBCMT:_cos_pentium4_.obj
 0001:000679e8       __cos_pentium4             660689e8     LIBCMT:_cos_pentium4_.obj
 0001:00067b7c       __setenvp                  66068b7c f   LIBCMT:stdenvp.obj
 0001:00067df4       __setargv                  66068df4 f   LIBCMT:stdargv.obj
 0001:00067eaf       ___crtGetEnvironmentStringsA 66068eaf f   LIBCMT:a_env.obj
 0001:00067fe6       __RTC_Initialize           66068fe6 f   LIBCMT:_initsect_.obj
 0001:0006800c       __RTC_Terminate            6606900c f   LIBCMT:_initsect_.obj
 0001:00068032       __XcptFilter               66069032 f   LIBCMT:winxfltr.obj
 0001:00068192       ___CppXcptFilter           66069192 f   LIBCMT:winxfltr.obj
 0001:000681b2       ___security_init_cookie    660691b2 f   LIBCMT:gs_support.obj
 0001:00068402       ___crtGetStringTypeA       66069402 f   LIBCMT:a_str.obj
 0001:00068444       ___free_lc_time            66069444 f   LIBCMT:inittime.obj
 0001:000685d9       ___free_lconv_num          660695d9 f   LIBCMT:initnum.obj
 0001:0006861e       ___free_lconv_mon          6606961e f   LIBCMT:initmon.obj
 0001:000686ac       ____lc_codepage_func       660696ac f   LIBCMT:initctyp.obj
 0001:000686d2       _strcat_s                  660696d2 f   LIBCMT:strcat_s.obj
 0001:00068750       _strcspn                   66069750 f   LIBCMT:strcspn.obj
 0001:00068796       _strncpy_s                 66069796 f   LIBCMT:strncpy_s.obj
 0001:00068850       _strcmp                    66069850 f   LIBCMT:strcmp.obj
 0001:000688d8       _strncmp                   660698d8 f   LIBCMT:strncmp.obj
 0001:000689a0       _strpbrk                   660699a0 f   LIBCMT:strpbrk.obj
 0001:000689e0       __crt_debugger_hook        660699e0 f   LIBCMT:dbghook.obj
 0001:000689e8       __putwch_nolock            660699e8 f   LIBCMT:putwch.obj
 0001:00068aad       __mbtowc_l                 66069aad f   LIBCMT:mbtowc.obj
 0001:00068bc4       _mbtowc                    66069bc4 f   LIBCMT:mbtowc.obj
 0001:00068bde       __isatty                   66069bde f   LIBCMT:isatty.obj
 0001:00068c42       __lseeki64_nolock          66069c42 f   LIBCMT:lseeki64.obj
 0001:00068cc7       __lseeki64                 66069cc7 f   LIBCMT:lseeki64.obj
 0001:00068de0       __set_osfhnd               66069de0 f   LIBCMT:osfinfo.obj
 0001:00068e61       __free_osfhnd              66069e61 f   LIBCMT:osfinfo.obj
 0001:00068ee7       __get_osfhandle            66069ee7 f   LIBCMT:osfinfo.obj
 0001:00068f5e       ___lock_fhandle            66069f5e f   LIBCMT:osfinfo.obj
 0001:00068ffe       __unlock_fhandle           66069ffe f   LIBCMT:osfinfo.obj
 0001:00069025       __alloc_osfhnd             6606a025 f   LIBCMT:osfinfo.obj
 0001:000691bf       __initp_misc_initcrit      6606a1bf f   LIBCMT:initcrit.obj
 0001:000691ce       ___crtInitCritSecAndSpinCount 6606a1ce f   LIBCMT:initcrit.obj
 0001:0006922e       __wctomb_s_l               6606a22e f   LIBCMT:wctomb.obj
 0001:0006939a       _wctomb_s                  6606a39a f   LIBCMT:wctomb.obj
 0001:000693c0       __aulldvrm                 6606a3c0 f   LIBCMT:ulldvrm.obj
 0001:00069455       __getbuf                   6606a455 f   LIBCMT:_getbuf.obj
 0001:0006949e       ___ansicp                  6606a49e f   LIBCMT:convrtcp.obj
 0001:000694e7       ___convertcp               6606a4e7 f   LIBCMT:convrtcp.obj
 0001:0006969b       __calloc_impl              6606a69b f   LIBCMT:calloc_impl.obj
 0001:000697b9       __recalloc                 6606a7b9 f   LIBCMT:recalloc.obj
 0001:00069834       ?terminate@@YAXXZ          6606a834 f   LIBCMT:hooks.obj
 0001:0006986d       __initp_eh_hooks           6606a86d f   LIBCMT:hooks.obj
 0001:0006987e       __initp_misc_winsig        6606a87e f   LIBCMT:winsig.obj
 0001:000698d3       ___get_sigabrt             6606a8d3 f   LIBCMT:winsig.obj
 0001:000698e0       _raise                     6606a8e0 f   LIBCMT:winsig.obj
 0001:00069a90       __initp_misc_rand_s        6606aa90 f   LIBCMT:rand_s.obj
 0001:00069a9f       __initp_misc_purevirt      6606aa9f f   LIBCMT:inithelp.obj
 0001:00069aae       __atodbl_l                 6606aaae f   LIBCMT:atodbl.obj
 0001:00069b56       __atoflt_l                 6606ab56 f   LIBCMT:atodbl.obj
 0001:00069bfe       __fptostr                  6606abfe f   LIBCMT:_fptostr.obj
 0001:00069cbd       ___dtold                   6606acbd f   LIBCMT:_cfout_.obj
 0001:00069d7a       __fltout2                  6606ad7a f   LIBCMT:_cfout_.obj
 0001:00069e10       __alldvrm                  6606ae10 f   LIBCMT:lldvrm.obj
 0001:00069ef0       __aullshr                  6606aef0 f   LIBCMT:ullshr.obj
 0001:00069f0f       __fptrap                   6606af0f f   LIBCMT:crt0fp.obj
 0001:00069f18       __controlfp_s              6606af18 f   LIBCMT:_contrlfp_.obj
 0001:00069f84       __global_unwind2           6606af84 f   LIBCMT:exsup.obj
 0001:00069fe9       __local_unwind2            6606afe9 f   LIBCMT:exsup.obj
 0001:0006a06d       __abnormal_termination     6606b06d f   LIBCMT:exsup.obj
 0001:0006a090       __NLG_Notify1              6606b090 f   LIBCMT:exsup.obj
 0001:0006a099       __NLG_Notify               6606b099 f   LIBCMT:exsup.obj
 0001:0006a0b0       __NLG_Dispatch2            6606b0b0     LIBCMT:exsup.obj
 0001:0006a0b0       __NLG_Dispatch             6606b0b0     LIBCMT:exsup.obj
 0001:0006a0b8       __NLG_Call                 6606b0b8 f   LIBCMT:exsup.obj
 0001:0006a0ba       __NLG_Return2              6606b0ba     LIBCMT:exsup.obj
 0001:0006a0bb       ___crtMessageBoxA          6606b0bb f   LIBCMT:crtmbox.obj
 0001:0006a224       __set_error_mode           6606b224 f   LIBCMT:errmode.obj
 0001:0006a26f       ?_Type_info_dtor@type_info@@CAXPAV1@@Z 6606b26f f   LIBCMT:typname.obj
 0001:0006a2df       __msize                    6606b2df f   LIBCMT:msize.obj
 0001:0006a382       __validdrive               6606b382 f   LIBCMT:getcwd.obj
 0001:0006a3bb       __getdcwd_nolock           6606b3bb f   LIBCMT:getcwd.obj
 0001:0006a4f2       __getcwd                   6606b4f2 f   LIBCMT:getcwd.obj
 0001:0006a53b       _calloc                    6606b53b f   LIBCMT:calloc.obj
 0001:0006a57b       __mbsicmp_l                6606b57b f   LIBCMT:mbsicmp.obj
 0001:0006a7a1       __mbsicmp                  6606b7a1 f   LIBCMT:mbsicmp.obj
 0001:0006a7b8       __mbsrchr_l                6606b7b8 f   LIBCMT:mbsrchr.obj
 0001:0006a874       __mbsrchr                  6606b874 f   LIBCMT:mbsrchr.obj
 0001:0006a88b       __set_daylight             6606b88b f i LIBCMT:tzset.obj
 0001:0006a89c       __set_dstbias              6606b89c f i LIBCMT:tzset.obj
 0001:0006a8ad       __set_timezone             6606b8ad f i LIBCMT:tzset.obj
 0001:0006afd3       ___tzset                   6606bfd3 f   LIBCMT:tzset.obj
 0001:0006b022       __isindst                  6606c022 f   LIBCMT:tzset.obj
 0001:0006b063       __get_daylight             6606c063 f   LIBCMT:timeset.obj
 0001:0006b09c       __get_dstbias              6606c09c f   LIBCMT:timeset.obj
 0001:0006b0d5       __get_timezone             6606c0d5 f   LIBCMT:timeset.obj
 0001:0006b10e       ___daylight                6606c10e f   LIBCMT:timeset.obj
 0001:0006b114       ___dstbias                 6606c114 f   LIBCMT:timeset.obj
 0001:0006b11a       ___timezone                6606c11a f   LIBCMT:timeset.obj
 0001:0006b120       ___tzname                  6606c120 f   LIBCMT:timeset.obj
 0001:0006b130       __allmul                   6606c130 f   LIBCMT:llmul.obj
 0001:0006b883       __sopen_helper             6606c883 f   LIBCMT:open.obj
 0001:0006b94f       __sopen_s                  6606c94f f   LIBCMT:open.obj
 0001:0006b96f       __mbsnbicmp_l              6606c96f f   LIBCMT:mbsnbicm.obj
 0001:0006bb9a       __mbsnbicmp                6606cb9a f   LIBCMT:mbsnbicm.obj
 0001:0006bbb4       __mbsnbcmp_l               6606cbb4 f   LIBCMT:mbsnbcmp.obj
 0001:0006bd1e       __mbsnbcmp                 6606cd1e f   LIBCMT:mbsnbcmp.obj
 0001:0006bd38       __87except                 6606cd38 f   LIBCMT:_87except_.obj
 0001:0006be77       ___crtGetStringTypeW       6606ce77 f   LIBCMT:w_str.obj
 0001:0006bf08       __ismbblead                6606cf08 f   LIBCMT:ismbbyte.obj
 0001:0006bf20       _atol                      6606cf20 f   LIBCMT:atox.obj
 0001:0006bf36       __strnicmp_l               6606cf36 f   LIBCMT:strnicmp.obj
 0001:0006c028       __strnicmp                 6606d028 f   LIBCMT:strnicmp.obj
 0001:0006c086       ___initconout              6606d086 f   LIBCMT:initcon.obj
 0001:0006c0a5       ___termcon                 6606d0a5 f   LIBCMT:initcon.obj
 0001:0006c0d2       _abort                     6606d0d2 f   LIBCMT:abort.obj
 0001:0006c1e9       __ld12tod                  6606d1e9 f   LIBCMT:_intrncvt_.obj
 0001:0006c72d       __ld12tof                  6606d72d f   LIBCMT:_intrncvt_.obj
 0001:0006cc71       ___strgtold12_l            6606dc71 f   LIBCMT:_strgtold_.obj
 0001:0006d369       _$I10_OUTPUT               6606e369 f   LIBCMT:_x10fout_.obj
 0001:0006ddbb       __control87                6606edbb f i LIBCMT:_ieee87_.obj
 0001:0006e0ca       __getenv_helper_nolock     6606f0ca f   LIBCMT:getenv.obj
 0001:0006e151       __chsize_nolock            6606f151 f   LIBCMT:chsize.obj
 0001:0006e307       __setmode_nolock           6606f307 f   LIBCMT:setmode.obj
 0001:0006e3c3       __get_fmode                6606f3c3 f   LIBCMT:setmode.obj
 0001:0006e3fc       __raise_exc_ex             6606f3fc f   LIBCMT:_fpexcept_.obj
 0001:0006e6d8       __raise_exc                6606f6d8 f   LIBCMT:_fpexcept_.obj
 0001:0006e6fb       __handle_exc               6606f6fb f   LIBCMT:_fpexcept_.obj
 0001:0006e8dd       __set_errno_from_matherr   6606f8dd f   LIBCMT:_fpexcept_.obj
 0001:0006e90a       __matherr                  6606f90a f   LIBCMT:_matherr_.obj
 0001:0006e90d       __statfp                   6606f90d f   LIBCMT:_fpctrl_.obj
 0001:0006e91d       __clrfp                    6606f91d f   LIBCMT:_fpctrl_.obj
 0001:0006e92e       __ctrlfp                   6606f92e f   LIBCMT:_fpctrl_.obj
 0001:0006e957       __set_statfp               6606f957 f   LIBCMT:_fpctrl_.obj
 0001:0006e9af       ___set_fpsr_sse2           6606f9af f   LIBCMT:_fpctrl_.obj
 0001:0006ea30       ___ascii_strnicmp          6606fa30 f   LIBCMT:_strnicm.obj
 0001:0006ea91       ___mtold12                 6606fa91 f   LIBCMT:_mantold_.obj
 0001:0006ec5f       __mbsnbicoll_l             6606fc5f f   LIBCMT:mbsnbico.obj
 0001:0006ed4d       __mbsnbicoll               6606fd4d f   LIBCMT:mbsnbico.obj
 0001:0006ed67       ___wtomb_environ           6606fd67 f   LIBCMT:wtombenv.obj
 0001:0006edfe       __set_exp                  6606fdfe f   LIBCMT:_util_.obj
 0001:0006ee2a       __decomp                   6606fe2a f   LIBCMT:_util_.obj
 0001:0006f271       ___crtCompareStringA       66070271 f   LIBCMT:a_cmp.obj
 0001:0006f2b3       __strnicoll_l              660702b3 f   LIBCMT:strnicol.obj
 0001:0006f459       ___crtsetenv               66070459 f   LIBCMT:setenv.obj
 0001:0006f6a4       __mbschr_l                 660706a4 f   LIBCMT:mbschr.obj
 0001:0006f760       __mbschr                   66070760 f   LIBCMT:mbschr.obj
 0001:0006f778       _ImmAssociateContext@8     66070778 f   imm32:IMM32.dll
 0001:0006f77e       _RtlUnwind@16              6607077e f   kernel32:KERNEL32.dll
 0002:00000000       __imp__ImmAssociateContext@8 66071000     imm32:IMM32.dll
 0002:00000004       \177IMM32_NULL_THUNK_DATA  66071004     imm32:IMM32.dll
 0002:00000008       __imp__IsBadReadPtr@8      66071008     kernel32:KERNEL32.dll
 0002:0000000c       __imp__MultiByteToWideChar@24 6607100c     kernel32:KERNEL32.dll
 0002:00000010       __imp__QueryPerformanceFrequency@4 66071010     kernel32:KERNEL32.dll
 0002:00000014       __imp__HeapCreate@12       66071014     kernel32:KERNEL32.dll
 0002:00000018       __imp__HeapDestroy@4       66071018     kernel32:KERNEL32.dll
 0002:0000001c       __imp__QueryPerformanceCounter@4 6607101c     kernel32:KERNEL32.dll
 0002:00000020       __imp__GetCommandLineA@0   66071020     kernel32:KERNEL32.dll
 0002:00000024       __imp__GetModuleFileNameA@12 66071024     kernel32:KERNEL32.dll
 0002:00000028       __imp__DeleteFileA@4       66071028     kernel32:KERNEL32.dll
 0002:0000002c       __imp__HeapFree@12         6607102c     kernel32:KERNEL32.dll
 0002:00000030       __imp__WideCharToMultiByte@32 66071030     kernel32:KERNEL32.dll
 0002:00000034       __imp__DisableThreadLibraryCalls@4 66071034     kernel32:KERNEL32.dll
 0002:00000038       __imp__LoadLibraryA@4      66071038     kernel32:KERNEL32.dll
 0002:0000003c       __imp__GetModuleHandleA@4  6607103c     kernel32:KERNEL32.dll
 0002:00000040       __imp__VirtualProtect@16   66071040     kernel32:KERNEL32.dll
 0002:00000044       __imp__WriteProcessMemory@20 66071044     kernel32:KERNEL32.dll
 0002:00000048       __imp__GetCurrentProcess@0 66071048     kernel32:KERNEL32.dll
 0002:0000004c       __imp__GetProcAddress@8    6607104c     kernel32:KERNEL32.dll
 0002:00000050       __imp__IsBadWritePtr@8     66071050     kernel32:KERNEL32.dll
 0002:00000054       __imp__LCMapStringA@24     66071054     kernel32:KERNEL32.dll
 0002:00000058       __imp__GetProcessTimes@20  66071058     kernel32:KERNEL32.dll
 0002:0000005c       __imp__GetSystemTimeAsFileTime@4 6607105c     kernel32:KERNEL32.dll
 0002:00000060       __imp__IsBadCodePtr@4      66071060     kernel32:KERNEL32.dll
 0002:00000064       __imp__Sleep@4             66071064     kernel32:KERNEL32.dll
 0002:00000068       __imp__GetTickCount@0      66071068     kernel32:KERNEL32.dll
 0002:0000006c       __imp__GetLocalTime@4      6607106c     kernel32:KERNEL32.dll
 0002:00000070       __imp__CreateFileA@28      66071070     kernel32:KERNEL32.dll
 0002:00000074       __imp__WriteFile@20        66071074     kernel32:KERNEL32.dll
 0002:00000078       __imp__SetFilePointer@16   66071078     kernel32:KERNEL32.dll
 0002:0000007c       __imp__CloseHandle@4       6607107c     kernel32:KERNEL32.dll
 0002:00000080       __imp__GetFileSize@8       66071080     kernel32:KERNEL32.dll
 0002:00000084       __imp__GetCurrentProcessId@0 66071084     kernel32:KERNEL32.dll
 0002:00000088       __imp__GlobalFree@4        66071088     kernel32:KERNEL32.dll
 0002:0000008c       __imp__GlobalUnlock@4      6607108c     kernel32:KERNEL32.dll
 0002:00000090       __imp__GlobalLock@4        66071090     kernel32:KERNEL32.dll
 0002:00000094       __imp__GlobalAlloc@8       66071094     kernel32:KERNEL32.dll
 0002:00000098       __imp__HeapAlloc@12        66071098     kernel32:KERNEL32.dll
 0002:0000009c       __imp__FindNextFileA@8     6607109c     kernel32:KERNEL32.dll
 0002:000000a0       __imp__FindFirstFileA@8    660710a0     kernel32:KERNEL32.dll
 0002:000000a4       __imp__GetFileAttributesA@4 660710a4     kernel32:KERNEL32.dll
 0002:000000a8       __imp__CompareStringW@24   660710a8     kernel32:KERNEL32.dll
 0002:000000ac       __imp__CompareStringA@24   660710ac     kernel32:KERNEL32.dll
 0002:000000b0       __imp__GetProcessHeap@0    660710b0     kernel32:KERNEL32.dll
 0002:000000b4       __imp__SetEndOfFile@4      660710b4     kernel32:KERNEL32.dll
 0002:000000b8       __imp__GetTimeZoneInformation@4 660710b8     kernel32:KERNEL32.dll
 0002:000000bc       __imp__HeapSize@12         660710bc     kernel32:KERNEL32.dll
 0002:000000c0       __imp__InitializeCriticalSectionAndSpinCount@8 660710c0     kernel32:KERNEL32.dll
 0002:000000c4       __imp__SetStdHandle@8      660710c4     kernel32:KERNEL32.dll
 0002:000000c8       __imp__WriteConsoleW@20    660710c8     kernel32:KERNEL32.dll
 0002:000000cc       __imp__GetConsoleOutputCP@0 660710cc     kernel32:KERNEL32.dll
 0002:000000d0       __imp__WriteConsoleA@20    660710d0     kernel32:KERNEL32.dll
 0002:000000d4       __imp__GetLocaleInfoA@16   660710d4     kernel32:KERNEL32.dll
 0002:000000d8       __imp__GetStringTypeW@16   660710d8     kernel32:KERNEL32.dll
 0002:000000dc       __imp__GetStringTypeA@20   660710dc     kernel32:KERNEL32.dll
 0002:000000e0       __imp__GetEnvironmentStringsW@0 660710e0     kernel32:KERNEL32.dll
 0002:000000e4       __imp__FreeEnvironmentStringsW@4 660710e4     kernel32:KERNEL32.dll
 0002:000000e8       __imp__GetEnvironmentStrings@0 660710e8     kernel32:KERNEL32.dll
 0002:000000ec       __imp__FreeEnvironmentStringsA@4 660710ec     kernel32:KERNEL32.dll
 0002:000000f0       __imp__GetCurrentDirectoryA@8 660710f0     kernel32:KERNEL32.dll
 0002:000000f4       __imp__GetFullPathNameA@16 660710f4     kernel32:KERNEL32.dll
 0002:000000f8       __imp__RaiseException@16   660710f8     kernel32:KERNEL32.dll
 0002:000000fc       __imp__ReadFile@20         660710fc     kernel32:KERNEL32.dll
 0002:00000100       __imp__SetEnvironmentVariableA@8 66071100     kernel32:KERNEL32.dll
 0002:00000104       __imp__CreateDirectoryA@8  66071104     kernel32:KERNEL32.dll
 0002:00000108       __imp__HeapReAlloc@16      66071108     kernel32:KERNEL32.dll
 0002:0000010c       __imp__GetLastError@0      6607110c     kernel32:KERNEL32.dll
 0002:00000110       __imp__EnterCriticalSection@4 66071110     kernel32:KERNEL32.dll
 0002:00000114       __imp__LeaveCriticalSection@4 66071114     kernel32:KERNEL32.dll
 0002:00000118       __imp__FindClose@4         66071118     kernel32:KERNEL32.dll
 0002:0000011c       __imp__FileTimeToSystemTime@8 6607111c     kernel32:KERNEL32.dll
 0002:00000120       __imp__FileTimeToLocalFileTime@8 66071120     kernel32:KERNEL32.dll
 0002:00000124       __imp__GetDriveTypeA@4     66071124     kernel32:KERNEL32.dll
 0002:00000128       __imp__MoveFileA@8         66071128     kernel32:KERNEL32.dll
 0002:0000012c       __imp__GetCurrentThreadId@0 6607112c     kernel32:KERNEL32.dll
 0002:00000130       __imp__GetCPInfo@8         66071130     kernel32:KERNEL32.dll
 0002:00000134       __imp__InterlockedIncrement@4 66071134     kernel32:KERNEL32.dll
 0002:00000138       __imp__InterlockedDecrement@4 66071138     kernel32:KERNEL32.dll
 0002:0000013c       __imp__GetACP@0            6607113c     kernel32:KERNEL32.dll
 0002:00000140       __imp__GetOEMCP@0          66071140     kernel32:KERNEL32.dll
 0002:00000144       __imp__IsValidCodePage@4   66071144     kernel32:KERNEL32.dll
 0002:00000148       __imp__GetModuleHandleW@4  66071148     kernel32:KERNEL32.dll
 0002:0000014c       __imp__TlsGetValue@4       6607114c     kernel32:KERNEL32.dll
 0002:00000150       __imp__TlsAlloc@0          66071150     kernel32:KERNEL32.dll
 0002:00000154       __imp__TlsSetValue@8       66071154     kernel32:KERNEL32.dll
 0002:00000158       __imp__TlsFree@4           66071158     kernel32:KERNEL32.dll
 0002:0000015c       __imp__SetLastError@4      6607115c     kernel32:KERNEL32.dll
 0002:00000160       __imp__TerminateProcess@8  66071160     kernel32:KERNEL32.dll
 0002:00000164       __imp__UnhandledExceptionFilter@4 66071164     kernel32:KERNEL32.dll
 0002:00000168       __imp__SetUnhandledExceptionFilter@4 66071168     kernel32:KERNEL32.dll
 0002:0000016c       __imp__IsDebuggerPresent@0 6607116c     kernel32:KERNEL32.dll
 0002:00000170       __imp__GetConsoleCP@0      66071170     kernel32:KERNEL32.dll
 0002:00000174       __imp__GetConsoleMode@8    66071174     kernel32:KERNEL32.dll
 0002:00000178       __imp__FlushFileBuffers@4  66071178     kernel32:KERNEL32.dll
 0002:0000017c       __imp__DeleteCriticalSection@4 6607117c     kernel32:KERNEL32.dll
 0002:00000180       __imp__SetHandleCount@4    66071180     kernel32:KERNEL32.dll
 0002:00000184       __imp__GetStdHandle@4      66071184     kernel32:KERNEL32.dll
 0002:00000188       __imp__GetFileType@4       66071188     kernel32:KERNEL32.dll
 0002:0000018c       __imp__GetStartupInfoA@4   6607118c     kernel32:KERNEL32.dll
 0002:00000190       __imp__VirtualFree@12      66071190     kernel32:KERNEL32.dll
 0002:00000194       __imp__VirtualAlloc@16     66071194     kernel32:KERNEL32.dll
 0002:00000198       __imp__LCMapStringW@24     66071198     kernel32:KERNEL32.dll
 0002:0000019c       __imp__ExitProcess@4       6607119c     kernel32:KERNEL32.dll
 0002:000001a0       __imp__RtlUnwind@16        660711a0     kernel32:KERNEL32.dll
 0002:000001a4       \177KERNEL32_NULL_THUNK_DATA 660711a4     kernel32:KERNEL32.dll
 0002:000001a8       __imp__GetWindowRect@8     660711a8     user32:USER32.dll
 0002:000001ac       __imp__AdjustWindowRectEx@16 660711ac     user32:USER32.dll
 0002:000001b0       __imp__SetWindowPos@28     660711b0     user32:USER32.dll
 0002:000001b4       __imp__GetClassNameA@12    660711b4     user32:USER32.dll
 0002:000001b8       __imp__OpenClipboard@4     660711b8     user32:USER32.dll
 0002:000001bc       __imp__EmptyClipboard@0    660711bc     user32:USER32.dll
 0002:000001c0       __imp__SetClipboardData@8  660711c0     user32:USER32.dll
 0002:000001c4       __imp__CloseClipboard@0    660711c4     user32:USER32.dll
 0002:000001c8       __imp__SetCursorPos@8      660711c8     user32:USER32.dll
 0002:000001cc       __imp__GetKeyState@4       660711cc     user32:USER32.dll
 0002:000001d0       __imp__PostMessageA@16     660711d0     user32:USER32.dll
 0002:000001d4       __imp__SetWindowTextA@8    660711d4     user32:USER32.dll
 0002:000001d8       __imp__GetWindowLongA@8    660711d8     user32:USER32.dll
 0002:000001dc       __imp__SetWindowLongA@12   660711dc     user32:USER32.dll
 0002:000001e0       __imp__ShowWindow@8        660711e0     user32:USER32.dll
 0002:000001e4       __imp__GetWindowPlacement@8 660711e4     user32:USER32.dll
 0002:000001e8       __imp__GetClipCursor@4     660711e8     user32:USER32.dll
 0002:000001ec       __imp__GetClientRect@8     660711ec     user32:USER32.dll
 0002:000001f0       __imp__ClientToScreen@8    660711f0     user32:USER32.dll
 0002:000001f4       __imp__ClipCursor@4        660711f4     user32:USER32.dll
 0002:000001f8       __imp__GetDesktopWindow@0  660711f8     user32:USER32.dll
 0002:000001fc       __imp__GetWindowInfo@8     660711fc     user32:USER32.dll
 0002:00000200       __imp__SendMessageA@16     66071200     user32:USER32.dll
 0002:00000204       __imp__wvsprintfW@12       66071204     user32:USER32.dll
 0002:00000208       __imp__wvsprintfA@12       66071208     user32:USER32.dll
 0002:0000020c       __imp__MessageBoxA@16      6607120c     user32:USER32.dll
 0002:00000210       __imp__wsprintfW           66071210     user32:USER32.dll
 0002:00000214       __imp__SetForegroundWindow@4 66071214     user32:USER32.dll
 0002:00000218       \177USER32_NULL_THUNK_DATA 66071218     user32:USER32.dll
 0002:0000021c       ___xc_a                    6607121c     LIBCMT:crt0init.obj
 0002:00000220       ___xc_z                    66071220     LIBCMT:crt0init.obj
 0002:00000224       ___xi_a                    66071224     LIBCMT:crt0init.obj
 0002:0000023c       ___xi_z                    6607123c     LIBCMT:crt0init.obj
 0002:00000240       ___xp_a                    66071240     LIBCMT:crt0init.obj
 0002:0000024c       ___xp_z                    6607124c     LIBCMT:crt0init.obj
 0002:00000250       ___xt_a                    66071250     LIBCMT:crt0init.obj
 0002:00000254       ___xt_z                    66071254     LIBCMT:crt0init.obj
 0002:00000f18       __real@408f400000000000    66071f18     config.obj
 0002:00001168       __real@4014000000000000    66072168     guess.obj
 0002:00001170       __real@4052c00000000000    66072170     guess.obj
 0002:00001178       __real@4039000000000000    66072178     guess.obj
 0002:00001180       __real@3fe0000000000000    66072180     guess.obj
 0002:00001188       __real@4008000000000000    66072188     guess.obj
 0002:00001190       __real@4040000000000000    66072190     guess.obj
 0002:00001198       __real@4059000000000000    66072198     guess.obj
 0002:000011a0       __real@4010000000000000    660721a0     guess.obj
 0002:00009070       __real@4022000000000000    6607a070     common.obj
 0002:00009078       __real@4070000000000000    6607a078     common.obj
 0002:00009080       __real@3fd999999999999a    6607a080     common.obj
 0002:0000c8b0       __real@4024000000000000    6607d8b0     GameMonitor.obj
 0002:0000dc90       __real@3ff8000000000000    6607ec90     item.obj
 0002:0000e5c8       __real@4028000000000000    6607f5c8     dangerous.obj
 0002:0000e5d0       __real@4020000000000000    6607f5d0     dangerous.obj
 0002:0001206c       __real@41200000            6608306c     skill.obj
 0002:00012070       __real@41e80000            66083070     skill.obj
 0002:00012074       __real@41d00000            66083074     skill.obj
 0002:00012078       __real@41c00000            66083078     skill.obj
 0002:0001207c       __real@41f00000            6608307c     skill.obj
 0002:00012080       __real@41f80000            66083080     skill.obj
 0002:00012084       __real@41000000            66083084     skill.obj
 0002:00012088       __real@41a00000            66083088     skill.obj
 0002:0001208c       __real@41980000            6608308c     skill.obj
 0002:00012090       __real@40a00000            66083090     skill.obj
 0002:00012098       __real@0000000000000000    66083098     skill.obj
 0002:000120a0       __real@42040000            660830a0     skill.obj
 0002:00013780       __real@40c3880000000000    66084780     Snapshot.obj
 0002:00013788       __real@4054400000000000    66084788     Snapshot.obj
 0002:00013790       __real@40a0000000000000    66084790     Snapshot.obj
 0002:00013db0       __real@401c000000000000    66084db0     teleport.obj
 0002:00013db8       __real@412e848000000000    66084db8     teleport.obj
 0002:00015280       __real@40f0000000000000    66086280     uber.obj
 0002:00015288       __real@401921fb3fa6defc    66086288     uber.obj
 0002:000152b0       __FPinit                   660862b0     LIBCMT:_fpinit_.obj
 0002:000152b4       __FPmtinit                 660862b4     LIBCMT:_fpinit_.obj
 0002:000152b8       __FPmtterm                 660862b8     LIBCMT:_fpinit_.obj
 0002:000152bc       ??_C@_0P@GHFPNOJB@bad?5allocation?$AA@ 660862bc     LIBCMT:new.obj
 0002:000152d0       ??_7bad_alloc@std@@6B@     660862d0     LIBCMT:new.obj
 0002:000152d8       ??_C@_03LLEJOLGL@?4?1?2?$AA@ 660862d8     LIBCMT:stati32.obj
 0002:000152dc       ??_C@_02EAOCEIGI@?$DP?$CK?$AA@ 660862dc     LIBCMT:stati32.obj
 0002:000152e0       __pDefaultRawDllMain       660862e0     LIBCMT:dllcrt0.obj
 0002:000152e0       __pRawDllMain              660862e0     LIBCMT:dllcrt0.obj
 0002:00015368       ??_C@_01NEMOKFLO@?$DN?$AA@ 66086368     LIBCMT:setlocal.obj
 0002:0001536a       ??_C@_00CNPNBAHC@?$AA@     6608636a     LIBCMT:setlocal.obj
 0002:0001536c       ??_C@_0O@NLDKAIKN@EncodePointer?$AA@ 6608636c     LIBCMT:tidtable.obj
 0002:0001537c       ??_C@_1BK@DBDEIDLH@?$AAK?$AAE?$AAR?$AAN?$AAE?$AAL?$AA3?$AA2?$AA?4?$AAD?$AAL?$AAL?$AA?$AA@ 6608637c     LIBCMT:tidtable.obj
 0002:00015398       ??_C@_0O@KBPMFGHI@DecodePointer?$AA@ 66086398     LIBCMT:tidtable.obj
 0002:000153a8       ??_C@_07PEJMOBNF@FlsFree?$AA@ 660863a8     LIBCMT:tidtable.obj
 0002:000153b0       ??_C@_0M@JCPCPOEF@FlsSetValue?$AA@ 660863b0     LIBCMT:tidtable.obj
 0002:000153bc       ??_C@_0M@GDNOONDI@FlsGetValue?$AA@ 660863bc     LIBCMT:tidtable.obj
 0002:000153c8       ??_C@_08KNHFBNJ@FlsAlloc?$AA@ 660863c8     LIBCMT:tidtable.obj
 0002:000153d4       ??_C@_1O@CEDCILHN@?$AA?$CI?$AAn?$AAu?$AAl?$AAl?$AA?$CJ?$AA?$AA@ 660863d4     LIBCMT:output.obj
 0002:000153e4       ??_C@_06OJHGLDPL@?$CInull?$CJ?$AA@ 660863e4     LIBCMT:output.obj
 0002:000153f0       ___lookuptable             660863f0     LIBCMT:output.obj
 0002:00015454       ??_C@_13NOLLCAOD@?$AA?$AA?$AA?$AA@ 66086454     LIBCMT:a_map.obj
 0002:00015458       ??_C@_0P@MIGLKIOC@CorExitProcess?$AA@ 66086458     LIBCMT:crt0dat.obj
 0002:00015468       ??_C@_1BI@BGOHAHKC@?$AAm?$AAs?$AAc?$AAo?$AAr?$AAe?$AAe?$AA?4?$AAd?$AAl?$AAl?$AA?$AA@ 66086468     LIBCMT:crt0dat.obj
 0002:00015480       ??_C@_05KLBDPFGC@e?$CL000?$AA@ 66086480     LIBCMT:cvt.obj
 0002:00015488       __real@4150017ec0000000    66086488     LIBCMT:_testfdiv_.obj
 0002:00015490       __real@4147ffff80000000    66086490     LIBCMT:_testfdiv_.obj
 0002:00015498       ??_C@_0BK@NHEOCAHP@IsProcessorFeaturePresent?$AA@ 66086498     LIBCMT:_testfdiv_.obj
 0002:000154b4       ??_C@_08CPNIBGIE@KERNEL32?$AA@ 660864b4     LIBCMT:_testfdiv_.obj
 0002:000154c0       ??_C@_0P@GGKDKEEG@runtime?5error?5?$AA@ 660864c0     LIBCMT:crt0msg.obj
 0002:000154d0       ??_C@_02PCIJFNDE@?$AN?6?$AA@ 660864d0     LIBCMT:crt0msg.obj
 0002:000154d4       ??_C@_0O@MJNIPGOH@TLOSS?5error?$AN?6?$AA@ 660864d4     LIBCMT:crt0msg.obj
 0002:000154e4       ??_C@_0N@BONNPDHF@SING?5error?$AN?6?$AA@ 660864e4     LIBCMT:crt0msg.obj
 0002:000154f4       ??_C@_0P@MBDAJNE@DOMAIN?5error?$AN?6?$AA@ 660864f4     LIBCMT:crt0msg.obj
 0002:00015508       ??_C@_0JL@DFDOOABL@R6034?$AN?6An?5application?5has?5made?5a@ 66086508     LIBCMT:crt0msg.obj
 0002:000155a8       ??_C@_0PH@EPAFIJ@R6033?$AN?6?9?5Attempt?5to?5use?5MSIL?5cod@ 660865a8     LIBCMT:crt0msg.obj
 0002:000156a0       ??_C@_0DD@BKEEABMM@R6032?$AN?6?9?5not?5enough?5space?5for?5lo@ 660866a0     LIBCMT:crt0msg.obj
 0002:000156d8       ??_C@_0GD@OFKILIED@R6031?$AN?6?9?5Attempt?5to?5initialize?5t@ 660866d8     LIBCMT:crt0msg.obj
 0002:0001573c       ??_C@_0BP@LPMHJOKI@R6030?$AN?6?9?5CRT?5not?5initialized?$AN?6?$AA@ 6608673c     LIBCMT:crt0msg.obj
 0002:0001575c       ??_C@_0CF@KJDAIALP@R6028?$AN?6?9?5unable?5to?5initialize?5he@ 6608675c     LIBCMT:crt0msg.obj
 0002:00015784       ??_C@_0DF@GAKBPDFP@R6027?$AN?6?9?5not?5enough?5space?5for?5lo@ 66086784     LIBCMT:crt0msg.obj
 0002:000157bc       ??_C@_0DF@IBLNNAIG@R6026?$AN?6?9?5not?5enough?5space?5for?5st@ 660867bc     LIBCMT:crt0msg.obj
 0002:000157f4       ??_C@_0CG@IOHKGFNJ@R6025?$AN?6?9?5pure?5virtual?5function?5c@ 660867f4     LIBCMT:crt0msg.obj
 0002:0001581c       ??_C@_0DF@JIJJFJDC@R6024?$AN?6?9?5not?5enough?5space?5for?5_o@ 6608681c     LIBCMT:crt0msg.obj
 0002:00015854       ??_C@_0CJ@EGEJHFME@R6019?$AN?6?9?5unable?5to?5open?5console?5@ 66086854     LIBCMT:crt0msg.obj
 0002:00015880       ??_C@_0CB@GNHNIELH@R6018?$AN?6?9?5unexpected?5heap?5error?$AN?6@ 66086880     LIBCMT:crt0msg.obj
 0002:000158a4       ??_C@_0CN@FOLDKNG@R6017?$AN?6?9?5unexpected?5multithread?5@ 660868a4     LIBCMT:crt0msg.obj
 0002:000158d4       ??_C@_0CM@FAHFJNHO@R6016?$AN?6?9?5not?5enough?5space?5for?5th@ 660868d4     LIBCMT:crt0msg.obj
 0002:00015900       ??_C@_0JG@LBKMGKLD@?$AN?6This?5application?5has?5requested@ 66086900     LIBCMT:crt0msg.obj
 0002:00015998       ??_C@_0CM@FLCNIPKK@R6009?$AN?6?9?5not?5enough?5space?5for?5en@ 66086998     LIBCMT:crt0msg.obj
 0002:000159c4       ??_C@_0CK@KMMJOAPP@R6008?$AN?6?9?5not?5enough?5space?5for?5ar@ 660869c4     LIBCMT:crt0msg.obj
 0002:000159f0       ??_C@_0CN@LEKKICBM@R6002?$AN?6?9?5floating?5point?5support?5@ 660869f0     LIBCMT:crt0msg.obj
 0002:00015a20       ??_C@_0CF@GOGNBNAK@Microsoft?5Visual?5C?$CL?$CL?5Runtime?5Lib@ 66086a20     LIBCMT:crt0msg.obj
 0002:00015a48       ??_C@_02PHMGELLB@?6?6?$AA@ 66086a48     LIBCMT:crt0msg.obj
 0002:00015a4c       ??_C@_03KHICJKCI@?4?4?4?$AA@ 66086a4c     LIBCMT:crt0msg.obj
 0002:00015a50       ??_C@_0BH@DNAGHKFM@?$DMprogram?5name?5unknown?$DO?$AA@ 66086a50     LIBCMT:crt0msg.obj
 0002:00015a68       ??_C@_0BK@OFGJDLJJ@Runtime?5Error?$CB?6?6Program?3?5?$AA@ 66086a68     LIBCMT:crt0msg.obj
 0002:00015a88       ??_7exception@std@@6B@     66086a88     LIBCMT:stdexcpt.obj
 0002:00015a90       ??_C@_0BC@EOODALEL@Unknown?5exception?$AA@ 66086a90     LIBCMT:stdexcpt.obj
 0002:00015aa8       ??_7type_info@@6B@         66086aa8     LIBCMT:typinfo.obj
 0002:00015acc       ??_C@_04PNGHFIJN@?4com?$AA@ 66086acc     LIBCMT:stat.obj
 0002:00015ad4       ??_C@_04NEEFLLOK@?4bat?$AA@ 66086ad4     LIBCMT:stat.obj
 0002:00015adc       ??_C@_04CPCBDHLK@?4cmd?$AA@ 66086adc     LIBCMT:stat.obj
 0002:00015ae4       ??_C@_04JLMDILM@?4exe?$AA@ 66086ae4     LIBCMT:stat.obj
 0002:00015b18       __DEFAULT_CW_in_mem        66086b18     LIBCMT:_common_.obj
 0002:00015b1a       __pi_by_2_to_61            66086b1a     LIBCMT:_common_.obj
 0002:00016cb0       __XcptActTab               66087cb0     LIBCMT:winxfltr.obj
 0002:00016d28       ___newctype                66087d28     LIBCMT:ctype.obj
 0002:00017028       __wctype                   66088028     LIBCMT:ctype.obj
 0002:00017230       ___newclmap                66088230     LIBCMT:ctype.obj
 0002:000173b0       ___newcumap                660883b0     LIBCMT:ctype.obj
 0002:00017530       ??_C@_08JCCMCCIL@HH?3mm?3ss?$AA@ 66088530     LIBCMT:strftime.obj
 0002:0001753c       ??_C@_0BE@CKGJFCPC@dddd?0?5MMMM?5dd?0?5yyyy?$AA@ 6608853c     LIBCMT:strftime.obj
 0002:00017550       ??_C@_08BPBNCDIB@MM?1dd?1yy?$AA@ 66088550     LIBCMT:strftime.obj
 0002:0001755c       ??_C@_02CJNFDJBF@PM?$AA@   6608855c     LIBCMT:strftime.obj
 0002:00017560       ??_C@_02DEDBPAFC@AM?$AA@   66088560     LIBCMT:strftime.obj
 0002:00017564       ??_C@_08EDHMEBNP@December?$AA@ 66088564     LIBCMT:strftime.obj
 0002:00017570       ??_C@_08HCHEGEOA@November?$AA@ 66088570     LIBCMT:strftime.obj
 0002:0001757c       ??_C@_07JJNFCEND@October?$AA@ 6608857c     LIBCMT:strftime.obj
 0002:00017584       ??_C@_09BHHEALKD@September?$AA@ 66088584     LIBCMT:strftime.obj
 0002:00017590       ??_C@_06LBBHFDDG@August?$AA@ 66088590     LIBCMT:strftime.obj
 0002:00017598       ??_C@_04MIEPOIFP@July?$AA@ 66088598     LIBCMT:strftime.obj
 0002:000175a0       ??_C@_04CNLMGBGM@June?$AA@ 660885a0     LIBCMT:strftime.obj
 0002:000175a8       ??_C@_05DMJDNLEJ@April?$AA@ 660885a8     LIBCMT:strftime.obj
 0002:000175b0       ??_C@_05HPCKOFNC@March?$AA@ 660885b0     LIBCMT:strftime.obj
 0002:000175b8       ??_C@_08GNJGEPFN@February?$AA@ 660885b8     LIBCMT:strftime.obj
 0002:000175c4       ??_C@_07CGJPFGJA@January?$AA@ 660885c4     LIBCMT:strftime.obj
 0002:000175cc       ??_C@_03MKABNOCG@Dec?$AA@  660885cc     LIBCMT:strftime.obj
 0002:000175d0       ??_C@_03JPJOFNIA@Nov?$AA@  660885d0     LIBCMT:strftime.obj
 0002:000175d4       ??_C@_03BMAOKBAD@Oct?$AA@  660885d4     LIBCMT:strftime.obj
 0002:000175d8       ??_C@_03GGCAPAJC@Sep?$AA@  660885d8     LIBCMT:strftime.obj
 0002:000175dc       ??_C@_03IFJFEIGA@Aug?$AA@  660885dc     LIBCMT:strftime.obj
 0002:000175e0       ??_C@_03LBGABGKK@Jul?$AA@  660885e0     LIBCMT:strftime.obj
 0002:000175e4       ??_C@_03IDFGHECI@Jun?$AA@  660885e4     LIBCMT:strftime.obj
 0002:000175e8       ??_C@_03CNMDKL@May?$AA@    660885e8     LIBCMT:strftime.obj
 0002:000175ec       ??_C@_03LEOLGMJP@Apr?$AA@  660885ec     LIBCMT:strftime.obj
 0002:000175f0       ??_C@_03ODNJBKGA@Mar?$AA@  660885f0     LIBCMT:strftime.obj
 0002:000175f4       ??_C@_03HJBDCHOM@Feb?$AA@  660885f4     LIBCMT:strftime.obj
 0002:000175f8       ??_C@_03JIHJHPIE@Jan?$AA@  660885f8     LIBCMT:strftime.obj
 0002:000175fc       ??_C@_08INBOOONO@Saturday?$AA@ 660885fc     LIBCMT:strftime.obj
 0002:00017608       ??_C@_06JECMNKMI@Friday?$AA@ 66088608     LIBCMT:strftime.obj
 0002:00017610       ??_C@_08HACCIKIA@Thursday?$AA@ 66088610     LIBCMT:strftime.obj
 0002:0001761c       ??_C@_09DLIGFAKA@Wednesday?$AA@ 6608861c     LIBCMT:strftime.obj
 0002:00017628       ??_C@_07BAAGCFCM@Tuesday?$AA@ 66088628     LIBCMT:strftime.obj
 0002:00017630       ??_C@_06JLEDEDGH@Monday?$AA@ 66088630     LIBCMT:strftime.obj
 0002:00017638       ??_C@_06OOPIFAJ@Sunday?$AA@ 66088638     LIBCMT:strftime.obj
 0002:00017640       ??_C@_03FEFJNEK@Sat?$AA@   66088640     LIBCMT:strftime.obj
 0002:00017644       ??_C@_03IDIOELNC@Fri?$AA@  66088644     LIBCMT:strftime.obj
 0002:00017648       ??_C@_03IOFIKPDN@Thu?$AA@  66088648     LIBCMT:strftime.obj
 0002:0001764c       ??_C@_03MHOMLAJA@Wed?$AA@  6608864c     LIBCMT:strftime.obj
 0002:00017650       ??_C@_03NAGEINEP@Tue?$AA@  66088650     LIBCMT:strftime.obj
 0002:00017654       ??_C@_03PDAGKDH@Mon?$AA@   66088654     LIBCMT:strftime.obj
 0002:00017658       ??_C@_03KOEHGMDN@Sun?$AA@  66088658     LIBCMT:strftime.obj
 0002:00017660       ___lookuptable_s           66088660     LIBCMT:outputs.obj
 0002:000176bc       ??_C@_0BI@DFKBFLJE@GetProcessWindowStation?$AA@ 660886bc     LIBCMT:crtmbox.obj
 0002:000176d4       ??_C@_0BK@CIDNPOGP@GetUserObjectInformationA?$AA@ 660886d4     LIBCMT:crtmbox.obj
 0002:000176f0       ??_C@_0BD@HHGDFDBJ@GetLastActivePopup?$AA@ 660886f0     LIBCMT:crtmbox.obj
 0002:00017704       ??_C@_0BA@HNOPNCHB@GetActiveWindow?$AA@ 66088704     LIBCMT:crtmbox.obj
 0002:00017714       ??_C@_0M@CHKKJDAI@MessageBoxA?$AA@ 66088714     LIBCMT:crtmbox.obj
 0002:00017720       ??_C@_0L@NDEGIDAG@USER32?4DLL?$AA@ 66088720     LIBCMT:crtmbox.obj
 0002:0001772c       ??_C@_02CLFPBFFP@TZ?$AA@   6608872c     LIBCMT:tzset.obj
 0002:00017730       ___dnames                  66088730     LIBCMT:timeset.obj
 0002:00017748       ___mnames                  66088748     LIBCMT:timeset.obj
 0002:00017770       ??_C@_07GPDNMNG@CONOUT$?$AA@ 66088770     LIBCMT:initcon.obj
 0002:00017778       ??_C@_06IMKFLFPG@1?$CDQNAN?$AA@ 66088778     LIBCMT:_x10fout_.obj
 0002:00017780       ??_C@_05DNEBIAHO@1?$CDINF?$AA@ 66088780     LIBCMT:_x10fout_.obj
 0002:00017788       ??_C@_05PHHOCPM@1?$CDIND?$AA@ 66088788     LIBCMT:_x10fout_.obj
 0002:00017790       ??_C@_06PGGFOGJG@1?$CDSNAN?$AA@ 66088790     LIBCMT:_x10fout_.obj
 0002:00017798       ??_C@_0BK@CFCOFLF@?5Complete?5Object?5Locator?8?$AA@ 66088798     LIBCMT:undname.obj
 0002:000177b4       ??_C@_0BN@MECKDCOJ@?5Class?5Hierarchy?5Descriptor?8?$AA@ 660887b4     LIBCMT:undname.obj
 0002:000177d4       ??_C@_0BD@LGICGFMM@?5Base?5Class?5Array?8?$AA@ 660887d4     LIBCMT:undname.obj
 0002:000177e8       ??_C@_0BM@LDKODKLH@?5Base?5Class?5Descriptor?5at?5?$CI?$AA@ 660887e8     LIBCMT:undname.obj
 0002:00017804       ??_C@_0BC@DAFEJGAK@?5Type?5Descriptor?8?$AA@ 66088804     LIBCMT:undname.obj
 0002:00017818       ??_C@_0BM@PMGGMLDN@?$GAlocal?5static?5thread?5guard?8?$AA@ 66088818     LIBCMT:undname.obj
 0002:00017834       ??_C@_0CL@FGIJHLCE@?$GAmanaged?5vector?5copy?5constructor@ 66088834     LIBCMT:undname.obj
 0002:00017860       ??_C@_0CJ@GJELGAMM@?$GAvector?5vbase?5copy?5constructor?5i@ 66088860     LIBCMT:undname.obj
 0002:0001788c       ??_C@_0CD@CGAJBKEJ@?$GAvector?5copy?5constructor?5iterato@ 6608888c     LIBCMT:undname.obj
 0002:000178b0       ??_C@_0CB@PDBIFEP@?$GAdynamic?5atexit?5destructor?5for?5?8@ 660888b0     LIBCMT:undname.obj
 0002:000178d4       ??_C@_0BL@CLIPGLGB@?$GAdynamic?5initializer?5for?5?8?$AA@ 660888d4     LIBCMT:undname.obj
 0002:000178f0       ??_C@_0CM@FCBBDIGB@?$GAeh?5vector?5vbase?5copy?5constructo@ 660888f0     LIBCMT:undname.obj
 0002:0001791c       ??_C@_0CG@HLDDJMAG@?$GAeh?5vector?5copy?5constructor?5iter@ 6608891c     LIBCMT:undname.obj
 0002:00017944       ??_C@_0CF@IMGKMJNO@?$GAmanaged?5vector?5destructor?5itera@ 66088944     LIBCMT:undname.obj
 0002:0001796c       ??_C@_0CG@CFDHKGGD@?$GAmanaged?5vector?5constructor?5iter@ 6608896c     LIBCMT:undname.obj
 0002:00017994       ??_C@_0BN@CKNJLHMB@?$GAplacement?5delete?$FL?$FN?5closure?8?$AA@ 66088994     LIBCMT:undname.obj
 0002:000179b4       ??_C@_0BL@CNOONJFP@?$GAplacement?5delete?5closure?8?$AA@ 660889b4     LIBCMT:undname.obj
 0002:000179d0       ??_C@_0P@HJKNJFNN@?$GAomni?5callsig?8?$AA@ 660889d0     LIBCMT:undname.obj
 0002:000179e0       ??_C@_09LBNFPBCA@?5delete?$FL?$FN?$AA@ 660889e0     LIBCMT:undname.obj
 0002:000179ec       ??_C@_06FHBGPFGH@?5new?$FL?$FN?$AA@ 660889ec     LIBCMT:undname.obj
 0002:000179f4       ??_C@_0CE@IIHCMGGL@?$GAlocal?5vftable?5constructor?5closu@ 660889f4     LIBCMT:undname.obj
 0002:00017a18       ??_C@_0BA@KKLDJDLB@?$GAlocal?5vftable?8?$AA@ 66088a18     LIBCMT:undname.obj
 0002:00017a28       ??_C@_05KHLCHHI@?$GARTTI?$AA@ 66088a28     LIBCMT:undname.obj
 0002:00017a30       ??_C@_03KLGMFNMG@?$GAEH?$AA@ 66088a30     LIBCMT:undname.obj
 0002:00017a34       ??_C@_0BA@KBCDOMBN@?$GAudt?5returning?8?$AA@ 66088a34     LIBCMT:undname.obj
 0002:00017a44       ??_C@_0BL@LLKPOHJI@?$GAcopy?5constructor?5closure?8?$AA@ 66088a44     LIBCMT:undname.obj
 0002:00017a60       ??_C@_0CH@OOJPLCPH@?$GAeh?5vector?5vbase?5constructor?5ite@ 66088a60     LIBCMT:undname.obj
 0002:00017a88       ??_C@_0CA@GCEOPDGL@?$GAeh?5vector?5destructor?5iterator?8?$AA@ 66088a88     LIBCMT:undname.obj
 0002:00017aa8       ??_C@_0CB@JONCMFFK@?$GAeh?5vector?5constructor?5iterator?8@ 66088aa8     LIBCMT:undname.obj
 0002:00017acc       ??_C@_0BL@NILFHHPC@?$GAvirtual?5displacement?5map?8?$AA@ 66088acc     LIBCMT:undname.obj
 0002:00017ae8       ??_C@_0CE@IKBNEHA@?$GAvector?5vbase?5constructor?5iterat@ 66088ae8     LIBCMT:undname.obj
 0002:00017b0c       ??_C@_0BN@LFPFMEDL@?$GAvector?5destructor?5iterator?8?$AA@ 66088b0c     LIBCMT:undname.obj
 0002:00017b2c       ??_C@_0BO@PFGOCPJJ@?$GAvector?5constructor?5iterator?8?$AA@ 66088b2c     LIBCMT:undname.obj
 0002:00017b4c       ??_C@_0BN@IMDCHIKM@?$GAscalar?5deleting?5destructor?8?$AA@ 66088b4c     LIBCMT:undname.obj
 0002:00017b6c       ??_C@_0BO@OBMKPJIG@?$GAdefault?5constructor?5closure?8?$AA@ 66088b6c     LIBCMT:undname.obj
 0002:00017b8c       ??_C@_0BN@DEGPLNFK@?$GAvector?5deleting?5destructor?8?$AA@ 66088b8c     LIBCMT:undname.obj
 0002:00017bac       ??_C@_0BD@JDLKDPAB@?$GAvbase?5destructor?8?$AA@ 66088bac     LIBCMT:undname.obj
 0002:00017bc0       ??_C@_08OBABFOLI@?$GAstring?8?$AA@ 66088bc0     LIBCMT:undname.obj
 0002:00017bcc       ??_C@_0BF@KDPPACIK@?$GAlocal?5static?5guard?8?$AA@ 66088bcc     LIBCMT:undname.obj
 0002:00017be4       ??_C@_08LLFFHHDJ@?$GAtypeof?8?$AA@ 66088be4     LIBCMT:undname.obj
 0002:00017bf0       ??_C@_07FEEIOKP@?$GAvcall?8?$AA@ 66088bf0     LIBCMT:undname.obj
 0002:00017bf8       ??_C@_09BLBHBJP@?$GAvbtable?8?$AA@ 66088bf8     LIBCMT:undname.obj
 0002:00017c04       ??_C@_09IFPLHPGF@?$GAvftable?8?$AA@ 66088c04     LIBCMT:undname.obj
 0002:00017c10       ??_C@_02MHEGNOJ@?$FO?$DN?$AA@ 66088c10     LIBCMT:undname.obj
 0002:00017c14       ??_C@_02DHLNPPGH@?$HM?$DN?$AA@ 66088c14     LIBCMT:undname.obj
 0002:00017c18       ??_C@_02FGJGFEAB@?$CG?$DN?$AA@ 66088c18     LIBCMT:undname.obj
 0002:00017c1c       ??_C@_03CDNPDDLA@?$DM?$DM?$DN?$AA@ 66088c1c     LIBCMT:undname.obj
 0002:00017c20       ??_C@_03IKFCCPFF@?$DO?$DO?$DN?$AA@ 66088c20     LIBCMT:undname.obj
 0002:00017c24       ??_C@_02FENAOKFI@?$CF?$DN?$AA@ 66088c24     LIBCMT:undname.obj
 0002:00017c28       ??_C@_02FJEHGPIO@?1?$DN?$AA@ 66088c28     LIBCMT:undname.obj
 0002:00017c2c       ??_C@_02FKMDLLOA@?9?$DN?$AA@ 66088c2c     LIBCMT:undname.obj
 0002:00017c30       ??_C@_02FOEOMHFC@?$CL?$DN?$AA@ 66088c30     LIBCMT:undname.obj
 0002:00017c34       ??_C@_02FPIMKNGF@?$CK?$DN?$AA@ 66088c34     LIBCMT:undname.obj
 0002:00017c38       ??_C@_02NONPIBCD@?$HM?$HM?$AA@ 66088c38     LIBCMT:undname.obj
 0002:00017c3c       ??_C@_02PPKAJPJL@?$CG?$CG?$AA@ 66088c3c     LIBCMT:undname.obj
 0002:00017c40       ??_C@_01DNKMNLPK@?$HM?$AA@ 66088c40     LIBCMT:undname.obj
 0002:00017c44       ??_C@_01JKBOJNNK@?$FO?$AA@ 66088c44     LIBCMT:undname.obj
 0002:00017c48       ??_C@_01PJKLJHI@?$HO?$AA@  66088c48     LIBCMT:undname.obj
 0002:00017c4c       ??_C@_02HCKGKOFO@?$CI?$CJ?$AA@ 66088c4c     LIBCMT:undname.obj
 0002:00017c50       ??_C@_01IHBHIGKO@?0?$AA@   66088c50     LIBCMT:undname.obj
 0002:00017c54       ??_C@_02EEKDKGMJ@?$DO?$DN?$AA@ 66088c54     LIBCMT:undname.obj
 0002:00017c58       ??_C@_01PPODPGHN@?$DO?$AA@ 66088c58     LIBCMT:undname.obj
 0002:00017c5c       ??_C@_02EHCHHCKH@?$DM?$DN?$AA@ 66088c5c     LIBCMT:undname.obj
 0002:00017c60       ??_C@_01MNNFJEPP@?$DM?$AA@ 66088c60     LIBCMT:undname.obj
 0002:00017c64       ??_C@_01FGNFDNOH@?$CF?$AA@ 66088c64     LIBCMT:undname.obj
 0002:00017c68       ??_C@_01KMDKNFGN@?1?$AA@   66088c68     LIBCMT:undname.obj
 0002:00017c6c       ??_C@_03MNHNFDLC@?9?$DO?$CK?$AA@ 66088c6c     LIBCMT:undname.obj
 0002:00017c70       ??_C@_01HNPIGOCE@?$CG?$AA@ 66088c70     LIBCMT:undname.obj
 0002:00017c74       ??_C@_01MIFGBAGJ@?$CL?$AA@ 66088c74     LIBCMT:undname.obj
 0002:00017c78       ??_C@_01JOAMLHOP@?9?$AA@   66088c78     LIBCMT:undname.obj
 0002:00017c7c       ??_C@_02BAABKJLB@?9?9?$AA@ 66088c7c     LIBCMT:undname.obj
 0002:00017c80       ??_C@_02ECNGHCIF@?$CL?$CL?$AA@ 66088c80     LIBCMT:undname.obj
 0002:00017c84       ??_C@_01NBENCBCI@?$CK?$AA@ 66088c84     LIBCMT:undname.obj
 0002:00017c88       ??_C@_02HBOOOICD@?9?$DO?$AA@ 66088c88     LIBCMT:undname.obj
 0002:00017c8c       ??_C@_08LHJFAFGD@operator?$AA@ 66088c8c     LIBCMT:undname.obj
 0002:00017c98       ??_C@_02GPECMEKF@?$FL?$FN?$AA@ 66088c98     LIBCMT:undname.obj
 0002:00017c9c       ??_C@_02FDNJECIE@?$CB?$DN?$AA@ 66088c9c     LIBCMT:undname.obj
 0002:00017ca0       ??_C@_02EGOFBIJA@?$DN?$DN?$AA@ 66088ca0     LIBCMT:undname.obj
 0002:00017ca4       ??_C@_01DCLJPIOD@?$CB?$AA@ 66088ca4     LIBCMT:undname.obj
 0002:00017ca8       ??_C@_02FODMEDOG@?$DM?$DM?$AA@ 66088ca8     LIBCMT:undname.obj
 0002:00017cac       ??_C@_02GPIOPFAK@?$DO?$DO?$AA@ 66088cac     LIBCMT:undname.obj
 0002:00017cb0       ??_C@_07FPCDHGMM@?5delete?$AA@ 66088cb0     LIBCMT:undname.obj
 0002:00017cb8       ??_C@_04NIHEBCM@?5new?$AA@ 66088cb8     LIBCMT:undname.obj
 0002:00017cc0       ??_C@_0M@GFIIJFMG@__unaligned?$AA@ 66088cc0     LIBCMT:undname.obj
 0002:00017ccc       ??_C@_0L@PILCLIHE@__restrict?$AA@ 66088ccc     LIBCMT:undname.obj
 0002:00017cd8       ??_C@_07JOMMBBKO@__ptr64?$AA@ 66088cd8     LIBCMT:undname.obj
 0002:00017ce0       ??_C@_09HIJEGCPM@__clrcall?$AA@ 66088ce0     LIBCMT:undname.obj
 0002:00017cec       ??_C@_0L@JMKHOMEK@__fastcall?$AA@ 66088cec     LIBCMT:undname.obj
 0002:00017cf8       ??_C@_0L@NPHFGOKO@__thiscall?$AA@ 66088cf8     LIBCMT:undname.obj
 0002:00017d04       ??_C@_09IFJBGAPI@__stdcall?$AA@ 66088d04     LIBCMT:undname.obj
 0002:00017d10       ??_C@_08GHMPAG@__pascal?$AA@ 66088d10     LIBCMT:undname.obj
 0002:00017d1c       ??_C@_07KOLFKCDI@__cdecl?$AA@ 66088d1c     LIBCMT:undname.obj
 0002:00017d24       ??_C@_08EHJDFFNH@__based?$CI?$AA@ 66088d24     LIBCMT:undname.obj
 0002:00017eb0       ??_C@_0L@KDOEJCKC@_nextafter?$AA@ 66088eb0     LIBCMT:_fpexcept_.obj
 0002:00017ebc       ??_C@_05JGDBENOH@_logb?$AA@ 66088ebc     LIBCMT:_fpexcept_.obj
 0002:00017ec4       ??_C@_03ONILCKOB@_yn?$AA@  66088ec4     LIBCMT:_fpexcept_.obj
 0002:00017ec8       ??_C@_03NAKIGLHK@_y1?$AA@  66088ec8     LIBCMT:_fpexcept_.obj
 0002:00017ecc       ??_C@_03MJLDFKDL@_y0?$AA@  66088ecc     LIBCMT:_fpexcept_.obj
 0002:00017ed0       ??_C@_05GKKHEGJL@frexp?$AA@ 66088ed0     LIBCMT:_fpexcept_.obj
 0002:00017ed8       ??_C@_04KEPJIHGP@fmod?$AA@ 66088ed8     LIBCMT:_fpexcept_.obj
 0002:00017ee0       ??_C@_06MEIMCGCF@_hypot?$AA@ 66088ee0     LIBCMT:_fpexcept_.obj
 0002:00017ee8       ??_C@_05KBKMEMPO@_cabs?$AA@ 66088ee8     LIBCMT:_fpexcept_.obj
 0002:00017ef0       ??_C@_05CEJMAHNP@ldexp?$AA@ 66088ef0     LIBCMT:_fpexcept_.obj
 0002:00017ef8       ??_C@_04EHEDPDJG@modf?$AA@ 66088ef8     LIBCMT:_fpexcept_.obj
 0002:00017f00       ??_C@_04ODHECPBC@fabs?$AA@ 66088f00     LIBCMT:_fpexcept_.obj
 0002:00017f08       ??_C@_05PBJFFIGL@floor?$AA@ 66088f08     LIBCMT:_fpexcept_.obj
 0002:00017f10       ??_C@_04GFPJNGEK@ceil?$AA@ 66088f10     LIBCMT:_fpexcept_.obj
 0002:00017f18       ??_C@_03IIINPABG@tan?$AA@  66088f18     LIBCMT:_fpexcept_.obj
 0002:00017f1c       ??_C@_03LALBNOCG@cos?$AA@  66088f1c     LIBCMT:_fpexcept_.obj
 0002:00017f20       ??_C@_03BLEJJJBH@sin?$AA@  66088f20     LIBCMT:_fpexcept_.obj
 0002:00017f24       ??_C@_04EIAKFFMI@sqrt?$AA@ 66088f24     LIBCMT:_fpexcept_.obj
 0002:00017f2c       ??_C@_05KNGEOGJB@atan2?$AA@ 66088f2c     LIBCMT:_fpexcept_.obj
 0002:00017f34       ??_C@_04MLLJIGOK@atan?$AA@ 66088f34     LIBCMT:_fpexcept_.obj
 0002:00017f3c       ??_C@_04PDIFKINK@acos?$AA@ 66088f3c     LIBCMT:_fpexcept_.obj
 0002:00017f44       ??_C@_04FIHNOPOL@asin?$AA@ 66088f44     LIBCMT:_fpexcept_.obj
 0002:00017f4c       ??_C@_04FJHINJAO@tanh?$AA@ 66088f4c     LIBCMT:_fpexcept_.obj
 0002:00017f54       ??_C@_04HPJJNFIM@cosh?$AA@ 66088f54     LIBCMT:_fpexcept_.obj
 0002:00017f5c       ??_C@_04COOMCNPB@sinh?$AA@ 66088f5c     LIBCMT:_fpexcept_.obj
 0002:00017f64       ??_C@_05HGHHAHAP@log10?$AA@ 66088f64     LIBCMT:_fpexcept_.obj
 0002:00017f6c       ??_C@_03MGHMBJCF@log?$AA@  66088f6c     LIBCMT:_fpexcept_.obj
 0002:00017f70       ??_C@_03JGHBODFD@pow?$AA@  66088f70     LIBCMT:_fpexcept_.obj
 0002:00017f74       ??_C@_03KHJOGHMM@exp?$AA@  66088f74     LIBCMT:_fpexcept_.obj
 0002:00017f78       __load_config_used         66088f78     LIBCMT:loadcfg.obj
 0002:00017fc0       ??_R4bad_alloc@std@@6B@    66088fc0     LIBCMT:new.obj
 0002:00017fd4       ??_R3bad_alloc@std@@8      66088fd4     LIBCMT:new.obj
 0002:00017fe4       ??_R2bad_alloc@std@@8      66088fe4     LIBCMT:new.obj
 0002:00017ff0       ??_R1A@?0A@EA@bad_alloc@std@@8 66088ff0     LIBCMT:new.obj
 0002:0001800c       ??_R1A@?0A@EA@exception@std@@8 6608900c     LIBCMT:new.obj
 0002:00018028       ??_R3exception@std@@8      66089028     LIBCMT:new.obj
 0002:00018038       ??_R2exception@std@@8      66089038     LIBCMT:new.obj
 0002:00018040       ??_R4exception@std@@6B@    66089040     LIBCMT:stdexcpt.obj
 0002:00018054       ??_R4type_info@@6B@        66089054     LIBCMT:typinfo.obj
 0002:00018068       ??_R3type_info@@8          66089068     LIBCMT:typinfo.obj
 0002:00018078       ??_R2type_info@@8          66089078     LIBCMT:typinfo.obj
 0002:00018080       ??_R1A@?0A@EA@type_info@@8 66089080     LIBCMT:typinfo.obj
 0002:000180a0       ___safe_se_handler_table   660890a0     <linker-defined>
 0002:000180ac       ___rtc_iaa                 660890ac     LIBCMT:_initsect_.obj
 0002:000180b0       ___rtc_izz                 660890b0     LIBCMT:_initsect_.obj
 0002:000180b4       ___rtc_taa                 660890b4     LIBCMT:_initsect_.obj
 0002:000180b8       ___rtc_tzz                 660890b8     LIBCMT:_initsect_.obj
 0002:000182ac       __TI2?AVbad_alloc@std@@    660892ac     LIBCMT:new.obj
 0002:000182bc       __CTA2?AVbad_alloc@std@@   660892bc     LIBCMT:new.obj
 0002:000182c8       __CT??_R0?AVbad_alloc@std@@@8??0bad_alloc@std@@QAE@ABV01@@Z12 660892c8     LIBCMT:new.obj
 0002:000182e4       __CT??_R0?AVexception@std@@@8??0exception@std@@QAE@ABV01@@Z12 660892e4     LIBCMT:new.obj
 0002:00018814       __IMPORT_DESCRIPTOR_KERNEL32 66089814     kernel32:KERNEL32.dll
 0002:00018828       __IMPORT_DESCRIPTOR_USER32 66089828     user32:USER32.dll
 0002:0001883c       __IMPORT_DESCRIPTOR_IMM32  6608983c     imm32:IMM32.dll
 0002:00018850       __NULL_IMPORT_DESCRIPTOR   66089850     kernel32:KERNEL32.dll
 0003:00000000       ?szRuntimePath@@3PADA      6608b000     config.obj
 0003:00000100       ?fShowCheckInfo@@3HA       6608b100     config.obj
 0003:00000104       ?fLoadItemColours@@3HA     6608b104     config.obj
 0003:00000600       ?dwGameWindowId@@3HA       6608b600     DllMain.obj
 0003:00000608       ?dwGameLng@@3HA            6608b608     install.obj
 0003:0000060c       ?fFixSocketError@@3HA      6608b60c     install.obj
 0003:00000610       ?tReloadDll@@3UToggleVar@@A 6608b610     install.obj
 0003:00000640       ?tReloadConfig@@3UToggleVar@@A 6608b640     install.obj
 0003:00000670       ?tInstallPatches@@3UToggleVar@@A 6608b670     install.obj
 0003:0000083c       ?dwPetListChangeCount@@3HA 6608b83c     common.obj
 0003:00000840       ?skillTypes@@3PAY0BO@HA    6608b840     common.obj
 0003:00000b88       ?tShowTestInfo@@3UToggleVar@@A 6608bb88     dbg.obj
 0003:00000bc0       ?fPlayerInTown@@3HA        6608bbc0     loop.obj
 0003:00000bc4       ?actlvls@@3PAHA            6608bbc4     loop.obj
 0003:00000bdc       ?dwCurrentLevel@@3HA       6608bbdc     loop.obj
 0003:00000be0       ?dwLeftSkill@@3HA          6608bbe0     loop.obj
 0003:00000be4       ?dwRightSkill@@3HA         6608bbe4     loop.obj
 0003:00000be8       ?fCanUseLeftSkill@@3HA     6608bbe8     loop.obj
 0003:00000bec       ?fCanUseRightSkill@@3HA    6608bbec     loop.obj
 0003:00000bf0       ?dwSlowMs@@3HA             6608bbf0     loop.obj
 0003:00000bf4       ?dwSlowSkipMs@@3HA         6608bbf4     loop.obj
 0003:00000d3c       ?dwAutoRevealMode@@3HA     6608bd3c     map.obj
 0003:00000d40       ?tRevealAct@@3UToggleVar@@A 6608bd40     map.obj
 0003:00000d70       ?tRevealLevel@@3UToggleVar@@A 6608bd70     map.obj
 0003:00000da0       ?tPrevMapTarget@@3UToggleVar@@A 6608bda0     map.obj
 0003:00000dd0       ?tNextMapTarget@@3UToggleVar@@A 6608bdd0     map.obj
 0003:00000e00       ?tAutomapLevelNames@@3UToggleVar@@A 6608be00     map.obj
 0003:00000e30       ?tAutoMap@@3UToggleVar@@A  6608be30     map.obj
 0003:00000e60       ?tMiniShrine@@3UToggleVar@@A 6608be60     map.obj
 0003:00000e90       ?tAutomapActiveRect@@3UToggleVar@@A 6608be90     map.obj
 0003:00000ec0       ?tAutomapReadyRect@@3UToggleVar@@A 6608bec0     map.obj
 0003:00000ef0       ?tAutomapScreenArea@@3UToggleVar@@A 6608bef0     map.obj
 0003:00000f20       ?nAutomapActiveRectColors@@3EA 6608bf20     map.obj
 0003:00000f21       ?nAutomapReadyRectColors@@3EA 6608bf21     map.obj
 0003:00000f22       ?nAutomapScreenColors@@3EA 6608bf22     map.obj
 0003:00000f23       ?nMinimapSize@@3EA         6608bf23     map.obj
 0003:00000f24       ?routeLineColor@@3EA       6608bf24     map.obj
 0003:00000f25       ?fAutomapPartyDefault@@3EA 6608bf25     map.obj
 0003:00000f26       ?fAutomapNamesDefault@@3EA 6608bf26     map.obj
 0003:00000f27       ?nHostileMissileColor@@3EA 6608bf27     map.obj
 0003:00000f28       ?tMinimapDirectLineToggle@@3UToggleVar@@A 6608bf28     map.obj
 0003:00000f58       ?tMinimapDebugToggle@@3UToggleVar@@A 6608bf58     map.obj
 0003:00000f88       ?tAutomapCorpse@@3UToggleVar@@A 6608bf88     map.obj
 0003:00000fb8       ?tAutomapMonsters@@3UToggleVar@@A 6608bfb8     map.obj
 0003:00000fe8       ?tAutomapChests@@3UToggleVar@@A 6608bfe8     map.obj
 0003:00001018       ?tAutomapMissiles@@3UToggleVar@@A 6608c018     map.obj
 0003:00001048       ?tAutomapItems@@3UToggleVar@@A 6608c048     map.obj
 0003:00001078       ?nGuidedMissileColor@@3EA  6608c078     map.obj
 0003:00001079       ?nTracerMissileColor@@3EA  6608c079     map.obj
 0003:0000107a       ?nOtherMissileColor@@3EA   6608c07a     map.obj
 0003:0000107b       ?nClosedChestColor@@3EA    6608c07b     map.obj
 0003:0000107c       ?nLockedChestColor@@3EA    6608c07c     map.obj
 0003:0000107d       ?nNormalCorpseColor@@3EA   6608c07d     map.obj
 0003:0000107e       ?nBossCorpseColor@@3EA     6608c07e     map.obj
 0003:0000107f       ?nMinionCorpseColor@@3EA   6608c07f     map.obj
 0003:00001080       ?nChampionCorpseColor@@3EA 6608c080     map.obj
 0003:00001081       ?nMonsterNormalColor@@3EA  6608c081     map.obj
 0003:00001082       ?nMonsterBossColor@@3EA    6608c082     map.obj
 0003:00001083       ?nMonsterMinionColor@@3EA  6608c083     map.obj
 0003:00001084       ?nMonsterChampColor@@3EA   6608c084     map.obj
 0003:00001085       ?nSuperUniqueColor@@3EA    6608c085     map.obj
 0003:00001086       ?nNeutralPlayerColor@@3EA  6608c086     map.obj
 0003:00001087       ?nHostilePlayerColor@@3EA  6608c087     map.obj
 0003:00001088       ?nFriendMinionColor@@3EA   6608c088     map.obj
 0003:00001089       ?nPlayerMinionColor@@3EA   6608c089     map.obj
 0003:0000108a       ?nPartyTextColour@@3EA     6608c08a     map.obj
 0003:0000108b       ?nNeutralTextColour@@3EA   6608c08b     map.obj
 0003:0000108c       ?nHostileTextColour@@3EA   6608c08c     map.obj
 0003:0000108d       ?nMonsterTextCol@@3EA      6608c08d     map.obj
 0003:00001090       ?tBossNameToggle@@3UToggleVar@@A 6608c090     map.obj
 0003:000010c0       ?tScreenshake@@3UToggleVar@@A 6608c0c0     map.obj
 0003:000010f0       ?tCenterMap@@3UToggleVar@@A 6608c0f0     map.obj
 0003:00001120       ?nScrollMode@@3HA          6608c120     map.obj
 0003:00001124       ?dwDuranceOfHateLevel3TeleportShift@@3PAHA 6608c124     map.obj
 0003:00001130       ?dwDuranceOfHateLevel3TeleportShiftBugKM@@3PAHA 6608c130     map.obj
 0003:00002560       ?dwSocketTimeOutSec@@3HA   6608d560     packet.obj
 0003:00002564       ?dwSocketTimeOut@@3HA      6608d564     packet.obj
 0003:00002568       ?dwAddStatMaxCount@@3HA    6608d568     packet.obj
 0003:0000256c       ?tPacketHandler@@3UToggleVar@@A 6608d56c     packet.obj
 0003:0000259c       ?tDoTest@@3UToggleVar@@A   6608d59c     packet.obj
 0003:000025cc       ?tNecTeleportAttract@@3UToggleVar@@A 6608d5cc     packet.obj
 0003:00002738       ?tAutomapRouteInfo@@3UToggleVar@@A 6608d738     route.obj
 0003:00002768       ?tScreenRouteGuide@@3UToggleVar@@A 6608d768     route.obj
 0003:00002798       ?tReroute@@3UToggleVar@@A  6608d798     route.obj
 0003:00002958       ?fWinActive@@3HA           6608d958     winmsg.obj
 0003:0000295c       ?dwQuickSwapItemDelayMs@@3HA 6608d95c     winmsg.obj
 0003:00002960       ?dwAutoCallToArm@@3HA      6608d960     winmsg.obj
 0003:00002964       ?tLockMouseToggle@@3UToggleVar@@A 6608d964     winmsg.obj
 0003:00002994       ?tAutoHideMinimapToggle@@3UToggleVar@@A 6608d994     winmsg.obj
 0003:000029c4       ?tAutoMinimapTeleportToggle@@3UToggleVar@@A 6608d9c4     winmsg.obj
 0003:000029f4       ?tFullScreen@@3UToggleVar@@A 6608d9f4     winmsg.obj
 0003:00002a24       ?tFullScreenNoCaption@@3UToggleVar@@A 6608da24     winmsg.obj
 0003:00002a54       ?tResizeWindowBar@@3UToggleVar@@A 6608da54     winmsg.obj
 0003:00002a84       ?tAttractNPC@@3UToggleVar@@A 6608da84     winmsg.obj
 0003:00002ab4       ?tEnableScreenSaver@@3UToggleVar@@A 6608dab4     winmsg.obj
 0003:00002ae4       ?tEnableMenuScreenSaver@@3UToggleVar@@A 6608dae4     winmsg.obj
 0003:00002b14       ?tNoHide@@3UToggleVar@@A   6608db14     winmsg.obj
 0003:00002b44       ?tSaveGame@@3UToggleVar@@A 6608db44     winmsg.obj
 0003:00003178       ?newTextBoxData@@3PAKA     6608e178     winmsg.obj
 0003:000031a8       ?tChangeVisualEffect@@3UToggleVar@@A 6608e1a8     env.obj
 0003:000031d8       ?tWeather@@3UToggleVar@@A  6608e1d8     env.obj
 0003:00003208       ?tHiddenCorpse@@3UToggleVar@@A 6608e208     env.obj
 0003:00003238       ?tSkipDrawToggle@@3UToggleVar@@A 6608e238     env.obj
 0003:000033c8       ?simpleItemStackTxt@@3HA   6608e3c8     GameMonitor.obj
 0003:000033cc       ?simpleItemStackIdx@@3HA   6608e3cc     GameMonitor.obj
 0003:000033d0       ?simpleItemStackStatId@@3HA 6608e3d0     GameMonitor.obj
 0003:000033d4       ?changeStashPageCmd@@3HA   6608e3d4     GameMonitor.obj
 0003:000033d8       ?changeStashPageCmdOffset@@3HA 6608e3d8     GameMonitor.obj
 0003:000033dc       ?changeStashPageCmdValue@@3HA 6608e3dc     GameMonitor.obj
 0003:000033e0       ?changeStashPageValueOffset@@3HA 6608e3e0     GameMonitor.obj
 0003:00003428       ?tCountDown@@3UToggleVar@@A 6608e428     GameMonitor.obj
 0003:00003458       ?tDrawMultiPageStashCount@@3UToggleVar@@A 6608e458     GameMonitor.obj
 0003:00003488       ?dwGameMonitorX@@3HA       6608e488     GameMonitor.obj
 0003:0000348c       ?dwGameMonitorY@@3HA       6608e48c     GameMonitor.obj
 0003:00003490       ?dwCountDownFontSize@@3HA  6608e490     GameMonitor.obj
 0003:00003494       ?dwCountDownGap@@3HA       6608e494     GameMonitor.obj
 0003:00003498       ?dwCountDownFlashSecond@@3HA 6608e498     GameMonitor.obj
 0003:0000349c       ?tKillCount@@3UToggleVar@@A 6608e49c     GameMonitor.obj
 0003:000034cc       ?tGetHitCount@@3UToggleVar@@A 6608e4cc     GameMonitor.obj
 0003:000034fc       ?tNecAutomapCorpsesToggle@@3UToggleVar@@A 6608e4fc     GameMonitor.obj
 0003:0000352c       ?tDrawBossHpToggle@@3UToggleVar@@A 6608e52c     GameMonitor.obj
 0003:0000355c       ?bossLineColor@@3HA        6608e55c     GameMonitor.obj
 0003:00003560       ?tDrawPlayerNameToggle@@3UToggleVar@@A 6608e560     GameMonitor.obj
 0003:00003590       ?dwDrawPlayerNameDy@@3HA   6608e590     GameMonitor.obj
 0003:00003594       ?HasCowKing@@3HA           6608e594     GameMonitor.obj
 0003:00003c54       ?countDowns@@3PAPAUCountDown@@A 6608ec54     GameMonitor.obj
 0003:00003cc0       ?tServerIp@@3UToggleVar@@A 6608ecc0     info.obj
 0003:00003cf0       ?tGameTime@@3UToggleVar@@A 6608ecf0     info.obj
 0003:00003d20       ?tClock@@3UToggleVar@@A    6608ed20     info.obj
 0003:00003d50       ?tLayerLevelNo@@3UToggleVar@@A 6608ed50     info.obj
 0003:00003d80       ?tAreaLevel@@3UToggleVar@@A 6608ed80     info.obj
 0003:00003db0       ?tPermShowOrb@@3UToggleVar@@A 6608edb0     info.obj
 0003:00003de0       ?tShowExp@@3UToggleVar@@A  6608ede0     info.obj
 0003:00003e10       ?tShowPing@@3UToggleVar@@A 6608ee10     info.obj
 0003:00003e40       ?tShowPartyPosition@@3UToggleVar@@A 6608ee40     info.obj
 0003:00003e70       ?tShowPartyLevel@@3UToggleVar@@A 6608ee70     info.obj
 0003:00003ea0       ?tViewEquipmentKey@@3UToggleVar@@A 6608eea0     info.obj
 0003:00003ed0       ?tViewPlayerStatsKey@@3UToggleVar@@A 6608eed0     info.obj
 0003:00003f00       ?tShowBaseStat@@3UToggleVar@@A 6608ef00     info.obj
 0003:00003f30       ?tFirstPlayerStat@@3UToggleVar@@A 6608ef30     info.obj
 0003:00003f60       ?tNextPlayerStat@@3UToggleVar@@A 6608ef60     info.obj
 0003:00003f90       ?tPrevPlayerStat@@3UToggleVar@@A 6608ef90     info.obj
 0003:00004280       ?szOrbPattern@@3PADA       6608f280     info.obj
 0003:00004284       ?viewStatUnit@@3UViewUnitInfo@@A 6608f284     info.obj
 0003:00004294       ?viewEquUnit@@3UViewUnitInfo@@A 6608f294     info.obj
 0003:00004378       ?tLogMessage@@3UToggleVar@@A 6608f378     MessageLog.obj
 0003:000043a8       ?dwMessageFileSize@@3HA    6608f3a8     MessageLog.obj
 0003:00004408       ?anGoldGoodCol@@3PADA      6608f408     item.obj
 0003:0000440c       ?anGoldPoorCol@@3PADA      6608f40c     item.obj
 0003:00004410       ?tSwitchItemMode@@3UToggleVar@@A 6608f410     item.obj
 0003:00004440       ?dwItemShowMode@@3HA       6608f440     item.obj
 0003:00004444       ?nQuestItemColour@@3EA     6608f444     item.obj
 0003:00004445       ?nDefaultExtInfoColour@@3EA 6608f445     item.obj
 0003:00004448       ?tRuneNumbers@@3UToggleVar@@A 6608f448     item.obj
 0003:00004478       ?tSocketNumbers@@3UToggleVar@@A 6608f478     item.obj
 0003:000044a8       ?tItemLevel@@3UToggleVar@@A 6608f4a8     item.obj
 0003:000044d8       ?tItemValue@@3UToggleVar@@A 6608f4d8     item.obj
 0003:00004508       ?tItemIndex@@3UToggleVar@@A 6608f508     item.obj
 0003:00004538       ?tItemFileIndex@@3UToggleVar@@A 6608f538     item.obj
 0003:00004568       ?tUnitNumber@@3UToggleVar@@A 6608f568     item.obj
 0003:00004598       ?tItemQLevel@@3UToggleVar@@A 6608f598     item.obj
 0003:000045c8       ?tItemMLevel@@3UToggleVar@@A 6608f5c8     item.obj
 0003:000045f8       ?tItemALevel@@3UToggleVar@@A 6608f5f8     item.obj
 0003:00004628       ?tAfterCube@@3UToggleVar@@A 6608f628     item.obj
 0003:00004658       ?tLifePerLevel@@3UToggleVar@@A 6608f658     item.obj
 0003:00004688       ?dwItemValueNpc@@3PAHA     6608f688     item.obj
 0003:0000469c       ?tShowBaseED@@3UToggleVar@@A 6608f69c     item.obj
 0003:000046cc       ?tShowIdentifiedItem@@3UToggleVar@@A 6608f6cc     item.obj
 0003:000046fc       ?tHiddenItems@@3UToggleVar@@A 6608f6fc     item.obj
 0003:0000472c       ?tPermShowItems@@3UToggleVar@@A 6608f72c     item.obj
 0003:0000475c       ?tLockAltToggle@@3UToggleVar@@A 6608f75c     item.obj
 0003:0000478c       ?tItemBasicStat@@3UToggleVar@@A 6608f78c     item.obj
 0003:000047bc       ?tViewSocketable@@3UToggleVar@@A 6608f7bc     item.obj
 0003:000047ec       ?tViewSocketBase@@3UToggleVar@@A 6608f7ec     item.obj
 0003:0000481c       ?tShowItemVariableProp@@3UToggleVar@@A 6608f81c     item.obj
 0003:0000484c       ?tSocketProtect@@3UToggleVar@@A 6608f84c     item.obj
 0003:0000487c       ?tRunewordProtect@@3UToggleVar@@A 6608f87c     item.obj
 0003:000048ac       ?tDrawInvItemInfo@@3UToggleVar@@A 6608f8ac     item.obj
 0003:000048dc       ?tItemExtInfo@@3UToggleVar@@A 6608f8dc     item.obj
 0003:0000490c       ?maxTownPortalCount@@3HA   6608f90c     item.obj
 0003:00004910       ?maxIdentifyPortalCount@@3HA 6608f910     item.obj
 0003:00004914       ?batchSimpleItemStackCount@@3HA 6608f914     item.obj
 0003:00004918       ?tDrawSimpleItemStackCount@@3UToggleVar@@A 6608f918     item.obj
 0003:00005290       ?dwAutoPotionCheckMs@@3HA  66090290     dangerous.obj
 0003:00005294       ?dwHirePotionDelayMs@@3HA  66090294     dangerous.obj
 0003:00005298       ?dwManaPotionDelayMs@@3HA  66090298     dangerous.obj
 0003:0000529c       ?nChickenLifeAction@@3HA   6609029c     dangerous.obj
 0003:000052a0       ?tHealingPotion@@3UToggleVar@@A 660902a0     dangerous.obj
 0003:000052d0       ?tManaPotion@@3UToggleVar@@A 660902d0     dangerous.obj
 0003:00005300       ?tChickenLife@@3UToggleVar@@A 66090300     dangerous.obj
 0003:00005330       ?tChickenHostile@@3UToggleVar@@A 66090330     dangerous.obj
 0003:00005360       ?tChickenHostileNearby@@3UToggleVar@@A 66090360     dangerous.obj
 0003:00005390       ?tChickenDangerousMonster@@3UToggleVar@@A 66090390     dangerous.obj
 0003:000053c0       ?tAutoPotion@@3UToggleVar@@A 660903c0     dangerous.obj
 0003:000053f0       ?dwChickenLifeForcedClevel@@3HA 660903f0     dangerous.obj
 0003:000053f4       ?dwNoQuitIfDeadClevel@@3HA 660903f4     dangerous.obj
 0003:000053f8       ?dwChickenLifeEnterGame@@3HA 660903f8     dangerous.obj
 0003:000053fc       ?nDangerousMonsterAction@@3HA 660903fc     dangerous.obj
 0003:000059e8       ?dwBarbrianLeft@@3HA       660909e8     quest.obj
 0003:000059ec       ?dwBugAlertTimes@@3HA      660909ec     quest.obj
 0003:000059f0       ?tBugKCountess@@3UToggleVar@@A 660909f0     quest.obj
 0003:00005a20       ?tBugKM@@3UToggleVar@@A    66090a20     quest.obj
 0003:00005a50       ?tBugKD@@3UToggleVar@@A    66090a50     quest.obj
 0003:00005a80       ?tBugKB@@3UToggleVar@@A    66090a80     quest.obj
 0003:00005ab0       ?tBugAutoQuit@@3UToggleVar@@A 66090ab0     quest.obj
 0003:00005ae0       ?tBugAutoQuitHell@@3UToggleVar@@A 66090ae0     quest.obj
 0003:00005b10       ?tBugAutoQuitHellAct1@@3UToggleVar@@A 66090b10     quest.obj
 0003:00005b40       ?tBugAutoQuitHellAct3@@3UToggleVar@@A 66090b40     quest.obj
 0003:00005b70       ?tBugAutoQuitHellAct4@@3UToggleVar@@A 66090b70     quest.obj
 0003:00005ba0       ?tBugAutoQuitHellAct5@@3UToggleVar@@A 66090ba0     quest.obj
 0003:00005bd0       ?tBugAutoQuitAct5@@3UToggleVar@@A 66090bd0     quest.obj
 0003:00005c00       ?tBugAllHellAlert@@3UToggleVar@@A 66090c00     quest.obj
 0003:00005c30       ?tAlertNoBug@@3UToggleVar@@A 66090c30     quest.obj
 0003:00005c60       ?t3BBProtect@@3UToggleVar@@A 66090c60     quest.obj
 0003:00006010       ?tMonsterLevel@@3UToggleVar@@A 66091010     lifebar.obj
 0003:00006040       ?tMonsterTC@@3UToggleVar@@A 66091040     lifebar.obj
 0003:00006070       ?tMonsterRuneTC@@3UToggleVar@@A 66091070     lifebar.obj
 0003:000060a0       ?tMonsterResists@@3UToggleVar@@A 660910a0     lifebar.obj
 0003:000060d0       ?tMonsterHPPercent@@3UToggleVar@@A 660910d0     lifebar.obj
 0003:00006100       ?tMonsterDistance@@3UToggleVar@@A 66091100     lifebar.obj
 0003:00006130       ?tMonsterID@@3UToggleVar@@A 66091130     lifebar.obj
 0003:00006160       ?tSPMonsterHP@@3UToggleVar@@A 66091160     lifebar.obj
 0003:00006190       ?tSPMonsterExp@@3UToggleVar@@A 66091190     lifebar.obj
 0003:000061c0       ?nLifeBarTrans@@3EA        660911c0     lifebar.obj
 0003:000061c1       ?nLifeBarColour@@3EA       660911c1     lifebar.obj
 0003:000061c4       ?tPlayerLevel@@3UToggleVar@@A 660911c4     lifebar.obj
 0003:000061f4       ?tPlayerDistance@@3UToggleVar@@A 660911f4     lifebar.obj
 0003:00006224       ?tPlayerHPPercent@@3UToggleVar@@A 66091224     lifebar.obj
 0003:000065a0       ?tDropProtectionToggle@@3UToggleVar@@A 660915a0     DropProtection.obj
 0003:000065d0       ?tResetProtectionToggle@@3UToggleVar@@A 660915d0     DropProtection.obj
 0003:00006600       ?protectCharLv@@3HA        66091600     DropProtection.obj
 0003:00006768       ?tWisperNotice@@3UToggleVar@@A 66091768     chat.obj
 0003:00006798       ?tInputLine@@3UToggleVar@@A 66091798     chat.obj
 0003:000067c8       ?tUseCustomFont@@3UToggleVar@@A 660917c8     chat.obj
 0003:000067f8       ?tQuickMessagePasteOnly@@3UToggleVar@@A 660917f8     chat.obj
 0003:00006a78       ?tOutTownSelect@@3UToggleVar@@A 66091a78     misc.obj
 0003:00006aa8       ?tULCMask@@3UToggleVar@@A  66091aa8     misc.obj
 0003:00006b60       ?tMultiClient@@3UToggleVar@@A 66091b60     multi.obj
 0003:00006b90       ?tMultiClientToggleFollow@@3UToggleVar@@A 66091b90     multi.obj
 0003:00006bc0       ?tMultiClientStartFollow1@@3UToggleVar@@A 66091bc0     multi.obj
 0003:00006bf0       ?tMultiClientStartFollow2@@3UToggleVar@@A 66091bf0     multi.obj
 0003:00006c20       ?tMultiClientStopFollow@@3UToggleVar@@A 66091c20     multi.obj
 0003:00006c50       ?tMultiClientEnterDoor@@3UToggleVar@@A 66091c50     multi.obj
 0003:00006c80       ?tMultiClientRetreat@@3UToggleVar@@A 66091c80     multi.obj
 0003:00006cb0       ?tMultiClientClick@@3UToggleVar@@A 66091cb0     multi.obj
 0003:00006ce0       ?tMultiClientClick2@@3UToggleVar@@A 66091ce0     multi.obj
 0003:00006d10       ?tMultiClientTalkToNpc@@3UToggleVar@@A 66091d10     multi.obj
 0003:00006d40       ?dwMultiClientGroupSize1@@3HA 66091d40     multi.obj
 0003:00006d44       ?dwMultiClientGroupSize2@@3HA 66091d44     multi.obj
 0003:00006d48       ?dwAutoFollowDistance@@3HA 66091d48     multi.obj
 0003:00006d4c       ?dwAutoFollowMaxDistance@@3HA 66091d4c     multi.obj
 0003:00006d50       ?dwAutoFollowMoveDistance@@3HA 66091d50     multi.obj
 0003:00006d54       ?dwAutoFollowCheckInterval@@3HA 66091d54     multi.obj
 0003:00006d58       ?dwAutoFollowClickObjectDelayMs@@3HA 66091d58     multi.obj
 0003:00006d5c       ?dwWaitTeamEnterPortalMaxDelayMs@@3HA 66091d5c     multi.obj
 0003:00006d60       ?tNecNoAttackInHell@@3UToggleVar@@A 66091d60     multi.obj
 0003:0000712c       ?tNpcTradeShowInfo@@3UToggleVar@@A 6609212c     NpcTrade.obj
 0003:000071a8       ?mAutoPartyDelays@@3HA     660921a8     party.obj
 0003:000071ac       ?tAutoParty@@3UToggleVar@@A 660921ac     party.obj
 0003:000071dc       ?tAutoInvite@@3UToggleVar@@A 660921dc     party.obj
 0003:0000720c       ?tAutoPermit@@3UToggleVar@@A 6609220c     party.obj
 0003:0000723c       ?tAutoPartyBugMF@@3UToggleVar@@A 6609223c     party.obj
 0003:0000726c       ?autoPartyLevelRange@@3PAY01DA 6609226c     party.obj
 0003:00007380       ?nTownportalAlertNums@@3HA 66092380     quick.obj
 0003:00007388       ?tBackToTown@@3UToggleVar@@A 66092388     quick.obj
 0003:000073b8       ?tExitGame@@3UToggleVar@@A 660923b8     quick.obj
 0003:000073e8       ?tQuickNextGame@@3UToggleVar@@A 660923e8     quick.obj
 0003:00007418       ?tQuickNextGame2@@3UToggleVar@@A 66092418     quick.obj
 0003:00007448       ?tAllNextGame@@3UToggleVar@@A 66092448     quick.obj
 0003:00007478       ?tAutoJoinGame@@3UToggleVar@@A 66092478     quick.obj
 0003:00007740       ?tRightClickSwap@@3UToggleVar@@A 66092740     QuickSwapItem.obj
 0003:00007770       ?tQuickDropToggle@@3UToggleVar@@A 66092770     QuickSwapItem.obj
 0003:000077a0       ?tEnableGemAutoMerge@@3UToggleVar@@A 660927a0     QuickSwapItem.obj
 0003:000077d0       ?tEnableAutoSimpleItemStack@@3UToggleVar@@A 660927d0     QuickSwapItem.obj
 0003:00007918       ?tHighResolution@@3UToggleVar@@A 66092918     resolution.obj
 0003:00007978       ?tAutoPickupToggle@@3UToggleVar@@A 66092978     skill.obj
 0003:000079a8       ?tAutoEnchant@@3UToggleVar@@A 660929a8     skill.obj
 0003:000079d8       ?dwRenewEnchantMs@@3HA     660929d8     skill.obj
 0003:000079dc       ?dwAutoEnchantMana@@3HA    660929dc     skill.obj
 0003:000079e0       ?dwRenewEnchantMana@@3HA   660929e0     skill.obj
 0003:000079e4       ?dwAutoEnchantPlayerLevel@@3HA 660929e4     skill.obj
 0003:000079e8       ?tAutoWarCry@@3UToggleVar@@A 660929e8     skill.obj
 0003:00007a18       ?tAutoBackgroundSkill@@3UToggleVar@@A 66092a18     skill.obj
 0003:00007a48       ?tAutoForegroundSkillToggle@@3UToggleVar@@A 66092a48     skill.obj
 0003:00007a78       ?tAutoForegroundSkill@@3UToggleVar@@A 66092a78     skill.obj
 0003:00007aa8       ?dwAutoSkillCheckInterval@@3HA 66092aa8     skill.obj
 0003:00007aac       ?dwAutoSkillIdleDelay@@3HA 66092aac     skill.obj
 0003:00007ab0       ?dwAutoThrowMinQuantity@@3HA 66092ab0     skill.obj
 0003:00007ab4       ?dwAutoStaticFieldHPPercent@@3HA 66092ab4     skill.obj
 0003:00007ab8       ?tAutoSummon@@3UToggleVar@@A 66092ab8     skill.obj
 0003:00007ae8       ?tAutoSummonRevive@@3UToggleVar@@A 66092ae8     skill.obj
 0003:00007b18       ?tShowSummonInfo@@3UToggleVar@@A 66092b18     skill.obj
 0003:00007b48       ?dwAutoSummonMana@@3HA     66092b48     skill.obj
 0003:00007b4c       ?dwSwitchSkillMs@@3HA      66092b4c     skill.obj
 0003:00007b50       ?dwAutoSummonSkeletonLevelAdjust@@3HA 66092b50     skill.obj
 0003:00007b54       ?dwAutoSummonSkeletonMageLevelAdjust@@3HA 66092b54     skill.obj
 0003:00007b58       ?dwAutoSummonReviveLevelAdjust@@3HA 66092b58     skill.obj
 0003:00007b5c       ?tAutoForegroundSkill2@@3UToggleVar@@A 66092b5c     skill.obj
 0003:0000817c       ?showStatNum@@3HA          6609317c     Snapshot.obj
 0003:00008180       ?szSnapshotPath@@3PADA     66093180     Snapshot.obj
 0003:00008280       ?szSnapshotNamesPath@@3PADA 66093280     Snapshot.obj
 0003:00008380       ?tDoSnapshot@@3UToggleVar@@A 66093380     Snapshot.obj
 0003:000083b0       ?tSnapshot@@3UToggleVar@@A 660933b0     Snapshot.obj
 0003:000083e0       ?tSnapshotNewGame@@3UToggleVar@@A 660933e0     Snapshot.obj
 0003:00008410       ?tSnapshotEndGame@@3UToggleVar@@A 66093410     Snapshot.obj
 0003:00008440       ?tSnapshotLog@@3UToggleVar@@A 66093440     Snapshot.obj
 0003:00008470       ?tSnapshotSaveD2s@@3UToggleVar@@A 66093470     Snapshot.obj
 0003:00008c68       ?tServerTest@@3UToggleVar@@A 66093c68     server.obj
 0003:00008c98       ?tRepeatAdminCmd@@3UToggleVar@@A 66093c98     server.obj
 0003:00008cec       ?fEnableAdminCmd@@3HA      66093cec     server.obj
 0003:00008cf4       ?adminCmdPrefix@@3PADA     66093cf4     server.obj
 0003:000090a4       ?UberMephistoNbMinions@@3HA 660940a4     uber.obj
 0003:000090a8       ?UberMephistoMinions@@3PAHA 660940a8     uber.obj
 0003:000090c0       ?UberMephistoSpawnPercent@@3HA 660940c0     uber.obj
 0003:000090c4       ?UberMephistoSpawnRadius@@3HA 660940c4     uber.obj
 0003:000090c8       ?UberBaalNbMinions@@3HA    660940c8     uber.obj
 0003:000090cc       ?UberBaalMinions@@3PAHA    660940cc     uber.obj
 0003:000090d4       ?UberBaalSpawnPercent@@3HA 660940d4     uber.obj
 0003:000090d8       ?UberBaalSpawnRadius@@3HA  660940d8     uber.obj
 0003:000090dc       ?UberDiabloNbMinions@@3HA  660940dc     uber.obj
 0003:000090e0       ?UberDiabloMinions@@3PAHA  660940e0     uber.obj
 0003:000090e4       ?UberDiabloSpawnPercent@@3HA 660940e4     uber.obj
 0003:000090e8       ?UberDiabloSpawnRadius@@3HA 660940e8     uber.obj
 0003:000090ec       ?uberBaalChillingArmorTimer@@3HA 660940ec     uber.obj
 0003:000091a0       ?szVersion@@3PADA          660941a0     version.obj
 0003:000091a4       ?compileTime@@3PADA        660941a4     version.obj
 0003:000091a8       ___security_cookie         660941a8     LIBCMT:gs_cookie.obj
 0003:000091ac       ___security_cookie_complement 660941ac     LIBCMT:gs_cookie.obj
 0003:000091b0       __iob                      660941b0     LIBCMT:_file.obj
 0003:00009430       __fltused                  66094430     LIBCMT:_fpinit_.obj
 0003:00009434       __ldused                   66094434     LIBCMT:_fpinit_.obj
 0003:00009444       ??_R0?AVbad_alloc@std@@@8  66094444     LIBCMT:new.obj
 0003:00009460       ??_R0?AVexception@std@@@8  66094460     LIBCMT:new.obj
 0003:000094a8       ___initialmbcinfo          660944a8     LIBCMT:mbctype.obj
 0003:000096c8       __mbctype                  660946c8     LIBCMT:mbctype.obj
 0003:000097d0       __mbcasemap                660947d0     LIBCMT:mbctype.obj
 0003:000098d0       ___ptmbcinfo               660948d0     LIBCMT:mbctype.obj
 0003:000099cc       ___globallocalestatus      660949cc     LIBCMT:glstatus.obj
 0003:000099d0       ___clocalestr              660949d0     LIBCMT:nlsdata2.obj
 0003:000099d8       ___initiallocinfo          660949d8     LIBCMT:nlsdata2.obj
 0003:00009ab0       ___ptlocinfo               66094ab0     LIBCMT:nlsdata2.obj
 0003:00009ab4       ___lc_clike                66094ab4     LIBCMT:nlsdata2.obj
 0003:00009ab8       ___initiallocalestructinfo 66094ab8     LIBCMT:nlsdata2.obj
 0003:00009ac0       ___flsindex                66094ac0     LIBCMT:tidtable.obj
 0003:00009ac4       ___getvalueindex           66094ac4     LIBCMT:tidtable.obj
 0003:00009d58       ___nullstring              66094d58     LIBCMT:output.obj
 0003:00009d5c       ___wnullstring             66094d5c     LIBCMT:output.obj
 0003:00009d60       ___badioinfo               66094d60     LIBCMT:ioinit.obj
 0003:00009da0       __amblksiz                 66094da0     LIBCMT:heapinit.obj
 0003:00009db0       __aexit_rtn                66094db0     LIBCMT:crt0dat.obj
 0003:00009db4       __cfltcvt_tab              66094db4     LIBCMT:cmiscdat.obj
 0003:00009e98       __lookuptrailbytes         66094e98     LIBCMT:read.obj
 0003:00009fa0       ??_R0?AVtype_info@@@8      66094fa0     LIBCMT:typinfo.obj
 0003:00009fc0       __indefinite               66094fc0     LIBCMT:_87disp_.obj
 0003:00009fca       __piby2                    66094fca     LIBCMT:_87disp_.obj
 0003:00009ff0       __First_FPE_Indx           66094ff0     LIBCMT:winxfltr.obj
 0003:00009ff4       __Num_FPE                  66094ff4     LIBCMT:winxfltr.obj
 0003:00009ff8       __XcptActTabSize           66094ff8     LIBCMT:winxfltr.obj
 0003:00009ffc       __XcptActTabCount          66094ffc     LIBCMT:winxfltr.obj
 0003:0000a000       __pctype                   66095000     LIBCMT:ctype.obj
 0003:0000a004       __pwctype                  66095004     LIBCMT:ctype.obj
 0003:0000a008       ___lc_time_c               66095008     LIBCMT:strftime.obj
 0003:0000a0c0       ___lc_time_curr            660950c0     LIBCMT:strftime.obj
 0003:0000a0c4       ___lconv_static_decimal    660950c4     LIBCMT:lconv.obj
 0003:0000a0c8       ___lconv_c                 660950c8     LIBCMT:lconv.obj
 0003:0000a0f8       ___lconv                   660950f8     LIBCMT:lconv.obj
 0003:0000a0fc       ___mb_cur_max              660950fc     LIBCMT:nlsdata1.obj
 0003:0000a100       ___decimal_point           66095100     LIBCMT:nlsdata1.obj
 0003:0000a104       ___decimal_point_length    66095104     LIBCMT:nlsdata1.obj
 0003:0000a120       __NLG_Destination          66095120     LIBCMT:exsup.obj
 0003:0000a150       __timezone                 66095150     LIBCMT:timeset.obj
 0003:0000a154       __daylight                 66095154     LIBCMT:timeset.obj
 0003:0000a158       __dstbias                  66095158     LIBCMT:timeset.obj
 0003:0000a1e0       __tzname                   660951e0     LIBCMT:timeset.obj
 0003:0000a1e8       __lpdays                   660951e8     LIBCMT:days.obj
 0003:0000a21c       __days                     6609521c     LIBCMT:days.obj
 0003:0000a250       __coninpfh                 66095250     LIBCMT:initcon.obj
 0003:0000a254       __confh                    66095254     LIBCMT:initcon.obj
 0003:0000a258       ___abort_behavior          66095258     LIBCMT:abort.obj
 0003:0000a378       __matherr_flag             66095378     LIBCMT:_matherr_.obj
 0003:0000a3a0       __pow10pos                 660953a0     LIBCMT:_constpow_.obj
 0003:0000a500       __pow10neg                 66095500     LIBCMT:_constpow_.obj
 0003:0000a660       __d_inf                    66095660     LIBCMT:_util_.obj
 0003:0000a668       __d_ind                    66095668     LIBCMT:_util_.obj
 0003:0000a670       __d_max                    66095670     LIBCMT:_util_.obj
 0003:0000a678       __d_min                    66095678     LIBCMT:_util_.obj
 0003:0000a680       __d_mzero                  66095680     LIBCMT:_util_.obj
 0003:0000a6a0       ?tmpSymbols@@3PAUSymbol@@A 660956a0     config.obj
 0003:0000aaa4       ?logfp@@3PAU_iobuf@@A      66095aa4     config.obj
 0003:0000aaa8       ?tKeyEventMap@@3PAPAUToggleVar@@A 66095aa8     config.obj
 0003:0000cab0       ?warningMsgs@@3PAUWarningMsg@@A 66097ab0     config.obj
 0003:0000cab8       ?pSymbols@@3PAUSymbol@@A   66097ab8     config.obj
 0003:0000cabc       ?nSymbols@@3HA             66097abc     config.obj
 0003:0000cac0       ?capSymbols@@3HA           66097ac0     config.obj
 0003:0000cac4       ?nTmpSymbols@@3HA          66097ac4     config.obj
 0003:0000cac8       ?fSymbolSorted@@3HA        66097ac8     config.obj
 0003:0000cad0       ?configVarCap@@3HA         66097ad0     config.obj
 0003:0000cad4       ?configVarCount@@3HA       66097ad4     config.obj
 0003:0000cad8       ?loadingConfigs@@3PAULoadingConfig@@A 66097ad8     config.obj
 0003:0000cae0       ?hInstDLL@@3PAUHINSTANCE__@@A 66097ae0     DllMain.obj
 0003:0000cae4       ?dllHeap@@3PAXA            66097ae4     DllMain.obj
 0003:0000cae8       ?confHeap@@3PAXA           66097ae8     DllMain.obj
 0003:0000caec       ?gameHeap@@3PAXA           66097aec     DllMain.obj
 0003:0000caf0       ?fIsSinglePlayer@@3HA      66097af0     DllMain.obj
 0003:0000caf4       ?fIsTcpIp@@3HA             66097af4     DllMain.obj
 0003:0000caf8       ?fIsRealmServer@@3HA       66097af8     DllMain.obj
 0003:0000cafc       ?fIsRealmClient@@3HA       66097afc     DllMain.obj
 0003:0000cb00       ?szDllPath@@3PADA          66097b00     DllMain.obj
 0003:0000cc08       ?szPluginPath@@3PADA       66097c08     DllMain.obj
 0003:0000cd10       ?reloadStorage@@3PADA      66097d10     DllMain.obj
 0003:0000cd14       ?reloadStorageSize@@3HA    66097d14     DllMain.obj
 0003:0000cd18       ?storm_pmpq_load_flag@@3PAHA 66097d18     install.obj
 0003:0000cd1c       ?storm_pmpq_crypt_table@@3PAHA 66097d1c     install.obj
 0003:0000cd20       ?storm_regQueryValue@@3P6GHPAD0H0H@ZA 66097d20     install.obj
 0003:0000cd24       ?storm_snprintf@@3P6AHPADHHZZA 66097d24     install.obj
 0003:0000cd28       ?storm_processWinMessage372@@3P6GHHPAUHWND__@@HPAUD2MSG@@@ZA 66097d28     install.obj
 0003:0000cd2c       ?storm_processWinMessage@@3P6GHPAUHWND__@@HHHPAX1@ZA 66097d2c     install.obj
 0003:0000cd30       ?storm_openMpq@@3P6GHPBDHHPAX@ZA 66097d30     install.obj
 0003:0000cd34       ?storm_mpq_open_block@@3P6GHPADPAUmpq_block@@@ZA 66097d34     install.obj
 0003:0000cd38       ?storm_mpq_open_block_from@@3P6GHPAXPADHPAUmpq_block@@@ZA 66097d38     install.obj
 0003:0000cd3c       ?storm_mpq_read_block@@3P6GHPAUmpq_block@@HPADH@ZA 66097d3c     install.obj
 0003:0000cd40       ?storm_mk_abs_path@@3P6GPADPADPAX@ZA 66097d40     install.obj
 0003:0000cd44       ?storm_mpq_hashstring@@3P6GHH@ZA 66097d44     install.obj
 0003:0000cd48       ?storm_mpq_uncompress@@3P6GHPAXPAH0H@ZA 66097d48     install.obj
 0003:0000cd4c       ?fog_Ord10218@@3P6IHXZA    66097d4c     install.obj
 0003:0000cd50       ?fog_getMCPPacket@@3P6GHPAXPADH@ZA 66097d50     install.obj
 0003:0000cd54       ?fog_Ord10089@@3P6IHH@ZA   66097d54     install.obj
 0003:0000cd58       ?fog_uninit@@3P6GHXZA      66097d58     install.obj
 0003:0000cd5c       ?fog_realloc@@3P6IPAXHPAXHPADHH@ZA 66097d5c     install.obj
 0003:0000cd60       ?fog_allocMemory@@3P6IPAXHHPADHH@ZA 66097d60     install.obj
 0003:0000cd64       ?fog_getCriticalSection@@3P6IPAUCriticalSection@@HPADHH@ZA 66097d64     install.obj
 0003:0000cd68       ?fog_setCriticalSection@@3P6IHPAUCriticalSection@@PADHH@ZA 66097d68     install.obj
 0003:0000cd6c       ?fog_freeMemory@@3P6IHHPAXPADHH@ZA 66097d6c     install.obj
 0003:0000cd70       ?fog_Ord10101@@3P6IHHH@ZA  66097d70     install.obj
 0003:0000cd74       ?fog_mpq_open_block@@3P6IHPADPAUmpq_block@@@ZA 66097d74     install.obj
 0003:0000cd78       ?fog_initBitStream@@3P6GPAUFogBits@@PAU1@PADH@ZA 66097d78     install.obj
 0003:0000cd7c       ?fog_writeBitStream@@3P6GXPAUFogBits@@HH@ZA 66097d7c     install.obj
 0003:0000cd80       ?fog_setBit@@3P6GXPAXH@ZA  66097d80     install.obj
 0003:0000cd84       ?fog_clearBit@@3P6GXPAXH@ZA 66097d84     install.obj
 0003:0000cd88       ?fog_getBitStreamBytes@@3P6GHPAUFogBits@@@ZA 66097d88     install.obj
 0003:0000cd8c       ?fog_alignBitStreamToByte@@3P6GHPAUFogBits@@@ZA 66097d8c     install.obj
 0003:0000cd90       ?fog_Ord10019@@3P6IHPADPAX0H@ZA 66097d90     install.obj
 0003:0000cd94       ?fog_FogValidateCriticalSection@@3P6IHPAUCriticalSection@@H@ZA 66097d94     install.obj
 0003:0000cd98       ?fog_reportError@@3P6AXPAXHH@ZA 66097d98     install.obj
 0003:0000cd9c       ?fog_setLogFilePrefix@@3P6IHPAD@ZA 66097d9c     install.obj
 0003:0000cda0       ?fog_getEIP@@3P6GHXZA      66097da0     install.obj
 0003:0000cda4       ?fog_getClientID@@3P6GHPAUClientInfos@@H@ZA 66097da4     install.obj
 0003:0000cda8       ?fog_getClientInfo@@3P6GPAUClientInfo@@PAUClientInfos@@H@ZA 66097da8     install.obj
 0003:0000cdac       ?fog_enableNTFeature@@3P6GHPAH@ZA 66097dac     install.obj
 0003:0000cdb0       ?fog_exit@@3P6GXH@ZA       66097db0     install.obj
 0003:0000cdb4       ?d2win_pDrawHoverY@@3PAHA  66097db4     install.obj
 0003:0000cdb8       ?d2win_pmusic_volumn@@3PAHA 66097db8     install.obj
 0003:0000cdbc       ?d2win_pRunningFlag@@3PAHA 66097dbc     install.obj
 0003:0000cdc0       ?d2win_pclientProcessMessageFunc@@3PAPAXA 66097dc0     install.obj
 0003:0000cdc4       ?d2win_pFocusedControl@@3PAPAUD2EditBox@@A 66097dc4     install.obj
 0003:0000cdc8       ?d2win_pvar_214A0@@3PAPAXA 66097dc8     install.obj
 0003:0000cdcc       ?d2win_DrawMainMenu@@3P6IPAXXZA 66097dcc     install.obj
 0003:0000cdd0       ?d2win_CreateTextBox@@3P6GPAXPAK@ZA 66097dd0     install.obj
 0003:0000cdd4       ?d2win_DestroyListBox@@3P6GXPAUD2EditBox@@@ZA 66097dd4     install.obj
 0003:0000cdd8       ?d2win_processMessage@@3P6GHPAUHWND__@@HHH@ZA 66097dd8     install.obj
 0003:0000cddc       ?d2win_CreateEditBox@@3P6IPAUD2EditBox@@HHHHHHPAUCellFile@@KKKPAX@ZA 66097ddc     install.obj
 0003:0000cde0       ?d2win_DestroyEditBox@@3P6IHPAUD2EditBox@@@ZA 66097de0     install.obj
 0003:0000cde4       ?d2win_AddEditBoxChar@@3P6IKPAUD2EditBox@@E@ZA 66097de4     install.obj
 0003:0000cde8       ?d2win_SetEditBoxText@@3P6IPAXPAUD2EditBox@@PA_W@ZA 66097de8     install.obj
 0003:0000cdec       ?d2win_SetEditBoxProc@@3P6IXPAUD2EditBox@@P6GH0HPAD@Z@ZA 66097dec     install.obj
 0003:0000cdf0       ?d2win_SelectEditBoxText@@3P6IXPAUD2EditBox@@@ZA 66097df0     install.obj
 0003:0000cdf4       ?d2win_GetEditBoxText@@3P6IPA_WPAUD2EditBox@@@ZA 66097df4     install.obj
 0003:0000cdf8       ?d2win_DrawHover@@3P6IXXZA 66097df8     install.obj
 0003:0000cdfc       ?d2win_SetTextFont@@3P6IHH@ZA 66097dfc     install.obj
 0003:0000ce00       ?d2win_DrawText@@3P6IXPA_WJJHH@ZA 66097e00     install.obj
 0003:0000ce04       ?d2win_GetTextPixelLen@@3P6IHPA_W@ZA 66097e04     install.obj
 0003:0000ce08       ?d2win_DrawUnitLifeBar@@3P6IHPA_WJJHKK@ZA 66097e08     install.obj
 0003:0000ce0c       ?d2win_GetTextAreaSize@@3P6IHPA_WPAH1@ZA 66097e0c     install.obj
 0003:0000ce10       ?d2win_DrawHoverText@@3P6IXPA_WJJHH@ZA 66097e10     install.obj
 0003:0000ce14       ?d2win_initMPQ@@3P6IHXZA   66097e14     install.obj
 0003:0000ce18       ?d2win_uninit@@3P6GHXZA    66097e18     install.obj
 0003:0000ce1c       ?d2win_addLineToList@@3P6IXPAUD2EditBox@@PAD@ZA 66097e1c     install.obj
 0003:0000ce20       ?d2win_PrintLineOnTextBox@@3P6IXPAXPADH@ZA 66097e20     install.obj
 0003:0000ce24       ?d2win_setLineEndText@@3P6IXPAUD2EditBox@@PADPAXH@ZA 66097e24     install.obj
 0003:0000ce28       ?d2win_ToggleSound@@3P6GXXZA 66097e28     install.obj
 0003:0000ce2c       ?d2sound_pmusic_volumn@@3PAHA 66097e2c     install.obj
 0003:0000ce30       ?d2sound_get_music_volumn@@3P6AHXZA 66097e30     install.obj
 0003:0000ce34       ?d2sound_set_music_volumn@@3P6IHH@ZA 66097e34     install.obj
 0003:0000ce38       ?d2net_pclientInfos@@3PAPAUClientInfos@@A 66097e38     install.obj
 0003:0000ce3c       ?d2net_pUnkNetFlag@@3PAKA  66097e3c     install.obj
 0003:0000ce40       ?d2net_ppacketSizes@@3PAHA 66097e40     install.obj
 0003:0000ce44       ?d2net_SendPacket@@3P6GXHHPAE@ZA 66097e44     install.obj
 0003:0000ce48       ?d2net_getPacketSize@@3P6IXPADHPAH@ZA 66097e48     install.obj
 0003:0000ce4c       ?d2net_initNetwork@@3P6GHHH@ZA 66097e4c     install.obj
 0003:0000ce50       ?d2net_SendToClient@@3P6GHHHPAXH@ZA 66097e50     install.obj
 0003:0000ce54       ?d2net_uninit@@3P6GHXZA    66097e54     install.obj
 0003:0000ce58       ?d2net_getWorldId@@3P6GHH@ZA 66097e58     install.obj
 0003:0000ce5c       ?d2multi_plastRefreshMs2@@3PAHA 66097e5c     install.obj
 0003:0000ce60       ?d2multi_plastRefreshMs1@@3PAHA 66097e60     install.obj
 0003:0000ce64       ?d2multi_pnGames@@3PAHA    66097e64     install.obj
 0003:0000ce68       ?d2multi_pGameDescription@@3PAPAUD2EditBox@@A 66097e68     install.obj
 0003:0000ce6c       ?d2multi_pGamePassword@@3PAPAUD2EditBox@@A 66097e6c     install.obj
 0003:0000ce70       ?d2multi_pGameName@@3PAPAUD2EditBox@@A 66097e70     install.obj
 0003:0000ce74       ?d2multi_pGameListControl@@3PAPAUD2EditBox@@A 66097e74     install.obj
 0003:0000ce78       ?d2multi_pmcp05_games2@@3PAUMcp05Game@@A 66097e78     install.obj
 0003:0000ce7c       ?d2multi_pEditboxPreferences@@3PAPAXA 66097e7c     install.obj
 0003:0000ce80       ?d2multi_pmcp05_games@@3PAUMcp05Game@@A 66097e80     install.obj
 0003:0000ce84       ?d2multi_reset_games@@3P6GHXZA 66097e84     install.obj
 0003:0000ce88       ?d2multi_add_game@@3P6GHXZA 66097e88     install.obj
 0003:0000ce8c       ?d2multi_show_games@@3P6GHXZA 66097e8c     install.obj
 0003:0000ce90       ?d2multi_num2str@@3P6AHHPADH@ZA 66097e90     install.obj
 0003:0000ce94       ?d2multi_num2str1058@@3P6GHHH@ZA 66097e94     install.obj
 0003:0000ce98       ?d2mcpclient_pmcp05_type@@3PAHA 66097e98     install.obj
 0003:0000ce9c       ?d2mcpclient_pmcp05_gameName2@@3PADA 66097e9c     install.obj
 0003:0000cea0       ?d2mcpclient_pmcp05_gameName@@3PADA 66097ea0     install.obj
 0003:0000cea4       ?d2mcpclient_pmcp05_off08@@3PAHA 66097ea4     install.obj
 0003:0000cea8       ?d2mcpclient_pmcp05_nPlayers@@3PAHA 66097ea8     install.obj
 0003:0000ceac       ?d2mcpclient_pmcp05_idx@@3PAHA 66097eac     install.obj
 0003:0000ceb0       ?d2mcpclient_pmcp05_seqId@@3PAHA 66097eb0     install.obj
 0003:0000ceb4       ?d2mcpclient_pmcp05_buf@@3PAUMcp05Buf@@A 66097eb4     install.obj
 0003:0000ceb8       ?d2mcpclient_pmcpSrc@@3PAPAXA 66097eb8     install.obj
 0003:0000cebc       ?d2mcpclient_pAccountInfo@@3PAUD2AccountInfo@@A 66097ebc     install.obj
 0003:0000cec0       ?d2mcpclient_pmpc05_seqId@@3PAFA 66097ec0     install.obj
 0003:0000cec4       ?d2mcpclient_processOnePacket@@3P6GHXZA 66097ec4     install.obj
 0003:0000cec8       ?d2mcpclient_getMcp05Buf@@3P6GPAUMcp05Buf@@XZA 66097ec8     install.obj
 0003:0000cecc       ?d2mcpclient_mcpPacket05@@3P6IHPAUMCPPacket05@@H@ZA 66097ecc     install.obj
 0003:0000ced0       ?d2launch_pcharCount@@3PAHA 66097ed0     install.obj
 0003:0000ced4       ?d2launch_pD2Characters@@3PAPAUD2Character@@A 66097ed4     install.obj
 0003:0000ced8       ?d2launch_plaunchNumChildren@@3PAHA 66097ed8     install.obj
 0003:0000cedc       ?d2launch_plaunchChildren@@3PAPAXA 66097edc     install.obj
 0003:0000cee0       ?d2launch_pSelectedCharIndex@@3PAHA 66097ee0     install.obj
 0003:0000cee4       ?d2launch_pcreateTextBoxParam11F0@@3PAPAKA 66097ee4     install.obj
 0003:0000cee8       ?d2launch_DeleteCharacter@@3P6IXPAD@ZA 66097ee8     install.obj
 0003:0000ceec       ?d2launch_DeleteSelectedCharacter@@3P6GHH@ZA 66097eec     install.obj
 0003:0000cef0       ?d2launch_sprintf@@3P6AHPAD0ZZA 66097ef0     install.obj
 0003:0000cef4       ?d2lang_plocaleTxtMap20000@@3PAPAUd2lang_map@@A 66097ef4     install.obj
 0003:0000cef8       ?d2lang_plocaleTxtMap10000@@3PAPAUd2lang_map@@A 66097ef8     install.obj
 0003:0000cefc       ?d2lang_plocaleTxt20000@@3PAPAPA_WA 66097efc     install.obj
 0003:0000cf00       ?d2lang_plocaleTxt10000@@3PAPAPA_WA 66097f00     install.obj
 0003:0000cf04       ?d2lang_plocaleTxt0@@3PAPAPA_WA 66097f04     install.obj
 0003:0000cf08       ?d2lang_plocaleTxtMap0@@3PAPAUd2lang_map@@A 66097f08     install.obj
 0003:0000cf0c       ?d2lang_strcat@@3P6IPA_WPA_W0@ZA 66097f0c     install.obj
 0003:0000cf10       ?d2lang_initLanguage@@3P6IHHPADH@ZA 66097f10     install.obj
 0003:0000cf14       ?d2lang_uninit@@3P6GHXZA   66097f14     install.obj
 0003:0000cf18       ?d2lang_GetLocaleText@@3P6IPA_WH@ZA 66097f18     install.obj
 0003:0000cf1c       ?d2lang_getLocalText9050@@3P6GPA_WPAPA_W@ZA 66097f1c     install.obj
 0003:0000cf20       ?d2gfx_pWinState@@3PAHA    66097f20     install.obj
 0003:0000cf24       ?d2gfx_pDrawGoundH1@@3PAHA 66097f24     install.obj
 0003:0000cf28       ?d2gfx_pDrawGoundH2@@3PAHA 66097f28     install.obj
 0003:0000cf2c       ?d2gfx_pcallbackTable@@3PAPAXA 66097f2c     install.obj
 0003:0000cf30       ?d2gfx_pResolutionMode@@3PAHA 66097f30     install.obj
 0003:0000cf34       ?d2gfx_DrawRectangle@@3P6GXJJJJHH@ZA 66097f34     install.obj
 0003:0000cf38       ?d2gfx_DrawLine@@3P6GXHHHHHH@ZA 66097f38     install.obj
 0003:0000cf3c       ?d2gfx_getResolutionMode@@3P6GHXZA 66097f3c     install.obj
 0003:0000cf40       ?d2gfx_DrawCellFile@@3P6GHPAUCellContext@@HHKHPAE@ZA 66097f40     install.obj
 0003:0000cf44       ?d2gfx_drawSomething@@3P6GXPAXHHHHH@ZA 66097f44     install.obj
 0003:0000cf48       ?d2gfx_FillOrb@@3P6GXHHHHHH@ZA 66097f48     install.obj
 0003:0000cf4c       ?d2gfx_DrawAutomapNode@@3P6GXPAUCellContext@@HHPAUtagRECT@@K@ZA 66097f4c     install.obj
 0003:0000cf50       ?d2gfx_drawShadow@@3P6GXPAXHH@ZA 66097f50     install.obj
 0003:0000cf54       ?d2gfx_clearFramebuf@@3P6GXHHHH@ZA 66097f54     install.obj
 0003:0000cf58       ?d2gfx_flushFramebuf@@3P6GXXZA 66097f58     install.obj
 0003:0000cf5c       ?d2gfx_Ordinal10043@@3P6GXXZA 66097f5c     install.obj
 0003:0000cf60       ?d2gfx_MinimizeWindows@@3P6GXK@ZA 66097f60     install.obj
 0003:0000cf64       ?d2gfx_GetHwnd@@3P6GPAUHWND__@@XZA 66097f64     install.obj
 0003:0000cf68       ?d2gfx_drawGroundPiece@@3P6GXPAX0HHHHHHH@ZA 66097f68     install.obj
 0003:0000cf6c       ?d2gdi_pcriticalSection@@3PAPAUCriticalSection@@A 66097f6c     install.obj
 0003:0000cf70       ?d2gdi_pFrameBuf@@3PAPAXA  66097f70     install.obj
 0003:0000cf74       ?d2gdi_pDisplayRight@@3PAHA 66097f74     install.obj
 0003:0000cf78       ?d2gdi_pFrameBufHeight@@3PAHA 66097f78     install.obj
 0003:0000cf7c       ?d2gdi_pgdiobj@@3PAPAXA    66097f7c     install.obj
 0003:0000cf80       ?d2gdi_ppalette@@3PAPAUHPALETTE__@@A 66097f80     install.obj
 0003:0000cf84       ?d2gdi_pFrameBufWidth@@3PAHA 66097f84     install.obj
 0003:0000cf88       ?d2gdi_phwnd@@3PAPAUHWND__@@A 66097f88     install.obj
 0003:0000cf8c       ?d2gdi_pColorMap@@3PAHA    66097f8c     install.obj
 0003:0000cf90       ?d2gdi_initCriticalSection@@3P6IHPAX0@ZA 66097f90     install.obj
 0003:0000cf94       ?d2game_pDropChioceProb@@3PAHA 66097f94     install.obj
 0003:0000cf98       ?d2game_pDropChioces@@3PAHA 66097f98     install.obj
 0003:0000cf9c       ?d2game_pworldHash@@3PAPAUWorldHash@@A 66097f9c     install.obj
 0003:0000cfa0       ?d2game_pcriticalSection@@3PAUCriticalSection@@A 66097fa0     install.obj
 0003:0000cfa4       ?d2game_pSPUnitOffsets@@3PAHA 66097fa4     install.obj
 0003:0000cfa8       ?d2game_psgptDataTables@@3PAPAUD2DataTables@@A 66097fa8     install.obj
 0003:0000cfac       ?d2game_MonsterMove@@3P6IXPAUWorld@@PAUUnitAny@@1HHHHH@ZA 66097fac     install.obj
 0003:0000cfb0       ?d2game_MonsterUseSkill@@3P6IXPAUWorld@@PAUUnitAny@@HH1HH@ZA 66097fb0     install.obj
 0003:0000cfb4       ?d2game_SpawnMonster@@3P6IPAUUnitAny@@HHPAUWorld@@PAUAreaRectData@@HHHH@ZA 66097fb4     install.obj
 0003:0000cfb8       ?d2game_SpawnMonsterEF10@@3P6IPAUUnitAny@@PAUSpawnMon@@@ZA 66097fb8     install.obj
 0003:0000cfbc       ?d2game_MakeD2S@@3P6IHPAUUnitAny@@PAUWorld@@PADPAHHHH@ZA 66097fbc     install.obj
 0003:0000cfc0       ?d2game_playerUpgrade@@3P6GHPAUWorld@@@ZA 66097fc0     install.obj
 0003:0000cfc4       ?d2game_CreateUnit@@3P6IPAUUnitAny@@HHHHPAUWorld@@PAUAreaRectData@@HHH@ZA 66097fc4     install.obj
 0003:0000cfc8       ?d2game_GetUnit@@3P6IHPAUWorld@@H@ZA 66097fc8     install.obj
 0003:0000cfcc       ?d2game_isUnitDead@@3P6GHXZA 66097fcc     install.obj
 0003:0000cfd0       ?d2game_swapWeapon@@3P6GHPAUWorld@@PAH@ZA 66097fd0     install.obj
 0003:0000cfd4       ?d2game_pickupItem@@3P6GHHPAH@ZA 66097fd4     install.obj
 0003:0000cfd8       ?d2game_putItemInSocketD4A70@@3P6GHPAUWorld@@PAUUnitAny@@HPAHHHHH@ZA 66097fd8     install.obj
 0003:0000cfdc       ?d2game_recv19_invToHand@@3P6IHPAUWorld@@PAUUnitAny@@PADH@ZA 66097fdc     install.obj
 0003:0000cfe0       ?d2game_recv16_pickup@@3P6IHPAUWorld@@PAUUnitAny@@PADH@ZA 66097fe0     install.obj
 0003:0000cfe4       ?d2game_pickup@@3P6IHPAUWorld@@HPAUUnitAny@@H@ZA 66097fe4     install.obj
 0003:0000cfe8       ?d2game_recv60_swapWeapon@@3P6IHPAUWorld@@PAUUnitAny@@PADH@ZA 66097fe8     install.obj
 0003:0000cfec       ?d2game_recv1A_handToBody@@3P6IHPAUWorld@@PAUUnitAny@@PADH@ZA 66097fec     install.obj
 0003:0000cff0       ?d2game_recv28_socket@@3P6IHPAUWorld@@PAUUnitAny@@PADH@ZA 66097ff0     install.obj
 0003:0000cff4       ?d2game_itemNotInInv@@3P6IHHHPAUUnitAny@@@ZA 66097ff4     install.obj
 0003:0000cff8       ?d2game_processPacket@@3P6GHPAUWorld@@H@ZA 66097ff8     install.obj
 0003:0000cffc       ?d2game_recv40_quest@@3P6IHPAUWorld@@PAUUnitAny@@PADH@ZA 66097ffc     install.obj
 0003:0000d000       ?d2game_passClassicB9F20@@3P6IHPAUWorld@@PAUUnitAny@@H@ZA 66098000     install.obj
 0003:0000d004       ?d2game_passClassicB9A30@@3P6IHXZA 66098004     install.obj
 0003:0000d008       ?d2game_BaalAI@@3P6IXPAUWorld@@PAUUnitAny@@PAX@ZA 66098008     install.obj
 0003:0000d00c       ?d2game_UberBaalAI@@3P6IXPAUWorld@@PAUUnitAny@@PAX@ZA 6609800c     install.obj
 0003:0000d010       ?d2game_DiabloAI@@3P6IXPAUWorld@@PAUUnitAny@@PAX@ZA 66098010     install.obj
 0003:0000d014       ?d2game_UberDiabloAI@@3P6IXPAUWorld@@PAUUnitAny@@PAX@ZA 66098014     install.obj
 0003:0000d018       ?d2game_NecSummon@@3P6IPAUUnitAny@@XZA 66098018     install.obj
 0003:0000d01c       ?d2game_LinkPortal@@3P6GPAUUnitAny@@PAUWorld@@PAU1@HH@ZA 6609801c     install.obj
 0003:0000d020       ?d2game_fun_8EBC0@@3P6GHPAUWorld@@PAX@ZA 66098020     install.obj
 0003:0000d024       ?d2game_SetSkillBaseLevelOnClient@@3P6IXPAXPAUUnitAny@@HHH@ZA 66098024     install.obj
 0003:0000d028       ?d2game_sendPacket@@3P6GHPADH@ZA 66098028     install.obj
 0003:0000d02c       ?d2game_MephAI@@3P6IXPAUWorld@@PAUUnitAny@@PAX@ZA 6609802c     install.obj
 0003:0000d030       ?d2game_UberMephAI@@3P6IXPAUWorld@@PAUUnitAny@@PAX@ZA 66098030     install.obj
 0003:0000d034       ?d2game_fun_769A0@@3P6GHPAUWorld@@HH@ZA 66098034     install.obj
 0003:0000d038       ?d2game_OpenPandPortal@@3P6IXPAUWorld@@PAUUnitAny@@@ZA 66098038     install.obj
 0003:0000d03c       ?d2game_OpenPandFinalPortal@@3P6IXPAUWorld@@PAUUnitAny@@@ZA 6609803c     install.obj
 0003:0000d040       ?d2game_passExpansion599E0@@3P6IXPAUWorld@@PAUUnitAny@@H@ZA 66098040     install.obj
 0003:0000d044       ?d2game_passExpansion58BE0@@3P6IXPAUUnitAny@@@ZA 66098044     install.obj
 0003:0000d048       ?d2game_fun_4E2A0@@3P6IXPAUWorld@@PAUUnitAny@@H@ZA 66098048     install.obj
 0003:0000d04c       ?d2game_getNetClient@@3P6IPAUNetClient@@H@ZA 6609804c     install.obj
 0003:0000d050       ?d2game_processClientQuestReq@@3P6GHPAUWorld@@PAUUnitAny@@@ZA 66098050     install.obj
 0003:0000d054       ?d2game_sendQuestToClient@@3P6GHPAUWorld@@@ZA 66098054     install.obj
 0003:0000d058       ?d2game_processGame@@3P6GHXZA 66098058     install.obj
 0003:0000d05c       ?d2game_isBusy@@3P6GHH@ZA  6609805c     install.obj
 0003:0000d060       ?d2game_Ord10024@@3P6GHHH@ZA 66098060     install.obj
 0003:0000d064       ?d2game_endAllGames@@3P6AHH@ZA 66098064     install.obj
 0003:0000d068       ?d2game_Ord10038@@3P6GHXZA 66098068     install.obj
 0003:0000d06c       ?d2game_SendDatabaseCharacter@@3P6GHHPAXHHHHPAUPlayerInfo@@H@ZA 6609806c     install.obj
 0003:0000d070       ?d2game_removeClientFromGame@@3P6GHH@ZA 66098070     install.obj
 0003:0000d074       ?d2game_SaveGame@@3P6GXPAUWorld@@@ZA 66098074     install.obj
 0003:0000d078       ?d2game_NewEmptyGame@@3P6GHPAD00HDDDPAF@ZA 66098078     install.obj
 0003:0000d07c       ?d2game_getWorld@@3P6GPAUWorld@@XZA 6609807c     install.obj
 0003:0000d080       ?d2game_getWorldByID@@3P6GPAUWorld@@H@ZA 66098080     install.obj
 0003:0000d084       ?d2game_uninit@@3P6GHXZA   66098084     install.obj
 0003:0000d088       ?d2game_setWorldHash@@3P6GHPAUWorldHash@@PAH@ZA 66098088     install.obj
 0003:0000d08c       ?d2game_initCallbackTable@@3P6GHPAX@ZA 6609808c     install.obj
 0003:0000d090       ?d2game_SpawnSuperUnique@@3P6IHPAUWorld@@PAUAreaRectData@@HHHHHH@ZA 66098090     install.obj
 0003:0000d094       ?d2game_Game235C0@@3P6GXPAUWorld@@PAUAreaRectData@@@ZA 66098094     install.obj
 0003:0000d098       ?d2game_DropItem1880@@3P6GXPAUWorld@@HHHH@ZA 66098098     install.obj
 0003:0000d09c       ?d2game_DropItem1490@@3P6GPAUUnitAny@@PAUWorld@@PAXH@ZA 6609809c     install.obj
 0003:0000d0a0       ?d2game_GetFreeXY@@3P6GPAUAreaRectData@@PAU1@PAUtagPOINT@@H@ZA 660980a0     install.obj
 0003:0000d0a4       ?d2game_GetUnitLevel@@3P6GHH@ZA 660980a4     install.obj
 0003:0000d0a8       ?d2game_hasDroppedUnique@@3P6IHH@ZA 660980a8     install.obj
 0003:0000d0ac       ?d2game_exit@@3P6GHH@ZA    660980ac     install.obj
 0003:0000d0b0       ?d2game_getWorld_2130@@3P6GPAUWorld@@XZA 660980b0     install.obj
 0003:0000d0b4       ?d2game_TestPosition@@3P6IPAUAreaRectData@@XZA 660980b4     install.obj
 0003:0000d0b8       ?d2game_random@@3P6IHPAUD2Seed@@@ZA 660980b8     install.obj
 0003:0000d0bc       ?d2common_pnCubeMain@@3PAHA 660980bc     install.obj
 0003:0000d0c0       ?d2common_ppCubeMainTxt@@3PAPAXA 660980c0     install.obj
 0003:0000d0c4       ?d2common_pnMapCache@@3PAHA 660980c4     install.obj
 0003:0000d0c8       ?d2common_ppMapCache@@3PAPAXA 660980c8     install.obj
 0003:0000d0cc       ?d2common_ppLvlSubCache@@3PAPAXA 660980cc     install.obj
 0003:0000d0d0       ?d2common_pnLvlSub@@3PAHA  660980d0     install.obj
 0003:0000d0d4       ?d2common_ppLvlSubTxt@@3PAPAXA 660980d4     install.obj
 0003:0000d0d8       ?d2common_pnLvlMaze@@3PAHA 660980d8     install.obj
 0003:0000d0dc       ?d2common_ppLvlMazeTxt@@3PAPAXA 660980dc     install.obj
 0003:0000d0e0       ?d2common_pnLvlWarp@@3PAHA 660980e0     install.obj
 0003:0000d0e4       ?d2common_ppLvlWarpTxt@@3PAPAXA 660980e4     install.obj
 0003:0000d0e8       ?d2common_pnLvlTypes@@3PAHA 660980e8     install.obj
 0003:0000d0ec       ?d2common_pnWaypoints@@3PAHA 660980ec     install.obj
 0003:0000d0f0       ?d2common_ppWaypoints@@3PAPAXA 660980f0     install.obj
 0003:0000d0f4       ?d2common_ppLvlTypesTxt@@3PAPAXA 660980f4     install.obj
 0003:0000d0f8       ?d2common_ppArenaTxt@@3PAPAXA 660980f8     install.obj
 0003:0000d0fc       ?d2common_pnCharTemplate@@3PAHA 660980fc     install.obj
 0003:0000d100       ?d2common_ppCharTemplateTxt@@3PAPAXA 66098100     install.obj
 0003:0000d104       ?d2common_pnLvlSubExtraStuff@@3PAHA 66098104     install.obj
 0003:0000d108       ?d2common_ppLvlSubExtraStuff@@3PAPAXA 66098108     install.obj
 0003:0000d10c       ?d2common_pExpFieldRuntimeData@@3PAPAXA 6609810c     install.obj
 0003:0000d110       ?d2common_ppExpFieldD2@@3PAPAXA 66098110     install.obj
 0003:0000d114       ?d2common_pnDifficultyLevels@@3PAHA 66098114     install.obj
 0003:0000d118       ?d2common_ppDifficultyLevelsTxt@@3PAPAXA 66098118     install.obj
 0003:0000d11c       ?d2common_ppExperienceTxt@@3PAPAXA 6609811c     install.obj
 0003:0000d120       ?d2common_ppAnimTables@@3PAPAXA 66098120     install.obj
 0003:0000d124       ?d2common_pItemStatCostStuff@@3PAPAXA 66098124     install.obj
 0003:0000d128       ?d2common_pnLvlPrest@@3PAHA 66098128     install.obj
 0003:0000d12c       ?d2common_ppLvlPrestTxt@@3PAPAXA 6609812c     install.obj
 0003:0000d130       ?d2common_ppLvlDefsBin@@3PAPAXA 66098130     install.obj
 0003:0000d134       ?d2common_pnLevels@@3PAHA  66098134     install.obj
 0003:0000d138       ?d2common_ppLevelsTxt@@3PAPAXA 66098138     install.obj
 0003:0000d13c       ?d2common_pnMonUMod@@3PAHA 6609813c     install.obj
 0003:0000d140       ?d2common_ppMonUModTxt@@3PAPAXA 66098140     install.obj
 0003:0000d144       ?d2common_ppMonUModLink@@3PAPAXA 66098144     install.obj
 0003:0000d148       ?d2common_pnMonTypeNesting@@3PAHA 66098148     install.obj
 0003:0000d14c       ?d2common_ppMonTypeNesting@@3PAPAXA 6609814c     install.obj
 0003:0000d150       ?d2common_pnMonType@@3PAHA 66098150     install.obj
 0003:0000d154       ?d2common_ppMonTypeTxt@@3PAPAXA 66098154     install.obj
 0003:0000d158       ?d2common_ppMonTypeLink@@3PAPAXA 66098158     install.obj
 0003:0000d15c       ?d2common_pnMonProp@@3PAHA 6609815c     install.obj
 0003:0000d160       ?d2common_ppMonPropTxt@@3PAPAXA 66098160     install.obj
 0003:0000d164       ?d2common_ppMonPropLink@@3PAPAXA 66098164     install.obj
 0003:0000d168       ?d2common_pnUniqueItems@@3PAHA 66098168     install.obj
 0003:0000d16c       ?d2common_ppUniqueItemsTxt@@3PAPAXA 6609816c     install.obj
 0003:0000d170       ?d2common_ppUniqueItemsLink@@3PAPAXA 66098170     install.obj
 0003:0000d174       ?d2common_pnSetItems@@3PAHA 66098174     install.obj
 0003:0000d178       ?d2common_ppSetItemsTxt@@3PAPAXA 66098178     install.obj
 0003:0000d17c       ?d2common_ppSetItemsLink@@3PAPAXA 6609817c     install.obj
 0003:0000d180       ?d2common_pnSets@@3PAHA    66098180     install.obj
 0003:0000d184       ?d2common_ppSetsTxt@@3PAPAXA 66098184     install.obj
 0003:0000d188       ?d2common_ppSetsLink@@3PAPAXA 66098188     install.obj
 0003:0000d18c       ?d2common_ppItemTypeNesting@@3PAPAXA 6609818c     install.obj
 0003:0000d190       ?d2common_pnItemTypeNesting@@3PAHA 66098190     install.obj
 0003:0000d194       ?d2common_pnItemTypes@@3PAHA 66098194     install.obj
 0003:0000d198       ?d2common_ppItemTypesTxt@@3PAPAXA 66098198     install.obj
 0003:0000d19c       ?d2common_ppItemTypesLink@@3PAPAXA 6609819c     install.obj
 0003:0000d1a0       ?d2common_pnPetTypes@@3PAHA 660981a0     install.obj
 0003:0000d1a4       ?d2common_ppPetTypesLink@@3PAPAXA 660981a4     install.obj
 0003:0000d1a8       ?d2common_ppPetTypesTxt@@3PAPAXA 660981a8     install.obj
 0003:0000d1ac       ?d2common_pnMonEquip@@3PAHA 660981ac     install.obj
 0003:0000d1b0       ?d2common_ppMonEquipTxt@@3PAPAXA 660981b0     install.obj
 0003:0000d1b4       ?d2common_pnOpStatNesting@@3PAHA 660981b4     install.obj
 0003:0000d1b8       ?d2common_ppOpStatNesting@@3PAPAXA 660981b8     install.obj
 0003:0000d1bc       ?d2common_pnItemStatCost@@3PAHA 660981bc     install.obj
 0003:0000d1c0       ?d2common_ppItemStatCostLink@@3PAPAXA 660981c0     install.obj
 0003:0000d1c4       ?d2common_ppItemStatCostTxt@@3PAPAUItemStatCostTxt@@A 660981c4     install.obj
 0003:0000d1c8       ?d2common_pnCharStats@@3PAHA 660981c8     install.obj
 0003:0000d1cc       ?d2common_ppCharStatsTxt@@3PAPAXA 660981cc     install.obj
 0003:0000d1d0       ?d2common_pnOverlay@@3PAHA 660981d0     install.obj
 0003:0000d1d4       ?d2common_ppOverlayLink@@3PAPAXA 660981d4     install.obj
 0003:0000d1d8       ?d2common_ppOverlayTxt@@3PAPAXA 660981d8     install.obj
 0003:0000d1dc       ?d2common_ppPassiveSkillList@@3PAPAXA 660981dc     install.obj
 0003:0000d1e0       ?d2common_pnPassiveSkillCount@@3PAHA 660981e0     install.obj
 0003:0000d1e4       ?d2common_ppPlayerSkillList@@3PAPAXA 660981e4     install.obj
 0003:0000d1e8       ?d2common_pnPlayerSkillCount@@3PAHA 660981e8     install.obj
 0003:0000d1ec       ?d2common_ppPlayerSkillCount@@3PAPAXA 660981ec     install.obj
 0003:0000d1f0       ?d2common_pnSkills@@3PAHA  660981f0     install.obj
 0003:0000d1f4       ?d2common_ppSkillsLink@@3PAPAXA 660981f4     install.obj
 0003:0000d1f8       ?d2common_ppSkillsTxt@@3PAPAXA 660981f8     install.obj
 0003:0000d1fc       ?d2common_pnSkillDesc@@3PAHA 660981fc     install.obj
 0003:0000d200       ?d2common_ppSkillDescLink@@3PAPAXA 66098200     install.obj
 0003:0000d204       ?d2common_ppSkillDescTxt@@3PAPAXA 66098204     install.obj
 0003:0000d208       ?d2common_pnMonSequences@@3PAHA 66098208     install.obj
 0003:0000d20c       ?d2common_ppMonSequences@@3PAPAXA 6609820c     install.obj
 0003:0000d210       ?d2common_pnMonSeq@@3PAHA  66098210     install.obj
 0003:0000d214       ?d2common_ppMonSeqLink@@3PAPAXA 66098214     install.obj
 0003:0000d218       ?d2common_ppMonSeqTxt@@3PAPAXA 66098218     install.obj
 0003:0000d21c       ?d2common_pnMonLvl@@3PAHA  6609821c     install.obj
 0003:0000d220       ?d2common_ppMonLvlTxt@@3PAPAXA 66098220     install.obj
 0003:0000d224       ?d2common_pnMissiles@@3PAHA 66098224     install.obj
 0003:0000d228       ?d2common_ppMissilesLink@@3PAPAXA 66098228     install.obj
 0003:0000d22c       ?d2common_ppMissilesTxt@@3PAPAXA 6609822c     install.obj
 0003:0000d230       ?d2common_pSuperUniqueHcIdxList@@3PAPAXA 66098230     install.obj
 0003:0000d234       ?d2common_pnSuperUniques@@3PAHA 66098234     install.obj
 0003:0000d238       ?d2common_ppSuperUniquesLink@@3PAPAXA 66098238     install.obj
 0003:0000d23c       ?d2common_ppSuperUniquesTxt@@3PAPAXA 6609823c     install.obj
 0003:0000d240       ?d2common_pnMonPresetEachAct@@3PAHA 66098240     install.obj
 0003:0000d244       ?d2common_ppMonPresetActList@@3PAPAXA 66098244     install.obj
 0003:0000d248       ?d2common_ppMonPresetTxt@@3PAPAXA 66098248     install.obj
 0003:0000d24c       ?d2common_pnMonPlace@@3PAHA 6609824c     install.obj
 0003:0000d250       ?d2common_ppMonPlaceLink@@3PAPAXA 66098250     install.obj
 0003:0000d254       ?d2common_ppMonPlaceTxt@@3PAPAXA 66098254     install.obj
 0003:0000d258       ?d2common_pnMonStats2@@3PAHA 66098258     install.obj
 0003:0000d25c       ?d2common_ppMonStats2Link@@3PAPAXA 6609825c     install.obj
 0003:0000d260       ?d2common_ppMonStats2Txt@@3PAPAXA 66098260     install.obj
 0003:0000d264       ?d2common_pnMonSounds@@3PAHA 66098264     install.obj
 0003:0000d268       ?d2common_ppMonSoundsLink@@3PAPAXA 66098268     install.obj
 0003:0000d26c       ?d2common_ppMonSoundsTxt@@3PAPAXA 6609826c     install.obj
 0003:0000d270       ?d2common_pnMonStats@@3PAHA 66098270     install.obj
 0003:0000d274       ?d2common_ppMonStatsLink@@3PAPAXA 66098274     install.obj
 0003:0000d278       ?d2common_ppMonStatsTxt@@3PAPAXA 66098278     install.obj
 0003:0000d27c       ?d2common_ppChestTreasureClassList@@3PAPAXA 6609827c     install.obj
 0003:0000d280       ?d2common_pnTreasureClassEx@@3PAHA 66098280     install.obj
 0003:0000d284       ?d2common_ppTreasureClassExTxt@@3PAPAXA 66098284     install.obj
 0003:0000d288       ?d2common_ppTreasureClassExLink@@3PAPAXA 66098288     install.obj
 0003:0000d28c       ?d2common_ppColorsLink@@3PAPAXA 6609828c     install.obj
 0003:0000d290       ?d2common_ppColorsTxt@@3PAPAXA 66098290     install.obj
 0003:0000d294       ?d2common_pnNpcs@@3PAHA    66098294     install.obj
 0003:0000d298       ?d2common_ppNpcsTxt@@3PAPAXA 66098298     install.obj
 0003:0000d29c       ?d2common_pHireNameListEnd@@3PAPAXA 6609829c     install.obj
 0003:0000d2a0       ?d2common_pHireNameListStart@@3PAPAXA 660982a0     install.obj
 0003:0000d2a4       ?d2common_pnHirelings@@3PAHA 660982a4     install.obj
 0003:0000d2a8       ?d2common_ppHirelingsTxt@@3PAPAXA 660982a8     install.obj
 0003:0000d2ac       ?d2common_pnSoundCodes@@3PAHA 660982ac     install.obj
 0003:0000d2b0       ?d2common_ppSoundCodesLink@@3PAPAXA 660982b0     install.obj
 0003:0000d2b4       ?d2common_ppSoundCodesBin@@3PAPAXA 660982b4     install.obj
 0003:0000d2b8       ?d2common_pnColorStates@@3PAHA 660982b8     install.obj
 0003:0000d2bc       ?d2common_ppColorStates@@3PAPAXA 660982bc     install.obj
 0003:0000d2c0       ?d2common_pnActionStates@@3PAHA 660982c0     install.obj
 0003:0000d2c4       ?d2common_ppActionStates@@3PAPAXA 660982c4     install.obj
 0003:0000d2c8       ?d2common_pnTransformStates@@3PAHA 660982c8     install.obj
 0003:0000d2cc       ?d2common_ppTransformStates@@3PAPAXA 660982cc     install.obj
 0003:0000d2d0       ?d2common_pnCurseStates@@3PAHA 660982d0     install.obj
 0003:0000d2d4       ?d2common_ppCurseStates@@3PAPAXA 660982d4     install.obj
 0003:0000d2d8       ?d2common_pnProgressiveStates@@3PAHA 660982d8     install.obj
 0003:0000d2dc       ?d2common_ppProgressiveStates@@3PAPAXA 660982dc     install.obj
 0003:0000d2e0       ?d2common_ppStateMaskArray@@3PAPAXA 660982e0     install.obj
 0003:0000d2e4       ?d2common_ppStateMaskFirst@@3PAPAXA 660982e4     install.obj
 0003:0000d2e8       ?d2common_pnStates@@3PAHA  660982e8     install.obj
 0003:0000d2ec       ?d2common_ppStatesLink@@3PAPAXA 660982ec     install.obj
 0003:0000d2f0       ?d2common_ppStatesTxt@@3PAPAXA 660982f0     install.obj
 0003:0000d2f4       ?d2common_ppHireDescLink@@3PAPAXA 660982f4     install.obj
 0003:0000d2f8       ?d2common_ppHireDescTxt@@3PAPAXA 660982f8     install.obj
 0003:0000d2fc       ?d2common_ppRunesLink@@3PAPAXA 660982fc     install.obj
 0003:0000d300       ?d2common_pnProperties@@3PAHA 66098300     install.obj
 0003:0000d304       ?d2common_ppPropertiesLink@@3PAPAXA 66098304     install.obj
 0003:0000d308       ?d2common_ppPropertiesTxt@@3PAPAXA 66098308     install.obj
 0003:0000d30c       ?d2common_pnItemCalcCacheDelta@@3PAHA 6609830c     install.obj
 0003:0000d310       ?d2common_pnItemCalcCache@@3PAHA 66098310     install.obj
 0003:0000d314       ?d2common_ppItemCalcCache@@3PAPAXA 66098314     install.obj
 0003:0000d318       ?d2common_ppItemLink@@3PAPAXA 66098318     install.obj
 0003:0000d31c       ?d2common_pnMonAi@@3PAHA   6609831c     install.obj
 0003:0000d320       ?d2common_ppMonAiLink@@3PAPAXA 66098320     install.obj
 0003:0000d324       ?d2common_ppMonAiTxt@@3PAPAXA 66098324     install.obj
 0003:0000d328       ?d2common_pnCompCodes@@3PAHA 66098328     install.obj
 0003:0000d32c       ?d2common_ppCompCodesLink@@3PAPAXA 6609832c     install.obj
 0003:0000d330       ?d2common_ppCompCodesTxt@@3PAPAXA 66098330     install.obj
 0003:0000d334       ?d2common_ppEventsLink@@3PAPAXA 66098334     install.obj
 0003:0000d338       ?d2common_ppEventsTxt@@3PAPAXA 66098338     install.obj
 0003:0000d33c       ?d2common_ppSkillCodesLink@@3PAPAXA 6609833c     install.obj
 0003:0000d340       ?d2common_ppSkillCodesBin@@3PAPAXA 66098340     install.obj
 0003:0000d344       ?d2common_pnMissCalcCacheDelta@@3PAHA 66098344     install.obj
 0003:0000d348       ?d2common_pnMissCalcCache@@3PAHA 66098348     install.obj
 0003:0000d34c       ?d2common_ppMissCalcCache@@3PAPAXA 6609834c     install.obj
 0003:0000d350       ?d2common_ppMissCalcLink@@3PAPAXA 66098350     install.obj
 0003:0000d354       ?d2common_ppMissCalcTxt@@3PAPAXA 66098354     install.obj
 0003:0000d358       ?d2common_pnSkillDescCalcCacheDelta@@3PAHA 66098358     install.obj
 0003:0000d35c       ?d2common_pnSkillDescCalcCache@@3PAHA 6609835c     install.obj
 0003:0000d360       ?d2common_ppSkillDescCalcCache@@3PAPAXA 66098360     install.obj
 0003:0000d364       ?d2common_pnSkillCalcCacheDelta@@3PAHA 66098364     install.obj
 0003:0000d368       ?d2common_pnSkillCalcCache@@3PAHA 66098368     install.obj
 0003:0000d36c       ?d2common_ppSkillCalcCache@@3PAPAXA 6609836c     install.obj
 0003:0000d370       ?d2common_ppSkillCalcLink@@3PAPAXA 66098370     install.obj
 0003:0000d374       ?d2common_ppSkillCalcTxt@@3PAPAXA 66098374     install.obj
 0003:0000d378       ?d2common_ppPlrModeLink@@3PAPAXA 66098378     install.obj
 0003:0000d37c       ?d2common_ppPlrModeTxt@@3PAPAXA 6609837c     install.obj
 0003:0000d380       ?d2common_ppMonModeLink@@3PAPAXA 66098380     install.obj
 0003:0000d384       ?d2common_ppMonModeTxt@@3PAPAXA 66098384     install.obj
 0003:0000d388       ?d2common_ppHitClassLink@@3PAPAXA 66098388     install.obj
 0003:0000d38c       ?d2common_ppHitClassTxt@@3PAPAXA 6609838c     install.obj
 0003:0000d390       ?d2common_ppElemTypesLink@@3PAPAXA 66098390     install.obj
 0003:0000d394       ?d2common_ppElemTypesTxt@@3PAPAXA 66098394     install.obj
 0003:0000d398       ?d2common_ppStorePageLink@@3PAPAXA 66098398     install.obj
 0003:0000d39c       ?d2common_ppStorePageTxt@@3PAPAXA 6609839c     install.obj
 0003:0000d3a0       ?d2common_ppBodyLocsLink@@3PAPAXA 660983a0     install.obj
 0003:0000d3a4       ?d2common_ppBodyLocsTxt@@3PAPAXA 660983a4     install.obj
 0003:0000d3a8       ?d2common_ppPlayerClassLink@@3PAPAXA 660983a8     install.obj
 0003:0000d3ac       ?d2common_ppPlayerClassTxt@@3PAPAXA 660983ac     install.obj
 0003:0000d3b0       ?d2common_pRuneWordTxt@@3PAPAURuneWordTxt@@A 660983b0     install.obj
 0003:0000d3b4       ?d2common_pRuneWords@@3PAHA 660983b4     install.obj
 0003:0000d3b8       ?d2common_pArmorTxts@@3PAHA 660983b8     install.obj
 0003:0000d3bc       ?d2common_pWeaponsTxts@@3PAHA 660983bc     install.obj
 0003:0000d3c0       ?d2common_pItemTxts@@3PAPAUItemTxt@@A 660983c0     install.obj
 0003:0000d3c4       ?d2common_pItemTxtCount@@3PAHA 660983c4     install.obj
 0003:0000d3c8       ?d2common_pInventoryTxt@@3PAPAUInventoryBIN@@A 660983c8     install.obj
 0003:0000d3cc       ?d2common_pInventoryTxtCount@@3PAHA 660983cc     install.obj
 0003:0000d3d0       ?d2common_pDataTables@@3PAPAUD2DataTables@@A 660983d0     install.obj
 0003:0000d3d4       ?d2common_compileInventoryTxt@@3P6GPAUInventoryBIN@@H@ZA 660983d4     install.obj
 0003:0000d3d8       ?d2common_getInventoryPos16@@3P6GXHHPAUEquipmentLayout16@@@ZA 660983d8     install.obj
 0003:0000d3dc       ?d2common_getInventoryLayout@@3P6GXHHPAUInvLayout@@@ZA 660983dc     install.obj
 0003:0000d3e0       ?d2common_getEquipmentPos@@3P6GXHHPAUEquipmentLayout20@@H@ZA 660983e0     install.obj
 0003:0000d3e4       ?d2common_compileItemStatCostTxt@@3P6GPAXH@ZA 660983e4     install.obj
 0003:0000d3e8       ?d2common_compileItemTypeTxt@@3P6GPAXH@ZA 660983e8     install.obj
 0003:0000d3ec       ?d2common_GetItemTxt@@3P6GPAUItemTxt@@H@ZA 660983ec     install.obj
 0003:0000d3f0       ?d2common_getAreaLevel@@3P6GHHHH@ZA 660983f0     install.obj
 0003:0000d3f4       ?d2common_GetLevelTxt@@3P6GPAULevelTxt@@H@ZA 660983f4     install.obj
 0003:0000d3f8       ?d2common_GetLevelWeather@@3P6GDH@ZA 660983f8     install.obj
 0003:0000d3fc       ?d2common_GetLevelTxt07@@3P6GDH@ZA 660983fc     install.obj
 0003:0000d400       ?d2common_GetLevelTxt06@@3P6GDH@ZA 66098400     install.obj
 0003:0000d404       ?d2common_GetLevelDefTxt@@3P6IPAULevelDefTxt@@H@ZA 66098404     install.obj
 0003:0000d408       ?d2common_addToRectData1C@@3P6GHPAUUnitAny@@@ZA 66098408     install.obj
 0003:0000d40c       ?d2common_initGameDataTable@@3P6GHHHH@ZA 6609840c     install.obj
 0003:0000d410       ?d2common_getLvlOfExp@@3P6GHHH@ZA 66098410     install.obj
 0003:0000d414       ?d2common_CompileTxtFile@@3P6GPAXHPADPAUTxtField@@PAHH@ZA 66098414     install.obj
 0003:0000d418       ?d2common_uninit@@3P6GHXZA 66098418     install.obj
 0003:0000d41c       ?d2common_GetMinExpToLevel@@3P6GHHH@ZA 6609841c     install.obj
 0003:0000d420       ?d2common_getPlayerMaxLvl@@3P6GHH@ZA 66098420     install.obj
 0003:0000d424       ?d2common_compileMonTypeTxt@@3P6GPAXH@ZA 66098424     install.obj
 0003:0000d428       ?d2common_GetTreasureClasses@@3P6GPAUTreasureClass@@GH@ZA 66098428     install.obj
 0003:0000d42c       ?d2common_GetSuperUniqueTxt@@3P6GPAUSuperUniqueTxt@@H@ZA 6609842c     install.obj
 0003:0000d430       ?d2common_SetSkillBaseLevel@@3P6GXPAUUnitAny@@HHHPADH@ZA 66098430     install.obj
 0003:0000d434       ?d2common_getSkillStatus@@3P6GHPAUUnitAny@@PAUSkill@@@ZA 66098434     install.obj
 0003:0000d438       ?d2common_getMaxSkeletons@@3P6GHPAUUnitAny@@HHH@ZA 66098438     install.obj
 0003:0000d43c       ?d2common_GetSkillCost@@3P6GHPAUUnitAny@@HHH@ZA 6609843c     install.obj
 0003:0000d440       ?d2common_GetSkillLevel@@3P6GHPAUUnitAny@@PAUSkill@@H@ZA 66098440     install.obj
 0003:0000d444       ?d2common_CheckCorpseCanUse@@3P6GHPAUUnitAny@@K@ZA 66098444     install.obj
 0003:0000d448       ?d2common_getSkillBonus@@3P6IHXZA 66098448     install.obj
 0003:0000d44c       ?d2common_getSkillId@@3P6GHHH@ZA 6609844c     install.obj
 0003:0000d450       ?d2common_getPlayerSkillCount@@3P6GHH@ZA 66098450     install.obj
 0003:0000d454       ?d2common_setSkillCount@@3P6GXPAUSkill@@H@ZA 66098454     install.obj
 0003:0000d458       ?d2common_GetDropPos@@3P6GPAUAreaRectData@@PAU1@PAUtagPOINT@@1HHHH@ZA 66098458     install.obj
 0003:0000d45c       ?d2common_IsLineBlocked@@3P6GHPAUAreaRectData@@PAUtagPOINT@@1H@ZA 6609845c     install.obj
 0003:0000d460       ?d2common_setItemEthereal@@3P6GHPAUUnitAny@@@ZA 66098460     install.obj
 0003:0000d464       ?d2common_GetObjectTxt@@3P6GPAUObjectTxt@@H@ZA 66098464     install.obj
 0003:0000d468       ?d2common_isInTown@@3P6GHPAUAreaRectData@@@ZA 66098468     install.obj
 0003:0000d46c       ?d2common_GetLevelIdFromRectData@@3P6GHPAUAreaRectData@@@ZA 6609846c     install.obj
 0003:0000d470       ?d2common_Common11084@@3P6GHPAUAreaRectData@@H@ZA 66098470     install.obj
 0003:0000d474       ?d2common_Ord10196@@3P6GHPAUUnitAny@@@ZA 66098474     install.obj
 0003:0000d478       ?d2common_stat_10807@@3P6GHPAUUnitAny@@PAUStatList@@H@ZA 66098478     install.obj
 0003:0000d47c       ?d2common_changeUnitStat@@3P6GHPAUUnitAny@@HHH@ZA 6609847c     install.obj
 0003:0000d480       ?d2common_AddPlayerStat@@3P6GXPAUUnitAny@@HHH@ZA 66098480     install.obj
 0003:0000d484       ?d2common_addStatList@@3P6GHPAUStatList@@HHH@ZA 66098484     install.obj
 0003:0000d488       ?d2common_changeStatList@@3P6GHPAUStatList@@HHH@ZA 66098488     install.obj
 0003:0000d48c       ?d2common_fun39F70@@3P6GHHPAUUnitAny@@@ZA 6609848c     install.obj
 0003:0000d490       ?d2common_getStatValue39380@@3P6GHH@ZA 66098490     install.obj
 0003:0000d494       ?d2common_getUnitMaxHP@@3P6GHPAUUnitAny@@@ZA 66098494     install.obj
 0003:0000d498       ?d2common_getUnitMaxMana@@3P6GHPAUUnitAny@@@ZA 66098498     install.obj
 0003:0000d49c       ?d2common_getUnitMaxStamina@@3P6GHPAUUnitAny@@@ZA 6609849c     install.obj
 0003:0000d4a0       ?d2common_GetUnitBaseStat@@3P6GHPAUUnitAny@@HG@ZA 660984a0     install.obj
 0003:0000d4a4       ?d2common_GetUnitStat@@3P6GHPAUUnitAny@@HG@ZA 660984a4     install.obj
 0003:0000d4a8       ?d2common_getUnitStatValueB00@@3P6GHPAUItemStatCostTxt@@@ZA 660984a8     install.obj
 0003:0000d4ac       ?d2common_getStatValueWithMinChecked@@3P6GHPAUItemStatCostTxt@@@ZA 660984ac     install.obj
 0003:0000d4b0       ?d2common_GetStatFromStatList@@3P6GHPAUStatList@@KPAUStatEx@@K@ZA 660984b0     install.obj
 0003:0000d4b4       ?d2common_bsearchStat@@3P6GHXZA 660984b4     install.obj
 0003:0000d4b8       ?d2common_removeStat@@3P6GHH@ZA 660984b8     install.obj
 0003:0000d4bc       ?d2common_GetStatListWithFlag@@3P6GPAUStatList@@PAUUnitAny@@HK@ZA 660984bc     install.obj
 0003:0000d4c0       ?d2common_GetUnitPosX@@3P6GHPAUDynamicPath@@@ZA 660984c0     install.obj
 0003:0000d4c4       ?d2common_GetUnitPosY@@3P6GHPAUDynamicPath@@@ZA 660984c4     install.obj
 0003:0000d4c8       ?d2common_CheckUnitState@@3P6GHPAUUnitAny@@H@ZA 660984c8     install.obj
 0003:0000d4cc       ?d2common_setUnitMode@@3P6GHPAUUnitAny@@H@ZA 660984cc     install.obj
 0003:0000d4d0       ?d2common_GetMonsterHpPercent@@3P6GHPAUUnitAny@@@ZA 660984d0     install.obj
 0003:0000d4d4       ?d2common_IsUnitBlocked@@3P6GHPAUUnitAny@@0H@ZA 660984d4     install.obj
 0003:0000d4d8       ?d2common_getUnitSize@@3P6GHPAUUnitAny@@@ZA 660984d8     install.obj
 0003:0000d4dc       ?d2common_getLeftSkill@@3P6GPAUSkill@@PAUUnitAny@@@ZA 660984dc     install.obj
 0003:0000d4e0       ?d2common_getCurrentSkill@@3P6GPAUSkill@@PAUUnitAny@@@ZA 660984e0     install.obj
 0003:0000d4e4       ?d2common_getUnitPos@@3P6GXPAUUnitAny@@PAUtagPOINT@@@ZA 660984e4     install.obj
 0003:0000d4e8       ?d2common_getRectData@@3P6GPAUAreaRectData@@PAUUnitAny@@@ZA 660984e8     install.obj
 0003:0000d4ec       ?d2common_GetBoxType@@3P6GHPAUUnitAny@@EH@ZA 660984ec     install.obj
 0003:0000d4f0       ?d2common_allocUnit@@3P6GPAUUnitAny@@HH@ZA 660984f0     install.obj
 0003:0000d4f4       ?d2common_setStaticUnitX@@3P6GXPAUUnitAny@@H@ZA 660984f4     install.obj
 0003:0000d4f8       ?d2common_setStaticUnitY@@3P6GXPAUUnitAny@@H@ZA 660984f8     install.obj
 0003:0000d4fc       ?d2common_GetPlayerData@@3P6GPAUPlayerData@@PAUUnitAny@@@ZA 660984fc     install.obj
 0003:0000d500       ?d2common_getObjectFlags@@3P6GHPAUUnitAny@@@ZA 66098500     install.obj
 0003:0000d504       ?d2common_setObjectFlags@@3P6GHPAUUnitAny@@H@ZA 66098504     install.obj
 0003:0000d508       ?d2common_InitDrlgLevel@@3P6GXPAUDrlgLevel@@@ZA 66098508     install.obj
 0003:0000d50c       ?d2common_GetDrlgLevel@@3P6IPAUDrlgLevel@@PAUDrlgMisc@@H@ZA 6609850c     install.obj
 0003:0000d510       ?d2common_CheckQuestFlag@@3P6GHPAUQuestInfo@@HH@ZA 66098510     install.obj
 0003:0000d514       ?d2common_setQuestFlag@@3P6GXPAUQuestInfo@@HH@ZA 66098514     install.obj
 0003:0000d518       ?d2common_clearQuestFlag@@3P6GXPAUQuestInfo@@HH@ZA 66098518     install.obj
 0003:0000d51c       ?d2common_copyQuestData@@3P6GPAUQuestInfo@@PAU1@PAFHH@ZA 6609851c     install.obj
 0003:0000d520       ?d2common_GetMercInfo@@3P6GHHHHPAX@ZA 66098520     install.obj
 0003:0000d524       ?d2common_setItemSocket@@3P6GHPAUUnitAny@@H@ZA 66098524     install.obj
 0003:0000d528       ?d2common_GetItemPrice@@3P6GHPAUUnitAny@@0HPAUQuestInfo@@HK@ZA 66098528     install.obj
 0003:0000d52c       ?d2common_EncodeItem@@3P6GHPAUUnitAny@@PADHHHH@ZA 6609852c     install.obj
 0003:0000d530       ?d2common_EncodeItemBits@@3P6IHPAUUnitAny@@PAUFogBits@@HHH@ZA 66098530     install.obj
 0003:0000d534       ?d2common_EncodeComplexItem@@3P6GHPAUUnitAny@@PAUFogBits@@HH@ZA 66098534     install.obj
 0003:0000d538       ?d2common_searchRunewordTxt@@3P6GPAURuneWordTxt@@PAUUnitAny@@@ZA 66098538     install.obj
 0003:0000d53c       ?d2common_getSocketCount@@3P6GHPAUUnitAny@@@ZA 6609853c     install.obj
 0003:0000d540       ?d2common_EncodeCompactItem@@3P6GHPAUUnitAny@@H@ZA 66098540     install.obj
 0003:0000d544       ?d2common_countUsedSocketed@@3P6GHXZA 66098544     install.obj
 0003:0000d548       ?d2common_getItemMaxSocket@@3P6GHPAUUnitAny@@@ZA 66098548     install.obj
 0003:0000d54c       ?d2common_checkItemTypeFlags@@3P6GHPAUUnitAny@@H@ZA 6609854c     install.obj
 0003:0000d550       ?d2common_isMagicItem@@3P6GHPAUUnitAny@@@ZA 66098550     install.obj
 0003:0000d554       ?d2common_writeBitStream@@3P6GXPAUFogBits@@@ZA 66098554     install.obj
 0003:0000d558       ?d2common_getItemSeed@@3P6GPAUD2Seed@@PAUUnitAny@@@ZA 66098558     install.obj
 0003:0000d55c       ?d2common_getItemFingerPrint@@3P6GHPAUUnitAny@@@ZA 6609855c     install.obj
 0003:0000d560       ?d2common_setItemFingerPrint@@3P6GXPAUUnitAny@@H@ZA 66098560     install.obj
 0003:0000d564       ?d2common_getItemQuality@@3P6GHPAUUnitAny@@@ZA 66098564     install.obj
 0003:0000d568       ?d2common_setItemQuality@@3P6GXPAUUnitAny@@H@ZA 66098568     install.obj
 0003:0000d56c       ?d2common_getItemMagicPrefix@@3P6GHPAUUnitAny@@H@ZA 6609856c     install.obj
 0003:0000d570       ?d2common_getItemMagicSuffix@@3P6GHPAUUnitAny@@H@ZA 66098570     install.obj
 0003:0000d574       ?d2common_getRarePrefix@@3P6GFPAUUnitAny@@@ZA 66098574     install.obj
 0003:0000d578       ?d2common_getRareSuffix@@3P6GFPAUUnitAny@@@ZA 66098578     install.obj
 0003:0000d57c       ?d2common_CheckItemFlag@@3P6GHPAUUnitAny@@KHPAD@ZA 6609857c     install.obj
 0003:0000d580       ?d2common_setItemFlag@@3P6GXPAUUnitAny@@HH@ZA 66098580     install.obj
 0003:0000d584       ?d2common_getItemFlag@@3P6GXPAUUnitAny@@@ZA 66098584     install.obj
 0003:0000d588       ?d2common_setItemLevel@@3P6GHPAUUnitAny@@H@ZA 66098588     install.obj
 0003:0000d58c       ?d2common_setItemLocation@@3P6GHPAUUnitAny@@D@ZA 6609858c     install.obj
 0003:0000d590       ?d2common_getItemTypeB14@@3P6GHPAUUnitAny@@@ZA 66098590     install.obj
 0003:0000d594       ?d2common_getItemCode@@3P6GPADPAUUnitAny@@@ZA 66098594     install.obj
 0003:0000d598       ?d2common_getItemWidthHeight@@3P6GHPAUUnitAny@@PAD1@ZA 66098598     install.obj
 0003:0000d59c       ?d2common_getItemType@@3P6GHPAUUnitAny@@@ZA 6609859c     install.obj
 0003:0000d5a0       ?d2common_getItemTypeByTxt@@3P6GHH@ZA 660985a0     install.obj
 0003:0000d5a4       ?d2common_getItemCode1@@3P6GPADPAUUnitAny@@@ZA 660985a4     install.obj
 0003:0000d5a8       ?d2common_isQuestItem@@3P6GHPAUUnitAny@@@ZA 660985a8     install.obj
 0003:0000d5ac       ?d2common_GetItemFileIndex@@3P6GHPAUUnitAny@@@ZA 660985ac     install.obj
 0003:0000d5b0       ?d2common_setItemFileIndex@@3P6GHPAUUnitAny@@H@ZA 660985b0     install.obj
 0003:0000d5b4       ?d2common_getItemData1C_20@@3P6GXPAUUnitAny@@PAX1@ZA 660985b4     install.obj
 0003:0000d5b8       ?d2common_setOwnerId@@3P6GXPAUUnitAny@@H@ZA 660985b8     install.obj
 0003:0000d5bc       ?d2common_isCompactItem@@3P6IDXZA 660985bc     install.obj
 0003:0000d5c0       ?d2common_getItemFormat@@3P6GHPAUUnitAny@@@ZA 660985c0     install.obj
 0003:0000d5c4       ?d2common_setItemFormat@@3P6GXPAUUnitAny@@F@ZA 660985c4     install.obj
 0003:0000d5c8       ?d2common_isBitSet@@3P6GHHH@ZA 660985c8     install.obj
 0003:0000d5cc       ?d2common_putItemIntoSocket10405@@3P6GHPAUUnitInventory@@PAUUnitAny@@H@ZA 660985cc     install.obj
 0003:0000d5d0       ?d2common_setCursorItem@@3P6GHPAUUnitInventory@@PAUUnitAny@@@ZA 660985d0     install.obj
 0003:0000d5d4       ?d2common_isItemInside@@3P6GHPAUUnitInventory@@PAUUnitAny@@@ZA 660985d4     install.obj
 0003:0000d5d8       ?d2common_CheckInvLocation@@3P6GHPAUUnitInventory@@PAUUnitAny@@HHHPAH2E@ZA 660985d8     install.obj
 0003:0000d5dc       ?d2common_GetNextItemInInv@@3P6GPAUUnitAny@@PAU1@@ZA 660985dc     install.obj
 0003:0000d5e0       ?d2common_getOwnerInventory@@3P6GPAUUnitInventory@@XZA 660985e0     install.obj
 0003:0000d5e4       ?d2common_createInventory@@3P6GPAUUnitInventory@@PAXPAUUnitAny@@@ZA 660985e4     install.obj
 0003:0000d5e8       ?d2common_getEquippedItemInfo@@3P6GHPAUUnitInventory@@H@ZA 660985e8     install.obj
 0003:0000d5ec       ?d2common_createEquippedItem@@3P6GPAUEquippedGears@@XZA 660985ec     install.obj
 0003:0000d5f0       ?d2common_GetFirstItemInInv@@3P6GPAUUnitAny@@PAUUnitInventory@@@ZA 660985f0     install.obj
 0003:0000d5f4       ?d2common_GetCursorItem@@3P6GPAUUnitAny@@PAUUnitInventory@@@ZA 660985f4     install.obj
 0003:0000d5f8       ?d2common_getFilledSockets@@3P6GHPAUUnitInventory@@@ZA 660985f8     install.obj
 0003:0000d5fc       ?d2common_subEsp@@3P6GHXZA 660985fc     install.obj
 0003:0000d600       ?d2common_exit@@3P6GHH@ZA  66098600     install.obj
 0003:0000d604       ?d2common_GetMonStats2@@3P6IPAXXZA 66098604     install.obj
 0003:0000d608       ?d2common_GetNearRectDataWithPos@@3P6IPAUAreaRectData@@XZA 66098608     install.obj
 0003:0000d60c       ?d2common_GetCharStatsTxt@@3P6GPAXXZA 6609860c     install.obj
 0003:0000d610       ?d2cmp_mpq_path_3010@@3P6IHPAD@ZA 66098610     install.obj
 0003:0000d614       ?d2cmp_InitCellFile@@3P6GXPAXPAPAUCellFile@@PADHH2@ZA 66098614     install.obj
 0003:0000d618       ?d2cmp_DeleteCellFile@@3P6GXPAUCellFile@@@ZA 66098618     install.obj
 0003:0000d61c       ?d2client_pIsEquipment800x600@@3PAHA 6609861c     install.obj
 0003:0000d620       ?d2client_pQuestPage@@3PAHA 66098620     install.obj
 0003:0000d624       ?d2client_plpCritialSection@@3PAPAUCriticalSection@@A 66098624     install.obj
 0003:0000d628       ?d2client_pworldHash@@3PAPAUWorldHash@@A 66098628     install.obj
 0003:0000d62c       ?d2client_pLastChatMessage@@3PA_WA 6609862c     install.obj
 0003:0000d630       ?d2client_pPetUnitList@@3PAPAUPetUnit@@A 66098630     install.obj
 0003:0000d634       ?d2client_pShowManaStr@@3PAHA 66098634     install.obj
 0003:0000d638       ?d2client_pShowLifeStr@@3PAHA 66098638     install.obj
 0003:0000d63c       ?d2client_pBeltNotEmpty@@3PADA 6609863c     install.obj
 0003:0000d640       ?d2client_pscreenDrawXsub@@3PAHA 66098640     install.obj
 0003:0000d644       ?d2client_pScreenBlocked@@3PAHA 66098644     install.obj
 0003:0000d648       ?d2client_pStandStill@@3PAHA 66098648     install.obj
 0003:0000d64c       ?d2client_pNpcConvData@@3PAPAXA 6609864c     install.obj
 0003:0000d650       ?d2client_pDrlgAct@@3PAPAUDrlgAct@@A 66098650     install.obj
 0003:0000d654       ?d2client_pnotAcceptKeys@@3PAHA 66098654     install.obj
 0003:0000d658       ?d2client_pMButton@@3PAHA  66098658     install.obj
 0003:0000d65c       ?d2client_pInGame@@3PAHA   6609865c     install.obj
 0003:0000d660       ?d2client_pDifficulty@@3PAEA 66098660     install.obj
 0003:0000d664       ?d2client_pMercData32@@3PAHA 66098664     install.obj
 0003:0000d668       ?d2client_pFlagUnknownC2F8@@3PAHA 66098668     install.obj
 0003:0000d66c       ?d2client_pHasSelectedObject@@3PAHA 6609866c     install.obj
 0003:0000d670       ?d2client_pFps@@3PAHA      66098670     install.obj
 0003:0000d674       ?d2client_pAutoMapSize@@3PAUtagPOINT@@A 66098674     install.obj
 0003:0000d678       ?d2client_pMinimapOffset@@3PAUtagPOINT@@A 66098678     install.obj
 0003:0000d67c       ?d2client_pInfoPositionY@@3PAHA 6609867c     install.obj
 0003:0000d680       ?d2client_pScreenMinimapY@@3PAHA 66098680     install.obj
 0003:0000d684       ?d2client_pScreenMinimapX@@3PAHA 66098684     install.obj
 0003:0000d688       ?d2client_pAutomapPos@@3PAUtagPOINT@@A 66098688     install.obj
 0003:0000d68c       ?d2client_pMinimapCellFile@@3PAPAUCellFile@@A 6609868c     install.obj
 0003:0000d690       ?d2client_pAutomapLayer@@3PAPAUAutomapLayer@@A 66098690     install.obj
 0003:0000d694       ?d2client_pAutomapLayerList@@3PAPAUAutomapLayer@@A 66098694     install.obj
 0003:0000d698       ?d2client_pMinimapType@@3PAHA 66098698     install.obj
 0003:0000d69c       ?d2client_pChatTextLength@@3PAHA 6609869c     install.obj
 0003:0000d6a0       ?d2client_pMapShakeX@@3PAJA 660986a0     install.obj
 0003:0000d6a4       ?d2client_pIsMapShakeOn@@3PAHA 660986a4     install.obj
 0003:0000d6a8       ?d2client_pActiveWeapon@@3PAHA 660986a8     install.obj
 0003:0000d6ac       ?d2client_pStachImage@@3PAPAUCellFile@@A 660986ac     install.obj
 0003:0000d6b0       ?d2client_pPanelTradeStash@@3PAPAUCellFile@@A 660986b0     install.obj
 0003:0000d6b4       ?d2client_pPanelCube@@3PAPAUCellFile@@A 660986b4     install.obj
 0003:0000d6b8       ?d2client_pPanelBank@@3PAPAUCellFile@@A 660986b8     install.obj
 0003:0000d6bc       ?d2client_pNpcTradeCurrentTab@@3PAHA 660986bc     install.obj
 0003:0000d6c0       ?d2client_pCurrentViewItem@@3PAPAUUnitAny@@A 660986c0     install.obj
 0003:0000d6c4       ?d2client_pRosterUnitList@@3PAPAURosterUnit@@A 660986c4     install.obj
 0003:0000d6c8       ?d2client_pnpcInteract@@3PAPAXA 660986c8     install.obj
 0003:0000d6cc       ?d2client_pPlayerUnit@@3PAPAUUnitAny@@A 660986cc     install.obj
 0003:0000d6d0       ?d2client_pGoldInTranBox@@3PAHA 660986d0     install.obj
 0003:0000d6d4       ?d2client_pDrawOffsetY@@3PAHA 660986d4     install.obj
 0003:0000d6d8       ?d2client_pDrawOffsetX@@3PAHA 660986d8     install.obj
 0003:0000d6dc       ?d2client_pDrawOffset@@3PAUtagPOINT@@A 660986dc     install.obj
 0003:0000d6e0       ?d2client_pIs800x600@@3PAHA 660986e0     install.obj
 0003:0000d6e4       ?d2client_pGameInfo@@3PAPAUGameStructInfo@@A 660986e4     install.obj
 0003:0000d6e8       ?d2client_pMouseX@@3PAHA   660986e8     install.obj
 0003:0000d6ec       ?d2client_pMouseY@@3PAHA   660986ec     install.obj
 0003:0000d6f0       ?d2client_pPanelBtn@@3PAPAUCellFile@@A 660986f0     install.obj
 0003:0000d6f4       ?d2client_pPanelInvChar@@3PAPAUCellFile@@A 660986f4     install.obj
 0003:0000d6f8       ?d2client_pXButton1@@3PAHA 660986f8     install.obj
 0003:0000d6fc       ?d2client_pXButton2@@3PAHA 660986fc     install.obj
 0003:0000d700       ?d2client_pKeyboardSettingEnd@@3PAUKeyboardSetting@@A 66098700     install.obj
 0003:0000d704       ?d2client_pKeyboardSettingStart@@3PAUKeyboardSetting@@A 66098704     install.obj
 0003:0000d708       ?d2client_pSkillHotKeyLeft@@3PAHA 66098708     install.obj
 0003:0000d70c       ?d2client_pSkillHotKeys@@3PAHA 6609870c     install.obj
 0003:0000d710       ?d2client_pscreenDrawX@@3PAHA 66098710     install.obj
 0003:0000d714       ?d2client_pscreenDrawY@@3PAHA 66098714     install.obj
 0003:0000d718       ?d2client_pCastingDelayEndFrame@@3PAHA 66098718     install.obj
 0003:0000d71c       ?d2client_pExpansion@@3PAHA 6609871c     install.obj
 0003:0000d720       ?d2client_pPing@@3PAHA     66098720     install.obj
 0003:0000d724       ?d2client_pCurFrame@@3PAHA 66098724     install.obj
 0003:0000d728       ?d2client_pTradeRelated@@3PAPAHA 66098728     install.obj
 0003:0000d72c       ?d2client_pGameQuestData@@3PAPAUQuestInfo@@A 6609872c     install.obj
 0003:0000d730       ?d2client_pQuestData@@3PAPAUQuestInfo@@A 66098730     install.obj
 0003:0000d734       ?d2client_pAutomapNodeListBaseAddr@@3PAPAXA 66098734     install.obj
 0003:0000d738       ?d2client_pMapShakeY@@3PAJA 66098738     install.obj
 0003:0000d73c       ?d2client_pUnitTable@@3PAPAUUnitAny@@A 6609873c     install.obj
 0003:0000d740       ?d2client_pWaypointMenuCount@@3PAHA 66098740     install.obj
 0003:0000d744       ?d2client_pWaypointMenuCurTab@@3PAHA 66098744     install.obj
 0003:0000d748       ?d2client_pWaypointMenuItems@@3PAUWaypointMenuItem@@A 66098748     install.obj
 0003:0000d74c       ?d2client_pUiHelpOn@@3PAHA 6609874c     install.obj
 0003:0000d750       ?d2client_pUiBeltOn@@3PAHA 66098750     install.obj
 0003:0000d754       ?d2client_pUiCubeOn@@3PAHA 66098754     install.obj
 0003:0000d758       ?d2client_pUiStashOn@@3PAHA 66098758     install.obj
 0003:0000d75c       ?d2client_pUiMessageLogOn@@3PAHA 6609875c     install.obj
 0003:0000d760       ?d2client_pUiPPLTradeOn@@3PAHA 66098760     install.obj
 0003:0000d764       ?d2client_pUiPartyOn@@3PAHA 66098764     install.obj
 0003:0000d768       ?d2client_pUiWaypointOn@@3PAHA 66098768     install.obj
 0003:0000d76c       ?d2client_pUiNewQuestOn@@3PAHA 6609876c     install.obj
 0003:0000d770       ?d2client_pUiQuestOn@@3PAHA 66098770     install.obj
 0003:0000d774       ?d2client_pUiModItemOn@@3PAHA 66098774     install.obj
 0003:0000d778       ?d2client_pUiShowItemsOn@@3PAHA 66098778     install.obj
 0003:0000d77c       ?d2client_pUiNpcTradeOn@@3PAHA 6609877c     install.obj
 0003:0000d780       ?d2client_pAutomapOn@@3PAHA 66098780     install.obj
 0003:0000d784       ?d2client_pUiGameMenuOn@@3PAHA 66098784     install.obj
 0003:0000d788       ?d2client_pUiInteractOn@@3PAHA 66098788     install.obj
 0003:0000d78c       ?d2client_pUiNewSkillOn@@3PAHA 6609878c     install.obj
 0003:0000d790       ?d2client_pUiNewStatOn@@3PAHA 66098790     install.obj
 0003:0000d794       ?d2client_pUiChatOn@@3PAHA 66098794     install.obj
 0003:0000d798       ?d2client_pUiSkillTreeOn@@3PAHA 66098798     install.obj
 0003:0000d79c       ?d2client_pUiSelectSkillOn@@3PAHA 6609879c     install.obj
 0003:0000d7a0       ?d2client_pUiCharacterOn@@3PAHA 660987a0     install.obj
 0003:0000d7a4       ?d2client_pUiInventoryOn@@3PAHA 660987a4     install.obj
 0003:0000d7a8       ?d2client_pUiDropGoldWindow@@3PAPAXA 660987a8     install.obj
 0003:0000d7ac       ?d2client_pInfoPositionX@@3PAHA 660987ac     install.obj
 0003:0000d7b0       ?d2client_pExitAppFlag@@3PAHA 660987b0     install.obj
 0003:0000d7b4       ?d2client_pGameControlEnd@@3PAHA 660987b4     install.obj
 0003:0000d7b8       ?d2client_pGameControlStart@@3PAHA 660987b8     install.obj
 0003:0000d7bc       ?d2client_pMercData16@@3PAHA 660987bc     install.obj
 0003:0000d7c0       ?d2client_pMinimapZoom@@3PAHA 660987c0     install.obj
 0003:0000d7c4       ?d2client_pCurSkillClass@@3PAHA 660987c4     install.obj
 0003:0000d7c8       ?d2client_pCursorInvGridY@@3PAHA 660987c8     install.obj
 0003:0000d7cc       ?d2client_pCursorInvGridX@@3PAHA 660987cc     install.obj
 0003:0000d7d0       ?d2client_pLastMousePos@@3PAUtagPOINT@@A 660987d0     install.obj
 0003:0000d7d4       ?d2client_pScreenHeight@@3PAHA 660987d4     install.obj
 0003:0000d7d8       ?d2client_pScreenSize@@3PAUtagPOINT@@A 660987d8     install.obj
 0003:0000d7dc       ?d2client_pScreenWidth@@3PAHA 660987dc     install.obj
 0003:0000d7e0       ?d2client_psgptDataTables@@3PAPAUD2DataTables@@A 660987e0     install.obj
 0003:0000d7e4       ?d2client_DrawControls@@3P6GHH@ZA 660987e4     install.obj
 0003:0000d7e8       ?d2client_SetUiStatus@@3P6IHHHK@ZA 660987e8     install.obj
 0003:0000d7ec       ?d2client_LoadUiImageSubpath@@3P6IPAUCellFile@@XZA 660987ec     install.obj
 0003:0000d7f0       ?d2client_CheckUiStatusStub@@3P6IHH@ZA 660987f0     install.obj
 0003:0000d7f4       ?d2client_RecvPacket3F@@3P6IXPAD@ZA 660987f4     install.obj
 0003:0000d7f8       ?d2client_RecvPacket0E@@3P6IXHPAD@ZA 660987f8     install.obj
 0003:0000d7fc       ?d2client_RecvPacket9D@@3P6IXPAD@ZA 660987fc     install.obj
 0003:0000d800       ?d2client_RecvPacket9C@@3P6IXPAD@ZA 66098800     install.obj
 0003:0000d804       ?d2client_PacketHandler@@3P6GXH@ZA 66098804     install.obj
 0003:0000d808       ?d2client_RecvCommand07@@3P6IXPAE@ZA 66098808     install.obj
 0003:0000d80c       ?d2client_RecvCommand08@@3P6IXPAE@ZA 6609880c     install.obj
 0003:0000d810       ?d2client_removeUnitFromHash@@3P6IHPAPAUUnitAny@@HHH@ZA 66098810     install.obj
 0003:0000d814       ?d2client_addUnitToHash@@3P6GHXZA 66098814     install.obj
 0003:0000d818       ?d2client_GetUnitFromId@@3P6IPAUUnitAny@@HH@ZA 66098818     install.obj
 0003:0000d81c       ?d2client_CanUseSkillNow@@3P6GHH@ZA 6609881c     install.obj
 0003:0000d820       ?d2client_processMessageA3C10@@3P6GHPAUD2MSG@@@ZA 66098820     install.obj
 0003:0000d824       ?d2client_drawFloatingWindow@@3P6GHXZA 66098824     install.obj
 0003:0000d828       ?d2client_drawUnits9EE90@@3P6GHPAX@ZA 66098828     install.obj
 0003:0000d82c       ?d2client_drawInventory@@3P6GHXZA 6609882c     install.obj
 0003:0000d830       ?d2client_func_958A0@@3P6GHPAUUnitAny@@@ZA 66098830     install.obj
 0003:0000d834       ?d2client_DrawAllUnits@@3P6GHXZA 66098834     install.obj
 0003:0000d838       ?d2client_CalcShake@@3P6GXPAH0@ZA 66098838     install.obj
 0003:0000d83c       ?d2client_useStackableItem@@3P6GXPAD@ZA 6609883c     install.obj
 0003:0000d840       ?d2client_packet9C_4@@3P6IXXZA 66098840     install.obj
 0003:0000d844       ?d2client_drawEnvironment@@3P6GXPAX0@ZA 66098844     install.obj
 0003:0000d848       ?d2client_drawNpcConversition@@3P6IHXZA 66098848     install.obj
 0003:0000d84c       ?d2client_isNpcConversitionEnd@@3P6IHPAX@ZA 6609884c     install.obj
 0003:0000d850       ?d2client_ShowGameMessage@@3P6GXPA_WH@ZA 66098850     install.obj
 0003:0000d854       ?d2client_ShowPartyMessage@@3P6GXPA_WH@ZA 66098854     install.obj
 0003:0000d858       ?d2client_getSkillTreeButtonY@@3P6IHXZA 66098858     install.obj
 0003:0000d85c       ?d2client_getSkillTreeButtonX@@3P6IHXZA 6609885c     install.obj
 0003:0000d860       ?d2client_ChatInputStub@@3P6GXPAUD2MSG@@@ZA 66098860     install.obj
 0003:0000d864       ?d2client_drawInvItem@@3P6GHHH@ZA 66098864     install.obj
 0003:0000d868       ?d2client_drawUnit@@3P6GHPAX@ZA 66098868     install.obj
 0003:0000d86c       ?d2client_shouldDrawUnit@@3P6GHXZA 6609886c     install.obj
 0003:0000d870       ?d2client_InitAutomapLayerStub@@3P6IPAUAutomapLayer@@K@ZA 66098870     install.obj
 0003:0000d874       ?d2client_AddAreaRectToMinimap@@3P6GXPAUAreaRectData@@KPAUAutomapLayer@@@ZA 66098874     install.obj
 0003:0000d878       ?d2client_AddAutomapNode@@3P6IXPAUAutomapNode@@PAPAU1@@ZA 66098878     install.obj
 0003:0000d87c       ?d2client_SetAutomapPartyStub@@3P6IXK@ZA 6609887c     install.obj
 0003:0000d880       ?d2client_SetAutomapNamesStub@@3P6IXK@ZA 66098880     install.obj
 0003:0000d884       ?d2client_NewAutomapNode@@3P6IPAUAutomapNode@@XZA 66098884     install.obj
 0003:0000d888       ?d2client_drawAllHeads@@3P6GHXZA 66098888     install.obj
 0003:0000d88c       ?d2client_recvCmd77ButtonAction@@3P6GXXZA 6609888c     install.obj
 0003:0000d890       ?d2client_clickAcceptTradeMenuItem@@3P6GHXZA 66098890     install.obj
 0003:0000d894       ?d2client_GetSelectedUnit@@3P6GPAUUnitAny@@XZA 66098894     install.obj
 0003:0000d898       ?d2client_fun_4B8A0@@3P6GHHPAFD@ZA 66098898     install.obj
 0003:0000d89c       ?d2client_clickHireMercMenu@@3P6GHXZA 6609889c     install.obj
 0003:0000d8a0       ?d2client_clickGotoAct2MenuItem@@3P6GHXZA 660988a0     install.obj
 0003:0000d8a4       ?d2client_clickGotoAct3MenuItem@@3P6GHXZA 660988a4     install.obj
 0003:0000d8a8       ?d2client_drawNpcInteractMenu@@3P6GHXZA 660988a8     install.obj
 0003:0000d8ac       ?d2client_Unknown6150@@3P6GHXZA 660988ac     install.obj
 0003:0000d8b0       ?d2client_GetScreenDrawY@@3P6GJXZA 660988b0     install.obj
 0003:0000d8b4       ?d2client_GetScreenDrawX@@3P6GJXZA 660988b4     install.obj
 0003:0000d8b8       ?d2client_DrawSkillButtonE5E0@@3P6GXHHHHHH@ZA 660988b8     install.obj
 0003:0000d8bc       ?d2client_SkillUnusable@@3P6IXXZA 660988bc     install.obj
 0003:0000d8c0       ?d2client_processWinMessage@@3P6GHPAUHWND__@@HHH@ZA 660988c0     install.obj
 0003:0000d8c4       ?d2client_processMessages@@3P6IXXZA 660988c4     install.obj
 0003:0000d8c8       ?d2client_ShowMap@@3P6IXXZA 660988c8     install.obj
 0003:0000d8cc       ?d2client_LoadUiImageFunc@@3P6GPAUCellFile@@H@ZA 660988cc     install.obj
 0003:0000d8d0       ?d2client_setState_2A750@@3P6IXHHHH@ZA 660988d0     install.obj
 0003:0000d8d4       ?d2client_UseBelt@@3P6IXPAUUnitInventory@@PAUUnitAny@@H@ZA 660988d4     install.obj
 0003:0000d8d8       ?d2client_DrawClient@@3P6IXXZA 660988d8     install.obj
 0003:0000d8dc       ?d2client_DrawSkillButton@@3P6GXPAUSkill@@HHH@ZA 660988dc     install.obj
 0003:0000d8e0       ?d2client_drawHpManaText@@3P6GHXZA 660988e0     install.obj
 0003:0000d8e4       ?d2client_PlaySound@@3P6IHHHH@ZA 660988e4     install.obj
 0003:0000d8e8       ?d2client_ItemProtect@@3P6GXPAUUnitAny@@K@ZA 660988e8     install.obj
 0003:0000d8ec       ?d2client_GetMonsterOwner@@3P6IHH@ZA 660988ec     install.obj
 0003:0000d8f0       ?d2client_LeftClickBDE0@@3P6GHXZA 660988f0     install.obj
 0003:0000d8f4       ?d2client_RightClickBC40@@3P6GHXZA 660988f4     install.obj
 0003:0000d8f8       ?d2client_ShouldClick85E0@@3P6GHXZA 660988f8     install.obj
 0003:0000d8fc       ?d2client_SendPacket3@@3P6IXF@ZA 660988fc     install.obj
 0003:0000d900       ?d2client_sendPacketLen13@@3P6IXHHH@ZA 66098900     install.obj
 0003:0000d904       ?d2client_SendPacket43E0@@3P6GXPAD@ZA 66098904     install.obj
 0003:0000d908       ?d2client_drawGround@@3P6GHPAX@ZA 66098908     install.obj
 0003:0000d90c       ?d2client_drawGroundPiece@@3P6GXHHHHHH@ZA 6609890c     install.obj
 0003:0000d910       ?d2client_SetResolutionMode@@3P6GXXZA 66098910     install.obj
 0003:0000d914       ?d2client_getNearbyRectData@@3P6GXPAUAreaRectData@@PAPAPAU1@PAH@ZA 66098914     install.obj
 0003:0000d918       ?d2client_Storm511@@3P6GXPAUD2MSG@@@ZA 66098918     install.obj
 0003:0000d91c       ?d2client_subEsp@@3P6GHXZA 6609891c     install.obj
 0003:0000d920       ?d2client_getSkillDescTxt@@3P6IPAXXZA 66098920     install.obj
 0003:0000d924       ?bnclient_pBnChatMessage@@3PAPAKA 66098924     install.obj
 0003:0000d92c       ?bnetIp@@3PADA             6609892c     install.obj
 0003:0000d934       ?load_dll_error@@3HA       66098934     install.obj
 0003:0000d938       ?fLocalizationSupport@@3HA 66098938     install.obj
 0003:0000d93c       ?addr_storm@@3PAUHINSTANCE__@@A 6609893c     install.obj
 0003:0000d940       ?addr_d2client@@3PAUHINSTANCE__@@A 66098940     install.obj
 0003:0000d944       ?addr_d2common@@3PAUHINSTANCE__@@A 66098944     install.obj
 0003:0000d948       ?addr_d2gfx@@3PAUHINSTANCE__@@A 66098948     install.obj
 0003:0000d94c       ?addr_d2win@@3PAUHINSTANCE__@@A 6609894c     install.obj
 0003:0000d950       ?addr_d2lang@@3PAUHINSTANCE__@@A 66098950     install.obj
 0003:0000d954       ?addr_d2cmp@@3PAUHINSTANCE__@@A 66098954     install.obj
 0003:0000d958       ?addr_bnclient@@3PAUHINSTANCE__@@A 66098958     install.obj
 0003:0000d95c       ?addr_d2net@@3PAUHINSTANCE__@@A 6609895c     install.obj
 0003:0000d960       ?addr_fog@@3PAUHINSTANCE__@@A 66098960     install.obj
 0003:0000d964       ?addr_d2game@@3PAUHINSTANCE__@@A 66098964     install.obj
 0003:0000d968       ?addr_d2launch@@3PAUHINSTANCE__@@A 66098968     install.obj
 0003:0000d96c       ?addr_d2gdi@@3PAUHINSTANCE__@@A 6609896c     install.obj
 0003:0000d970       ?addr_d2sound@@3PAUHINSTANCE__@@A 66098970     install.obj
 0003:0000d974       ?addr_d2multi@@3PAUHINSTANCE__@@A 66098974     install.obj
 0003:0000d978       ?addr_d2mcpclient@@3PAUHINSTANCE__@@A 66098978     install.obj
 0003:0000d97c       ?fGameFilter@@3HA          6609897c     install.obj
 0003:0000d980       ?hasPlugY@@3HA             66098980     install.obj
 0003:0000d984       ?pPatchList@@3PAPAUInstalledPatch@@A 66098984     install.obj
 0003:0000d994       ?networkPatch@@3PAUInstalledPatch@@A 66098994     install.obj
 0003:0000eda8       ?dwDumpMpqPath@@3HA        66099da8     mpq.obj
 0003:0000ee58       ?singlePlayerWorld@@3PAUWorld@@A 66099e58     common.obj
 0003:0000ee5c       ?forceStandStill@@3HA      66099e5c     common.obj
 0003:0000fa88       ?nPet@@3HA                 6609aa88     common.obj
 0003:0000fa8c       ?petCap@@3HA               6609aa8c     common.obj
 0003:0000fa90       ?dwPetListChangeVerify@@3HA 6609aa90     common.obj
 0003:0000fa98       ?fPartyListValid@@3HA      6609aa98     common.obj
 0003:0000fad0       ?autoTerminateNpcInteractMs@@3HA 6609aad0     loop.obj
 0003:0000fad4       ?screenDrawY@@3HA          6609aad4     loop.obj
 0003:0000fad8       ?screenDrawX@@3HA          6609aad8     loop.obj
 0003:0000fadc       ?dwChangeLeftSkill@@3HA    6609aadc     loop.obj
 0003:0000fae0       ?dwLoopCount@@3HA          6609aae0     loop.obj
 0003:0000fae4       ?fDebugMs@@3HA             6609aae4     loop.obj
 0003:0000fae8       ?dwLevelChangeMs@@3HA      6609aae8     loop.obj
 0003:0000faec       ?dwCpuUser@@3HA            6609aaec     loop.obj
 0003:0000faf0       ?dwCpuKernel@@3HA          6609aaf0     loop.obj
 0003:0000faf4       ?dwLoopFPS@@3HA            6609aaf4     loop.obj
 0003:0000faf8       ?dwDrawFPS@@3HA            6609aaf8     loop.obj
 0003:0000fafc       ?dwCurMs@@3HC              6609aafc     loop.obj
 0003:0000fb00       ?dwEnterGameMs@@3HA        6609ab00     loop.obj
 0003:0000fb04       ?fStartingGame@@3HA        6609ab04     loop.obj
 0003:0000fb08       ?fInGame@@3HA              6609ab08     loop.obj
 0003:0000fb0c       ?dwEnterGameShowDifficultyMs@@3HA 6609ab0c     loop.obj
 0003:0000fb10       ?dwCurrentAct@@3HA         6609ab10     loop.obj
 0003:0000fb14       ?dwPlayerX@@3HA            6609ab14     loop.obj
 0003:0000fb18       ?dwPlayerY@@3HA            6609ab18     loop.obj
 0003:0000fb1c       ?dwPlayerId@@3HA           6609ab1c     loop.obj
 0003:0000fb20       ?dwPlayerPartyId@@3HA      6609ab20     loop.obj
 0003:0000fb24       ?dwPlayerClass@@3HA        6609ab24     loop.obj
 0003:0000fb28       ?pLeftSkill@@3PAUSkill@@A  6609ab28     loop.obj
 0003:0000fb2c       ?pRightSkill@@3PAUSkill@@A 6609ab2c     loop.obj
 0003:0000fb30       ?dwLeftSkillStatus@@3HA    6609ab30     loop.obj
 0003:0000fb34       ?dwRightSkillStatus@@3HA   6609ab34     loop.obj
 0003:0000fb38       ?dwPlayerLevel@@3HA        6609ab38     loop.obj
 0003:0000fb3c       ?dwPlayerHP@@3HA           6609ab3c     loop.obj
 0003:0000fb40       ?dwPlayerMaxHP@@3HA        6609ab40     loop.obj
 0003:0000fb44       ?dwPlayerMana@@3HA         6609ab44     loop.obj
 0003:0000fb48       ?dwPlayerMaxMana@@3HA      6609ab48     loop.obj
 0003:0000fb4c       ?dwPlayerFcrFrame@@3HA     6609ab4c     loop.obj
 0003:0000fb50       ?dwPlayerFcrMs@@3HA        6609ab50     loop.obj
 0003:0000fb54       ?dwSlowRestoreMs@@3HA      6609ab54     loop.obj
 0003:0000fb68       ?dwBugFlag@@3HA            6609ab68     loop.obj
 0003:0000fb98       ?wcsLevelTargetName@@3PA_WA 6609ab98     map.obj
 0003:0000fcc8       ?minimapLevels@@3PAUMinimapLevel@@A 6609acc8     map.obj
 0003:000112a8       ?pCurMapLevel@@3PAUMinimapLevel@@A 6609c2a8     map.obj
 0003:00011394       ?pMinimapObjectCell@@3PAUCellFile@@A 6609c394     map.obj
 0003:00011398       ?dwRevealMapMs@@3HA        6609c398     map.obj
 0003:0001139c       ?dwAutoRevealCLevel@@3HA   6609c39c     map.obj
 0003:000113a0       ?anMonsterColours@@3PAEA   6609c3a0     map.obj
 0003:00011788       ?wszStaffTombLvlDesc@@3PA_WA 6609c788     map.obj
 0003:000117ec       ?nCaveNameTextCol@@3EA     6609c7ec     map.obj
 0003:000117ed       ?nSuperUniqueDescFont@@3EA 6609c7ed     map.obj
 0003:000117f0       ?aszUnitBlobFiles@@3PAY0DC@DA 6609c7f0     map.obj
 0003:00011a18       ?awszEnchantDescs@@3PAY0BE@_WA 6609ca18     map.obj
 0003:000121e8       ?awszAuraDescs@@3PAY0BE@_WA 6609d1e8     map.obj
 0003:00012300       ?awszImmuneDescs@@3PAY0BE@_WA 6609d300     map.obj
 0003:000123f0       ?anMonsterCorpseColors@@3PAEA 6609d3f0     map.obj
 0003:000127d8       ?anMissileColours@@3PAEA   6609d7d8     map.obj
 0003:00012bc0       ?dwScreenScrollCount@@3HA  6609dbc0     map.obj
 0003:00012bc4       ?dwMinimapScrollCount@@3HA 6609dbc4     map.obj
 0003:00012bc8       ?tScreenScrollKeys@@3PAUToggleVar@@A 6609dbc8     map.obj
 0003:00012ec8       ?dwScreenScrollOffset@@3PAY01HA 6609dec8     map.obj
 0003:00012f48       ?tMiniMapScrollKeys@@3PAUToggleVar@@A 6609df48     map.obj
 0003:00013248       ?dwMiniMapScrollOffset@@3PAY01HA 6609e248     map.obj
 0003:000134d4       ?npcChatTxt@@3HA           6609e4d4     packet.obj
 0003:000134d8       ?dwSendPacketCount@@3HA    6609e4d8     packet.obj
 0003:000134dc       ?dwInteractEntityCount@@3HA 6609e4dc     packet.obj
 0003:000134e0       ?fMonitorSendCmd@@3PADA    6609e4e0     packet.obj
 0003:000135e0       ?fMonitorRecvCmd@@3PADA    6609e5e0     packet.obj
 0003:000137e8       ?dwTargetDistanceMs@@3HA   6609e7e8     route.obj
 0003:000137ec       ?dwTargetDistance@@3HA     6609e7ec     route.obj
 0003:00013818       ?pSrcRect@@3PAURouteRect@@A 6609e818     route.obj
 0003:00013820       ?dwTakeWaypointToLevel@@3HA 6609e820     waypoint.obj
 0003:00013824       ?waypointBits@@3PADA       6609e824     waypoint.obj
 0003:00013830       ?waypointMap@@3PAHA        6609e830     waypoint.obj
 0003:00013a60       ?mouseL@@3HA               6609ea60     winmsg.obj
 0003:00013a64       ?mouseW@@3HA               6609ea64     winmsg.obj
 0003:00015e68       ?fSkipPainting@@3HA        660a0e68     winmsg.obj
 0003:00015e6c       ?fSkipPaintingMenu@@3HA    660a0e6c     winmsg.obj
 0003:00015e70       ?dwQuickSwapItemMs@@3HA    660a0e70     winmsg.obj
 0003:00015e74       ?dwScreenBlockMask@@3HA    660a0e74     winmsg.obj
 0003:00015e78       ?dwDrawCount@@3HA          660a0e78     winmsg.obj
 0003:00015e7c       ?fInMainMenu@@3HA          660a0e7c     winmsg.obj
 0003:00015e80       ?fLeftBtnDown@@3HA         660a0e80     winmsg.obj
 0003:00015e84       ?fRightBtnDown@@3HA        660a0e84     winmsg.obj
 0003:00015e88       ?dwBtnReleaseMs@@3HA       660a0e88     winmsg.obj
 0003:00015e8c       ?fUserOperating@@3HA       660a0e8c     winmsg.obj
 0003:00015e90       ?need_paint@@3HA           660a0e90     winmsg.obj
 0003:00015e94       ?altDown@@3HA              660a0e94     winmsg.obj
 0003:00015e98       ?ctrlDown@@3HA             660a0e98     winmsg.obj
 0003:00015e9c       ?shiftDown@@3HA            660a0e9c     winmsg.obj
 0003:00015eb8       ?fNoBackgroundImage@@3HA   660a0eb8     winmsg.obj
 0003:00015ebc       ?dwAutoHideMinimapKey@@3HA 660a0ebc     winmsg.obj
 0003:00015ec0       ?dwGameControlKeys@@3PAY03HA 660a0ec0     winmsg.obj
 0003:000162c0       ?dwGameSoundKeys@@3PAHA    660a12c0     winmsg.obj
 0003:000164c0       ?tSwitchWindowKeys@@3PAY01UToggleVar@@A 660a14c0     winmsg.obj
 0003:00016ac0       ?dwSwitchSkillKeyCount@@3HA 660a1ac0     winmsg.obj
 0003:00016ac4       ?fFullWindows@@3HA         660a1ac4     winmsg.obj
 0003:00016ac8       ?dwSwitchSkillKeys@@3PAHA  660a1ac8     winmsg.obj
 0003:00016b48       ?dwSwitchSkillLeft@@3PAY173HA 660a1b48     winmsg.obj
 0003:00017b48       ?dwSwitchSkillRight@@3PAY173HA 660a2b48     winmsg.obj
 0003:00018b48       ?dwSwitchSkillLeftUp@@3PAY07HA 660a3b48     winmsg.obj
 0003:00018f48       ?dwSwitchSkillRightUp@@3PAY07HA 660a3f48     winmsg.obj
 0003:00019348       ?dwSwitchSkillStandStill@@3PAHA 660a4348     winmsg.obj
 0003:000193c8       ?dwSwitchSkillLeftOrg@@3PAHA 660a43c8     winmsg.obj
 0003:00019448       ?dwSwitchSkillRightOrg@@3PAHA 660a4448     winmsg.obj
 0003:000194c8       ?dwTpSwitchBackground@@3PAHA 660a44c8     winmsg.obj
 0003:000194e8       ?dwEnterDoorInBackgroundSkill@@3PAY0IM@HA 660a44e8     winmsg.obj
 0003:0001a468       ?skipMonsters@@3PADA       660a5468     env.obj
 0003:0001a868       ?dwVisualEffectMode@@3HA   660a5868     env.obj
 0003:0001a870       ?afMonsterCorpses@@3PAEA   660a5870     env.obj
 0003:0001ac58       ?afMissileCorpses@@3PAEA   660a5c58     env.obj
 0003:0001b040       ?dwNextStackLoc@@3HA       660a6040     GameMonitor.obj
 0003:0001b044       ?dwNextStackY@@3HA         660a6044     GameMonitor.obj
 0003:0001b048       ?dwNextStackX@@3HA         660a6048     GameMonitor.obj
 0003:0001b04c       ?dwNextStackingId@@3HA     660a604c     GameMonitor.obj
 0003:0001b050       ?dwThrowWeaponId@@3HA      660a6050     GameMonitor.obj
 0003:0001b060       ?dwNextMPotionId@@3HA      660a6060     GameMonitor.obj
 0003:0001b064       ?dwNextHPotionId@@3HA      660a6064     GameMonitor.obj
 0003:0001b068       ?beltLayers@@3HA           660a6068     GameMonitor.obj
 0003:0001b06c       ?dwNeedPotionType@@3HA     660a606c     GameMonitor.obj
 0003:0001b070       ?beltType@@3PAEA           660a6070     GameMonitor.obj
 0003:0001b074       ?beltCount@@3PAEA          660a6074     GameMonitor.obj
 0003:0001b078       ?fWerebear@@3HA            660a6078     GameMonitor.obj
 0003:0001b07c       ?fWerewolf@@3HA            660a607c     GameMonitor.obj
 0003:0001b080       ?dwOakSageLvl@@3HA         660a6080     GameMonitor.obj
 0003:0001b084       ?bossHps@@3PAHA            660a6084     GameMonitor.obj
 0003:0001b090       ?dwRecheckSelfItemMs@@3HA  660a6090     GameMonitor.obj
 0003:0001b094       ?leftWeapon@@3PAUUnitAny@@A 660a6094     GameMonitor.obj
 0003:0001b098       ?rightWeapon@@3PAUUnitAny@@A 660a6098     GameMonitor.obj
 0003:0001b09c       ?dwTownPortalCount@@3HA    660a609c     GameMonitor.obj
 0003:0001b0a0       ?dwIdentifyPortalCount@@3HA 660a60a0     GameMonitor.obj
 0003:0001b0a4       ?fUsingBow@@3HA            660a60a4     GameMonitor.obj
 0003:0001b0a8       ?fUsingCrossBow@@3HA       660a60a8     GameMonitor.obj
 0003:0001b0ac       ?fUsingThrow@@3HA          660a60ac     GameMonitor.obj
 0003:0001b0b0       ?dwHPotionCount@@3HA       660a60b0     GameMonitor.obj
 0003:0001b0b4       ?dwMPotionCount@@3HA       660a60b4     GameMonitor.obj
 0003:0001b0b8       ?dwRPotionCount@@3HA       660a60b8     GameMonitor.obj
 0003:0001b0bc       ?dwArrowCount@@3HA         660a60bc     GameMonitor.obj
 0003:0001b0c0       ?dwCArrowCount@@3HA        660a60c0     GameMonitor.obj
 0003:0001b0c4       ?dwThrowCount@@3HA         660a60c4     GameMonitor.obj
 0003:0001b0c8       ?curStashPage@@3HA         660a60c8     GameMonitor.obj
 0003:0001b0cc       ?nStashPages@@3HA          660a60cc     GameMonitor.obj
 0003:0001b0d0       ?stashPages@@3PAPAUStashPage@@A 660a60d0     GameMonitor.obj
 0003:0001b2d0       ?bossX@@3HA                660a62d0     GameMonitor.obj
 0003:0001b2d4       ?bossY@@3HA                660a62d4     GameMonitor.obj
 0003:0001b2d8       ?bossId@@3HA               660a62d8     GameMonitor.obj
 0003:0001b2dc       ?nBoss@@3HA                660a62dc     GameMonitor.obj
 0003:0001b2e0       ?fMonitorQuantity@@3HA     660a62e0     GameMonitor.obj
 0003:0001b2e4       ?fMonitorDurability@@3HA   660a62e4     GameMonitor.obj
 0003:0001b2e8       ?dwKillSum@@3HA            660a62e8     GameMonitor.obj
 0003:0001b2ec       ?dwGameKills@@3HA          660a62ec     GameMonitor.obj
 0003:0001b2f0       ?dwLastKills@@3HA          660a62f0     GameMonitor.obj
 0003:0001b2f4       ?dwGetHitSum@@3HA          660a62f4     GameMonitor.obj
 0003:0001b2f8       ?dwGetHits@@3HA            660a62f8     GameMonitor.obj
 0003:0001b2fc       ?dwOrgMode@@3HA            660a62fc     GameMonitor.obj
 0003:0001b300       ?targetNameColor@@3DA      660a6300     GameMonitor.obj
 0003:0001b304       ?fState100HP@@3HA          660a6304     GameMonitor.obj
 0003:0001b308       ?fState106ManaMs@@3HA      660a6308     GameMonitor.obj
 0003:0001b310       ?dwGuessBOMs@@3HA          660a6310     GameMonitor.obj
 0003:0001b314       ?dwGuessEnchantMs@@3HA     660a6314     GameMonitor.obj
 0003:0001dc30       ?fViewingTargetUnit@@3HA   660a8c30     info.obj
 0003:0001dc34       ?currentgameexp@@3HA       660a8c34     info.obj
 0003:00092f90       ?dwGoldGoodNum@@3HA        6611df90     item.obj
 0003:00092f94       ?fSimplifiedPotionName@@3HA 6611df94     item.obj
 0003:00092f98       ?anRuneColours@@3PAY03DA   6611df98     item.obj
 0003:00093128       ?anItemColours@@3PAY37163DA 6611e128     item.obj
 0003:001db328       ?anItemHideLevel@@3PAY07DA 66266328     item.obj
 0003:001e10e8       ?anItemShowCLevel@@3PAY01DA 6626c0e8     item.obj
 0003:001e2858       ?wszEtherealItemPrefix@@3PA_WA 6626d858     item.obj
 0003:001e2894       ?wszEtherealItemPostfix@@3PA_WA 6626d894     item.obj
 0003:001e28d0       ?dwShowValuableItem@@3HA   6626d8d0     item.obj
 0003:001e28d8       ?szItemExtInfoCfgName@@3PAY0BAA@DA 6626d8d8     item.obj
 0003:001e2ad8       ?fViewSockFlag@@3HA        6626dad8     item.obj
 0003:001e2adc       ?fViewSocketableOn@@3HA    6626dadc     item.obj
 0003:001e2ae0       ?wszDescText@@3PA_WA       6626dae0     item.obj
 0003:001e32e0       ?pViewingItem@@3PAUUnitAny@@A 6626e2e0     item.obj
 0003:001e32e8       ?marketItemCount@@3HA      6626e2e8     item.obj
 0003:001e32ec       ?marketItemCount1@@3HA     6626e2ec     item.obj
 0003:001f2c10       ?dwCheckMercMs@@3HA        6627dc10     dangerous.obj
 0003:001f2c2c       ?dwIronGolemLifeAlertPercent@@3HA 6627dc2c     dangerous.obj
 0003:001f2c30       ?dwIronGolemLifeTownPercent@@3HA 6627dc30     dangerous.obj
 0003:001f2c34       ?dwIronGolemLifeExitPercent@@3HA 6627dc34     dangerous.obj
 0003:001f2c38       ?dwIronGolemTownLifePercent@@3HA 6627dc38     dangerous.obj
 0003:001f2c3c       ?dwHirePotionMinCLevel@@3HA 6627dc3c     dangerous.obj
 0003:001f2c40       ?dwHirePotionLifePercent@@3HA 6627dc40     dangerous.obj
 0003:001f2c44       ?dwHirePotionColumn@@3HA   6627dc44     dangerous.obj
 0003:001f2c48       ?dwHealingPotionLifePercent@@3HA 6627dc48     dangerous.obj
 0003:001f2c4c       ?dwHealingPotionDelayMs@@3HA 6627dc4c     dangerous.obj
 0003:001f2c50       ?dwManaPotionMax@@3HA      6627dc50     dangerous.obj
 0003:001f2c54       ?dwManaPotionValue@@3HA    6627dc54     dangerous.obj
 0003:001f2c58       ?dwManaPotionNTValue@@3HA  6627dc58     dangerous.obj
 0003:001f2c5c       ?dwChickenLife@@3HA        6627dc5c     dangerous.obj
 0003:001f2c60       ?dwChickenMaxLife@@3HA     6627dc60     dangerous.obj
 0003:001f2c64       ?dwChickenHostileLife@@3HA 6627dc64     dangerous.obj
 0003:001f2c68       ?dwChickenHostileNearbyLife@@3HA 6627dc68     dangerous.obj
 0003:001f2c6c       ?dwChickenLifePercent@@3HA 6627dc6c     dangerous.obj
 0003:001f2c70       ?dwChickenHostileLifePercent@@3HA 6627dc70     dangerous.obj
 0003:001f2c74       ?dwChickenHostileNearbyLifePercent@@3HA 6627dc74     dangerous.obj
 0003:001f2c78       ?dwChickenLifeMinClevel@@3HA 6627dc78     dangerous.obj
 0003:001f2c7c       ?fLifeProtectOn@@3HA       6627dc7c     dangerous.obj
 0003:001f2c80       ?fDangerousMonsterActive@@3HA 6627dc80     dangerous.obj
 0003:001f2c88       ?anDangerousMonster@@3PAY01DA 6627dc88     dangerous.obj
 0003:001f34d0       ?dwUpdateQuestMs@@3HA      6627e4d0     quest.obj
 0003:001f34d4       ?dwQuestAlertMs@@3HA       6627e4d4     quest.obj
 0003:001f34d8       ?hasRune789@@3HA           6627e4d8     quest.obj
 0003:001f34e0       ?wszBugKBAlertMessage@@3PA_WA 6627e4e0     quest.obj
 0003:001f7648       ?afMonsterDeathAnims@@3PAEA 66282648     lifebar.obj
 0003:001f7a68       ?aDropProtectRune@@3PADA   66282a68     DropProtection.obj
 0003:001f7a90       ?aDropProtectRuneword@@3PADA 66282a90     DropProtection.obj
 0003:001f7b90       ?aDropProtectUnique@@3PADA 66282b90     DropProtection.obj
 0003:001f7d90       ?aDropProtectSet@@3PADA    66282d90     DropProtection.obj
 0003:001f7e90       ?dwSimpleItemProtectionCount@@3HA 66282e90     DropProtection.obj
 0003:001fc2b0       ?fAutoEnchantCheckUnit@@3HA 662872b0     enchant.obj
 0003:001fc2b8       ?pD2WinEditBox@@3PAUD2EditBox@@A 662872b8     chat.obj
 0003:001fc2c0       ?chatPasteMs@@3HA          662872c0     chat.obj
 0003:001fc2c8       ?fMyChatOn@@3HA            662872c8     chat.obj
 0003:001fc390       ?dwAutoLoginMs@@3HA        66287390     login.obj
 0003:001fc398       ?dwAutoSelectCharMs@@3HA   66287398     login.obj
 0003:001fc3a8       ?nCurCharTags@@3HA         662873a8     login.obj
 0003:001fc3c0       ?mSkipQuestMessage@@3HA    662873c0     misc.obj
 0003:001fc3d4       ?dwWaitTeamEnterPortalId@@3HA 662873d4     multi.obj
 0003:001fc3d8       ?dwWaitTeamEnterPortalMs@@3HA 662873d8     multi.obj
 0003:001fc414       ?clickAcceptTradeMs@@3HA   66287414     multi.obj
 0003:001fc418       ?autoNpcTxt@@3HA           66287418     multi.obj
 0003:001fc41c       ?dwMultiClientMaxWindowId@@3HA 6628741c     multi.obj
 0003:001fc420       ?d2winLastId@@3HA          66287420     multi.obj
 0003:001fc424       ?fAutoFollowMoving@@3HA    66287424     multi.obj
 0003:001fc428       ?wszTransferClick@@3PA_WA  66287428     multi.obj
 0003:001fc4a8       ?acceptTradeFromGid@@3HA   662874a8     multi.obj
 0003:001fc4ac       ?acceptTradeFromUid@@3HA   662874ac     multi.obj
 0003:001fc4b0       ?acceptTradeMs@@3HA        662874b0     multi.obj
 0003:001fc4cc       ?fTransferClick@@3HA       662874cc     multi.obj
 0003:001fc4d0       ?tMCFormationKeys@@3PAUToggleVar@@A 662874d0     multi.obj
 0003:001fcad0       ?aMCFormation@@3PAY0BA@CA  66287ad0     multi.obj
 0003:001fccd0       ?aAutoFollowClickObject@@3PADA 66287cd0     multi.obj
 0003:001fd0d0       ?dwTeamMemberCount@@3HA    662880d0     multi.obj
 0003:001fd0d4       ?dwLeaderId@@3HA           662880d4     multi.obj
 0003:001fd0e0       ?d2wins@@3PAUD2Window@@A   662880e0     multi.obj
 0003:001ff178       ?wszNpcTradeInfo@@3PA_WA   6628a178     NpcTrade.obj
 0003:001ffcdc       ?dwNpcTradeCheckMs@@3HA    6628acdc     NpcTrade.obj
 0003:001ffce0       ?dwPartyInvideMs@@3HA      6628ace0     party.obj
 0003:001ffce4       ?fCanInvite@@3HA           6628ace4     party.obj
 0003:001ffce8       ?dwPartyResponseMs@@3HA    6628ace8     party.obj
 0003:001ffd00       ?fCanExitGame@@3HA         6628ad00     quick.obj
 0003:001ffd04       ?dwBackToTownTimeout@@3HA  6628ad04     quick.obj
 0003:001ffd10       ?fAutoNextGameName@@3HA    6628ad10     quick.obj
 0003:001ffd14       ?fAutoNextGamePassword@@3HA 6628ad14     quick.obj
 0003:001ffd18       ?fAutoNextGameDescription@@3HA 6628ad18     quick.obj
 0003:001ffd20       ?wszGameName@@3PA_WA       6628ad20     quick.obj
 0003:001ffd60       ?wszGamePassword@@3PA_WA   6628ad60     quick.obj
 0003:001ffda0       ?wszGameDescription@@3PA_WA 6628ada0     quick.obj
 0003:001ffde4       ?autoJoinGameMs@@3HA       6628ade4     quick.obj
 0003:00200370       ?fHighRes@@3HA             6628b370     resolution.obj
 0003:00204444       ?dwAutoSkillReloading@@3HA 6628f444     skill.obj
 0003:00204448       ?dwRescueBarSafeDistance@@3HA 6628f448     skill.obj
 0003:0020444c       ?fAutoEnchant@@3HA         6628f44c     skill.obj
 0003:00204450       ?aAutoPickupItem@@3PADA    6628f450     skill.obj
 0003:00205008       ?fAutoEnchantUseLeftSkill@@3HA 66290008     skill.obj
 0003:0020500c       ?fAutoWarCry@@3HA          6629000c     skill.obj
 0003:00205010       ?dwAutoEnchantMonster@@3PADA 66290010     skill.obj
 0003:00205410       ?fAutoWarCryUseLeftSkill@@3HA 66290410     skill.obj
 0003:00205414       ?dwAutoWarCryRenewPercent@@3HA 66290414     skill.obj
 0003:00205418       ?dwUseLeftSkillFirst@@3HA  66290418     skill.obj
 0003:0020541c       ?dwAutoReloadThrowing@@3HA 6629041c     skill.obj
 0003:00205420       ?dwAutoSkillCheckMs@@3HA   66290420     skill.obj
 0003:00205424       ?dwAutoSkillMode@@3HA      66290424     skill.obj
 0003:00205428       ?fAutoSkillNow@@3HA        66290428     skill.obj
 0003:0020542c       ?fAutoSkill@@3HA           6629042c     skill.obj
 0003:00205430       ?aAutoDimVisionMonster@@3PADA 66290430     skill.obj
 0003:00205830       ?aAutoSkillMonsterType@@3PADA 66290830     skill.obj
 0003:00205c30       ?aAutoSkillDistance@@3PAY01DA 66290c30     skill.obj
 0003:00206030       ?fAutoSummon@@3HA          66291030     skill.obj
 0003:00206034       ?fAutoSummonUseLeftSkill@@3HA 66291034     skill.obj
 0003:00206038       ?dwAutoSummonStartMs@@3HA  66291038     skill.obj
 0003:0020603c       ?dwAutoSummonCheckEnchantMs@@3HA 6629103c     skill.obj
 0003:00206040       ?aAutoReviveMonster@@3PADA 66291040     skill.obj
 0003:00206440       ?dwSkeletonCount@@3HA      66291440     skill.obj
 0003:00206444       ?dwEnchantSkeletonCount@@3HA 66291444     skill.obj
 0003:00206448       ?dwSkeletonMaxCount@@3HA   66291448     skill.obj
 0003:0020644c       ?dwSkeletonMageCount@@3HA  6629144c     skill.obj
 0003:00206450       ?dwSkeletonMageMaxCount@@3HA 66291450     skill.obj
 0003:00206454       ?dwReviveCount@@3HA        66291454     skill.obj
 0003:00206458       ?dwReviveMaxCount@@3HA     66291458     skill.obj
 0003:0020645c       ?dwSkeletonHPPercent@@3HA  6629145c     skill.obj
 0003:00206460       ?dwSkeletonMageHPPercent@@3HA 66291460     skill.obj
 0003:00208e20       ?questNames@@3PAPADA       66293e20     Snapshot.obj
 0003:00208ee0       ?dwMercNameId@@3HA         66293ee0     Snapshot.obj
 0003:00208eec       ?dwMercSeed@@3HA           66293eec     Snapshot.obj
 0003:00209060       ?dwCheckSkeletonCountMs@@3HA 66294060     summon.obj
 0003:0020d088       ?fAutoSummonSwitchSkillTmp@@3HA 66298088     summon.obj
 0003:0020d08c       ?fAutoSummonSwitchSkill@@3HA 6629808c     summon.obj
 0003:0020d090       ?fAutoSummonNeedCorpse@@3HA 66298090     summon.obj
 0003:0020d094       ?dwNecInfoExpireMs@@3HA    66298094     summon.obj
 0003:0020d098       ?dwNecMana@@3HA            66298098     summon.obj
 0003:0020d09c       ?dwTotalMonsterCount@@3HA  6629809c     summon.obj
 0003:0020d0a0       ?dwSkillChangeCount@@3HA   662980a0     summon.obj
 0003:0020d508       ?maxTpDisRaw@@3HA          66298508     teleport.obj
 0003:0020d57c       ?dwTpDoneMs@@3HA           6629857c     teleport.obj
 0003:0020d580       ?dwTpMs@@3HA               66298580     teleport.obj
 0003:0020d584       ?TPfailedRect@@3PAUAreaRectData@@A 66298584     teleport.obj
 0003:0020d588       ?TPtargetRect@@3PAUAreaRectData@@A 66298588     teleport.obj
 0003:0020d58c       ?TPtarget@@3UtagPOINT@@A   6629858c     teleport.obj
 0003:0020d5c0       ?fAutoTeleporting@@3HA     662985c0     teleport.obj
 0003:0020d5c4       ?unexpectedMonCount@@3HA   662985c4     teleport.obj
 0003:0020d5c8       ?unexpectedMonTotalMs@@3HA 662985c8     teleport.obj
 0003:0020d5e0       ?fEnableHighResolutionPatch@@3HA 662985e0     panel.obj
 0003:0020d5e4       ?serverCubeType@@3HA       662985e4     panel.obj
 0003:0020d5e8       ?clientCubeType@@3HA       662985e8     panel.obj
 0003:0020d5ec       ?serverStashType@@3HA      662985ec     panel.obj
 0003:0020d5f0       ?clientStashType@@3HA      662985f0     panel.obj
 0003:0020d5f4       ?serverInvType@@3HA        662985f4     panel.obj
 0003:0020d5f8       ?clientInvType@@3HA        662985f8     panel.obj
 0003:0020d604       ?fEnableBigStash@@3HA      66298604     panel.obj
 0003:0020d608       ?dwInvType@@3HA            66298608     panel.obj
 0003:0020d60c       ?dwStashType@@3HA          6629860c     panel.obj
 0003:0020d610       ?dwCubeType@@3HA           66298610     panel.obj
 0003:0020d86c       ?active_UberDiabloRushTweekAI@@3_NA 6629886c     uber.obj
 0003:0020d86d       ?active_UberBaalTeleportTweekAI@@3_NA 6629886d     uber.obj
 0003:0020d86e       ?active_UberBaalChillingArmorTweekAI@@3_NA 6629886e     uber.obj
 0003:0020d870       ?uberBaalChillingArmorLastFrame@@3HA 66298870     uber.obj
 0003:0020d874       __cflush                   66298874     LIBCMT:_file.obj
 0003:0020d878       ___fastflag                66298878     LIBCMT:_fpinit_.obj
 0003:0020d87c       __adjust_fdiv              6629887c     LIBCMT:_fpinit_.obj
 0003:0020d898       __aenvptr                  66298898     LIBCMT:dllcrt0.obj
 0003:0020d89c       __wenvptr                  6629889c     LIBCMT:dllcrt0.obj
 0003:0020d8a0       ___error_mode              662988a0     LIBCMT:dllcrt0.obj
 0003:0020d8a4       ___app_type                662988a4     LIBCMT:dllcrt0.obj
 0003:0020d8ac       ___mbulinfo                662988ac     LIBCMT:mbctype.obj
 0003:0020d8b8       ___mbcodepage              662988b8     LIBCMT:mbctype.obj
 0003:0020d8bc       ___ismbcodepage            662988bc     LIBCMT:mbctype.obj
 0003:0020d8c0       ___mblcid                  662988c0     LIBCMT:mbctype.obj
 0003:0020d8c4       ___locale_changed          662988c4     LIBCMT:setlocal.obj
 0003:0020d8c8       ___lc_handle               662988c8     LIBCMT:nlsdata2.obj
 0003:0020d8e0       ___lc_codepage             662988e0     LIBCMT:nlsdata2.obj
 0003:0020d8e4       ___lc_collate_cp           662988e4     LIBCMT:nlsdata2.obj
 0003:0020d8e8       _gpFlsAlloc                662988e8     LIBCMT:tidtable.obj
 0003:0020d8ec       _gpFlsGetValue             662988ec     LIBCMT:tidtable.obj
 0003:0020d8f0       _gpFlsSetValue             662988f0     LIBCMT:tidtable.obj
 0003:0020d8f4       _gpFlsFree                 662988f4     LIBCMT:tidtable.obj
 0003:0020d8f8       ___pInvalidArgHandler      662988f8     LIBCMT:invarg.obj
 0003:0020da50       __stdbuf                   66298a50     LIBCMT:_sftbuf.obj
 0003:0020dd7c       ?_pnhHeap@@3P6AHI@ZA       66298d7c     LIBCMT:handler.obj
 0003:0020dd80       __newmode                  66298d80     LIBCMT:_newmode.obj
 0003:0020dd84       __crtheap                  66298d84     LIBCMT:heapinit.obj
 0003:0020dd88       ___sbh_pHeaderDefer        66298d88     LIBCMT:sbheap.obj
 0003:0020dd90       __maxwait                  66298d90     LIBCMT:crtheap.obj
 0003:0020dd94       __umaskval                 66298d94     LIBCMT:crt0dat.obj
 0003:0020dd98       ___argc                    66298d98     LIBCMT:crt0dat.obj
 0003:0020dd9c       ___argv                    66298d9c     LIBCMT:crt0dat.obj
 0003:0020dda0       ___wargv                   66298da0     LIBCMT:crt0dat.obj
 0003:0020dda4       __environ                  66298da4     LIBCMT:crt0dat.obj
 0003:0020dda8       ___initenv                 66298da8     LIBCMT:crt0dat.obj
 0003:0020ddac       __wenviron                 66298dac     LIBCMT:crt0dat.obj
 0003:0020ddb0       ___winitenv                66298db0     LIBCMT:crt0dat.obj
 0003:0020ddb4       __pgmptr                   66298db4     LIBCMT:crt0dat.obj
 0003:0020ddb8       __wpgmptr                  66298db8     LIBCMT:crt0dat.obj
 0003:0020ddbc       __exitflag                 66298dbc     LIBCMT:crt0dat.obj
 0003:0020ddc0       __C_Termination_Done       66298dc0     LIBCMT:crt0dat.obj
 0003:0020ddc4       __C_Exit_Done              66298dc4     LIBCMT:crt0dat.obj
 0003:0020e1f0       ___lconv_static_null       662991f0     LIBCMT:lconv.obj
 0003:0020e1f8       ?__pInconsistency@@3P6AXXZA 662991f8     LIBCMT:hooks.obj
 0003:0020e21c       ___pPurecall               6629921c     LIBCMT:inithelp.obj
 0003:0020e220       __outputformat             66299220     LIBCMT:outputformat.obj
 0003:0020e2f8       __commode                  662992f8     LIBCMT:ncommode.obj
 0003:0020e310       ?pArgList@UnDecorator@@0PAVReplicator@@A 66299310     LIBCMT:undname.obj
 0003:0020e314       ?pZNameList@UnDecorator@@0PAVReplicator@@A 66299314     LIBCMT:undname.obj
 0003:0020e318       ?pTemplateArgList@UnDecorator@@0PAVReplicator@@A 66299318     LIBCMT:undname.obj
 0003:0020e31c       ?gName@UnDecorator@@0PBDB  6629931c     LIBCMT:undname.obj
 0003:0020e320       ?name@UnDecorator@@0PBDB   66299320     LIBCMT:undname.obj
 0003:0020e324       ?outputString@UnDecorator@@0PADA 66299324     LIBCMT:undname.obj
 0003:0020e328       ?maxStringLength@UnDecorator@@0HA 66299328     LIBCMT:undname.obj
 0003:0020e32c       ?disableFlags@UnDecorator@@0KA 6629932c     LIBCMT:undname.obj
 0003:0020e330       ?m_pGetParameter@UnDecorator@@0P6APADJ@ZA 66299330     LIBCMT:undname.obj
 0003:0020e334       ?fExplicitTemplateParams@UnDecorator@@0_NA 66299334     LIBCMT:undname.obj
 0003:0020e335       ?fGetTemplateArgumentList@UnDecorator@@0_NA 66299335     LIBCMT:undname.obj
 0003:0020e338       __fmode                    66299338     LIBCMT:txtmode.obj
 0003:0020e340       __debugger_hook_dummy      66299340     <common>
 0003:0020e344       ___use_sse2_mathfcns       66299344     <common>
 0003:0020e348       ___env_initialized         66299348     <common>
 0003:0020e34c       ___onexitend               6629934c     <common>
 0003:0020e350       ___onexitbegin             66299350     <common>
 0003:0020e354       ___mbctype_initialized     66299354     <common>
 0003:0020e358       ___dyn_tls_init_callback   66299358     <common>
 0003:0020e35c       ___sbh_cntHeaderList       6629935c     <common>
 0003:0020e360       ___sbh_pHeaderList         66299360     <common>
 0003:0020e364       ___sbh_threshold           66299364     <common>
 0003:0020e368       ___sbh_pHeaderScan         66299368     <common>
 0003:0020e36c       ___sbh_sizeHeaderList      6629936c     <common>
 0003:0020e370       ___sbh_indGroupDefer       66299370     <common>
 0003:0020e374       ___active_heap             66299374     <common>
 0003:0020e378       ___sse2_available          66299378     <common>
 0003:0020e37c       __nhandle                  6629937c     <common>
 0003:0020e380       ___pioinfo                 66299380     <common>
 0003:0020e480       __acmdln                   66299480     <common>
 0003:0020e484       __pDestructExceptionObject 66299484     <common>
 0003:0020e488       ___piob                    66299488     <common>
 0003:0020e4a0       __bufin                    662994a0     <common>
 0003:0020f4a0       __nstream                  6629a4a0     <common>

 entry point at        0001:0005fdd4

 Static symbols

 0001:00000a20       ?initKeyArray@@YAXPAUConfigVar@@HH@Z 66001a20 f   config.obj
 0001:00002dd0       ?parseInt@@YAHPADPAPAD@Z   66003dd0 f   config.obj
 0001:00002e70       ?parseValues8@@YAXPAD0H@Z  66003e70 f   config.obj
 0001:00002f40       ?parseValues32@@YAXPAHPADH@Z 66003f40 f   config.obj
 0001:000035e0       ?InitValues@@YAXXZ         660045e0 f   config.obj
 0001:000038c0       ?changeLogPath@@YAHPAD@Z   660048c0 f   config.obj
 0001:00003a60       ?loadConfig@@YAXPAD@Z      66004a60 f   config.obj
 0001:00004270       ?loadTagFile@@YAXPAD@Z     66005270 f   config.obj
 0001:00004510       ?loadSymbolFile@@YAXPAD@Z  66005510 f   config.obj
 0001:00004710       ?isNumber@@YAHPAD@Z        66005710 f   config.obj
 0001:00005640       ?doPatchCALL@@YAXHHH@Z     66006640 f   install.obj
 0001:00005690       ?doPatchJMP@@YAXHHH@Z      66006690 f   install.obj
 0001:000056e0       ?doPatchFILL@@YAXHHH@Z     660066e0 f   install.obj
 0001:00005730       ?doPatchVALUE@@YAXHHH@Z    66006730 f   install.obj
 0001:00005950       ?parseOriginalCode@@YAHPADH0HPAH@Z 66006950 f   install.obj
 0001:00009620       ?InstallPatchAfterLoad@@YAXXZ 6600a620 f   install.obj
 0001:00009650       ?installD2PatchesAfterLoad@@YAHXZ 6600a650 f   install.obj
 0001:000099b0       ?installNetworkRecvPatch@@YAHXZ 6600a9b0 f   install.obj
 0001:00009a00       ?installPatchToggle@@YAHXZ 6600aa00 f   install.obj
 0001:00009ac0       ?installD2Patches@@YAHXZ   6600aac0 f   install.obj
 0001:00013820       ?dumpPtr@@YAXPAU_iobuf@@PADHH1H@Z 66014820 f   install.obj
 0001:00013aa0       ?dump@@YAXXZ               66014aa0 f   install.obj
 0001:00013fe0       ?ReloadDll@@YAHXZ          66014fe0 f   install.obj
 0001:00014040       ?ReloadConfig@@YAHXZ       66015040 f   install.obj
 0001:00014140       _stat                      66015140 f   install.obj
 0001:00014140       _stat                      66015140 f   install.obj
 0001:00014d10       ?d2msg@@YAXHPA_WH@Z        66015d10 f   common.obj
 0001:00017540       ?comparePet@@YAHPBX0@Z     66018540 f   common.obj
 0001:00017540       ?comparePvp@@YAHPBX0@Z     66018540 f   common.obj
 0001:00017540       ?compareItem@@YAHPBX0@Z    66018540 f   common.obj
 0001:000181b0       ?sendPacket43E0Patch_ASM@@YAXXZ 660191b0 f   dbg.obj
 0001:000181d0       ?sendPacket43E0@@YIXPADHH@Z 660191d0 f   dbg.obj
 0001:00018220       ?sendPacket3Patch_ASM@@YAXXZ 66019220 f   dbg.obj
 0001:00018240       ?sendPacket3@@YIXDFH@Z     66019240 f   dbg.obj
 0001:00018290       ?clickMenuItemPatch_ASM@@YAXXZ 66019290 f   dbg.obj
 0001:000182b0       ?clickMenuItem@@YIXH@Z     660192b0 f   dbg.obj
 0001:00018c80       ?gameStart@@YAXXZ          66019c80 f   loop.obj
 0001:00018fe0       ?checkTag@@YAXPAD@Z        66019fe0 f   loop.obj
 0001:00019a40       ?updateTargetName@@YAXXZ   6601aa40 f   map.obj
 0001:00019e00       ?selectWaypointTarget@@YAXXZ 6601ae00 f   map.obj
 0001:0001a3d0       ?LoadBmpCellFile@@YAPAUCellFile@@PAD@Z 6601b3d0 f   map.obj
 0001:0001a480       ?InitCellFile@@YAPAUCellFile@@PAU1@@Z 6601b480 f   map.obj
 0001:0001a590       ?DeleteCellFile@@YAXPAUCellFile@@@Z 6601b590 f   map.obj
 0001:0001a7f0       ?addCorner@@YAXPAUSC@@HH@Z 6601b7f0 f   map.obj
 0001:0001ab30       ?modifyRescueBarTarget@@YAXXZ 6601bb30 f   map.obj
 0001:0001aca0       ?target_sort@@YAXPAPAUMinimapLevelTarget@@@Z 6601bca0 f   map.obj
 0001:0001ad70       ?modifySealTarget@@YAXXZ   6601bd70 f   map.obj
 0001:0001b1d0       ?modifyTempleTarget@@YAXXZ 6601c1d0 f   map.obj
 0001:0001b280       ?modifyTeleportTarget@@YAXXZ 6601c280 f   map.obj
 0001:0001b5f0       ?ResetAutomapNodeCellNo@@YAXPAUAutomapNode@@@Z 6601c5f0 f   map.obj
 0001:0001d270       ?isConnected@@YAHPAUAreaRectInfo@@0PAUtagPOINT@@@Z 6601e270 f   map.obj
 0001:0001d5d0       ?drawAreaRect@@YAXPAUAreaRectInfo@@H@Z 6601e5d0 f   map.obj
 0001:0001d8f0       ?DrawMinimapPoint@@YAXXZ   6601e8f0 f   map.obj
 0001:0001eb50       ?hex@@YAXPAU_iobuf@@HPAXH@Z 6601fb50 f   packet.obj
 0001:000209f0       ?drawAARect@@YAXPAURouteRect@@@Z 660219f0 f   route.obj
 0001:00020d50       ?initRectRoute@@YAHPAUMinimapLevelTarget@@@Z 66021d50 f   route.obj
 0001:000211a0       ?canTeleport@@YAHPAUAreaRectData@@PAURouteRect@@@Z 660221a0 f   route.obj
 0001:00021300       ?recycleRouteInfo@@YAXPAUMinimapLevelTarget@@@Z 66022300 f   route.obj
 0001:00021460       ?performRectRoute@@YAXPAUMinimapLevelTarget@@@Z 66022460 f   route.obj
 0001:00021f90       ?recvWaypointMenu@@YIHPADH@Z 66022f90 f   waypoint.obj
 0001:00022e50       ?setWinTitle@@YAXPAUHWND__@@H@Z 66023e50 f   winmsg.obj
 0001:00023e80       ?keyDown@@YIHHH@Z          66024e80 f   winmsg.obj
 0001:00024130       ?shouldProcessKey@@YAHHH@Z 66025130 f   winmsg.obj
 0001:00024230       ?keyUp@@YIHHH@Z            66025230 f   winmsg.obj
 0001:00024460       ?createVersionTextBox@@YAXXZ 66025460 f   winmsg.obj
 0001:00024570       ?debugMsDrawUnitStart@@YAXXZ 66025570 f   winmsg.obj
 0001:000245f0       ?beforeDrawControl@@YAXXZ  660255f0 f   winmsg.obj
 0001:00024620       ?debugMsDrawControlStart@@YAXXZ 66025620 f   winmsg.obj
 0001:00024660       ?debugMsDrawControlEnd@@YAXXZ 66025660 f   winmsg.obj
 0001:000246c0       ?shouldSkipDrawUnitAndControl@@YAHXZ 660256c0 f   winmsg.obj
 0001:00024750       ?shouldSkipAllDrawing@@YAHXZ 66025750 f   winmsg.obj
 0001:00024800       ?skipDrawMenu2@@YAHXZ      66025800 f   winmsg.obj
 0001:00024890       ?mainMenuSkip@@YAHXZ       66025890 f   winmsg.obj
 0001:00024ff0       ?drawGroundRect@@YAXPAUAreaRectData@@@Z 66025ff0 f   env.obj
 0001:00025790       ?checkWeapon@@YAXPAUUnitAny@@@Z 66026790 f   GameMonitor.obj
 0001:00025890       ?checkItem@@YAXPAUUnitAny@@H@Z 66026890 f   GameMonitor.obj
 0001:00028130       ?recvState@@YIXPAE@Z       66029130 f   GameMonitor.obj
 0001:000287b0       ?drawUnitsInfoInRect@@YAXPAUAreaRectData@@@Z 660297b0 f   GameMonitor.obj
 0001:00028bf0       ?drawPlayerName@@YAXPAUUnitAny@@@Z 66029bf0 f   GameMonitor.obj
 0001:000292f0       ?drawBossHp@@YAXPAUUnitAny@@H@Z 6602a2f0 f   GameMonitor.obj
 0001:0002ce70       ?wscolorcpy@@YAPA_WPA_W0E@Z 6602de70 f   item.obj
 0001:0002ce70       ?wscolorcpy@@YAPA_WPA_W0E@Z 6602de70 f   item.obj
 0001:000318b0       ?rescanMercPointers@@YAXXZ 660328b0 f   dangerous.obj
 0001:00032c00       ?checkQuest@@YAXHHHPAD@Z   66033c00 f   quest.obj
 0001:00033020       ?questAlert@@YAXXZ         66034020 f   quest.obj
 0001:00034340       ?drawQuestState@@YAXPAG0HHH@Z 66035340 f   quest.obj
 0001:00034690       ?recv28_quest@@YIXPAD@Z    66035690 f   quest.obj
 0001:00036860       ?switchTo@@YAXH@Z          66037860 f   bo.obj
 0001:00036960       ?useSkill@@YAHH@Z          66037960 f   bo.obj
 0001:00036cd0       _time                      66037cd0 f   d2s.obj
 0001:00037e60       ?hasProp@@YAHPAUUnitAny@@HH@Z 66038e60 f   DropProtection.obj
 0001:000382e0       ?deleteCharacterCallback@@YIXPAD0@Z 660392e0 f   DropProtection.obj
 0001:00038370       ?canDeleteCharacter@@YIHPAUD2Character@@@Z 66039370 f   DropProtection.obj
 0001:00038bc0       ?skipMenuItem@@YIHPAUMenuItem@@@Z 66039bc0 f   DropProtection.obj
 0001:000395c0       ?findTargetItem@@YAPAUUnitAny@@H@Z 6603a5c0 f   DropProtection.obj
 0001:00039c70       ?doEnchant@@YAHPAUUnitAny@@@Z 6603ac70 f   enchant.obj
 0001:0003b0f0       ?sortGameList@@YAXXZ       6603c0f0 f   mcp.obj
 0001:0003b130       ?compareMcp05Game@@YAHPBX0@Z 6603c130 f   mcp.obj
 0001:0003b180       ?showGameListDifficulty@@YIXPAXPAD@Z 6603c180 f   mcp.obj
 0001:0003b3e0       ?compareCharTag@@YAHPBX0@Z 6603c3e0 f   login.obj
 0001:0003b9c0       ?c2w@@YAXPADPA_W@Z         6603c9c0 f   login.obj
 0001:0003bb40       ?selectChar@@YIXH@Z        6603cb40 f   login.obj
 0001:0003e5f0       ?teamMemberInArea@@YAHH@Z  6603f5f0 f   multi.obj
 0001:0003e690       ?interactObject@@YAXXZ     6603f690 f   multi.obj
 0001:0003ecd0       ?sendStartFollowCmd@@YAHPAUD2Window@@@Z 6603fcd0 f   multi.obj
 0001:0003ed00       ?sendStopFollowCmd@@YAHPAUD2Window@@@Z 6603fd00 f   multi.obj
 0001:0003fe00       ?doTransferClick@@YAHHPAUUnitAny@@HH@Z 66040e00 f   multi.obj
 0001:00040580       ?recvCommand77@@YIXPAD@Z   66041580 f   multi.obj
 0001:00040790       ?recvCommand78@@YIXPAD@Z   66041790 f   multi.obj
 0001:00040a40       ?checkItems@@YAXHH@Z       66041a40 f   NpcTrade.obj
 0001:00040ba0       ?checkItem@@YAXPAUUnitAny@@H@Z 66041ba0 f   NpcTrade.obj
 0001:00041770       ?autoPartyBugMF@@YAHXZ     66042770 f   party.obj
 0001:00041cc0       ?doInvite@@YAXH@Z          66042cc0 f   party.obj
 0001:00041da0       ?recvCommand5B@@YIXPAE@Z   66042da0 f   party.obj
 0001:00041f40       ?assignPlayer@@YIXPAD@Z    66042f40 f   party.obj
 0001:00043150       ?canPutIn@@YAHPADHHHH@Z    66044150 f   QuickSwapItem.obj
 0001:000439c0       ?updateCubeInvMap@@YAXXZ   660449c0 f   QuickSwapItem.obj
 0001:00043ee0       ?dropItemToGound@@YAHXZ    66044ee0 f   QuickSwapItem.obj
 0001:00043f50       ?updateInv@@YAXPAUInventoryType@@H@Z 66044f50 f   QuickSwapItem.obj
 0001:00044000       ?putIntoSimpleItemStack@@YAHXZ 66045000 f   QuickSwapItem.obj
 0001:000440c0       ?findSimpleItemStack@@YAPAUUnitAny@@H@Z 660450c0 f   QuickSwapItem.obj
 0001:000446a0       ?pickupItem@@YAHPAUUnitAny@@@Z 660456a0 f   QuickSwapItem.obj
 0001:00044730       ?findGemInv@@YAPAUUnitAny@@HH@Z 66045730 f   QuickSwapItem.obj
 0001:00045260       ?getGlobalBeltSlotPosition@@YIXPAH0@Z 66046260 f   resolution.obj
 0001:00045310       ?getGlobalBeltRecord@@YIXPAH@Z 66046310 f   resolution.obj
 0001:000453d0       ?adjWinRectEx@@YGHHPAUtagRECT@@HHH@Z 660463d0 f   resolution.obj
 0001:00045e80       ?isAutoSkill@@YAHPAUSkill@@@Z 66046e80 f   skill.obj
 0001:00045ff0       ?checkAutoSkill1@@YAXHH@Z  66046ff0 f   skill.obj
 0001:000468b0       ?updateSkill@@YAXPAUAutoSkillInfo@@H@Z 660478b0 f   skill.obj
 0001:00046f30       ?processStacking@@YAXXZ    66047f30 f   skill.obj
 0001:00047070       ?canUse@@YAHPAUAutoSkillInfo@@@Z 66048070 f   skill.obj
 0001:00047150       ?checkUnit@@YAXPAUUnitAny@@@Z 66048150 f   skill.obj
 0001:00048a90       ?getLvPercent@@YAHPAUUnitAny@@@Z 66049a90 f   Snapshot.obj
 0001:000494c0       ?countGemRunes@@YAXPAUUnitAny@@@Z 6604a4c0 f   Snapshot.obj
 0001:000498b0       ?isStartEq@@YAHPAUUnitAny@@@Z 6604a8b0 f   Snapshot.obj
 0001:00049ba0       ?dumpStats@@YAHPAU_iobuf@@PAUStat@@@Z 6604aba0 f   Snapshot.obj
 0001:00049f90       ?dumpInventory@@YAXXZ      6604af90 f   Snapshot.obj
 0001:0004a680       ?dumpUnit@@YAXPAU_iobuf@@PAUUnitAny@@@Z 6604b680 f   Snapshot.obj
 0001:0004b0d0       ?outputGemRune@@YAXPAU_iobuf@@@Z 6604c0d0 f   Snapshot.obj
 0001:0004b360       ?dumpItem@@YAXPAU_iobuf@@PAUUnitAny@@HH@Z 6604c360 f   Snapshot.obj
 0001:0004c400       ?addItem@@YAXPAUUnitAny@@H@Z 6604d400 f   Snapshot.obj
 0001:0004c790       ?dumpItems@@YAXPAU_iobuf@@PAUUnitAny@@H@Z 6604d790 f   Snapshot.obj
 0001:0004c860       ?dumpQuests@@YAXPAU_iobuf@@@Z 6604d860 f   Snapshot.obj
 0001:0004cfd0       ?dumpTodo@@YAXPAU_iobuf@@HPADPAUQ@@@Z 6604dfd0 f   Snapshot.obj
 0001:0004d0f0       ?loadQuests@@YAXXZ         6604e0f0 f   Snapshot.obj
 0001:0004d1c0       ?dumpWaypoints@@YAXPAU_iobuf@@@Z 6604e1c0 f   Snapshot.obj
 0001:0004d360       ?dumpSkills@@YAXPAU_iobuf@@PAUUnitAny@@@Z 6604e360 f   Snapshot.obj
 0001:0004d470       ?dumpSkill@@YAXPAU_iobuf@@PAUSkill@@@Z 6604e470 f   Snapshot.obj
 0001:0004d580       ?dumpObject@@YAXPAU_iobuf@@PAUUnitAny@@@Z 6604e580 f   Snapshot.obj
 0001:0004d6e0       ?dumpAreatile@@YAXPAU_iobuf@@PAUUnitAny@@@Z 6604e6e0 f   Snapshot.obj
 0001:0004e1e0       ?doDeleteSnapshotFile@@YAXPAD@Z 6604f1e0 f   Snapshot.obj
 0001:0004ecf0       ?saveItem@@YAXPAU_iobuf@@PAUUnitAny@@@Z 6604fcf0 f   snap.obj
 0001:0004f140       ?formatItems2@@YAHPAU_iobuf@@0H@Z 66050140 f   snap.obj
 0001:0004f330       ?formatItem@@YAXPAU_iobuf@@0HH@Z 66050330 f   snap.obj
 0001:0004ff20       ?isAllAttr@@YAHPAUStatEx@@@Z 66050f20 f   snap.obj
 0001:0004ff90       ?isAllResist@@YAHPAUStatEx@@@Z 66050f90 f   snap.obj
 0001:00050b60       ?checkSummonSkillLevel@@YAXXZ 66051b60 f   summon.obj
 0001:00050cb0       ?getSummonCount@@YAHH@Z    66051cb0 f   summon.obj
 0001:00050ce0       ?needSummon@@YAHXZ         66051ce0 f   summon.obj
 0001:00050ef0       ?switchSummonSkill@@YAXH@Z 66051ef0 f   summon.obj
 0001:00050f20       ?checkUnit@@YAXPAUUnitAny@@@Z 66051f20 f   summon.obj
 0001:00051a20       ?findBoss@@YAHHH@Z         66052a20 f   teleport.obj
 0001:00051af0       ?resetMonsters@@YAXXZ      66052af0 f   teleport.obj
 0001:00051b70       ?findMonsters@@YAXXZ       66052b70 f   teleport.obj
 0001:00051f10       ?addMonMap@@YAXHH@Z        66052f10 f   teleport.obj
 0001:00051f70       ?calBoundingBox@@YAXXZ     66052f70 f   teleport.obj
 0001:000520b0       ?getMonDis@@YAHPAUtagPOINT@@@Z 660530b0 f   teleport.obj
 0001:00052110       ?dis@@YAHPAUtagPOINT@@0@Z  66053110 f   teleport.obj
 0001:00052140       ?interact@@YAXPAUtagPOINT@@HH@Z 66053140 f   teleport.obj
 0001:00052220       ?interactObj@@YAXPAUUnitAny@@@Z 66053220 f   teleport.obj
 0001:000523e0       ?teleportForward@@YAHXZ    660533e0 f   teleport.obj
 0001:00052800       ?addPossiblePostions@@YAXPAUAreaRectData@@0PAUtagPOINT@@H@Z 66053800 f   teleport.obj
 0001:00052c20       ?disM256@@YAHPAUtagPOINT@@0@Z 66053c20 f   teleport.obj
 0001:00052c50       ?hasMon@@YAHHH@Z           66053c50 f   teleport.obj
 0001:00052cb0       ?findValidPosition@@YAHXZ  66053cb0 f   teleport.obj
 0001:00052d90       ?comparePos@@YAHPBX0@Z     66053d90 f   teleport.obj
 0001:00052db0       ?teleportToSafety@@YAHXZ   66053db0 f   teleport.obj
 0001:00053050       ?savePrevMonsters@@YAXXZ   66054050 f   teleport.obj
 0001:00053120       ?findSafestPosition@@YAHXZ 66054120 f   teleport.obj
 0001:000531a0       ?tpToBoss@@YAHXZ           660541a0 f   teleport.obj
 0001:00053340       ?autoTarget@@YAHXZ         66054340 f   teleport.obj
 0001:00053530       ?telekinesisTarget@@YAHPAUUnitAny@@@Z 66054530 f   teleport.obj
 0001:00053840       ?findTelekinesisPosition@@YAHXZ 66054840 f   teleport.obj
 0001:00053930       ?autoDuranceofHateLevel3@@YAHXZ 66054930 f   teleport.obj
 0001:00053bb0       ?dumpProp@@YAXPAU_iobuf@@PAUItemProp@@@Z 66054bb0 f   txt.obj
 0001:00053d30       ?dumpItemTxt@@YAXXZ        66054d30 f   txt.obj
 0001:00053ea0       ?dumpUniqueTxt@@YAXXZ      66054ea0 f   txt.obj
 0001:000540b0       ?dumpSetTxt@@YAXXZ         660550b0 f   txt.obj
 0001:00054770       ?setStash@@YAXHH@Z         66055770 f   panel.obj
 0001:000548d0       ?setCube@@YAXH@Z           660558d0 f   panel.obj
 0001:00054a50       ?setCharInv@@YAXHH@Z       66055a50 f   panel.obj
 0001:00054c70       ?loadInvChar8x10@@YAXXZ    66055c70 f   panel.obj
 0001:00054cd0       ?calDrawOffset@@YAXXZ      66055cd0 f   panel.obj
 0001:00054d60       ?getEquipmentSlotLayout@@YIXPAH0@Z 66055d60 f   panel.obj
 0001:00054e00       ?getEquipInvDrawOffset@@YAXPAH0PAX@Z 66055e00 f   panel.obj
 0001:00054f00       ?getInventoryGridLayout@@YIXPAH0@Z 66055f00 f   panel.obj
 0001:00054fb0       ?getInventoryPosition@@YIXPAH0@Z 66055fb0 f   panel.obj
 0001:00055060       ?addSkillPatch@@YIXH@Z     66056060 f   panel.obj
 0001:000550e0       ?recvCommand26@@YIXPAD@Z   660560e0 f   panel.obj
 0001:00055460       ?guessInvType@@YAHHH@Z     66056460 f   panel.obj
 0001:00055480       ?guessStashType@@YAHHH@Z   66056480 f   panel.obj
 0001:000554a0       ?guessCubeType@@YAHHH@Z    660564a0 f   panel.obj
 0001:00056480       ?SetSkillBaseLevelOnClient@@YAXPAXPAUUnitAny@@HHH@Z 66057480 f   server.obj
 0001:000569f0       ?resetQuest@@YAXPAUWorld@@PAUUnitAny@@H@Z 660579f0 f   server.obj
 0001:00056c50       ?gameStart@@YIXPAUNetClient@@@Z 66057c50 f   server.obj
 0001:00056ca0       ?createHackmapMsg@@YAXXZ   66057ca0 f   server.obj
 0001:00056df0       ?serverRecvTest@@YAXPAUWorld@@PAUUnitAny@@H@Z 66057df0 f   server.obj
 0001:00056eb0       ?necSummon@@YAPAUUnitAny@@PAUNecSummon@@@Z 66057eb0 f   server.obj
 0001:000573c0       ?clientChat@@YIXPAD@Z      660583c0 f   admin.obj
 0001:00057910       ?selectUnique@@YIHHH@Z     66058910 f   admin.obj
 0001:000579f0       ?selectSet@@YIHPAHH@Z      660589f0 f   admin.obj
 0001:00058d80       ?dropItem@@YAPAUUnitAny@@PAUWorld@@PAU1@HHHH@Z 66059d80 f   admin.obj
 0001:00058f20       ?getFreePos@@YAPAUAreaRectData@@PAU1@PAUtagPOINT@@1H@Z 66059f20 f   admin.obj
 0001:00058f40       ?dropRuneword@@YAPAUUnitAny@@PAUWorld@@PAU1@HHH@Z 66059f40 f   admin.obj
 0001:00059190       ?dropUnique@@YAPAUUnitAny@@PAUWorld@@PAU1@HHH@Z 6605a190 f   admin.obj
 0001:000592b0       ?dropSet@@YAPAUUnitAny@@PAUWorld@@PAU1@HHH@Z 6605a2b0 f   admin.obj
 0001:00059380       ?setItemStats@@YAXPAUUnitAny@@PAUd2stats@@@Z 6605a380 f   admin.obj
 0001:00059490       ?parseStats@@YAPADPADPAUd2stats@@@Z 6605a490 f   admin.obj
 0001:0005aca0       ?setStat@@YAHPAUd2stats@@HHH@Z 6605bca0 f   admin.obj
 0001:0005ad30       ?pickupItemTo@@YAXPAUWorld@@PAUUnitAny@@1H@Z 6605bd30 f   admin.obj
 0001:0005bced       _flsall                    6605cced f   LIBCMT:fflush.obj
 0001:0005c540       _swap                      6605d540 f   LIBCMT:qsort.obj
 0001:0005c570       _shortsort                 6605d570 f   LIBCMT:qsort.obj
 0001:0005cfdf       ?strtoxl@@YAKPAUlocaleinfo_struct@@PBDPAPBDHH@Z 6605dfdf f   LIBCMT:strtol.obj
 0001:0005e243       _IsRootUNCName             6605f243 f   LIBCMT:stati32.obj
 0001:0005e2bd       __fullpath_helper          6605f2bd f   LIBCMT:stati32.obj
 0001:0005f4d9       ?_strupr_s_l_stat@@YAHPADIPAUlocaleinfo_struct@@@Z 660604d9 f   LIBCMT:strupr.obj
 0001:0005f6f1       ?wcstoxl@@YAKPAUlocaleinfo_struct@@PB_WPAPB_WHH@Z 660606f1 f   LIBCMT:wcstol.obj
 0001:0005fcde       ___DllMainCRTStartup       66060cde f   LIBCMT:dllcrt0.obj
 0001:0005fdf7       ?CPtoLCID@@YAHH@Z          66060df7 f   LIBCMT:mbctype.obj
 0001:0005fe26       ?setSBCS@@YAXPAUthreadmbcinfostruct@@@Z 66060e26 f   LIBCMT:mbctype.obj
 0001:0005fe8a       ?setSBUpLow@@YAXPAUthreadmbcinfostruct@@@Z 66060e8a f   LIBCMT:mbctype.obj
 0001:000600c1       ?getSystemCP@@YAHH@Z       660610c1 f   LIBCMT:mbctype.obj
 0001:0006074b       __updatetlocinfoEx_nolock  6606174b f   LIBCMT:setlocal.obj
 0001:00061d2d       _write_char                66062d2d f   LIBCMT:output.obj
 0001:00061d60       _write_multi_char          66062d60 f   LIBCMT:output.obj
 0001:00061d86       _write_string              66062d86 f   LIBCMT:output.obj
 0001:00062e77       _fastzero_I                66063e77 f   LIBCMT:p4_memset.obj
 0001:00062f5d       _has_osfxsr_set            66063f5d f   LIBCMT:cpu_disp.obj
 0001:00063dea       _fastcopy_I                66064dea f   LIBCMT:p4_memcpy.obj
 0001:0006400c       ?__crtLCMapStringA_stat@@YAHPAUlocaleinfo_struct@@KKPBDHPADHHH@Z 6606500c f   LIBCMT:a_map.obj
 0001:000646d7       __initterm                 660656d7 f   LIBCMT:crt0dat.obj
 0001:0006479d       _doexit                    6606579d f   LIBCMT:crt0dat.obj
 0001:00064aa9       __shift                    66065aa9 f   LIBCMT:cvt.obj
 0001:00064aee       __cftoe2_l                 66065aee f   LIBCMT:cvt.obj
 0001:000650c0       __cftof2_l                 660660c0 f   LIBCMT:cvt.obj
 0001:0006555c       __unwind_handler4          6606655c f   LIBCMT:exsup4.obj
 0001:000663f8       __onexit_nolock            660673f8 f   LIBCMT:onexit.obj
 0001:00067c5a       _parse_cmdline             66068c5a f   LIBCMT:stdargv.obj
 0001:00068248       ?__crtGetStringTypeA_stat@@YAHPAUlocaleinfo_struct@@KPBDHPAGHHH@Z 66069248 f   LIBCMT:a_str.obj
 0001:0006989c       _siglookup                 6606a89c f   LIBCMT:winsig.obj
 0001:00069fa4       __unwind_handler           6606afa4 f   LIBCMT:exsup.obj
 0001:0006a8be       __tzset_nolock             6606b8be f   LIBCMT:tzset.obj
 0001:0006ac04       _cvtdate                   6606bc04 f   LIBCMT:tzset.obj
 0001:0006adfb       __isindst_nolock           6606bdfb f   LIBCMT:tzset.obj
 0001:0006b164       __tsopen_nolock            6606c164 f   LIBCMT:open.obj
 0001:0006beb5       ?x_ismbbtype_l@@YAHPAUlocaleinfo_struct@@IHH@Z 6606ceb5 f   LIBCMT:ismbbyte.obj
 0001:0006dc8d       __hw_cw                    6606ec8d f   LIBCMT:_ieee87_.obj
 0001:0006dd1b       ___hw_cw_sse2              6606ed1b f   LIBCMT:_ieee87_.obj
 0001:0006eee3       ?strncnt@@YAHPBDH@Z        6606fee3 f   LIBCMT:a_cmp.obj
 0001:0006ef01       ?__crtCompareStringA_stat@@YAHPAUlocaleinfo_struct@@KKPBDH1HH@Z 6606ff01 f   LIBCMT:a_cmp.obj
 0001:0006f3ad       _findenv                   660703ad f   LIBCMT:setenv.obj
 0001:0006f3ff       _copy_environ              660703ff f   LIBCMT:setenv.obj
 0001:0006f784       ??__Fnomem@?5???2@YAPAXI@Z@YAXXZ 66070784 f   LIBCMT:new.obj
